;;; Segment .text (00401000)

l006E100E:
	mov	eax,[ebp+4h]
	cmp	eax,0A1EB98h
	jz	6E102Ch

l006E1018:
	mov	ecx,[0A169F0h]
	push	ecx
	push	eax
	call	6D5670h
	add	esp,8h
	test	eax,eax
	jz	6E103Dh

l006E102C:
	mov	eax,[ebp+4h]
	cmp	eax,0A1EB98h
	jnz	6E103Bh

l006E1036:
	mov	ebp,[ebp+8h]
	jmp	6E103Dh

l006E103B:
	mov	ebp,eax

l006E103D:
	mov	eax,[ebp+4h]
	cmp	eax,0A1E968h
	jz	6E1074h

l006E1047:
	cmp	eax,0A15380h
	jz	6E1060h

l006E104E:
	push	0A15380h
	push	eax
	call	6D5670h
	add	esp,8h
	test	eax,eax
	jz	6E10AAh

l006E1060:
	mov	edx,[0A169F0h]
	push	edx
	push	ebp
	call	6D5670h
	add	esp,8h
	test	eax,eax
	jz	6E10AAh

l006E1074:
	mov	eax,[edi+4h]
	cmp	eax,0A1E968h
	jz	6E10B4h

l006E107E:
	cmp	eax,0A15380h
	jz	6E1097h

l006E1085:
	push	0A15380h
	push	eax
	call	6D5670h
	add	esp,8h
	test	eax,eax
	jz	6E10AAh

l006E1097:
	mov	eax,[0A169F0h]
	push	eax
	push	edi
	call	6D5670h
	add	esp,8h
	test	eax,eax
	jnz	6E10B4h

l006E10AA:
	xor	eax,eax
	cmp	ebp,edi
	pop	edi
	setz	al
	pop	ebp
	ret

l006E10B4:
	push	edi
	push	ebp
	call	704020h
	add	esp,8h
	pop	edi
	pop	ebp
	ret

l006E10C1:
	push	ebx
	push	esi
	push	edi
	call	6DFE20h
	mov	ebx,eax
	add	esp,4h
	xor	esi,esi
	test	ebx,ebx
	jle	6E10F1h

l006E10D4:
	add	edi,0Ch

l006E10D7:
	mov	ecx,[edi]
	push	ecx
	push	ebp
	call	6E0FD0h
	add	esp,8h
	test	eax,eax
	jnz	6E10F8h

l006E10E7:
	add	esi,1h
	add	edi,4h
	cmp	esi,ebx
	jl	6E10D7h

l006E10F1:
	pop	esi
	pop	ebx
	pop	edi
	xor	eax,eax
	pop	ebp
	ret

l006E10F8:
	pop	esi
	pop	ebx
	pop	edi
	mov	eax,1h
	pop	ebp
	ret

l006E1102:
	pop	edi
	xor	eax,eax
	pop	ebp
	ret
006E1107                      CC CC CC CC CC CC CC CC CC        .........

;; fn006E1110: 006E1110
;;   Called from:
;;     006E876A (in fn006E8730)
;;     006E8D99 (in fn006E8D90)
;;     006E8E76 (in fn006E8D90)
;;     006F3737 (in fn006F3930)
;;     006F3749 (in fn006F3930)
;;     006F37F8 (in fn006F3930)
;;     006F6B6F (in fn006F6AF0)
;;     006F6BA3 (in fn006F6AF0)
;;     006F84FF (in fn006F8440)
;;     006F8A47 (in fn006F8960)
;;     006F8E03 (in fn006F8C70)
;;     00703B9C (in fn00703B60)
;;     00704066 (in fn00704040)
;;     00704128 (in fn007040D0)
;;     0070413A (in fn007040D0)
;;     00704C36 (in fn00704BA0)
;;     00704C49 (in fn00704BA0)
;;     00704DF1 (in fn00704DA0)
;;     00704F1C (in fn00704E40)
;;     00707C83 (in fn00707BD0)
;;     007081D8 (in fn007081C0)
;;     00708240 (in fn00708210)
;;     0070826C (in fn00708210)
;;     007083A6 (in fn00708210)
;;     00708D16 (in fn00708C10)
;;     0070A4F7 (in fn00708DC0)
;;     0070AAF5 (in fn00708DC0)
;;     007200F7 (in fn00720070)
;;     0073B87E (in fn0073B870)
;;     00747FF2 (in fn00747FD0)
;;     0074EA64 (in fn0074E980)
fn006E1110 proc
	mov	eax,[0A6D67Ch]
	mov	ecx,[esp+4h]
	mov	eax,[eax+28h]
	push	ecx
	push	eax
	call	6E0FD0h
	add	esp,8h
	ret
006E1127                      CC CC CC CC CC CC CC CC CC        .........

;; fn006E1130: 006E1130
;;   Called from:
;;     00657224 (in fn00657140)
;;     006DE010 (in fn006DDFE0)
;;     006E7CFA (in fn006E7CE0)
;;     006E854B (in fn006E8430)
;;     006E8C66 (in fn006E8D90)
;;     006E8DB9 (in fn006E8D90)
;;     006E8E96 (in fn006E8D90)
;;     006FBD2E (in fn006FBCC0)
;;     00704159 (in fn007040D0)
;;     007085A2 (in fn00708590)
;;     007086C3 (in fn007086B0)
;;     00708D35 (in fn00708C10)
;;     0070B166 (in fn00708DC0)
;;     00716A39 (in fn00716A00)
;;     0073B438 (in fn0073B3D0)
;;     0073B537 (in fn0073B4E0)
;;     0073B89E (in fn0073B870)
fn006E1130 proc
	mov	eax,[0A6D67Ch]
	mov	ecx,[eax+28h]
	mov	edx,[esp+4h]
	mov	[edx],ecx
	mov	ecx,[eax+2Ch]
	mov	edx,[esp+8h]
	mov	[edx],ecx
	mov	ecx,[eax+30h]
	mov	edx,[esp+0Ch]
	mov	[edx],ecx
	xor	ecx,ecx
	mov	[eax+28h],ecx
	mov	[eax+2Ch],ecx
	mov	[eax+30h],ecx
	ret
006E115C                                     CC CC CC CC             ....

;; fn006E1160: 006E1160
;;   Called from:
;;     0042E0B7 (in fn0042DF20)
;;     006571BB (in fn00657140)
;;     00657275 (in fn00657140)
;;     006DC1C8 (in fn006DC1B0)
;;     006DE41D (in fn006DE3F0)
;;     006DF7ED (in fn006DF7C0)
;;     006DF895 (in fn006DF870)
;;     006E191B (in fn006E1780)
;;     006E1E3C (in fn006E1DE0)
;;     006E1E5A (in fn006E1DE0)
;;     006E1E8B (in fn006E1DE0)
;;     006E1EA9 (in fn006E1DE0)
;;     006E1EE6 (in fn006E1DE0)
;;     006E1F17 (in fn006E1DE0)
;;     006E1F6C (in fn006E1DE0)
;;     006E1F84 (in fn006E1DE0)
;;     006E1FBA (in fn006E1DE0)
;;     006E588A (in fn006E5710)
;;     006E80D7 (in fn006E8060)
;;     006E80F4 (in fn006E8060)
;;     006E8163 (in fn006E8060)
;;     006E87A8 (in fn006E8730)
;;     006E8C77 (in fn006E8D90)
;;     006E8D7B (in fn006E8D90)
;;     006E8EEA (in fn006E8D90)
;;     006EC8ED (in fn006EC890)
;;     006EC93B (in fn006EC890)
;;     006F3771 (in fn006F3930)
;;     006F3808 (in fn006F3930)
;;     006F6519 (in fn006F6490)
;;     006F6537 (in fn006F6490)
;;     006F6B7B (in fn006F6AF0)
;;     006F6BAF (in fn006F6AF0)
;;     006F8524 (in fn006F8440)
;;     006F8A53 (in fn006F8960)
;;     006F8D1D (in fn006F8C70)
;;     006F8E0F (in fn006F8C70)
;;     006F91A5 (in fn006F9120)
;;     006FBD72 (in fn006FBCC0)
;;     006FE475 (in fn006FE400)
;;     006FE704 (in fn006FE400)
;;     00702C79 (in fn00702C30)
;;     00703BA8 (in fn00703B60)
;;     00703DC0 (in fn00703D00)
;;     00703E8F (in fn00703D00)
;;     00704072 (in fn00704040)
;;     00704C6D (in fn00704BA0)
;;     00704F28 (in fn00704E40)
;;     0070824C (in fn00708210)
;;     007083B7 (in fn00708210)
;;     00708514 (in fn00708410)
;;     00708C87 (in fn00708C10)
;;     0070A507 (in fn00708DC0)
;;     0070AB05 (in fn00708DC0)
;;     00716A9C (in fn00716A00)
;;     00716ACA (in fn00716A00)
;;     0072663B (in fn00726570)
;;     00726653 (in fn00726570)
;;     007267D4 (in fn00726760)
;;     0072F9E9 (in fn0072F830)
;;     00731A69 (in fn00731A20)
;;     00731ABB (in fn00731A20)
;;     00731AD9 (in fn00731A20)
;;     0073B2F6 (in fn0073B2B0)
;;     0073B339 (in fn0073B310)
;;     0073B365 (in fn0073B310)
;;     0073B3F6 (in fn0073B3D0)
;;     0074EA70 (in fn0074E980)
;;     0074FABA (in fn0074F9E0)
;;     00753B58 (in fn00753A60)
;;     00755013 (in fn00754FD0)
fn006E1160 proc
	mov	eax,[0A6D67Ch]
	mov	ecx,[eax+28h]
	test	ecx,ecx
	push	esi
	mov	esi,[eax+2Ch]
	push	edi
	mov	edi,[eax+30h]
	mov	dword ptr [eax+28h],0h
	mov	dword ptr [eax+2Ch],0h
	mov	dword ptr [eax+30h],0h
	jz	6E119Ah

l006E1189:
	add	dword ptr [ecx],0FFh
	jnz	6E119Ah

l006E118E:
	mov	eax,[ecx+4h]
	push	ecx
	mov	ecx,[eax+18h]
	call	ecx
	add	esp,4h

l006E119A:
	test	esi,esi
	jz	6E11AFh

l006E119E:
	add	dword ptr [esi],0FFh
	jnz	6E11AFh

l006E11A3:
	mov	edx,[esi+4h]
	mov	eax,[edx+18h]
	push	esi
	call	eax
	add	esp,4h

l006E11AF:
	test	edi,edi
	jz	6E11C4h

l006E11B3:
	add	dword ptr [edi],0FFh
	jnz	6E11C4h

l006E11B8:
	mov	ecx,[edi+4h]
	mov	edx,[ecx+18h]
	push	edi
	call	edx
	add	esp,4h

l006E11C4:
	pop	edi
	pop	esi
	ret
006E11C7                      CC CC CC CC CC CC CC CC CC        .........

;; fn006E11D0: 006E11D0
;;   Called from:
;;     006FF410 (in fn006FF3E0)
;;     007172A1 (in fn00717280)
;;     00718B71 (in fn00718B50)
;;     0071A571 (in fn0071A550)
;;     0071A7F1 (in fn0071A7D0)
;;     0071AB01 (in fn0071AAE0)
;;     0071FB44 (in fn0071FB20)
;;     0074EB1F (in fn0074EB10)
fn006E11D0 proc
	push	esi
	push	edi
	mov	edi,[0A16B7Ch]
	push	8D1F60h
	call	6ECAC0h
	mov	esi,eax
	push	esi
	push	edi
	call	6E0E90h
	add	esp,0Ch
	test	esi,esi
	jz	6E1203h

l006E11F2:
	add	dword ptr [esi],0FFh
	jnz	6E1203h

l006E11F7:
	mov	eax,[esi+4h]
	mov	ecx,[eax+18h]
	push	esi
	call	ecx
	add	esp,4h

l006E1203:
	pop	edi
	xor	eax,eax
	pop	esi
	ret
006E1208                         CC CC CC CC CC CC CC CC         ........

;; fn006E1210: 006E1210
;;   Called from:
;;     006DDD38 (in fn006DDD30)
;;     006DDD58 (in fn006DDD50)
;;     006DDD96 (in fn006DDD80)
;;     006DFE13 (in fn006DFD20)
;;     006E84E8 (in fn006E8430)
;;     006EAAAC (in fn006EA9D0)
;;     006EC544 (in fn006EC4F0)
;;     006EC9FF (in fn006EC9B0)
;;     006ECB44 (in fn006ECAC0)
;;     006F1B89 (in fn006F1AA0)
;;     006F20D2 (in fn006F2090)
;;     006F25F9 (in fn006F2590)
;;     006F267E (in fn006F2650)
;;     006F26F6 (in fn006F2650)
;;     006F335D (in fn006F31C0)
;;     006FBBB0 (in fn006FBB90)
;;     006FBC6E (in fn006FBB90)
;;     006FEEC8 (in fn006FEEB0)
;;     006FEFC1 (in fn006FEF90)
;;     006FF022 (in fn006FF010)
;;     00704D27 (in fn00704BA0)
;;     00705062 (in fn00705050)
;;     007105CB (in fn007105C0)
;;     007106C0 (in fn00710690)
;;     00710750 (in fn00710730)
;;     00710D6C (in fn00710CB0)
;;     00710D73 (in fn00710CB0)
;;     0071137C (in fn00711330)
;;     0071142F (in fn00711400)
;;     00711FF0 (in fn00711F50)
;;     007124AA (in fn007120F0)
;;     007176D6 (in fn00717680)
;;     007177FA (in fn00717740)
;;     007189F6 (in fn007189B0)
;;     00726866 (in fn00726840)
;;     00727352 (in fn00727340)
;;     00727392 (in fn00727380)
;;     007273E2 (in fn007273D0)
;;     0072743D (in fn00727420)
;;     007279FA (in fn007279E0)
;;     00727A3A (in fn007279E0)
;;     00727D7B (in fn00727D50)
;;     0072869D (in fn00728650)
;;     00728762 (in fn007286D0)
;;     00728E5D (in fn00728E40)
;;     00729317 (in fn00729300)
;;     00729354 (in fn00729300)
;;     0072982E (in fn00729810)
;;     0072986F (in fn00729810)
;;     007298B0 (in fn00729810)
;;     007298F5 (in fn00729810)
;;     00729F6E (in fn00729F50)
;;     00729FB3 (in fn00729F50)
;;     00729FF4 (in fn00729F50)
;;     0072A035 (in fn00729F50)
;;     0072A076 (in fn00729F50)
;;     0072CCAF (in fn0072CC90)
;;     0072CCF0 (in fn0072CC90)
;;     0072CEF6 (in fn0072CEE0)
;;     0072CF3B (in fn0072CEE0)
;;     0072CF80 (in fn0072CEE0)
;;     0072D19F (in fn0072D130)
;;     0072D1E0 (in fn0072D130)
;;     0072D3E7 (in fn0072D3D0)
;;     0072D424 (in fn0072D3D0)
;;     0072D469 (in fn0072D3D0)
;;     0072D4AE (in fn0072D3D0)
;;     0072DDC6 (in fn0072DD60)
;;     0072DE0B (in fn0072DD60)
;;     007331DE (in fn007331D0)
;;     00736CF3 (in fn007367D0)
;;     00737F90 (in fn00737F70)
;;     00738057 (in fn00737F70)
;;     00740CD7 (in fn00740CC0)
;;     00740D23 (in fn00740CC0)
;;     00740D4C (in fn00740CC0)
;;     00740DD6 (in fn00740DC0)
;;     00742E83 (in fn00742E70)
;;     00742EB3 (in fn00742EA0)
;;     00742F03 (in fn00742ED0)
;;     00742F75 (in fn00742F20)
;;     00742FE3 (in fn00742FB0)
;;     00743033 (in fn00743020)
;;     00743073 (in fn00743060)
;;     007430D3 (in fn007430A0)
;;     00743178 (in fn00743100)
;;     007431C3 (in fn007431B0)
;;     00743255 (in fn00743200)
;;     007432C3 (in fn00743290)
;;     00743333 (in fn00743300)
;;     007433A3 (in fn00743370)
;;     007433F3 (in fn007433E0)
;;     00743443 (in fn00743430)
;;     00743493 (in fn00743480)
;;     007434F3 (in fn007434C0)
;;     00743533 (in fn00743520)
;;     00743593 (in fn00743560)
;;     00743603 (in fn007435D0)
;;     00743653 (in fn00743640)
;;     007436B3 (in fn00743680)
;;     007436F3 (in fn007436E0)
;;     00743723 (in fn00743710)
;;     00743753 (in fn00743740)
;;     007437A3 (in fn00743770)
;;     00743848 (in fn007437D0)
;;     007438D5 (in fn00743880)
;;     00743955 (in fn00743900)
;;     007439F8 (in fn00743980)
;;     00743A43 (in fn00743A30)
;;     00743AA3 (in fn00743A70)
;;     00743B03 (in fn00743AD0)
;;     00743B43 (in fn00743B30)
;;     00743BA3 (in fn00743B70)
;;     00743C13 (in fn00743BE0)
;;     00743C93 (in fn00743C60)
;;     00743CF3 (in fn00743CC0)
;;     00743D53 (in fn00743D20)
;;     00743DF8 (in fn00743D80)
;;     00743EA8 (in fn00743E30)
;;     00743F35 (in fn00743EE0)
;;     00743F93 (in fn00743F60)
;;     00743FF3 (in fn00743FC0)
;;     00744033 (in fn00744020)
;;     00744063 (in fn00744050)
;;     007440A3 (in fn00744090)
;;     007440F3 (in fn007440C0)
;;     00744165 (in fn00744110)
;;     00744193 (in fn00744180)
;;     007441D3 (in fn007441C0)
;;     00744255 (in fn00744200)
;;     007442A3 (in fn00744270)
;;     00752DD1 (in fn00752DC0)
;;     00752E5C (in fn00752E30)
;;     00752E80 (in fn00752E30)
fn006E1210 proc
	mov	eax,[0A6D67Ch]
	mov	ecx,[0A188A8h]
	mov	eax,[eax+28h]
	push	ecx
	push	eax
	call	6E0FD0h
	add	esp,8h
	test	eax,eax
	jnz	6E1256h

l006E122C:
	mov	eax,[0A6C578h]
	test	eax,eax
	jz	6E1248h

l006E1235:
	mov	edx,[0A188A8h]
	push	eax
	push	edx
	call	6E0E90h
	add	esp,8h
	xor	eax,eax
	ret

l006E1248:
	mov	eax,[0A188A8h]
	push	eax
	call	6E0F10h
	add	esp,4h

l006E1256:
	xor	eax,eax
	ret
006E1259                            CC CC CC CC CC CC CC          .......

;; fn006E1260: 006E1260
;;   Called from:
;;     006E13F7 (in fn006E13F0)
fn006E1260 proc
	sub	esp,24h
	mov	eax,[0A14188h]
	xor	eax,esp
	mov	[esp+20h],eax
	push	ebx
	push	ebp
	mov	ebp,[esp+34h]
	push	esi
	push	edi
	call	dword ptr [8A46E4h]
	mov	esi,[eax]
	xor	ebx,ebx
	cmp	esi,4h
	mov	[esp+10h],ebx
	jnz	6E12A7h

l006E1289:
	call	72EC10h
	test	eax,eax
	jz	6E12B4h

l006E1292:
	pop	edi
	pop	esi
	pop	ebp
	xor	eax,eax
	pop	ebx
	mov	ecx,[esp+20h]
	xor	ecx,esp
	call	694B8Eh
	add	esp,24h
	ret

l006E12A7:
	cmp	esi,ebx
	jnz	6E12B2h

l006E12AB:
	mov	edi,8D1FA8h
	jmp	6E1329h

l006E12B2:
	jle	6E12C9h

l006E12B4:
	call	dword ptr [8A46E0h]
	cmp	esi,[eax]
	jge	6E12C9h

l006E12BE:
	call	dword ptr [8A46DCh]
	mov	edi,[eax+esi*4]
	jmp	6E1329h

l006E12C9:
	push	ebx
	push	ebx
	lea	eax,[esp+18h]
	push	eax
	push	400h
	push	esi
	push	ebx
	push	1300h
	call	dword ptr [8A4110h]
	cmp	eax,ebx
	jnz	6E1304h

l006E12E6:
	push	esi
	lea	ecx,[esp+18h]
	push	8D1F94h
	push	ecx
	call	dword ptr [8A4650h]
	add	esp,0Ch
	lea	edi,[esp+14h]
	mov	[esp+10h],ebx
	jmp	6E1329h

l006E1304:
	cmp	eax,ebx
	mov	ecx,[esp+10h]
	mov	edi,ecx
	jle	6E1329h

l006E130E:
	lea	edx,[ecx-1h]

l006E1311:
	mov	cl,[edx+eax]
	cmp	cl,20h
	jle	6E131Eh

l006E1319:
	cmp	cl,2Eh
	jnz	6E1329h

l006E131E:
	sub	eax,1h
	cmp	eax,ebx
	mov	[edx+eax+1h],bl
	jg	6E1311h

l006E1329:
	cmp	ebp,ebx
	jz	6E133Fh

l006E132D:
	push	ebp
	push	edi
	push	esi
	push	8B03D0h
	call	6EA200h
	add	esp,10h
	jmp	6E134Eh

l006E133F:
	push	edi
	push	esi
	push	8D1F8Ch
	call	6EA200h
	add	esp,0Ch

l006E134E:
	mov	esi,eax
	cmp	esi,ebx
	jz	6E1373h

l006E1354:
	mov	edx,[esp+38h]
	push	esi
	push	edx
	call	6E0E90h
	add	esp,8h
	add	dword ptr [esi],0FFh
	jnz	6E1373h

l006E1367:
	mov	eax,[esi+4h]
	mov	ecx,[eax+18h]
	push	esi
	call	ecx
	add	esp,4h

l006E1373:
	mov	edx,[esp+10h]
	push	edx
	call	dword ptr [8A410Ch]
	mov	ecx,[esp+30h]
	pop	edi
	pop	esi
	pop	ebp
	pop	ebx
	xor	ecx,esp
	xor	eax,eax
	call	694B8Eh
	add	esp,24h
	ret
006E1393          CC CC CC CC CC CC CC CC CC CC CC CC CC    .............
006E13A0 8B 44 24 08 85 C0 56 57 74 0D 50 E8 10 B7 00 00 .D$...VWt.P.....
006E13B0 83 C4 04 8B F0 EB 02 33 F6 8B 44 24 0C 56 50 E8 .......3..D$.VP.
006E13C0 9C FE FF FF 83 C4 08 85 F6 8B F8 74 11 83 06 FF ...........t....
006E13D0 75 0C 8B 4E 04 8B 51 18 56 FF D2 83 C4 04 8B C7 u..N..Q.V.......
006E13E0 5F 5E C3 CC CC CC CC CC CC CC CC CC CC CC CC CC _^..............

;; fn006E13F0: 006E13F0
;;   Called from:
;;     006DEFA6 (in fn006DEEA0)
fn006E13F0 proc
	mov	eax,[esp+4h]
	push	0h
	push	eax
	call	6E1260h
	add	esp,8h
	ret

;; fn006E1400: 006E1400
;;   Called from:
;;     006E1546 (in fn006E1520)
fn006E1400 proc
	sub	esp,24h
	mov	eax,[0A14188h]
	xor	eax,esp
	mov	[esp+20h],eax
	mov	eax,[esp+2Ch]
	push	ebx
	push	ebp
	mov	ebp,[esp+38h]
	xor	ebx,ebx
	cmp	eax,ebx
	push	esi
	push	edi
	mov	[esp+10h],ebx
	mov	esi,eax
	jnz	6E142Eh

l006E1426:
	call	dword ptr [8A4114h]
	mov	esi,eax

l006E142E:
	push	ebx
	push	ebx
	lea	eax,[esp+18h]
	push	eax
	push	400h
	push	esi
	push	ebx
	push	1300h
	call	dword ptr [8A4110h]
	cmp	eax,ebx
	jnz	6E1469h

l006E144B:
	push	esi
	lea	ecx,[esp+18h]
	push	8D1F94h
	push	ecx
	call	dword ptr [8A4650h]
	add	esp,0Ch
	lea	edi,[esp+14h]
	mov	[esp+10h],ebx
	jmp	6E148Eh

l006E1469:
	cmp	eax,ebx
	mov	ecx,[esp+10h]
	mov	edi,ecx
	jle	6E148Eh

l006E1473:
	lea	edx,[ecx-1h]

l006E1476:
	mov	cl,[edx+eax]
	cmp	cl,20h
	jle	6E1483h

l006E147E:
	cmp	cl,2Eh
	jnz	6E148Eh

l006E1483:
	sub	eax,1h
	cmp	eax,ebx
	mov	[edx+eax+1h],bl
	jg	6E1476h

l006E148E:
	cmp	ebp,ebx
	jz	6E14A4h

l006E1492:
	push	ebp
	push	edi
	push	esi
	push	8B03D0h
	call	6EA200h
	add	esp,10h
	jmp	6E14B3h

l006E14A4:
	push	edi
	push	esi
	push	8D1F8Ch
	call	6EA200h
	add	esp,0Ch

l006E14B3:
	mov	esi,eax
	cmp	esi,ebx
	jz	6E14D8h

l006E14B9:
	mov	edx,[esp+38h]
	push	esi
	push	edx
	call	6E0E90h
	add	esp,8h
	add	dword ptr [esi],0FFh
	jnz	6E14D8h

l006E14CC:
	mov	eax,[esi+4h]
	mov	ecx,[eax+18h]
	push	esi
	call	ecx
	add	esp,4h

l006E14D8:
	mov	edx,[esp+10h]
	push	edx
	call	dword ptr [8A410Ch]
	mov	ecx,[esp+30h]
	pop	edi
	pop	esi
	pop	ebp
	pop	ebx
	xor	ecx,esp
	xor	eax,eax
	call	694B8Eh
	add	esp,24h
	ret
006E14F8                         CC CC CC CC CC CC CC CC         ........
006E1500 8B 44 24 04 8B 0D 58 74 A1 00 6A 00 50 51 E8 ED .D$...Xt..j.PQ..
006E1510 FE FF FF 83 C4 0C C3 CC CC CC CC CC CC CC CC CC ................

;; fn006E1520: 006E1520
;;   Called from:
;;     0071A8C3 (in fn0071A870)
;;     0071AA1B (in fn0071A9F0)
fn006E1520 proc
	mov	eax,[esp+8h]
	test	eax,eax
	push	esi
	push	edi
	jz	6E1537h

l006E152A:
	push	eax
	call	6ECAC0h
	add	esp,4h
	mov	esi,eax
	jmp	6E1539h

l006E1537:
	xor	esi,esi

l006E1539:
	mov	eax,[esp+0Ch]
	mov	ecx,[0A17458h]
	push	esi
	push	eax
	push	ecx
	call	6E1400h
	add	esp,0Ch
	test	esi,esi
	mov	edi,eax
	jz	6E1565h

l006E1554:
	add	dword ptr [esi],0FFh
	jnz	6E1565h

l006E1559:
	mov	edx,[esi+4h]
	mov	eax,[edx+18h]
	push	esi
	call	eax
	add	esp,4h

l006E1565:
	mov	eax,edi
	pop	edi
	pop	esi
	ret
006E156A                               CC CC CC CC CC CC           ......
006E1570 8B 54 24 08 85 D2 56 57 74 23 8B C2 8D 70 02 90 .T$...VWt#...p..
006E1580 66 8B 08 83 C0 02 66 85 C9 75 F5 2B C6 D1 F8 50 f.....f..u.+...P
006E1590 52 E8 8A 64 03 00 83 C4 08 8B F0 EB 02 33 F6 8B R..d.........3..
006E15A0 44 24 0C 8B 0D 58 74 A1 00 56 50 51 E8 4F FE FF D$...Xt..VPQ.O..
006E15B0 FF 83 C4 0C 85 F6 8B F8 74 11 83 06 FF 75 0C 8B ........t....u..
006E15C0 56 04 8B 42 18 56 FF D0 83 C4 04 8B C7 5F 5E C3 V..B.V......._^.

;; fn006E15D0: 006E15D0
;;   Called from:
;;     006571A9 (in fn00657140)
;;     006571D1 (in fn00657140)
;;     006DDE8A (in fn006DDDB0)
;;     006DDF44 (in fn006DDEB0)
;;     006DE316 (in fn006DE2E0)
;;     006DE389 (in fn006DE330)
;;     006DE3D5 (in fn006DE330)
;;     006DE494 (in fn006DE430)
;;     006DE56D (in fn006DE430)
;;     006DE5A0 (in fn006DE430)
;;     006E1DD6 (in fn006E1DC0)
;;     006E5B3B (in fn006E5AD0)
;;     006E5B61 (in fn006E5AD0)
;;     006E5B9A (in fn006E5AD0)
;;     006E5BC3 (in fn006E5AD0)
;;     006E5C4A (in fn006E5C00)
;;     006E79C9 (in fn006E7660)
;;     006EA025 (in fn006E9FA0)
;;     006EA490 (in fn006EA420)
;;     006EAA1F (in fn006EA9D0)
;;     006F2350 (in fn006F2090)
;;     006F638C (in fn006F62D0)
;;     006F6599 (in fn006F6490)
;;     006F670A (in fn006F66E0)
;;     006F6753 (in fn006F6730)
;;     006F6947 (in fn006F68F0)
;;     006F6D76 (in fn006F6D50)
;;     006F6DEA (in fn006F6D50)
;;     006F7083 (in fn006F6EA0)
;;     006F7B49 (in fn006F7890)
;;     006F7F7E (in fn006F7890)
;;     006F80BC (in fn006F8050)
;;     006F82E1 (in fn006F82C0)
;;     006F837A (in fn006F82C0)
;;     006F83B7 (in fn006F82C0)
;;     006F840B (in fn006F82C0)
;;     006F8C54 (in fn006F8AD0)
;;     006F95E3 (in fn006F9540)
;;     006F9633 (in fn006F9540)
;;     006F9668 (in fn006F9540)
;;     00701813 (in fn00701800)
;;     00702087 (in fn00701D30)
;;     007020BA (in fn00701D30)
;;     0070211D (in fn007020D0)
;;     0070217D (in fn00702130)
;;     007021DD (in fn00702190)
;;     0070223D (in fn007021F0)
;;     0070229D (in fn00702250)
;;     007022FD (in fn007022B0)
;;     0070235D (in fn00702310)
;;     0070243A (in fn007023D0)
;;     007024A0 (in fn00702450)
;;     00702500 (in fn007024B0)
;;     0070255D (in fn00702510)
;;     0070265F (in fn007025E0)
;;     00702883 (in fn007027D0)
;;     0070295E (in fn00702910)
;;     007029BE (in fn00702970)
;;     00702A1E (in fn007029D0)
;;     00702BE4 (in fn00702AF0)
;;     00702C12 (in fn00702AF0)
;;     00702CAD (in fn00702C30)
;;     0070316E (in fn00703120)
;;     007031F8 (in fn00703180)
;;     007032E7 (in fn00703210)
;;     00703380 (in fn00703300)
;;     0070340C (in fn00703390)
;;     00703503 (in fn00703420)
;;     007035B2 (in fn00703520)
;;     007036DE (in fn00703690)
;;     00703766 (in fn00703710)
;;     00703941 (in fn007038E0)
;;     007042CD (in fn00704220)
;;     007043C2 (in fn00704300)
;;     007044B2 (in fn00704400)
;;     0070454E (in fn007044F0)
;;     007045F3 (in fn00704560)
;;     007046F1 (in fn00704610)
;;     00704B40 (in fn00704B00)
;;     00704B77 (in fn00704B00)
;;     00704E7D (in fn00704E40)
;;     00706E10 (in fn00706DC0)
;;     007071D1 (in fn00707020)
;;     00707370 (in fn007072E0)
;;     0070782A (in fn00707810)
;;     00707839 (in fn00707810)
;;     00707A1F (in fn00707950)
;;     00707C32 (in fn00707BD0)
;;     00707CB7 (in fn00707BD0)
;;     007081F7 (in fn007081C0)
;;     007083FC (in fn007083E0)
;;     0070A336 (in fn00708DC0)
;;     0070A3A3 (in fn00708DC0)
;;     0070A4A4 (in fn00708DC0)
;;     0070B6AB (in fn0070B600)
;;     0070B766 (in fn0070B600)
;;     0070B99D (in fn0070B600)
;;     0070B9CD (in fn0070B600)
;;     0070B9EF (in fn0070B600)
;;     0070BA54 (in fn0070B600)
;;     00712563 (in fn007120F0)
;;     00717DBD (in fn00717CB0)
;;     00717ECF (in fn00717CB0)
;;     00719FB0 (in fn00719F20)
;;     0071A03D (in fn00719F20)
;;     0071FC29 (in fn0071FB20)
;;     0071FFD1 (in fn0071FEB0)
;;     00720116 (in fn00720070)
;;     00725255 (in fn007251F0)
;;     007266D8 (in fn00726570)
;;     0072679A (in fn00726760)
;;     00727D0D (in fn00727C90)
;;     00728472 (in fn00728420)
;;     0072B865 (in fn0072B830)
;;     0072BEEF (in fn0072BDC0)
;;     0072E768 (in fn0072E660)
;;     0073BD9F (in fn0073BBE0)
;;     0073BE8E (in fn0073BE10)
;;     0073C023 (in fn0073BF20)
;;     0073C03E (in fn0073BF20)
;;     0073C8B9 (in fn0073C870)
;;     0073CDE5 (in fn0073CAE0)
;;     0073E33A (in fn0073E050)
;;     0073E674 (in fn0073E590)
;;     0073EA18 (in fn0073E7A0)
;;     0073F13B (in fn0073EF40)
;;     0073F186 (in fn0073F160)
;;     0073F2AD (in fn0073F220)
;;     0073F597 (in fn0073F2C0)
;;     0073F67A (in fn0073F5B0)
;;     0073F79B (in fn0073F690)
;;     0073FF2A (in fn0073FC30)
;;     00740324 (in fn00740160)
;;     00747634 (in fn00747610)
;;     007481E7 (in fn00748190)
;;     0074EC60 (in fn0074EB10)
;;     0074EFFA (in fn0074EFB0)
;;     0074FA47 (in fn0074F9E0)
;;     00752C63 (in fn00752B30)
;;     0075334B (in fn00753250)
;;     00753975 (in fn007537F0)
fn006E15D0 proc
	mov	ecx,[esp+8h]
	push	esi
	lea	eax,[esp+10h]
	push	eax
	push	ecx
	call	6F1AA0h
	mov	edx,[esp+10h]
	mov	esi,eax
	push	esi
	push	edx
	call	6E0E90h
	add	esp,10h
	test	esi,esi
	jz	6E1605h

l006E15F4:
	add	dword ptr [esi],0FFh
	jnz	6E1605h

l006E15F9:
	mov	eax,[esi+4h]
	mov	ecx,[eax+18h]
	push	esi
	call	ecx
	add	esp,4h

l006E1605:
	xor	eax,eax
	pop	esi
	ret
006E1609                            CC CC CC CC CC CC CC          .......
006E1610 83 EC 08 53 55 56 8B 74 24 18 57 33 ED 6A 2E 56 ...SUV.t$.W3.j.V
006E1620 89 6C 24 18 89 6C 24 1C FF 15 08 46 8A 00 8B D8 .l$..l$....F....
006E1630 83 C4 08 3B DD 75 3B 8B 3D 20 87 A1 00 68 B4 1F ...;.u;.= ...h..
006E1640 8D 00 E8 79 B4 00 00 8B F0 56 57 E8 40 F8 FF FF ...y.....VW.@...
006E1650 83 C4 0C 3B F5 74 11 83 06 FF 75 0C 8B 46 04 8B ...;.t....u..F..
006E1660 48 18 56 FF D1 83 C4 04 5F 5E 5D 33 C0 5B 83 C4 H.V....._^]3.[..
006E1670 08 C3 39 6C 24 20 75 0A 8B 15 F4 69 A1 00 89 54 ..9l$ u....i...T
006E1680 24 20 8B 7C 24 24 85 FF 75 13 E8 31 C6 01 00 85 $ .|$$..u..1....
006E1690 C0 89 44 24 10 8B F8 0F 84 D3 00 00 00 68 98 85 ..D$.........h..
006E16A0 8C 00 57 E8 08 C2 01 00 83 C4 08 85 C0 75 27 8B ..W..........u'.
006E16B0 C3 2B C6 50 56 E8 F6 B2 00 00 8B E8 83 C4 08 85 .+.PV...........
006E16C0 ED 74 7E 55 68 98 85 8C 00 57 E8 21 C2 01 00 83 .t~Uh....W.!....
006E16D0 C4 0C 85 C0 75 6B 8B 74 24 20 8B 46 04 3D 88 65 ....uk.t$ .F.=.e
006E16E0 A1 00 74 25 68 88 65 A1 00 50 E8 81 3F FF FF 83 ..t%h.e..P..?...
006E16F0 C4 08 85 C0 75 13 56 6A 01 E8 82 E8 FF FF 8B F0 ....u.Vj........
006E1700 83 C4 08 85 F6 75 09 EB 38 8B 44 24 20 83 00 01 .....u..8.D$ ...
006E1710 57 56 83 C3 01 53 68 B0 1F 8D 00 68 80 53 A1 00 WV...Sh....h.S..
006E1720 E8 DB 20 02 00 83 C4 14 85 F6 89 44 24 14 74 11 .. ........D$.t.
006E1730 83 06 FF 75 0C 8B 4E 04 8B 51 18 56 FF D2 83 C4 ...u..N..Q.V....
006E1740 04 8B 44 24 10 85 C0 74 11 83 00 FF 75 0C 8B 48 ..D$...t....u..H
006E1750 04 8B 51 18 50 FF D2 83 C4 04 85 ED 74 12 83 45 ..Q.P.......t..E
006E1760 00 FF 75 0C 8B 45 04 8B 48 18 55 FF D1 83 C4 04 ..u..E..H.U.....
006E1770 8B 44 24 14 5F 5E 5D 5B 83 C4 08 C3 CC CC CC CC .D$._^][........

;; fn006E1780: 006E1780
;;   Called from:
;;     006FE229 (in fn006FE160)
;;     006FE894 (in fn006FE400)
fn006E1780 proc
	sub	esp,8h
	mov	eax,[0A6D67Ch]
	push	ebx
	push	ebp
	mov	ebp,[eax+30h]
	push	esi
	mov	esi,[eax+28h]
	xor	ecx,ecx
	push	edi
	mov	edi,[eax+2Ch]
	push	8AC538h
	mov	[esp+14h],edi
	mov	[esp+18h],ebp
	mov	[eax+28h],ecx
	mov	[eax+2Ch],ecx
	mov	[eax+30h],ecx
	call	715DD0h
	mov	ebx,eax
	add	esp,4h
	test	ebx,ebx
	jz	6E1920h

l006E17BF:
	push	ebx
	push	8D1FF8h
	call	731D30h
	add	esp,8h
	test	esi,esi
	jz	6E18F5h

l006E17D5:
	mov	eax,[esi+4h]
	xor	edi,edi
	cmp	eax,0A1E968h
	jz	6E182Eh

l006E17E1:
	cmp	eax,0A15380h
	jz	6E17FAh

l006E17E8:
	push	0A15380h
	push	eax
	call	6D5670h
	add	esp,8h
	test	eax,eax
	jz	6E180Dh

l006E17FA:
	mov	eax,[0A169F0h]
	push	eax
	push	esi
	call	6D5670h
	add	esp,8h
	test	eax,eax
	jnz	6E182Eh

l006E180D:
	mov	eax,[esi+4h]
	cmp	eax,0A1B450h
	jz	6E1829h

l006E1817:
	push	0A1B450h
	push	eax
	call	6D5670h
	add	esp,8h
	test	eax,eax
	jz	6E1859h

l006E1829:
	lea	edi,[esi+14h]
	jmp	6E1842h

l006E182E:
	cmp	dword ptr [esi+4h],0A1E968h
	jnz	6E183Fh

l006E1837:
	mov	edi,[esi+10h]
	add	edi,14h
	jmp	6E1842h

l006E183F:
	mov	edi,[esi+0Ch]

l006E1842:
	test	edi,edi
	jz	6E1859h

l006E1846:
	push	2Eh
	push	edi
	call	dword ptr [8A4608h]
	add	esp,8h
	test	eax,eax
	jz	6E1859h

l006E1856:
	lea	edi,[eax+1h]

l006E1859:
	push	8C8598h
	push	esi
	call	6DF760h
	mov	ebp,eax
	add	esp,8h
	test	ebp,ebp
	jnz	6E187Dh

l006E186D:
	push	ebx
	push	8BF7CCh
	call	731D30h
	add	esp,8h
	jmp	6E189Fh

l006E187D:
	push	ebp
	call	6ECC50h
	add	esp,4h
	test	eax,eax
	jz	6E189Fh

l006E188A:
	push	ebx
	push	eax
	call	731D30h
	push	ebx
	push	8A6990h
	call	731D30h
	add	esp,10h

l006E189F:
	test	edi,edi
	push	ebx
	jnz	6E18ABh

l006E18A4:
	push	8BF7CCh
	jmp	6E18ACh

l006E18AB:
	push	edi

l006E18AC:
	call	731D30h
	mov	edi,[esp+18h]
	add	esp,8h
	test	edi,edi
	jz	6E18DBh

l006E18BC:
	cmp	edi,0A163B8h
	jz	6E18DBh

l006E18C4:
	push	ebx
	push	8BAE70h
	call	731D30h
	push	0h
	push	ebx
	push	edi
	call	731B10h
	add	esp,14h

l006E18DB:
	test	ebp,ebp
	jz	6E18F1h

l006E18DF:
	add	dword ptr [ebp+0h],0FFh
	jnz	6E18F1h

l006E18E5:
	mov	ecx,[ebp+4h]
	mov	edx,[ecx+18h]
	push	ebp
	call	edx
	add	esp,4h

l006E18F1:
	mov	ebp,[esp+14h]

l006E18F5:
	push	ebx
	push	8D1FF0h
	call	731D30h
	mov	eax,[esp+24h]
	push	0h
	push	ebx
	push	eax
	call	731B10h
	push	ebx
	push	8D1FE4h
	call	731D30h
	add	esp,1Ch
	call	6E1160h

l006E1920:
	test	esi,esi
	jz	6E1935h

l006E1924:
	add	dword ptr [esi],0FFh
	jnz	6E1935h

l006E1929:
	mov	ecx,[esi+4h]
	mov	edx,[ecx+18h]
	push	esi
	call	edx
	add	esp,4h

l006E1935:
	test	edi,edi
	jz	6E194Ah

l006E1939:
	add	dword ptr [edi],0FFh
	jnz	6E194Ah

l006E193E:
	mov	eax,[edi+4h]
	mov	ecx,[eax+18h]
	push	edi
	call	ecx
	add	esp,4h

l006E194A:
	test	ebp,ebp
	jz	6E1960h

l006E194E:
	add	dword ptr [ebp+0h],0FFh
	jnz	6E1960h

l006E1954:
	mov	edx,[ebp+4h]
	mov	eax,[edx+18h]
	push	ebp
	call	eax
	add	esp,4h

l006E1960:
	pop	edi
	pop	esi
	pop	ebp
	pop	ebx
	add	esp,8h
	ret
006E1968                         CC CC CC CC CC CC CC CC         ........

;; fn006E1970: 006E1970
;;   Called from:
;;     006DE022 (in fn006DDFE0)
;;     006DE0D0 (in fn006DDFE0)
;;     006E598A (in fn006E5960)
;;     006F7EA7 (in fn006F7890)
;;     00707140 (in fn00707020)
fn006E1970 proc
	call	6E7CE0h
	test	eax,eax
	jz	6E1998h

l006E1979:
	push	eax
	call	717230h
	add	esp,4h
	test	eax,eax
	jz	6E1998h

l006E1986:
	push	8D2018h
	push	eax
	call	6FD8B0h
	add	esp,8h
	test	eax,eax
	jnz	6E19ADh

l006E1998:
	mov	eax,[esp+8h]
	push	eax
	push	8D2008h
	call	716B20h
	add	esp,8h
	xor	eax,eax
	ret

l006E19AD:
	mov	ecx,[esp+4h]
	mov	edx,[esp+0Ch]
	push	edx
	test	ecx,ecx
	cmovz	ecx,[0A18D40h]

l006E19BF:
	push	ecx
	mov	ecx,[esp+10h]
	push	ecx
	push	8D2004h
	push	eax
	call	703800h
	add	esp,14h
	test	eax,eax
	jnz	6E19DBh

l006E19D7:
	or	eax,0FFh
	ret

l006E19DB:
	add	dword ptr [eax],0FFh
	jnz	6E19ECh

l006E19E0:
	mov	edx,[eax+4h]
	push	eax
	mov	eax,[edx+18h]
	call	eax
	add	esp,4h

l006E19EC:
	xor	eax,eax
	ret
006E19EF                                              CC                .

;; fn006E19F0: 006E19F0
;;   Called from:
;;     00747FE0 (in fn00747FD0)
fn006E19F0 proc
	push	esi
	push	edi
	push	8D2038h
	call	6F92B0h
	mov	esi,eax
	add	esp,4h
	test	esi,esi
	jz	6E1A30h

l006E1A05:
	push	esi
	call	717230h
	push	8D2028h
	push	eax
	call	6FD8B0h
	add	esp,0Ch
	add	dword ptr [esi],0FFh
	mov	edi,eax
	jnz	6E1A2Ch

l006E1A20:
	mov	eax,[esi+4h]
	mov	ecx,[eax+18h]
	push	esi
	call	ecx
	add	esp,4h

l006E1A2C:
	test	edi,edi
	jnz	6E1A47h

l006E1A30:
	mov	edx,[esp+10h]
	push	edx
	push	8D2008h
	call	716B20h
	add	esp,8h
	pop	edi
	xor	eax,eax
	pop	esi
	ret

l006E1A47:
	mov	ecx,[esp+0Ch]
	mov	eax,[esp+20h]
	test	ecx,ecx
	cmovz	ecx,[0A18D40h]

l006E1A58:
	test	eax,eax
	jnz	6E1A61h

l006E1A5C:
	mov	eax,0A163B8h

l006E1A61:
	mov	edx,[esp+18h]
	push	eax
	mov	eax,[esp+20h]
	push	eax
	mov	eax,[esp+1Ch]
	push	edx
	push	eax
	push	ecx
	mov	ecx,[esp+24h]
	push	ecx
	push	8D2020h
	push	edi
	call	703800h
	add	esp,20h
	test	eax,eax
	jnz	6E1A8Fh

l006E1A89:
	pop	edi
	or	eax,0FFh
	pop	esi
	ret

l006E1A8F:
	add	dword ptr [eax],0FFh
	jnz	6E1AA0h

l006E1A94:
	mov	edx,[eax+4h]
	push	eax
	mov	eax,[edx+18h]
	call	eax
	add	esp,4h

l006E1AA0:
	pop	edi
	xor	eax,eax
	pop	esi
	ret
006E1AA5                CC CC CC CC CC CC CC CC CC CC CC      ...........

;; fn006E1AB0: 006E1AB0
;;   Called from:
;;     006E1EC1 (in fn006E1DE0)
;;     00728374 (in fn00728360)
;;     0073B8FB (in fn0073B870)
fn006E1AB0 proc
	sub	esp,3ECh
	mov	eax,[0A14188h]
	xor	eax,esp
	mov	[esp+3E8h],eax
	mov	eax,[esp+3F0h]
	test	eax,eax
	push	edi
	jz	6E1BACh

l006E1AD4:
	cmp	byte ptr [eax],0h
	jz	6E1BACh

l006E1ADD:
	mov	edi,[esp+3F8h]
	test	edi,edi
	jle	6E1BACh

l006E1AEC:
	push	esi
	push	8A7744h
	push	eax
	call	659040h
	mov	esi,eax
	add	esp,8h
	test	esi,esi
	jz	6E1B93h

l006E1B05:
	push	ebp
	xor	ebp,ebp
	test	edi,edi
	jle	6E1B47h

l006E1B0C:
	push	ebx
	mov	ebx,edi
	mov	ebp,edi

l006E1B11:
	push	0h
	push	esi
	lea	eax,[esp+18h]
	push	3E8h
	push	eax
	mov	byte ptr [esp+406h],0h
	call	731F90h
	add	esp,10h
	test	eax,eax
	jz	6E1B41h

l006E1B32:
	mov	al,[esp+3F6h]
	test	al,al
	jz	6E1B41h

l006E1B3D:
	cmp	al,0Ah
	jnz	6E1B11h

l006E1B41:
	sub	ebx,1h
	jnz	6E1B11h

l006E1B46:
	pop	ebx

l006E1B47:
	push	esi
	call	dword ptr [8A4644h]
	add	esp,4h
	cmp	ebp,edi
	pop	ebp
	jnz	6E1B93h

l006E1B56:
	lea	ecx,[esp+8h]
	lea	ebx,[ebx+0h]

l006E1B60:
	mov	al,[ecx]
	cmp	al,20h
	jz	6E1B6Eh

l006E1B66:
	cmp	al,9h
	jz	6E1B6Eh

l006E1B6A:
	cmp	al,0Ch
	jnz	6E1B73h

l006E1B6E:
	add	ecx,1h
	jmp	6E1B60h

l006E1B73:
	push	ecx
	call	6ECAC0h
	add	esp,4h
	pop	esi
	pop	edi
	mov	ecx,[esp+3E8h]
	xor	ecx,esp
	call	694B8Eh
	add	esp,3ECh
	ret

l006E1B93:
	pop	esi
	xor	eax,eax
	pop	edi
	mov	ecx,[esp+3E8h]
	xor	ecx,esp
	call	694B8Eh
	add	esp,3ECh
	ret

l006E1BAC:
	mov	ecx,[esp+3ECh]
	pop	edi
	xor	ecx,esp
	xor	eax,eax
	call	694B8Eh
	add	esp,3ECh
	ret
006E1BC4             CC CC CC CC CC CC CC CC CC CC CC CC     ............

;; fn006E1BD0: 006E1BD0
;;   Called from:
;;     006E1E24 (in fn006E1DE0)
;;     006E8DDA (in fn006E8D90)
;;     006E8EAA (in fn006E8D90)
;;     007072B0 (in fn00707020)
;;     0070B198 (in fn00708DC0)
fn006E1BD0 proc
	mov	eax,[esp+8h]
	push	ebx
	push	ebp
	mov	ebp,[esp+0Ch]
	mov	ebx,[ebp+0h]
	push	esi
	mov	esi,[eax]
	push	edi
	xor	edi,edi
	test	ebx,ebx
	jz	6E1DB9h

l006E1BEB:
	jmp	6E1BF0h
006E1BED                                        8D 49 00              .I.

l006E1BF0:
	test	esi,esi
	jnz	6E1C00h

l006E1BF4:
	add	dword ptr [0A163B8h],1h
	mov	esi,0A163B8h

l006E1C00:
	mov	eax,[esi+4h]
	cmp	eax,0A1EB98h
	jz	6E1C1Eh

l006E1C0A:
	mov	ecx,[0A169F0h]
	push	ecx
	push	eax
	call	6D5670h
	add	esp,8h
	test	eax,eax
	jz	6E1C2Ch

l006E1C1E:
	mov	edi,[esi+4h]
	cmp	edi,0A1EB98h
	jnz	6E1C2Ch

l006E1C29:
	mov	edi,[esi+8h]

l006E1C2C:
	mov	eax,[ebx+4h]
	cmp	eax,0A1E968h
	jz	6E1C6Bh

l006E1C36:
	cmp	eax,0A15380h
	jz	6E1C53h

l006E1C3D:
	push	0A15380h
	push	eax
	call	6D5670h
	add	esp,8h
	test	eax,eax
	jz	6E1DB0h

l006E1C53:
	mov	edx,[0A169F0h]
	push	edx
	push	ebx
	call	6D5670h
	add	esp,8h
	test	eax,eax
	jz	6E1DB0h

l006E1C6B:
	test	edi,edi
	jz	6E1C81h

l006E1C6F:
	push	ebx
	push	edi
	call	704020h
	add	esp,8h
	test	eax,eax
	jnz	6E1D71h

l006E1C81:
	cmp	esi,0A163B8h
	jnz	6E1C97h

l006E1C89:
	push	0h
	call	6DFD20h
	add	esp,4h
	mov	edi,eax
	jmp	6E1CC7h

l006E1C97:
	mov	eax,[esi+4h]
	cmp	eax,0A16588h
	jz	6E1CC2h

l006E1CA1:
	push	0A16588h
	push	eax
	call	6D5670h
	add	esp,8h
	test	eax,eax
	jnz	6E1CC2h

l006E1CB3:
	push	esi
	push	1h
	call	6DFF80h
	add	esp,8h
	mov	edi,eax
	jmp	6E1CC7h

l006E1CC2:
	add	dword ptr [esi],1h
	mov	edi,esi

l006E1CC7:
	test	edi,edi
	jz	6E1CF6h

l006E1CCB:
	push	0h
	push	edi
	push	ebx
	call	707680h
	add	esp,0Ch
	add	dword ptr [edi],0FFh
	mov	ebp,eax
	jnz	6E1CEAh

l006E1CDE:
	mov	eax,[edi+4h]
	mov	ecx,[eax+18h]
	push	edi
	call	ecx
	add	esp,4h

l006E1CEA:
	test	ebp,ebp
	jnz	6E1D99h

l006E1CF2:
	mov	ebp,[esp+14h]

l006E1CF6:
	add	dword ptr [ebx],0FFh
	jnz	6E1D07h

l006E1CFB:
	mov	edx,[ebx+4h]
	mov	eax,[edx+18h]
	push	ebx
	call	eax
	add	esp,4h

l006E1D07:
	add	dword ptr [esi],0FFh
	jnz	6E1D18h

l006E1D0C:
	mov	ecx,[esi+4h]
	mov	edx,[ecx+18h]
	push	esi
	call	edx
	add	esp,4h

l006E1D18:
	mov	eax,[0A6D67Ch]
	mov	esi,[eax+28h]
	mov	edx,[esp+1Ch]
	mov	ecx,[edx]
	mov	[ebp+0h],esi
	mov	edi,[eax+2Ch]
	mov	esi,[esp+18h]
	mov	[esi],edi
	mov	edi,[eax+30h]
	mov	[edx],edi
	xor	edi,edi
	cmp	ecx,edi
	mov	[eax+28h],edi
	mov	[eax+2Ch],edi
	mov	[eax+30h],edi
	jz	6E1D5Fh

l006E1D46:
	cmp	[edx],edi
	jnz	6E1D4Eh

l006E1D4A:
	mov	[edx],ecx
	jmp	6E1D5Fh

l006E1D4E:
	add	dword ptr [ecx],0FFh
	jnz	6E1D5Fh

l006E1D53:
	mov	eax,[ecx+4h]
	push	ecx
	mov	ecx,[eax+18h]
	call	ecx
	add	esp,4h

l006E1D5F:
	mov	ebx,[ebp+0h]
	test	ebx,ebx
	mov	esi,[esi]
	jnz	6E1BF0h

l006E1D6C:
	pop	edi
	pop	esi
	pop	ebp
	pop	ebx
	ret

l006E1D71:
	cmp	edi,ebx
	jz	6E1DB0h

l006E1D75:
	add	dword ptr [ebx],0FFh
	jnz	6E1D86h

l006E1D7A:
	mov	edx,[ebx+4h]
	mov	eax,[edx+18h]
	push	ebx
	call	eax
	add	esp,4h

l006E1D86:
	add	dword ptr [edi],1h
	mov	eax,[esp+18h]
	mov	ebx,edi
	mov	[ebp+0h],ebx
	pop	edi
	mov	[eax],esi
	pop	esi
	pop	ebp
	pop	ebx
	ret

l006E1D99:
	add	dword ptr [esi],0FFh
	jnz	6E1DAAh

l006E1D9E:
	mov	ecx,[esi+4h]
	mov	edx,[ecx+18h]
	push	esi
	call	edx
	add	esp,4h

l006E1DAA:
	mov	esi,ebp
	mov	ebp,[esp+14h]

l006E1DB0:
	mov	eax,[esp+18h]
	mov	[ebp+0h],ebx
	mov	[eax],esi

l006E1DB9:
	pop	edi
	pop	esi
	pop	ebp
	pop	ebx
	ret
006E1DBE                                           CC CC               ..

;; fn006E1DC0: 006E1DC0
;;   Called from:
;;     006DFD30 (in fn006DFD20)
;;     006DFE48 (in fn006DFE20)
;;     006DFE88 (in fn006DFE60)
;;     006E0C82 (in fn006E0B00)
;;     006E5C21 (in fn006E5C00)
;;     006EA433 (in fn006EA420)
;;     006EC58E (in fn006EC4F0)
;;     006F2660 (in fn006F2650)
;;     006F277B (in fn006F2750)
;;     006F27BB (in fn006F2790)
;;     006F2A50 (in fn006F2A10)
;;     006F34DB (in fn006F34B0)
;;     006F4F7E (in fn006F4F00)
;;     006F96A8 (in fn006F9540)
;;     006FBDBB (in fn006FBD90)
;;     006FBE8B (in fn006FBE60)
;;     006FCF0A (in fn006FCC90)
;;     006FCF54 (in fn006FCF20)
;;     006FDEC6 (in fn006FDE60)
;;     007109BC (in fn007108F0)
;;     00710A75 (in fn007109D0)
;;     00710C0B (in fn00710B80)
;;     007114F6 (in fn007114E0)
;;     00711785 (in fn00711700)
;;     00717258 (in fn00717230)
;;     00717913 (in fn00717900)
;;     00717A04 (in fn00717900)
;;     0072008C (in fn00720070)
;;     00725165 (in fn00725150)
;;     00725208 (in fn007251F0)
;;     00725DB9 (in fn00725DA0)
;;     0072F7D8 (in fn0072F770)
;;     0072FBD7 (in fn0072FBB0)
;;     00734E85 (in fn00734BB0)
;;     0073D4B5 (in fn0073D450)
;;     0073D515 (in fn0073D450)
;;     0073D55E (in fn0073D450)
;;     00750404 (in fn007503F0)
;;     00750435 (in fn00750420)
fn006E1DC0 proc
	mov	eax,[esp+8h]
	mov	ecx,[esp+4h]
	mov	edx,[0A18720h]
	push	eax
	push	ecx
	push	8D2044h
	push	edx
	call	6E15D0h
	add	esp,10h
	ret
006E1DDF                                              CC                .

;; fn006E1DE0: 006E1DE0
;;   Called from:
;;     00747A1C (in fn00747960)
;;     00748015 (in fn00747FD0)
;;     007481F7 (in fn00748190)
;;     00748757 (in fn007486D0)
;;     00748AD6 (in fn00748810)
;;     00749090 (in fn00748E50)
;;     00752C44 (in fn00752B30)
;;     00752C75 (in fn00752B30)
;;     00752DA2 (in fn00752CA0)
fn006E1DE0 proc
	sub	esp,0Ch
	mov	eax,[0A6D67Ch]
	mov	ecx,[eax+28h]
	mov	[esp+4h],ecx
	mov	edx,[eax+2Ch]
	push	ebx
	mov	[esp+4h],edx
	mov	ecx,[eax+30h]
	push	esi
	mov	[esp+10h],ecx
	push	edi
	lea	edx,[esp+14h]
	mov	dword ptr [eax+28h],0h
	mov	dword ptr [eax+2Ch],0h
	mov	dword ptr [eax+30h],0h
	push	edx
	lea	eax,[esp+10h]
	push	eax
	lea	ecx,[esp+18h]
	push	ecx
	call	6E1BD0h
	mov	ebx,[esp+2Ch]
	push	ebx
	call	7050A0h
	mov	esi,eax
	add	esp,10h
	test	esi,esi
	jnz	6E1E43h

l006E1E3C:
	call	6E1160h
	jmp	6E1E70h

l006E1E43:
	mov	edx,[esp+0Ch]
	push	esi
	push	8D2094h
	push	edx
	call	6DF800h
	add	esp,0Ch
	test	eax,eax
	jz	6E1E5Fh

l006E1E5A:
	call	6E1160h

l006E1E5F:
	add	dword ptr [esi],0FFh
	jnz	6E1E70h

l006E1E64:
	mov	eax,[esi+4h]
	mov	ecx,[eax+18h]
	push	esi
	call	ecx
	add	esp,4h

l006E1E70:
	mov	edi,[esp+1Ch]
	test	edi,edi
	jz	6E1EFCh

l006E1E7C:
	push	edi
	call	6ECAC0h
	mov	esi,eax
	add	esp,4h
	test	esi,esi
	jnz	6E1E92h

l006E1E8B:
	call	6E1160h
	jmp	6E1EBFh

l006E1E92:
	mov	edx,[esp+0Ch]
	push	esi
	push	8D2088h
	push	edx
	call	6DF800h
	add	esp,0Ch
	test	eax,eax
	jz	6E1EAEh

l006E1EA9:
	call	6E1160h

l006E1EAE:
	add	dword ptr [esi],0FFh
	jnz	6E1EBFh

l006E1EB3:
	mov	eax,[esi+4h]
	mov	ecx,[eax+18h]
	push	esi
	call	ecx
	add	esp,4h

l006E1EBF:
	push	ebx
	push	edi
	call	6E1AB0h
	mov	esi,eax
	add	esp,8h
	test	esi,esi
	jz	6E1EFCh

l006E1ECF:
	mov	edx,[esp+0Ch]
	push	esi
	push	8CEE18h
	push	edx
	call	6DF800h
	add	esp,0Ch
	test	eax,eax
	jz	6E1EEBh

l006E1EE6:
	call	6E1160h

l006E1EEB:
	add	dword ptr [esi],0FFh
	jnz	6E1EFCh

l006E1EF0:
	mov	eax,[esi+4h]
	mov	ecx,[eax+18h]
	push	esi
	call	ecx
	add	esp,4h

l006E1EFC:
	mov	edx,[esp+0Ch]
	push	0A163B8h
	push	8BC184h
	push	edx
	call	6DF800h
	add	esp,0Ch
	test	eax,eax
	jz	6E1F1Ch

l006E1F17:
	call	6E1160h

l006E1F1C:
	mov	eax,[esp+10h]
	cmp	eax,[0A178F4h]
	jz	6E1FBFh

l006E1F2C:
	mov	ecx,[esp+0Ch]
	push	8D2084h
	push	ecx
	call	6DF7C0h
	add	esp,8h
	test	eax,eax
	jnz	6E1F89h

l006E1F42:
	mov	edx,[esp+0Ch]
	push	edx
	call	6DDF70h
	mov	esi,eax
	add	esp,4h
	test	esi,esi
	jz	6E1F84h

l006E1F55:
	mov	eax,[esp+0Ch]
	push	esi
	push	8D2084h
	push	eax
	call	6DF800h
	add	esp,0Ch
	test	eax,eax
	jz	6E1F71h

l006E1F6C:
	call	6E1160h

l006E1F71:
	add	dword ptr [esi],0FFh
	jnz	6E1F89h

l006E1F76:
	mov	ecx,[esi+4h]
	mov	edx,[ecx+18h]
	push	esi
	call	edx
	add	esp,4h
	jmp	6E1F89h

l006E1F84:
	call	6E1160h

l006E1F89:
	mov	eax,[esp+0Ch]
	push	8D2070h
	push	eax
	call	6DF7C0h
	add	esp,8h
	test	eax,eax
	jnz	6E1FBFh

l006E1F9F:
	mov	ecx,[esp+0Ch]
	push	0A163B8h
	push	8D2070h
	push	ecx
	call	6DF800h
	add	esp,0Ch
	test	eax,eax
	jz	6E1FBFh

l006E1FBA:
	call	6E1160h

l006E1FBF:
	mov	edx,[esp+14h]
	mov	eax,[esp+0Ch]
	mov	ecx,[esp+10h]
	push	edx
	push	eax
	push	ecx
	call	6E0E00h
	add	esp,0Ch
	pop	edi
	pop	esi
	pop	ebx
	add	esp,0Ch
	ret
006E1FDD                                        CC CC CC              ...
006E1FE0 8B 44 24 04 56 6A 00 50 8B 80 98 00 00 00 FF D0 .D$.Vj.P........
006E1FF0 8B F0 83 C4 08 85 F6 74 30 6A 00 C7 46 08 00 00 .......t0j..F...
006E2000 00 00 C7 46 10 00 00 00 00 E8 12 DD FF FF 83 C4 ...F............
006E2010 04 85 C0 89 46 0C 75 15 83 06 FF 75 0C 8B 4E 04 ....F.u....u..N.
006E2020 8B 51 18 56 FF D2 83 C4 04 33 C0 5E C3 68 8F 69 .Q.V.....3.^.h.i
006E2030 8A 00 E8 89 AA 00 00 83 C4 04 85 C0 89 46 10 75 .............F.u
006E2040 15 83 06 FF 75 E3 8B 46 04 8B 48 18 56 FF D1 83 ....u..F..H.V...
006E2050 C4 04 33 C0 5E C3 8B C6 5E C3 CC CC CC CC CC CC ..3.^...^.......
006E2060 8B 44 24 0C 56 8B 74 24 08 8B 4E 04 8B 51 0C 50 .D$.V.t$..N..Q.P
006E2070 52 E8 8A 3B 00 00 83 C4 08 85 C0 75 05 83 C8 FF R..;.......u....
006E2080 5E C3 8B 46 0C 83 00 FF 8B 46 0C 83 38 00 75 0C ^..F.....F..8.u.
006E2090 8B 48 04 8B 51 18 50 FF D2 83 C4 04 8B 44 24 0C .H..Q.P......D$.
006E20A0 89 46 0C 83 00 01 8B 46 0C 83 78 08 01 75 2B 8B .F.....F..x..u+.
006E20B0 46 10 85 C0 74 18 C7 46 10 00 00 00 00 83 00 FF F...t..F........
006E20C0 75 0C 8B 48 04 8B 51 18 50 FF D2 83 C4 04 8B 46 u..H..Q.P......F
006E20D0 0C 8B 40 0C 89 46 10 83 00 01 33 C0 5E C3 CC CC ..@..F....3.^...
006E20E0 56 8B 74 24 08 8B 46 08 85 C0 74 18 C7 46 08 00 V.t$..F...t..F..
006E20F0 00 00 00 83 00 FF 75 0C 8B 48 04 8B 51 18 50 FF ......u..H..Q.P.
006E2100 D2 83 C4 04 8B 46 0C 85 C0 74 18 C7 46 0C 00 00 .....F...t..F...
006E2110 00 00 83 00 FF 75 0C 8B 48 04 8B 51 18 50 FF D2 .....u..H..Q.P..
006E2120 83 C4 04 8B 46 10 85 C0 74 18 C7 46 10 00 00 00 ....F...t..F....
006E2130 00 83 00 FF 75 0C 8B 48 04 8B 51 18 50 FF D2 83 ....u..H..Q.P...
006E2140 C4 04 33 C0 5E C3 CC CC CC CC CC CC CC CC CC CC ..3.^...........
006E2150 56 8B 74 24 08 8B 46 F4 8B 4E F0 C7 46 F8 FE FF V.t$..F..N..F...
006E2160 FF FF 89 08 8B 56 F0 8B 46 F4 89 42 04 56 C7 46 .....V..F..B.V.F
006E2170 F0 00 00 00 00 E8 66 FF FF FF 8B 4E 04 8B 91 A0 ......f....N....
006E2180 00 00 00 56 FF D2 83 C4 08 5E C3 CC CC CC CC CC ...V.....^......
006E2190 53 8B 5C 24 08 8B 43 08 85 C0 56 8B 74 24 14 57 S.\$..C...V.t$.W
006E21A0 8B 7C 24 14 74 0B 56 50 FF D7 83 C4 08 85 C0 75 .|$.t.VP.......u
006E21B0 26 8B 43 0C 85 C0 74 0B 56 50 FF D7 83 C4 08 85 &.C...t.VP......
006E21C0 C0 75 14 8B 43 10 85 C0 74 0B 56 50 FF D7 83 C4 .u..C...t.VP....
006E21D0 08 85 C0 75 02 33 C0 5F 5E 5B C3 CC CC CC CC CC ...u.3._^[......
006E21E0 8B 44 24 04 8B 40 0C 8B 48 08 83 E9 00 74 1A 83 .D$..@..H....t..
006E21F0 E9 01 74 09 89 44 24 04 E9 73 BD FF FF 8B 48 0C ..t..D$..s....H.
006E2200 89 4C 24 04 E9 67 BD FF FF C7 44 24 04 8F 69 8A .L$..g....D$..i.
006E2210 00 E9 AA A8 00 00 CC CC CC CC CC CC CC CC CC CC ................
006E2220 56 8B 74 24 08 8B 46 0C 57 50 E8 81 BB FF FF 8B V.t$..F.WP......
006E2230 F8 83 C4 04 85 FF 74 3B 8B 4E 04 8B 71 0C 6A 2E ......t;.N..q.j.
006E2240 56 FF 15 08 46 8A 00 83 C4 08 85 C0 74 03 8D 70 V...F.......t..p
006E2250 01 56 E8 69 A8 00 00 83 C4 04 85 C0 89 44 24 0C .V.i.........D$.
006E2260 75 16 83 07 FF 75 0C 8B 57 04 8B 42 18 57 FF D0 u....u..W..B.W..
006E2270 83 C4 04 5F 33 C0 5E C3 8D 4C 24 0C 57 51 E8 3D ..._3.^..L$.WQ.=
006E2280 A2 00 00 8B 44 24 14 83 C4 08 5F 5E C3 CC CC CC ....D$...._^....
006E2290 8B 44 24 04 8B 48 0C 85 C9 74 18 8B 50 08 85 D2 .D$..H...t..P...
006E22A0 74 11 8B 40 04 52 51 50 6A 03 E8 D1 DC FF FF 83 t..@.RQPj.......
006E22B0 C4 10 C3 51 8B 48 04 51 6A 02 E8 C1 DC FF FF 83 ...Q.H.Qj.......
006E22C0 C4 0C C3 CC CC CC CC CC CC CC CC CC CC CC CC CC ................
006E22D0 83 EC 08 56 8B 74 24 14 81 FE B8 63 A1 00 57 C7 ...V.t$....c..W.
006E22E0 44 24 0C 00 00 00 00 0F 84 8A 00 00 00 8B 46 04 D$............F.
006E22F0 3D B8 D1 A1 00 74 2D 68 B8 D1 A1 00 50 E8 6E 33 =....t-h....P.n3
006E2300 FF FF 83 C4 08 85 C0 75 1B A1 7C 6B A1 00 68 38 .......u..|k..h8
006E2310 2F 8D 00 50 E8 67 EC FF FF 83 C4 08 5F 33 C0 5E /..P.g......_3.^
006E2320 83 C4 08 C3 8D 4C 24 18 51 8D 54 24 0C 52 8D 44 .....L$.Q.T$.R.D
006E2330 24 14 50 56 E8 17 9D 01 00 83 C4 10 85 C0 74 37 $.PV..........t7
006E2340 8B 7C 24 14 8B 4C 24 18 8B 54 24 08 51 52 57 E8 .|$..L$..T$.QRW.
006E2350 DC C0 FF FF 83 C4 0C 85 C0 7C C1 8D 44 24 18 50 .........|..D$.P
006E2360 8D 4C 24 0C 51 8D 54 24 14 52 56 E8 E0 9C 01 00 .L$.Q.T$.RV.....
006E2370 83 C4 10 85 C0 75 CD 83 05 B8 63 A1 00 01 5F B8 .....u....c..._.
006E2380 B8 63 A1 00 5E 83 C4 08 C3 CC CC CC CC CC CC CC .c..^...........
006E2390 8B 4C 24 04 8B 51 0C 89 54 24 04 E9 E0 0D 02 00 .L$..Q..T$......
006E23A0 8B 54 24 04 8B 42 0C 89 44 24 04 E9 60 0E 02 00 .T$..B..D$..`...
006E23B0 56 8B 74 24 08 83 7E 08 00 75 0E E8 00 B9 01 00 V.t$..~..u......
006E23C0 85 C0 89 46 08 75 02 5E C3 8B 46 08 83 00 01 8B ...F.u.^..F.....
006E23D0 46 08 5E C3 CC CC CC CC CC CC CC CC CC CC CC CC F.^.............
006E23E0 57 8B 7C 24 0C 85 FF 75 18 A1 7C 6B A1 00 68 74 W.|$...u..|k..ht
006E23F0 2F 8D 00 50 E8 87 EB FF FF 83 C4 08 83 C8 FF 5F /..P..........._
006E2400 C3 8B 47 04 3D B8 D1 A1 00 74 2B 68 B8 D1 A1 00 ..G.=....t+h....
006E2410 50 E8 5A 32 FF FF 83 C4 08 85 C0 75 19 8B 0D 7C P.Z2.......u...|
006E2420 6B A1 00 68 54 2F 8D 00 51 E8 52 EB FF FF 83 C4 k..hT/..Q.R.....
006E2430 08 83 C8 FF 5F C3 56 8B 74 24 0C 8B 46 08 85 C0 ...._.V.t$..F...
006E2440 74 18 C7 46 08 00 00 00 00 83 00 FF 75 0C 8B 50 t..F........u..P
006E2450 04 50 8B 42 18 FF D0 83 C4 04 83 07 01 89 7E 08 .P.B..........~.
006E2460 5E 33 C0 5F C3 CC CC CC CC CC CC CC CC CC CC CC ^3._............
006E2470 8B 4C 24 04 83 79 0C 00 75 0D 83 05 B8 63 A1 00 .L$..y..u....c..
006E2480 01 B8 B8 63 A1 00 C3 8B 41 0C 83 00 01 8B 41 0C ...c....A.....A.
006E2490 C3 CC CC CC CC CC CC CC CC CC CC CC CC CC CC CC ................
006E24A0 8B 44 24 08 85 C0 75 17 A1 7C 6B A1 00 68 90 2F .D$...u..|k..h./
006E24B0 8D 00 50 E8 C8 EA FF FF 83 C4 08 83 C8 FF C3 57 ..P............W
006E24C0 50 E8 DA 26 02 00 8B F8 83 C4 04 85 FF 75 05 83 P..&.........u..
006E24D0 C8 FF 5F C3 56 8B 74 24 0C 8B 46 0C 85 C0 74 18 .._.V.t$..F...t.
006E24E0 C7 46 0C 00 00 00 00 83 00 FF 75 0C 8B 48 04 8B .F........u..H..
006E24F0 51 18 50 FF D2 83 C4 04 89 7E 0C 5E 33 C0 5F C3 Q.P......~.^3._.
006E2500 8B 44 24 0C 53 8B 5C 24 0C 56 8B 74 24 0C 57 8B .D$.S.\$.V.t$.W.
006E2510 7B 08 50 53 56 E8 46 FB FF FF 83 C4 0C 83 F8 FF {.PSV.F.........
006E2520 75 06 5F 5E 0B C0 5B C3 85 FF 74 3F 8B 46 14 85 u._^..[...t?.F..
006E2530 C0 74 18 C7 46 14 00 00 00 00 83 00 FF 75 0C 8B .t..F........u..
006E2540 48 04 8B 51 18 50 FF D2 83 C4 04 83 FF 01 75 10 H..Q.P........u.
006E2550 8B 43 0C 89 46 14 8B F0 01 3E 5F 5E 33 C0 5B C3 .C..F....>_^3.[.
006E2560 7E 03 89 5E 14 8B 76 14 83 06 01 5F 5E 33 C0 5B ~..^..v...._^3.[
006E2570 C3 CC CC CC CC CC CC CC CC CC CC CC CC CC CC CC ................
006E2580 56 8B 74 24 08 8B 46 14 85 C0 74 18 C7 46 14 00 V.t$..F...t..F..
006E2590 00 00 00 83 00 FF 75 0C 8B 48 04 8B 51 18 50 FF ......u..H..Q.P.
006E25A0 D2 83 C4 04 56 E8 36 FB FF FF 83 C4 04 5E C3 CC ....V.6......^..
006E25B0 56 8B 74 24 08 8B 4E F0 8B 46 F4 C7 46 F8 FE FF V.t$..N..F..F...
006E25C0 FF FF 89 08 8B 56 F0 8B 46 F4 33 C9 89 42 04 89 .....V..F.3..B..
006E25D0 4E F0 8B 46 14 3B C1 74 14 89 4E 14 83 00 FF 75 N..F.;.t..N....u
006E25E0 0C 8B 48 04 8B 51 18 50 FF D2 83 C4 04 56 E8 ED ..H..Q.P.....V..
006E25F0 FA FF FF 8B 46 04 8B 88 A0 00 00 00 56 FF D1 83 ....F.......V...
006E2600 C4 08 5E C3 CC CC CC CC CC CC CC CC CC CC CC CC ..^.............
006E2610 53 8B 5C 24 08 8B 43 14 85 C0 56 8B 74 24 14 57 S.\$..C...V.t$.W
006E2620 8B 7C 24 14 74 0B 56 50 FF D7 83 C4 08 85 C0 75 .|$.t.VP.......u
006E2630 0B 56 57 53 E8 57 FB FF FF 83 C4 0C 5F 5E 5B C3 .VWS.W......_^[.
006E2640 83 EC 0C 8B 44 24 18 53 56 8B 74 24 18 57 8B 7C ....D$.SV.t$.W.|
006E2650 24 20 50 33 DB 57 56 89 5C 24 1C 89 5C 24 20 89 $ P3.WV.\$..\$ .
006E2660 5C 24 18 E8 F8 F9 FF FF 83 C4 0C 83 F8 FF 75 0A \$............u.
006E2670 5F 5E 83 C8 FF 5B 83 C4 0C C3 8B 47 08 83 F8 01 _^...[.....G....
006E2680 0F 8E D7 00 00 00 83 F8 03 0F 8F CE 00 00 00 8D ................
006E2690 4C 24 0C 51 8D 54 24 18 52 8D 44 24 18 50 6A 03 L$.Q.T$.R.D$.Pj.
006E26A0 6A 02 68 A8 2F 8D 00 57 E8 23 34 00 00 83 C4 1C j.h./..W.#4.....
006E26B0 85 C0 74 BC 8B 46 14 3B C3 74 14 89 5E 14 83 00 ..t..F.;.t..^...
006E26C0 FF 75 0C 8B 48 04 8B 51 18 50 FF D2 83 C4 04 8B .u..H..Q.P......
006E26D0 44 24 10 89 46 14 83 00 01 8B 46 18 3B C3 74 14 D$..F.....F.;.t.
006E26E0 89 5E 18 83 00 FF 75 0C 8B 48 04 8B 51 18 50 FF .^....u..H..Q.P.
006E26F0 D2 83 C4 04 8B 44 24 14 89 46 18 83 00 01 8B 44 .....D$..F.....D
006E2700 24 0C 3B C3 74 57 8B 4E 1C 3B CB 74 18 89 5E 1C $.;.tW.N.;.t..^.
006E2710 83 01 FF 75 0C 8B 41 04 51 8B 48 18 FF D1 83 C4 ...u..A.Q.H.....
006E2720 04 8B 44 24 0C 6A 02 53 89 46 1C 83 00 01 57 E8 ..D$.j.S.F....W.
006E2730 DC DC FF FF 8B F8 83 C4 0C 3B FB 0F 84 2F FF FF .........;.../..
006E2740 FF 8B 46 0C 83 00 FF 8B 46 0C 39 18 75 0C 8B 50 ..F.....F.9.u..P
006E2750 04 50 8B 42 18 FF D0 83 C4 04 89 7E 0C 5F 5E 33 .P.B.......~._^3
006E2760 C0 5B 83 C4 0C C3 CC CC CC CC CC CC CC CC CC CC .[..............
006E2770 56 8B 74 24 08 8B 46 14 85 C0 74 18 C7 46 14 00 V.t$..F...t..F..
006E2780 00 00 00 83 00 FF 75 0C 8B 48 04 8B 51 18 50 FF ......u..H..Q.P.
006E2790 D2 83 C4 04 8B 46 18 85 C0 74 18 C7 46 18 00 00 .....F...t..F...
006E27A0 00 00 83 00 FF 75 0C 8B 48 04 8B 51 18 50 FF D2 .....u..H..Q.P..
006E27B0 83 C4 04 8B 46 1C 85 C0 74 18 C7 46 1C 00 00 00 ....F...t..F....
006E27C0 00 83 00 FF 75 0C 8B 48 04 8B 51 18 50 FF D2 83 ....u..H..Q.P...
006E27D0 C4 04 56 E8 08 F9 FF FF 83 C4 04 5E C3 CC CC CC ..V........^....
006E27E0 56 8B 74 24 08 8B 46 F4 8B 4E F0 C7 46 F8 FE FF V.t$..F..N..F...
006E27F0 FF FF 89 08 8B 56 F0 8B 46 F4 89 42 04 56 C7 46 .....V..F..B.V.F
006E2800 F0 00 00 00 00 E8 66 FF FF FF 8B 4E 04 8B 91 A0 ......f....N....
006E2810 00 00 00 56 FF D2 83 C4 08 5E C3 CC CC CC CC CC ...V.....^......
006E2820 53 8B 5C 24 08 8B 43 14 85 C0 56 8B 74 24 14 57 S.\$..C...V.t$.W
006E2830 8B 7C 24 14 74 0B 56 50 FF D7 83 C4 08 85 C0 75 .|$.t.VP.......u
006E2840 2F 8B 43 18 85 C0 74 0B 56 50 FF D7 83 C4 08 85 /.C...t.VP......
006E2850 C0 75 1D 8B 43 1C 85 C0 74 0B 56 50 FF D7 83 C4 .u..C...t.VP....
006E2860 08 85 C0 75 0B 56 57 53 E8 23 F9 FF FF 83 C4 0C ...u.VWS.#......
006E2870 5F 5E 5B C3 CC CC CC CC CC CC CC CC CC CC CC CC _^[.............
006E2880 53 55 56 8B 74 24 10 83 7E 1C 00 57 0F 84 C6 00 SUV.t$..~..W....
006E2890 00 00 68 CC 2F 8D 00 E8 24 A2 00 00 8B D8 83 C4 ..h./...$.......
006E28A0 04 85 DB 74 23 8B 46 1C 50 E8 02 B5 FF FF 8B E8 ...t#.F.P.......
006E28B0 83 C4 04 85 ED 75 18 83 03 FF 75 0C 8B 4B 04 8B .....u....u..K..
006E28C0 51 18 53 FF D2 83 C4 04 5F 5E 5D 33 C0 5B C3 6A Q.S....._^]3.[.j
006E28D0 03 E8 4A D4 FF FF 8B F8 83 C4 04 85 FF 75 2A 83 ..J..........u*.
006E28E0 45 00 FF 75 0C 8B 45 04 8B 48 18 55 FF D1 83 C4 E..u..E..H.U....
006E28F0 04 83 03 FF 75 D2 8B 53 04 8B 42 18 53 FF D0 83 ....u..S..B.S...
006E2900 C4 04 5F 5E 5D 33 C0 5B C3 83 7E 14 00 B9 B8 63 .._^]3.[..~....c
006E2910 A1 00 74 0E 8B 46 14 83 00 01 8B 56 14 89 57 0C ..t..F.....V..W.
006E2920 EB 0A 83 05 B8 63 A1 00 01 89 4F 0C 83 7E 18 00 .....c....O..~..
006E2930 74 14 8B 46 18 83 00 01 8B 46 18 89 47 10 89 6F t..F.....F..G..o
006E2940 14 E9 92 00 00 00 83 05 B8 63 A1 00 01 89 4F 10 .........c....O.
006E2950 89 6F 14 E9 80 00 00 00 83 7E 14 00 0F 84 AB 00 .o.......~......
006E2960 00 00 83 7E 18 00 0F 84 A1 00 00 00 68 BC 2F 8D ...~........h./.
006E2970 00 E8 4A A1 00 00 8B D8 83 C4 04 85 DB 0F 84 45 ..J............E
006E2980 FF FF FF 6A 02 E8 96 D3 FF FF 8B F8 83 C4 04 85 ...j............
006E2990 FF 0F 84 5A FF FF FF 83 7E 14 00 B9 B8 63 A1 00 ...Z....~....c..
006E29A0 74 0E 8B 46 14 83 00 01 8B 56 14 89 57 0C EB 0A t..F.....V..W...
006E29B0 83 05 B8 63 A1 00 01 89 4F 0C 83 7E 18 00 74 0E ...c....O..~..t.
006E29C0 8B 46 18 83 00 01 8B 46 18 89 47 10 EB 0A 83 05 .F.....F..G.....
006E29D0 B8 63 A1 00 01 89 4F 10 57 53 E8 91 E1 00 00 83 .c....O.WS......
006E29E0 C4 08 83 03 FF 8B F0 75 0C 8B 4B 04 8B 51 18 53 .......u..K..Q.S
006E29F0 FF D2 83 C4 04 83 07 FF 75 55 8B 47 04 8B 48 18 ........uU.G..H.
006E2A00 57 FF D1 83 C4 04 5F 8B C6 5E 5D 5B C3 8B 76 0C W....._..^][..v.
006E2A10 8B 46 08 83 E8 00 74 28 83 E8 01 74 10 56 E8 4D .F....t(...t.V.M
006E2A20 B5 FF FF 83 C4 04 5F 8B F0 5E 5D 5B C3 8B 56 0C ......_..^][..V.
006E2A30 52 E8 3A B5 FF FF 83 C4 04 5F 8B F0 5E 5D 5B C3 R.:......_..^][.
006E2A40 68 8F 69 8A 00 E8 76 A0 00 00 8B F0 83 C4 04 5F h.i...v........_
006E2A50 8B C6 5E 5D 5B C3 CC CC CC CC CC CC CC CC CC CC ..^][...........
006E2A60 56 57 8B 7C 24 0C 8B 77 0C 83 7E 08 02 75 3F 83 VW.|$..w..~..u?.
006E2A70 7F 1C 00 74 39 6A 03 E8 A4 D2 FF FF 8B F0 83 C4 ...t9j..........
006E2A80 04 85 F6 75 03 5F 5E C3 8B 47 0C 8B 40 0C 83 00 ...u._^..G..@...
006E2A90 01 89 46 0C 8B 4F 0C 8B 41 10 83 00 01 89 46 10 ..F..O..A.....F.
006E2AA0 8B 47 1C 83 00 01 8B 57 1C 89 56 14 EB 03 83 06 .G.....W..V.....
006E2AB0 01 8B 47 08 85 C0 74 12 50 8B 47 04 56 50 6A 03 ..G...t.P.G.VPj.
006E2AC0 E8 BB D4 FF FF 83 C4 10 EB 0F 8B 4F 04 56 51 6A ...........O.VQj
006E2AD0 02 E8 AA D4 FF FF 83 C4 0C 83 06 FF 8B F8 75 0C ..............u.
006E2AE0 8B 56 04 8B 42 18 56 FF D0 83 C4 04 8B C7 5F 5E .V..B.V......._^
006E2AF0 C3 CC CC CC CC CC CC CC CC CC CC CC CC CC CC CC ................
006E2B00 8B 44 24 04 3D 18 07 00 00 7F 6E 74 30 83 C0 FE .D$.=.....nt0...
006E2B10 3D D5 00 00 00 77 62 0F B6 80 BC 2B 6E 00 FF 24 =....wb....+n..$
006E2B20 85 80 2B 6E 00 B8 02 00 00 00 C3 B8 18 00 00 00 ..+n............
006E2B30 C3 B8 0D 00 00 00 C3 B8 09 00 00 00 C3 B8 0C 00 ................
006E2B40 00 00 C3 B8 07 00 00 00 C3 B8 08 00 00 00 C3 B8 ................
006E2B50 12 00 00 00 C3 B8 11 00 00 00 C3 B8 0B 00 00 00 ................
006E2B60 C3 B8 20 00 00 00 C3 B8 1C 00 00 00 C3 B8 0A 00 .. .............
006E2B70 00 00 C3 B8 29 00 00 00 C3 B8 16 00 00 00 C3 90 ....)...........
006E2B80 25 2B 6E 00 2B 2B 6E 00 31 2B 6E 00 37 2B 6E 00 %+n.++n.1+n.7+n.
006E2B90 3D 2B 6E 00 43 2B 6E 00 49 2B 6E 00 4F 2B 6E 00 =+n.C+n.I+n.O+n.
006E2BA0 55 2B 6E 00 5B 2B 6E 00 61 2B 6E 00 67 2B 6E 00 U+n.[+n.a+n.g+n.
006E2BB0 6D 2B 6E 00 73 2B 6E 00 79 2B 6E 00 00 00 01 02 m+n.s+n.y+n.....
006E2BC0 03 04 04 04 05 06 0E 0E 0E 00 02 07 00 02 02 02 ................
006E2BD0 02 02 02 02 02 02 02 02 02 02 02 02 02 02 02 0E ................
006E2BE0 0E 0E 0E 0E 0E 0E 0E 0E 0E 0E 0E 0E 0E 0E 0E 00 ................
006E2BF0 0E 0E 0E 0E 0E 0E 0E 0E 0E 0E 0E 02 0E 00 0E 0E ................
006E2C00 0E 0E 0E 0E 0E 0E 0E 0E 0E 0E 08 0E 02 02 0E 0E ................
006E2C10 0E 0E 0E 09 0E 0E 0E 0E 0E 0E 0E 0E 0E 0E 0E 0E ................
006E2C20 0E 0E 0E 0E 0E 0E 02 0A 0E 0E 0B 0E 03 0E 0E 0E ................
006E2C30 0E 0E 0E 0E 0E 0E 0E 0E 0E 0E 0C 0C 03 0E 02 0E ................
006E2C40 0E 0E 0E 0E 0E 0E 0E 0E 0E 0E 0E 0D 0E 0E 0E 0E ................
006E2C50 0E 0E 0E 0E 0E 0E 0E 0E 02 0E 0E 00 0E 0E 09 0E ................
006E2C60 0E 02 0E 0E 0E 0E 0E 0E 0E 0E 0E 0E 0E 0E 0E 0E ................
006E2C70 0E 08 0E 0E 0E 0E 06 06 06 06 06 06 06 06 06 06 ................
006E2C80 06 06 06 06 06 0E 0E 0E 00 0E 0E 0E 0E 0E 0E 0E ................
006E2C90 0E 09 CC CC CC CC CC CC CC CC CC CC CC CC CC CC ................
006E2CA0 56 8B 74 24 08 8B 46 14 57 33 FF 3B C7 74 14 89 V.t$..F.W3.;.t..
006E2CB0 7E 14 83 00 FF 75 0C 8B 48 04 8B 51 18 50 FF D2 ~....u..H..Q.P..
006E2CC0 83 C4 04 8B 46 18 3B C7 74 14 89 7E 18 83 00 FF ....F.;.t..~....
006E2CD0 75 0C 8B 48 04 8B 51 18 50 FF D2 83 C4 04 8B 46 u..H..Q.P......F
006E2CE0 1C 3B C7 74 14 89 7E 1C 83 00 FF 75 0C 8B 48 04 .;.t..~....u..H.
006E2CF0 8B 51 18 50 FF D2 83 C4 04 8B 46 20 3B C7 74 14 .Q.P......F ;.t.
006E2D00 89 7E 20 83 00 FF 75 0C 8B 48 04 8B 51 18 50 FF .~ ...u..H..Q.P.
006E2D10 D2 83 C4 04 56 E8 C6 F3 FF FF 83 C4 04 5F 5E C3 ....V........_^.
006E2D20 56 8B 74 24 08 8B 46 F4 8B 4E F0 C7 46 F8 FE FF V.t$..F..N..F...
006E2D30 FF FF 89 08 8B 56 F0 8B 46 F4 89 42 04 56 C7 46 .....V..F..B.V.F
006E2D40 F0 00 00 00 00 E8 56 FF FF FF 8B 4E 04 8B 91 A0 ......V....N....
006E2D50 00 00 00 56 FF D2 83 C4 08 5E C3 CC CC CC CC CC ...V.....^......
006E2D60 53 8B 5C 24 08 8B 43 14 85 C0 56 8B 74 24 14 57 S.\$..C...V.t$.W
006E2D70 8B 7C 24 14 74 0B 56 50 FF D7 83 C4 08 85 C0 75 .|$.t.VP.......u
006E2D80 41 8B 43 18 85 C0 74 0B 56 50 FF D7 83 C4 08 85 A.C...t.VP......
006E2D90 C0 75 2F 8B 43 1C 85 C0 74 0B 56 50 FF D7 83 C4 .u/.C...t.VP....
006E2DA0 08 85 C0 75 1D 8B 43 20 85 C0 74 0B 56 50 FF D7 ...u..C ..t.VP..
006E2DB0 83 C4 08 85 C0 75 0B 56 57 53 E8 D1 F3 FF FF 83 .....u.VWS......
006E2DC0 C4 0C 5F 5E 5B C3 CC CC CC CC CC CC CC CC CC CC .._^[...........
006E2DD0 8B 44 24 0C 8B 4C 24 08 56 8B 74 24 08 50 51 56 .D$..L$.V.t$.PQV
006E2DE0 E8 5B F8 FF FF 83 C4 0C 83 F8 FF 75 04 0B C0 5E .[.........u...^
006E2DF0 C3 8B 46 14 85 C0 75 02 5E C3 57 50 E8 9F 23 02 ..F...u.^.WP..#.
006E2E00 00 8B F8 83 C4 04 83 FF FF 75 09 E8 B0 E1 FF FF .........u......
006E2E10 85 C0 75 3D 57 E8 E6 FC FF FF 8B F8 8B 46 20 83 ..u=W........F .
006E2E20 C4 04 85 C0 74 18 C7 46 20 00 00 00 00 83 00 FF ....t..F .......
006E2E30 75 0C 8B 50 04 50 8B 42 18 FF D0 83 C4 04 8B 4E u..P.P.B.......N
006E2E40 14 57 89 4E 20 E8 56 22 02 00 83 C4 04 85 C0 75 .W.N .V".......u
006E2E50 06 5F 83 C8 FF 5E C3 89 46 14 5F 33 C0 5E C3 CC ._...^..F._3.^..
006E2E60 53 55 56 8B 74 24 10 83 7E 1C 00 57 0F 84 F4 00 SUV.t$..~..W....
006E2E70 00 00 68 F0 2F 8D 00 E8 44 9C 00 00 8B D8 83 C4 ..h./...D.......
006E2E80 04 85 DB 74 23 8B 46 1C 50 E8 22 AF FF FF 8B E8 ...t#.F.P.".....
006E2E90 83 C4 04 85 ED 75 18 83 03 FF 75 0C 8B 4B 04 8B .....u....u..K..
006E2EA0 51 18 53 FF D2 83 C4 04 5F 5E 5D 33 C0 5B C3 6A Q.S....._^]3.[.j
006E2EB0 03 E8 6A CE FF FF 8B F8 83 C4 04 85 FF 75 2A 83 ..j..........u*.
006E2EC0 45 00 FF 75 0C 8B 45 04 8B 48 18 55 FF D1 83 C4 E..u..E..H.U....
006E2ED0 04 83 03 FF 75 D2 8B 53 04 8B 42 18 53 FF D0 83 ....u..S..B.S...
006E2EE0 C4 04 5F 5E 5D 33 C0 5B C3 83 7E 20 00 B9 B8 63 .._^]3.[..~ ...c
006E2EF0 A1 00 74 0E 8B 46 20 83 00 01 8B 56 20 89 57 0C ..t..F ....V .W.
006E2F00 EB 0A 83 05 B8 63 A1 00 01 89 4F 0C 83 7E 18 00 .....c....O..~..
006E2F10 74 0E 8B 46 18 83 00 01 8B 46 18 89 47 10 EB 0A t..F.....F..G...
006E2F20 83 05 B8 63 A1 00 01 89 4F 10 89 6F 14 57 53 E8 ...c....O..o.WS.
006E2F30 3C DC 00 00 83 C4 08 83 03 FF 8B F0 75 0C 8B 4B <...........u..K
006E2F40 04 8B 51 18 53 FF D2 83 C4 04 83 07 FF 0F 85 9E ..Q.S...........
006E2F50 00 00 00 8B 47 04 8B 48 18 57 FF D1 83 C4 04 5F ....G..H.W....._
006E2F60 8B C6 5E 5D 5B C3 83 7E 20 00 74 7A 83 7E 18 00 ..^][..~ .tz.~..
006E2F70 74 74 68 E0 2F 8D 00 E8 44 9B 00 00 8B D8 83 C4 tth./...D.......
006E2F80 04 85 DB 0F 84 1F FF FF FF 6A 02 E8 90 CD FF FF .........j......
006E2F90 8B F8 83 C4 04 85 FF 0F 84 34 FF FF FF 83 7E 20 .........4....~ 
006E2FA0 00 B9 B8 63 A1 00 74 0E 8B 46 20 83 00 01 8B 56 ...c..t..F ....V
006E2FB0 20 89 57 0C EB 0A 83 05 B8 63 A1 00 01 89 4F 0C  .W......c....O.
006E2FC0 83 7E 18 00 74 11 8B 46 18 83 00 01 8B 46 18 89 .~..t..F.....F..
006E2FD0 47 10 E9 56 FF FF FF 83 05 B8 63 A1 00 01 89 4F G..V......c....O
006E2FE0 10 E9 47 FF FF FF 56 E8 94 F8 FF FF 8B F0 83 C4 ..G...V.........
006E2FF0 04 5F 8B C6 5E 5D 5B C3 CC CC CC CC CC CC CC CC ._..^][.........
006E3000 8B 44 24 0C 55 56 8B 74 24 0C 57 8B 7C 24 14 8B .D$.UV.t$.W.|$..
006E3010 6F 08 50 57 56 E8 46 F0 FF FF 83 C4 0C 83 F8 FF o.PWV.F.........
006E3020 75 06 5F 5E 0B C0 5D C3 53 33 DB 83 FD 01 7C 24 u._^..].S3....|$
006E3030 8B 46 14 3B C3 74 14 89 5E 14 83 00 FF 75 0C 8B .F.;.t..^....u..
006E3040 48 04 8B 51 18 50 FF D2 83 C4 04 8B 47 0C 89 46 H..Q.P......G..F
006E3050 14 83 00 01 83 FD 02 0F 85 E5 00 00 00 8B 7F 10 ................
006E3060 57 E8 3A 1B 02 00 8B F8 83 C4 04 3B FB 74 2A 83 W.:........;.t*.
006E3070 7F 08 04 74 2C A1 A4 7C A1 00 68 B0 1E 8D 00 50 ...t,..|..h....P
006E3080 E8 FB DE FF FF 83 C4 08 83 07 FF 75 0C 8B 4F 04 ...........u..O.
006E3090 8B 51 18 57 FF D2 83 C4 04 5B 5F 5E 83 C8 FF 5D .Q.W.....[_^...]
006E30A0 C3 8B 46 18 3B C3 74 14 89 5E 18 83 00 FF 75 0C ..F.;.t..^....u.
006E30B0 8B 48 04 8B 51 18 50 FF D2 83 C4 04 8B 47 0C 89 .H..Q.P......G..
006E30C0 46 18 83 00 01 8B 46 1C 3B C3 74 14 89 5E 1C 83 F.....F.;.t..^..
006E30D0 00 FF 75 0C 8B 48 04 8B 51 18 50 FF D2 83 C4 04 ..u..H..Q.P.....
006E30E0 8B 47 10 89 46 1C 83 00 01 8B 46 20 3B C3 74 14 .G..F.....F ;.t.
006E30F0 89 5E 20 83 00 FF 75 0C 8B 48 04 8B 51 18 50 FF .^ ...u..H..Q.P.
006E3100 D2 83 C4 04 8B 47 14 89 46 20 83 00 01 8B 46 24 .....G..F ....F$
006E3110 3B C3 74 14 89 5E 24 83 00 FF 75 0C 8B 48 04 8B ;.t..^$...u..H..
006E3120 51 18 50 FF D2 83 C4 04 8B 47 18 89 46 24 83 00 Q.P......G..F$..
006E3130 01 83 07 FF 75 0C 8B 47 04 8B 48 18 57 FF D1 83 ....u..G..H.W...
006E3140 C4 04 5B 5F 5E 33 C0 5D C3 CC CC CC CC CC CC CC ..[_^3.]........
006E3150 56 8B 74 24 08 8B 46 14 57 33 FF 3B C7 74 14 89 V.t$..F.W3.;.t..
006E3160 7E 14 83 00 FF 75 0C 8B 48 04 8B 51 18 50 FF D2 ~....u..H..Q.P..
006E3170 83 C4 04 8B 46 18 3B C7 74 14 89 7E 18 83 00 FF ....F.;.t..~....
006E3180 75 0C 8B 48 04 8B 51 18 50 FF D2 83 C4 04 8B 46 u..H..Q.P......F
006E3190 1C 3B C7 74 14 89 7E 1C 83 00 FF 75 0C 8B 48 04 .;.t..~....u..H.
006E31A0 8B 51 18 50 FF D2 83 C4 04 8B 46 20 3B C7 74 14 .Q.P......F ;.t.
006E31B0 89 7E 20 83 00 FF 75 0C 8B 48 04 8B 51 18 50 FF .~ ...u..H..Q.P.
006E31C0 D2 83 C4 04 8B 46 24 3B C7 74 14 89 7E 24 83 00 .....F$;.t..~$..
006E31D0 FF 75 0C 8B 48 04 8B 51 18 50 FF D2 83 C4 04 8B .u..H..Q.P......
006E31E0 46 28 3B C7 74 14 89 7E 28 83 00 FF 75 0C 8B 48 F(;.t..~(...u..H
006E31F0 04 8B 51 18 50 FF D2 83 C4 04 56 E8 E0 EE FF FF ..Q.P.....V.....
006E3200 83 C4 04 5F 5E C3 CC CC CC CC CC CC CC CC CC CC ..._^...........
006E3210 56 8B 74 24 08 8B 46 F4 8B 4E F0 C7 46 F8 FE FF V.t$..F..N..F...
006E3220 FF FF 89 08 8B 56 F0 8B 46 F4 89 42 04 56 C7 46 .....V..F..B.V.F
006E3230 F0 00 00 00 00 E8 16 FF FF FF 8B 4E 04 8B 91 A0 ...........N....
006E3240 00 00 00 56 FF D2 83 C4 08 5E C3 CC CC CC CC CC ...V.....^......
006E3250 53 8B 5C 24 08 8B 43 14 85 C0 56 8B 74 24 14 57 S.\$..C...V.t$.W
006E3260 8B 7C 24 14 74 0B 56 50 FF D7 83 C4 08 85 C0 75 .|$.t.VP.......u
006E3270 65 8B 43 18 85 C0 74 0B 56 50 FF D7 83 C4 08 85 e.C...t.VP......
006E3280 C0 75 53 8B 43 1C 85 C0 74 0B 56 50 FF D7 83 C4 .uS.C...t.VP....
006E3290 08 85 C0 75 41 8B 43 20 85 C0 74 0B 56 50 FF D7 ...uA.C ..t.VP..
006E32A0 83 C4 08 85 C0 75 2F 8B 43 24 85 C0 74 0B 56 50 .....u/.C$..t.VP
006E32B0 FF D7 83 C4 08 85 C0 75 1D 8B 43 28 85 C0 74 0B .......u..C(..t.
006E32C0 56 50 FF D7 83 C4 08 85 C0 75 0B 56 57 53 E8 BD VP.......u.VWS..
006E32D0 EE FF FF 83 C4 0C 5F 5E 5B C3 CC CC CC CC CC CC ......_^[.......
006E32E0 85 D2 8B C2 75 06 B8 EC 9B 8C 00 C3 8A 0A 84 C9 ....u...........
006E32F0 74 12 80 F9 5C 75 03 8D 42 01 8A 4A 01 83 C2 01 t...\u..B..J....
006E3300 84 C9 75 EE C3 CC CC CC CC CC CC CC CC CC CC CC ..u.............
006E3310 51 53 55 8B 6C 24 10 8B 45 14 56 33 F6 3B C6 74 QSU.l$..E.V3.;.t
006E3320 03 50 EB 05 68 B8 63 A1 00 E8 42 AC FF FF 8B D8 .P..h.c...B.....
006E3330 83 C4 04 3B DE 75 07 5E 5D 33 C0 5B 59 C3 8B 43 ...;.u.^]3.[Y..C
006E3340 04 3D 50 B4 A1 00 74 19 68 50 B4 A1 00 50 E8 1D .=P...t.hP...P..
006E3350 23 FF FF 83 C4 08 85 C0 75 07 5E 5D 8B C3 5B 59 #.......u.^]..[Y
006E3360 C3 8B 45 18 3B C6 57 74 27 8B 40 04 3D 50 B4 A1 ..E.;.Wt'.@.=P..
006E3370 00 74 12 68 50 B4 A1 00 50 E8 F2 22 FF FF 83 C4 .t.hP...P.."....
006E3380 08 85 C0 74 0B BF 01 00 00 00 89 7C 24 18 EB 06 ...t.......|$...
006E3390 89 74 24 18 8B FE 8B 45 1C 3B C6 74 26 8B 40 04 .t$....E.;.t&.@.
006E33A0 3D E8 E7 A1 00 74 12 68 E8 E7 A1 00 50 E8 BE 22 =....t.h....P.."
006E33B0 FF FF 83 C4 08 85 C0 74 0A C7 44 24 10 01 00 00 .......t..D$....
006E33C0 00 EB 04 89 74 24 10 3B FE 75 06 39 74 24 10 74 ....t$.;.u.9t$.t
006E33D0 2B 8B 73 08 83 C6 40 85 FF 74 06 8B 45 18 03 70 +.s...@..t..E..p
006E33E0 08 85 F6 8B C6 75 05 B8 01 00 00 00 50 FF 15 BC .....u......P...
006E33F0 45 8A 00 8B F8 83 C4 04 85 FF 75 08 5F 5E 5D 8B E.........u._^].
006E3400 C3 5B 59 C3 83 7C 24 18 00 74 4C 83 7C 24 10 00 .[Y..|$..tL.|$..
006E3410 74 24 8B 4D 1C 51 E8 85 1D 02 00 8B 55 18 83 C4 t$.M.Q......U...
006E3420 04 50 83 C2 14 E8 B6 FE FF FF 50 8D 53 14 52 68 .P........P.S.Rh
006E3430 1C 30 8D 00 EB 34 8B 55 18 83 C2 14 E8 9F FE FF .0...4.U........
006E3440 FF 50 8D 43 14 50 68 14 30 8D 00 56 57 E8 8E 1B .P.C.Ph.0..VW...
006E3450 04 00 83 C4 14 EB 1D 8B 4D 1C 51 E8 40 1D 02 00 ........M.Q.@...
006E3460 50 8D 53 14 52 68 04 30 8D 00 56 57 E8 6F 1B 04 P.S.Rh.0..VW.o..
006E3470 00 83 C4 18 57 E8 46 96 00 00 57 8B F0 FF 15 D4 ....W.F...W.....
006E3480 45 8A 00 83 C4 08 85 F6 75 0A 8B F3 5F 8B C6 5E E.......u..._..^
006E3490 5D 5B 59 C3 83 03 FF 75 0C 8B 43 04 8B 48 18 53 ][Y....u..C..H.S
006E34A0 FF D1 83 C4 04 5F 8B C6 5E 5D 5B 59 C3 CC CC CC ....._..^][Y....
006E34B0 8B 44 24 04 8B 40 0C 8B 48 08 83 F9 01 75 0C 8B .D$..@..H....u..
006E34C0 48 0C 89 4C 24 04 E9 E5 A8 FF FF 83 E9 00 74 1A H..L$.........t.
006E34D0 83 E9 01 74 09 89 44 24 04 E9 92 AA FF FF 8B 50 ...t..D$.......P
006E34E0 0C 89 54 24 04 E9 86 AA FF FF C7 44 24 04 8F 69 ..T$.......D$..i
006E34F0 8A 00 E9 C9 95 00 00 CC CC CC CC CC CC CC CC CC ................
006E3500 85 F6 75 18 A1 7C 6B A1 00 53 68 50 30 8D 00 50 ..u..|k..ShP0..P
006E3510 E8 BB E0 FF FF 83 C4 0C 83 C8 FF C3 8B 46 04 3D .............F.=
006E3520 E8 E7 A1 00 74 64 68 E8 E7 A1 00 50 E8 3F 21 FF ....tdh....P.?!.
006E3530 FF 83 C4 08 85 C0 75 52 8B 46 04 3D 00 F4 A1 00 ......uR.F.=....
006E3540 74 2B 68 00 F4 A1 00 50 E8 23 21 FF FF 83 C4 08 t+h....P.#!.....
006E3550 85 C0 75 19 8B 0D 7C 6B A1 00 53 68 30 30 8D 00 ..u...|k..Sh00..
006E3560 51 E8 6A E0 FF FF 83 C4 0C 83 C8 FF C3 56 E8 5D Q.j..........V.]
006E3570 D4 02 00 83 C4 04 83 F8 FF 89 07 75 12 E8 3E DA ...........u..>.
006E3580 FF FF 85 C0 74 09 83 C8 FF C3 8B 56 08 89 17 33 ....t......V...3
006E3590 C0 C3 CC CC CC CC CC CC CC CC CC CC CC CC CC CC ................
006E35A0 85 F6 75 17 A1 7C 6B A1 00 57 68 50 30 8D 00 50 ..u..|k..WhP0..P
006E35B0 E8 1B E0 FF FF 83 C4 0C 33 C0 C3 8B 46 04 3D 50 ........3...F.=P
006E35C0 B4 A1 00 74 2A 68 50 B4 A1 00 50 E8 A0 20 FF FF ...t*hP...P.. ..
006E35D0 83 C4 08 85 C0 75 18 8B 0D 7C 6B A1 00 57 68 6C .....u...|k..Whl
006E35E0 30 8D 00 51 E8 E7 DF FF FF 83 C4 0C 33 C0 C3 83 0..Q........3...
006E35F0 06 01 8B C6 C3 CC CC CC CC CC CC CC CC CC CC CC ................
006E3600 85 F6 75 17 A1 7C 6B A1 00 57 68 50 30 8D 00 50 ..u..|k..WhP0..P
006E3610 E8 BB DF FF FF 83 C4 0C 33 C0 C3 8B 46 04 3D 20 ........3...F.= 
006E3620 3B A2 00 74 2A 68 20 3B A2 00 50 E8 40 20 FF FF ;..t*h ;..P.@ ..
006E3630 83 C4 08 85 C0 75 18 8B 0D 7C 6B A1 00 57 68 8C .....u...|k..Wh.
006E3640 30 8D 00 51 E8 87 DF FF FF 83 C4 0C 33 C0 C3 83 0..Q........3...
006E3650 06 01 8B C6 C3 CC CC CC CC CC CC CC CC CC CC CC ................
006E3660 8B 44 24 04 56 8B 70 18 57 BF 1C 0C 8D 00 E8 8D .D$.V.p.W.......
006E3670 FF FF FF 5F 5E C3 CC CC CC CC CC CC CC CC CC CC ..._^...........
006E3680 8B 44 24 04 53 55 8B 6C 24 10 56 8B 70 1C 57 BB .D$.SU.l$.V.p.W.
006E3690 84 A6 8A 00 8B FD E8 65 FE FF FF 85 C0 75 48 8B .......e.....uH.
006E36A0 4C 24 14 8B 71 18 BF 1C 0C 8D 00 E8 50 FF FF FF L$..q.......P...
006E36B0 85 C0 74 33 83 7D 00 00 8B 48 08 7D 07 C7 45 00 ..t3.}...H.}..E.
006E36C0 00 00 00 00 39 4D 00 7C 06 83 C1 FF 89 4D 00 83 ....9M.|.....M..
006E36D0 00 FF 75 0C 8B 50 04 50 8B 42 18 FF D0 83 C4 04 ..u..P.P.B......
006E36E0 5F 5E 5D 33 C0 5B C3 5F 5E 5D 83 C8 FF 5B C3 CC _^]3.[._^]...[..
006E36F0 8B 44 24 04 53 55 8B 6C 24 10 56 8B 70 1C 57 BB .D$.SU.l$.V.p.W.
006E3700 84 A6 8A 00 8B FD E8 F5 FD FF FF 85 C0 75 48 8B .............uH.
006E3710 4C 24 14 8B 71 18 BF 1C 0C 8D 00 E8 80 FE FF FF L$..q...........
006E3720 85 C0 74 33 83 7D 00 00 8B 48 08 7D 07 C7 45 00 ..t3.}...H.}..E.
006E3730 00 00 00 00 39 4D 00 7C 06 83 C1 FF 89 4D 00 83 ....9M.|.....M..
006E3740 00 FF 75 0C 8B 50 04 50 8B 42 18 FF D0 83 C4 04 ..u..P.P.B......
006E3750 5F 5E 5D 33 C0 5B C3 5F 5E 5D 83 C8 FF 5B C3 CC _^]3.[._^]...[..
006E3760 E9 1B FF FF FF CC CC CC CC CC CC CC CC CC CC CC ................

;; fn006E3770: 006E3770
;;   Called from:
;;     00717D30 (in fn00717CB0)
;;     00719EA5 (in fn00719E80)
fn006E3770 proc
	mov	eax,[esp+8h]
	push	esi
	mov	esi,[esp+8h]
	push	edi
	push	eax
	call	705120h
	mov	edi,eax
	add	esp,4h
	test	edi,edi
	jnz	6E378Fh

l006E3789:
	pop	edi
	or	eax,0FFh
	pop	esi
	ret

l006E378F:
	mov	eax,[esi+1Ch]
	test	eax,eax
	jz	6E37AEh

l006E3796:
	mov	dword ptr [esi+1Ch],0h
	add	dword ptr [eax],0FFh
	jnz	6E37AEh

l006E37A2:
	mov	ecx,[eax+4h]
	mov	edx,[ecx+18h]
	push	eax
	call	edx
	add	esp,4h

l006E37AE:
	mov	[esi+1Ch],edi
	pop	edi
	xor	eax,eax
	pop	esi
	ret
006E37B6                   CC CC CC CC CC CC CC CC CC CC       ..........
006E37C0 8B 44 24 04 53 55 8B 6C 24 10 56 8B 70 20 57 BB .D$.SU.l$.V.p W.
006E37D0 8C F6 8C 00 8B FD E8 25 FD FF FF 85 C0 75 45 8B .......%.....uE.
006E37E0 4C 24 14 8B 71 18 BF 1C 0C 8D 00 E8 10 FE FF FF L$..q...........
006E37F0 85 C0 74 30 83 7D 00 01 8B 48 08 7D 07 C7 45 00 ..t0.}...H.}..E.
006E3800 01 00 00 00 39 4D 00 7E 03 89 4D 00 83 00 FF 75 ....9M.~..M....u
006E3810 0C 8B 50 04 50 8B 42 18 FF D0 83 C4 04 5F 5E 5D ..P.P.B......_^]
006E3820 33 C0 5B C3 5F 5E 5D 83 C8 FF 5B C3 CC CC CC CC 3.[._^]...[.....
006E3830 8B 44 24 04 53 55 8B 6C 24 10 56 8B 70 20 57 BB .D$.SU.l$.V.p W.
006E3840 8C F6 8C 00 8B FD E8 B5 FC FF FF 85 C0 75 45 8B .............uE.
006E3850 4C 24 14 8B 71 18 BF 1C 0C 8D 00 E8 40 FD FF FF L$..q.......@...
006E3860 85 C0 74 30 83 7D 00 01 8B 48 08 7D 07 C7 45 00 ..t0.}...H.}..E.
006E3870 01 00 00 00 39 4D 00 7E 03 89 4D 00 83 00 FF 75 ....9M.~..M....u
006E3880 0C 8B 50 04 50 8B 42 18 FF D0 83 C4 04 5F 5E 5D ..P.P.B......_^]
006E3890 33 C0 5B C3 5F 5E 5D 83 C8 FF 5B C3 CC CC CC CC 3.[._^]...[.....
006E38A0 E9 1B FF FF FF CC CC CC CC CC CC CC CC CC CC CC ................

;; fn006E38B0: 006E38B0
;;   Called from:
;;     00717D4A (in fn00717CB0)
;;     00719EB5 (in fn00719E80)
fn006E38B0 proc
	mov	eax,[esp+8h]
	push	esi
	mov	esi,[esp+8h]
	push	edi
	push	eax
	call	705120h
	mov	edi,eax
	add	esp,4h
	test	edi,edi
	jnz	6E38CFh

l006E38C9:
	pop	edi
	or	eax,0FFh
	pop	esi
	ret

l006E38CF:
	mov	eax,[esi+20h]
	test	eax,eax
	jz	6E38EEh

l006E38D6:
	mov	dword ptr [esi+20h],0h
	add	dword ptr [eax],0FFh
	jnz	6E38EEh

l006E38E2:
	mov	ecx,[eax+4h]
	mov	edx,[ecx+18h]
	push	eax
	call	edx
	add	esp,4h

l006E38EE:
	mov	[esi+20h],edi
	pop	edi
	xor	eax,eax
	pop	esi
	ret
006E38F6                   CC CC CC CC CC CC CC CC CC CC       ..........

;; fn006E3900: 006E3900
;;   Called from:
;;     00717D62 (in fn00717CB0)
;;     00719EC5 (in fn00719E80)
fn006E3900 proc
	mov	eax,[esp+8h]
	push	esi
	mov	esi,[esp+8h]
	push	edi
	push	eax
	call	6ECAC0h
	mov	edi,eax
	add	esp,4h
	test	edi,edi
	jnz	6E391Fh

l006E3919:
	pop	edi
	or	eax,0FFh
	pop	esi
	ret

l006E391F:
	mov	eax,[esi+24h]
	test	eax,eax
	jz	6E393Eh

l006E3926:
	mov	dword ptr [esi+24h],0h
	add	dword ptr [eax],0FFh
	jnz	6E393Eh

l006E3932:
	mov	ecx,[eax+4h]
	mov	edx,[ecx+18h]
	push	eax
	call	edx
	add	esp,4h

l006E393E:
	mov	[esi+24h],edi
	pop	edi
	xor	eax,eax
	pop	esi
	ret
006E3946                   CC CC CC CC CC CC CC CC CC CC       ..........
006E3950 51 53 55 56 8B F0 8B 46 14 85 C0 8D 6E 14 57 74 QSUV...F....n.Wt
006E3960 18 C7 45 00 00 00 00 00 83 00 FF 75 0C 8B 48 04 ..E........u..H.
006E3970 8B 51 18 50 FF D2 83 C4 04 8B 46 18 85 C0 8D 4E .Q.P......F....N
006E3980 18 89 4C 24 10 74 17 C7 01 00 00 00 00 83 00 FF ..L$.t..........
006E3990 75 0C 8B 48 04 8B 51 18 50 FF D2 83 C4 04 8B 46 u..H..Q.P......F
006E39A0 1C 85 C0 8D 5E 1C 74 17 C7 03 00 00 00 00 83 00 ....^.t.........
006E39B0 FF 75 0C 8B 48 04 8B 51 18 50 FF D2 83 C4 04 8B .u..H..Q.P......
006E39C0 46 20 85 C0 8D 7E 20 74 17 C7 07 00 00 00 00 83 F ...~ t........
006E39D0 00 FF 75 0C 8B 48 04 8B 51 18 50 FF D2 83 C4 04 ..u..H..Q.P.....
006E39E0 8B 46 24 83 C6 24 85 C0 74 17 C7 06 00 00 00 00 .F$..$..t.......
006E39F0 83 00 FF 75 0C 8B 48 04 8B 51 18 50 FF D2 83 C4 ...u..H..Q.P....
006E3A00 04 8B 44 24 10 8B 4C 24 1C 8B 54 24 18 56 68 50 ..D$..L$..T$.VhP
006E3A10 B4 A1 00 57 68 E8 E7 A1 00 53 68 E8 E7 A1 00 50 ...Wh....Sh....P
006E3A20 51 55 68 50 B4 A1 00 68 B0 30 8D 00 52 E8 7E 42 QUhP...h.0..R.~B
006E3A30 00 00 83 C4 30 85 C0 75 20 89 07 5F 89 06 89 03 ....0..u .._....
006E3A40 8B 44 24 0C 5E C7 45 00 00 00 00 00 5D C7 00 00 .D$.^.E.....]...
006E3A50 00 00 00 83 C8 FF 5B 59 C3 8B 45 00 83 00 01 8B ......[Y..E.....
006E3A60 4C 24 10 8B 01 83 00 01 8B 03 83 00 01 8B 3F 83 L$............?.
006E3A70 07 01 8B 36 83 06 01 5F 5E 5D 33 C0 5B 59 C3 CC ...6..._^]3.[Y..
006E3A80 56 8B 74 24 08 8B 46 14 57 33 FF 3B C7 74 14 89 V.t$..F.W3.;.t..
006E3A90 7E 14 83 00 FF 75 0C 8B 48 04 8B 51 18 50 FF D2 ~....u..H..Q.P..
006E3AA0 83 C4 04 8B 46 18 3B C7 74 14 89 7E 18 83 00 FF ....F.;.t..~....
006E3AB0 75 0C 8B 48 04 8B 51 18 50 FF D2 83 C4 04 8B 46 u..H..Q.P......F
006E3AC0 1C 3B C7 74 14 89 7E 1C 83 00 FF 75 0C 8B 48 04 .;.t..~....u..H.
006E3AD0 8B 51 18 50 FF D2 83 C4 04 8B 46 20 3B C7 74 14 .Q.P......F ;.t.
006E3AE0 89 7E 20 83 00 FF 75 0C 8B 48 04 8B 51 18 50 FF .~ ...u..H..Q.P.
006E3AF0 D2 83 C4 04 8B 46 24 3B C7 74 14 89 7E 24 83 00 .....F$;.t..~$..
006E3B00 FF 75 0C 8B 48 04 8B 51 18 50 FF D2 83 C4 04 56 .u..H..Q.P.....V
006E3B10 E8 CB E5 FF FF 83 C4 04 5F 5E C3 CC CC CC CC CC ........_^......
006E3B20 56 8B 74 24 08 8B 46 F4 8B 4E F0 C7 46 F8 FE FF V.t$..F..N..F...
006E3B30 FF FF 89 08 8B 56 F0 8B 46 F4 89 42 04 56 C7 46 .....V..F..B.V.F
006E3B40 F0 00 00 00 00 E8 36 FF FF FF 8B 4E 04 8B 91 A0 ......6....N....
006E3B50 00 00 00 56 FF D2 83 C4 08 5E C3 CC CC CC CC CC ...V.....^......
006E3B60 53 8B 5C 24 08 8B 43 14 85 C0 56 8B 74 24 14 57 S.\$..C...V.t$.W
006E3B70 8B 7C 24 14 74 0B 56 50 FF D7 83 C4 08 85 C0 75 .|$.t.VP.......u
006E3B80 53 8B 43 18 85 C0 74 0B 56 50 FF D7 83 C4 08 85 S.C...t.VP......
006E3B90 C0 75 41 8B 43 1C 85 C0 74 0B 56 50 FF D7 83 C4 .uA.C...t.VP....
006E3BA0 08 85 C0 75 2F 8B 43 20 85 C0 74 0B 56 50 FF D7 ...u/.C ..t.VP..
006E3BB0 83 C4 08 85 C0 75 1D 8B 43 24 85 C0 74 0B 56 50 .....u..C$..t.VP
006E3BC0 FF D7 83 C4 08 85 C0 75 0B 56 57 53 E8 BF E5 FF .......u.VWS....
006E3BD0 FF 83 C4 0C 5F 5E 5B C3 CC CC CC CC CC CC CC CC ...._^[.........
006E3BE0 8B 44 24 0C 56 8B 74 24 0C 57 8B 7C 24 0C 50 56 .D$.V.t$.W.|$.PV
006E3BF0 57 E8 6A E4 FF FF 83 C4 0C 83 F8 FF 75 05 5F 0B W.j.........u._.
006E3C00 C0 5E C3 68 20 3B A2 00 56 8B C7 E8 40 FD FF FF .^.h ;..V...@...
006E3C10 83 C4 08 5F 5E C3 CC CC CC CC CC CC CC CC CC CC ..._^...........
006E3C20 83 EC 20 A1 88 41 A1 00 33 C4 89 44 24 1C 56 8B .. ..A..3..D$.V.
006E3C30 74 24 28 8D 44 24 08 50 56 E8 42 FA FF FF 83 C4 t$(.D$.PV.B.....
006E3C40 08 85 C0 74 12 33 C0 5E 8B 4C 24 1C 33 CC E8 3B ...t.3.^.L$.3..;
006E3C50 0F FB FF 83 C4 20 C3 8D 4C 24 04 51 56 E8 5E FB ..... ..L$.QV.^.
006E3C60 FF FF 83 C4 08 85 C0 75 DC 8B 44 24 04 57 8B 7C .......u..D$.W.|
006E3C70 24 0C 8D 57 01 3B C2 75 64 8B 46 18 8B 48 0C 0F $..W.;.ud.F..H..
006E3C80 B7 04 79 3D FF 00 00 00 50 7F 0E 68 60 31 8D 00 ..y=....P..h`1..
006E3C90 6A 14 8D 54 24 1C 52 EB 21 3D FF FF 00 00 7F 0E j..T$.R.!=......
006E3CA0 68 58 31 8D 00 6A 14 8D 44 24 1C 50 EB 0C 68 50 hX1..j..D$.P..hP
006E3CB0 31 8D 00 6A 14 8D 4C 24 1C 51 E8 21 13 04 00 8B 1..j..L$.Q.!....
006E3CC0 56 24 8B 4E 14 83 C4 10 83 C2 14 52 57 8D 44 24 V$.N.......RW.D$
006E3CD0 18 50 83 C1 14 51 68 08 31 8D 00 EB 18 8B 56 24 .P...Qh.1.....V$
006E3CE0 83 C2 14 52 83 C0 FF 50 8B 46 14 57 83 C0 14 50 ...R...P.F.W...P
006E3CF0 68 C0 30 8D 00 E8 76 E3 00 00 8B 4C 24 38 83 C4 h.0...v....L$8..
006E3D00 14 5F 5E 33 CC E8 84 0E FB FF 83 C4 20 C3 CC CC ._^3........ ...

;; fn006E3D10: 006E3D10
;;   Called from:
;;     00719E98 (in fn00719E80)
fn006E3D10 proc
	mov	eax,[esp+18h]
	mov	ecx,[esp+14h]
	mov	edx,[esp+10h]
	push	eax
	mov	eax,[esp+10h]
	push	ecx
	mov	ecx,[esp+10h]
	push	edx
	mov	edx,[esp+10h]
	push	eax
	mov	eax,[0A17FB4h]
	push	ecx
	push	edx
	push	8D3168h
	push	eax
	call	703870h
	add	esp,20h
	ret
006E3D42       CC CC CC CC CC CC CC CC CC CC CC CC CC CC   ..............
006E3D50 8B 44 24 0C 56 8B 74 24 0C 57 8B 7C 24 0C 50 56 .D$.V.t$.W.|$.PV
006E3D60 57 E8 FA E2 FF FF 83 C4 0C 83 F8 FF 75 05 5F 0B W...........u._.
006E3D70 C0 5E C3 68 50 B4 A1 00 56 8B C7 E8 D0 FB FF FF .^.hP...V.......
006E3D80 83 C4 08 5F 5E C3 CC CC CC CC CC CC CC CC CC CC ..._^...........
006E3D90 83 EC 08 33 C0 56 8B 74 24 10 89 44 24 04 89 44 ...3.V.t$..D$..D
006E3DA0 24 08 8D 44 24 04 50 56 E8 43 F9 FF FF 83 C4 08 $..D$.PV.C......
006E3DB0 85 C0 74 07 33 C0 5E 83 C4 08 C3 8D 4C 24 08 51 ..t.3.^.....L$.Q
006E3DC0 56 E8 6A FA FF FF 83 C4 08 85 C0 75 E7 8B 44 24 V.j........u..D$
006E3DD0 08 57 8B 7C 24 08 8D 57 01 3B C2 75 41 8B 46 18 .W.|$..W.;.uA.F.
006E3DE0 0F B6 4C 38 14 51 68 F0 31 8D 00 8D 54 24 14 6A ..L8.Qh.1...T$.j
006E3DF0 04 52 E8 E9 11 04 00 8B 46 24 8B 56 14 83 C0 14 .R......F$.V....
006E3E00 50 57 8D 4C 24 24 51 83 C2 14 52 68 B0 31 8D 00 PW.L$$Q...Rh.1..
006E3E10 E8 5B E2 00 00 83 C4 24 5F 5E 83 C4 08 C3 8B 4E .[.....$_^.....N
006E3E20 24 8B 56 14 83 C1 14 51 83 C0 FF 50 57 83 C2 14 $.V....Q...PW...
006E3E30 52 68 70 31 8D 00 E8 35 E2 00 00 83 C4 14 5F 5E Rhp1...5......_^
006E3E40 83 C4 08 C3 CC CC CC CC CC CC CC CC CC CC CC CC ................

;; fn006E3E50: 006E3E50
;;   Called from:
;;     00717D14 (in fn00717CB0)
fn006E3E50 proc
	mov	eax,[esp+18h]
	mov	ecx,[esp+14h]
	mov	edx,[esp+10h]
	push	eax
	mov	eax,[esp+10h]
	push	ecx
	mov	ecx,[esp+10h]
	push	edx
	mov	edx,[esp+10h]
	push	eax
	mov	eax,[0A18044h]
	push	ecx
	push	edx
	push	8D31F8h
	push	eax
	call	703870h
	add	esp,20h
	ret
006E3E82       CC CC CC CC CC CC CC CC CC CC CC CC CC CC   ..............
006E3E90 8B 44 24 0C 8B 4C 24 08 56 8B 74 24 08 50 51 56 .D$..L$.V.t$.PQV
006E3EA0 E8 BB E1 FF FF 83 C4 0C 83 F8 FF 75 04 0B C0 5E ...........u...^
006E3EB0 C3 8B 46 18 85 C0 55 8D 6E 18 74 18 C7 45 00 00 ..F...U.n.t..E..
006E3EC0 00 00 00 83 00 FF 75 0C 8B 50 04 50 8B 42 18 FF ......u..P.P.B..
006E3ED0 D0 83 C4 04 8B 46 1C 85 C0 53 8D 5E 1C 74 17 C7 .....F...S.^.t..
006E3EE0 03 00 00 00 00 83 00 FF 75 0C 8B 48 04 8B 51 18 ........u..H..Q.
006E3EF0 50 FF D2 83 C4 04 8B 46 20 85 C0 57 8D 7E 20 74 P......F ..W.~ t
006E3F00 17 C7 07 00 00 00 00 83 00 FF 75 0C 8B 48 04 8B ..........u..H..
006E3F10 51 18 50 FF D2 83 C4 04 8B 46 24 83 C6 24 85 C0 Q.P......F$..$..
006E3F20 74 17 C7 06 00 00 00 00 83 00 FF 75 0C 8B 48 04 t..........u..H.
006E3F30 8B 51 18 50 FF D2 83 C4 04 8B 44 24 18 56 68 50 .Q.P......D$.VhP
006E3F40 B4 A1 00 57 68 E8 E7 A1 00 53 68 E8 E7 A1 00 55 ...Wh....Sh....U
006E3F50 68 20 3B A2 00 68 00 32 8D 00 50 E8 50 3D 00 00 h ;..h.2..P.P=..
006E3F60 83 C4 28 85 C0 75 11 89 07 5F 89 03 5B 89 45 00 ..(..u..._..[.E.
006E3F70 89 06 5D 83 C8 FF 5E C3 8B 45 00 83 00 01 8B 03 ..]...^..E......
006E3F80 83 00 01 8B 3F 83 07 01 8B 36 83 06 01 5F 5B 5D ....?....6..._[]
006E3F90 33 C0 5E C3 CC CC CC CC CC CC CC CC CC CC CC CC 3.^.............
006E3FA0 83 EC 20 A1 88 41 A1 00 33 C4 89 44 24 1C 57 8B .. ..A..3..D$.W.
006E3FB0 7C 24 28 8D 44 24 08 50 57 E8 C2 F6 FF FF 83 C4 |$(.D$.PW.......
006E3FC0 08 85 C0 74 12 33 C0 5F 8B 4C 24 1C 33 CC E8 BB ...t.3._.L$.3...
006E3FD0 0B FB FF 83 C4 20 C3 8D 4C 24 04 51 57 E8 DE F7 ..... ..L$.QW...
006E3FE0 FF FF 83 C4 08 85 C0 75 DC 8B 44 24 04 56 8B 74 .......u..D$.V.t
006E3FF0 24 0C 8D 56 01 3B C2 75 5D 8B 47 18 8B 48 0C 0F $..V.;.u].G..H..
006E4000 B7 04 71 3D FF 00 00 00 50 7F 0E 68 60 31 8D 00 ..q=....P..h`1..
006E4010 6A 14 8D 54 24 1C 52 EB 21 3D FF FF 00 00 7F 0E j..T$.R.!=......
006E4020 68 58 31 8D 00 6A 14 8D 44 24 1C 50 EB 0C 68 50 hX1..j..D$.P..hP
006E4030 31 8D 00 6A 14 8D 4C 24 1C 51 E8 A1 0F 04 00 8B 1..j..L$.Q......
006E4040 57 24 83 C4 10 83 C2 14 52 56 8D 44 24 18 50 68 W$......RV.D$.Ph
006E4050 44 32 8D 00 EB 11 8B 4F 24 83 C1 14 51 83 C0 FF D2.....O$...Q...
006E4060 50 56 68 0C 32 8D 00 E8 04 E0 00 00 8B 4C 24 34 PVh.2........L$4
006E4070 83 C4 10 5E 5F 33 CC E8 12 0B FB FF 83 C4 20 C3 ...^_3........ .
006E4080 8B 44 24 14 8B 4C 24 10 8B 54 24 0C 50 8B 44 24 .D$..L$..T$.P.D$
006E4090 0C 51 8B 4C 24 0C 52 8B 15 88 82 A1 00 50 51 68 .Q.L$.R......PQh
006E40A0 80 32 8D 00 52 E8 C6 F7 01 00 83 C4 1C C3 CC CC .2..R...........
006E40B0 68 30 69 A1 00 E8 06 65 FF FF 83 C4 04 85 C0 7D h0i....e.......}
006E40C0 0D 68 AC 35 8D 00 E8 25 46 00 00 83 C4 04 68 F8 .h.5...%F.....h.
006E40D0 69 A1 00 E8 E8 64 FF FF 83 C4 04 85 C0 7D 0D 68 i....d.......}.h
006E40E0 AC 35 8D 00 E8 07 46 00 00 83 C4 04 68 B8 6A A1 .5....F.....h.j.
006E40F0 00 E8 CA 64 FF FF 83 C4 04 85 C0 7D 0D 68 AC 35 ...d.......}.h.5
006E4100 8D 00 E8 E9 45 00 00 83 C4 04 68 80 6B A1 00 E8 ....E.....h.k...
006E4110 AC 64 FF FF 83 C4 04 85 C0 7D 0D 68 AC 35 8D 00 .d.......}.h.5..
006E4120 E8 CB 45 00 00 83 C4 04 68 40 6C A1 00 E8 8E 64 ..E.....h@l....d
006E4130 FF FF 83 C4 04 85 C0 7D 0D 68 AC 35 8D 00 E8 AD .......}.h.5....
006E4140 45 00 00 83 C4 04 68 08 6D A1 00 E8 70 64 FF FF E.....h.m...pd..
006E4150 83 C4 04 85 C0 7D 0D 68 AC 35 8D 00 E8 8F 45 00 .....}.h.5....E.
006E4160 00 83 C4 04 68 08 6E A1 00 E8 52 64 FF FF 83 C4 ....h.n...Rd....
006E4170 04 85 C0 7D 0D 68 AC 35 8D 00 E8 71 45 00 00 83 ...}.h.5...qE...
006E4180 C4 04 68 C8 6E A1 00 E8 34 64 FF FF 83 C4 04 85 ..h.n...4d......
006E4190 C0 7D 0D 68 AC 35 8D 00 E8 53 45 00 00 83 C4 04 .}.h.5...SE.....
006E41A0 68 90 6F A1 00 E8 16 64 FF FF 83 C4 04 85 C0 7D h.o....d.......}
006E41B0 0D 68 AC 35 8D 00 E8 35 45 00 00 83 C4 04 68 D8 .h.5...5E.....h.
006E41C0 70 A1 00 E8 F8 63 FF FF 83 C4 04 85 C0 7D 0D 68 p....c.......}.h
006E41D0 AC 35 8D 00 E8 17 45 00 00 83 C4 04 68 98 71 A1 .5....E.....h.q.
006E41E0 00 E8 DA 63 FF FF 83 C4 04 85 C0 7D 0D 68 AC 35 ...c.......}.h.5
006E41F0 8D 00 E8 F9 44 00 00 83 C4 04 68 60 72 A1 00 E8 ....D.....h`r...
006E4200 BC 63 FF FF 83 C4 04 85 C0 7D 0D 68 AC 35 8D 00 .c.......}.h.5..
006E4210 E8 DB 44 00 00 83 C4 04 68 98 73 A1 00 E8 9E 63 ..D.....h.s....c
006E4220 FF FF 83 C4 04 85 C0 7D 0D 68 AC 35 8D 00 E8 BD .......}.h.5....
006E4230 44 00 00 83 C4 04 68 60 74 A1 00 E8 80 63 FF FF D.....h`t....c..
006E4240 83 C4 04 85 C0 7D 0D 68 AC 35 8D 00 E8 9F 44 00 .....}.h.5....D.
006E4250 00 83 C4 04 68 20 75 A1 00 E8 62 63 FF FF 83 C4 ....h u...bc....
006E4260 04 85 C0 7D 0D 68 AC 35 8D 00 E8 81 44 00 00 83 ...}.h.5....D...
006E4270 C4 04 68 E8 75 A1 00 E8 44 63 FF FF 83 C4 04 85 ..h.u...Dc......
006E4280 C0 7D 0D 68 AC 35 8D 00 E8 63 44 00 00 83 C4 04 .}.h.5...cD.....
006E4290 68 A8 76 A1 00 E8 26 63 FF FF 83 C4 04 85 C0 7D h.v...&c.......}
006E42A0 0D 68 AC 35 8D 00 E8 45 44 00 00 83 C4 04 68 70 .h.5...ED.....hp
006E42B0 77 A1 00 E8 08 63 FF FF 83 C4 04 85 C0 7D 0D 68 w....c.......}.h
006E42C0 AC 35 8D 00 E8 27 44 00 00 83 C4 04 68 30 78 A1 .5...'D.....h0x.
006E42D0 00 E8 EA 62 FF FF 83 C4 04 85 C0 7D 0D 68 AC 35 ...b.......}.h.5
006E42E0 8D 00 E8 09 44 00 00 83 C4 04 68 98 79 A1 00 E8 ....D.....h.y...
006E42F0 CC 62 FF FF 83 C4 04 85 C0 7D 0D 68 AC 35 8D 00 .b.......}.h.5..
006E4300 E8 EB 43 00 00 83 C4 04 68 58 7A A1 00 E8 AE 62 ..C.....hXz....b
006E4310 FF FF 83 C4 04 85 C0 7D 0D 68 AC 35 8D 00 E8 CD .......}.h.5....
006E4320 43 00 00 83 C4 04 68 20 7B A1 00 E8 90 62 FF FF C.....h {....b..
006E4330 83 C4 04 85 C0 7D 0D 68 AC 35 8D 00 E8 AF 43 00 .....}.h.5....C.
006E4340 00 83 C4 04 68 E0 7B A1 00 E8 72 62 FF FF 83 C4 ....h.{...rb....
006E4350 04 85 C0 7D 0D 68 AC 35 8D 00 E8 91 43 00 00 83 ...}.h.5....C...
006E4360 C4 04 68 A8 7C A1 00 E8 54 62 FF FF 83 C4 04 85 ..h.|...Tb......
006E4370 C0 7D 0D 68 AC 35 8D 00 E8 73 43 00 00 83 C4 04 .}.h.5...sC.....
006E4380 68 68 7D A1 00 E8 36 62 FF FF 83 C4 04 85 C0 7D hh}...6b.......}
006E4390 0D 68 AC 35 8D 00 E8 55 43 00 00 83 C4 04 68 30 .h.5...UC.....h0
006E43A0 7E A1 00 E8 18 62 FF FF 83 C4 04 85 C0 7D 0D 68 ~....b.......}.h
006E43B0 AC 35 8D 00 E8 37 43 00 00 83 C4 04 68 F0 7E A1 .5...7C.....h.~.
006E43C0 00 E8 FA 61 FF FF 83 C4 04 85 C0 7D 0D 68 AC 35 ...a.......}.h.5
006E43D0 8D 00 E8 19 43 00 00 83 C4 04 68 48 80 A1 00 E8 ....C.....hH....
006E43E0 DC 61 FF FF 83 C4 04 85 C0 7D 0D 68 AC 35 8D 00 .a.......}.h.5..
006E43F0 E8 FB 42 00 00 83 C4 04 68 08 81 A1 00 E8 BE 61 ..B.....h......a
006E4400 FF FF 83 C4 04 85 C0 7D 0D 68 AC 35 8D 00 E8 DD .......}.h.5....
006E4410 42 00 00 83 C4 04 68 C8 81 A1 00 E8 A0 61 FF FF B.....h......a..
006E4420 83 C4 04 85 C0 7D 0D 68 AC 35 8D 00 E8 BF 42 00 .....}.h.5....B.
006E4430 00 83 C4 04 68 90 82 A1 00 E8 82 61 FF FF 83 C4 ....h......a....
006E4440 04 85 C0 7D 0D 68 AC 35 8D 00 E8 A1 42 00 00 83 ...}.h.5....B...
006E4450 C4 04 68 50 83 A1 00 E8 64 61 FF FF 83 C4 04 85 ..hP....da......
006E4460 C0 7D 0D 68 AC 35 8D 00 E8 83 42 00 00 83 C4 04 .}.h.5....B.....
006E4470 68 18 84 A1 00 E8 46 61 FF FF 83 C4 04 85 C0 7D h.....Fa.......}
006E4480 0D 68 AC 35 8D 00 E8 65 42 00 00 83 C4 04 68 D8 .h.5...eB.....h.
006E4490 84 A1 00 E8 28 61 FF FF 83 C4 04 85 C0 7D 0D 68 ....(a.......}.h
006E44A0 AC 35 8D 00 E8 47 42 00 00 83 C4 04 68 A0 85 A1 .5...GB.....h...
006E44B0 00 E8 0A 61 FF FF 83 C4 04 85 C0 7D 0D 68 AC 35 ...a.......}.h.5
006E44C0 8D 00 E8 29 42 00 00 83 C4 04 68 60 86 A1 00 E8 ...)B.....h`....
006E44D0 EC 60 FF FF 83 C4 04 85 C0 7D 0D 68 AC 35 8D 00 .`.......}.h.5..
006E44E0 E8 0B 42 00 00 83 C4 04 68 28 87 A1 00 E8 CE 60 ..B.....h(.....`
006E44F0 FF FF 83 C4 04 85 C0 7D 0D 68 AC 35 8D 00 E8 ED .......}.h.5....
006E4500 41 00 00 83 C4 04 68 E8 87 A1 00 E8 B0 60 FF FF A.....h......`..
006E4510 83 C4 04 85 C0 7D 0D 68 AC 35 8D 00 E8 CF 41 00 .....}.h.5....A.
006E4520 00 83 C4 04 68 B0 88 A1 00 E8 92 60 FF FF 83 C4 ....h......`....
006E4530 04 85 C0 7D 0D 68 AC 35 8D 00 E8 B1 41 00 00 83 ...}.h.5....A...
006E4540 C4 04 68 70 89 A1 00 E8 74 60 FF FF 83 C4 04 85 ..hp....t`......
006E4550 C0 7D 0D 68 AC 35 8D 00 E8 93 41 00 00 83 C4 04 .}.h.5....A.....
006E4560 68 38 8A A1 00 E8 56 60 FF FF 83 C4 04 85 C0 7D h8....V`.......}
006E4570 0D 68 AC 35 8D 00 E8 75 41 00 00 83 C4 04 68 F8 .h.5...uA.....h.
006E4580 8A A1 00 E8 38 60 FF FF 83 C4 04 85 C0 7D 0D 68 ....8`.......}.h
006E4590 AC 35 8D 00 E8 57 41 00 00 83 C4 04 68 C0 8B A1 .5...WA.....h...
006E45A0 00 E8 1A 60 FF FF 83 C4 04 85 C0 7D 0D 68 AC 35 ...`.......}.h.5
006E45B0 8D 00 E8 39 41 00 00 83 C4 04 68 80 8C A1 00 E8 ...9A.....h.....
006E45C0 FC 5F FF FF 83 C4 04 85 C0 7D 0D 68 AC 35 8D 00 ._.......}.h.5..
006E45D0 E8 1B 41 00 00 83 C4 04 68 48 8D A1 00 E8 DE 5F ..A.....hH....._
006E45E0 FF FF 83 C4 04 85 C0 7D 0D 68 AC 35 8D 00 E8 FD .......}.h.5....
006E45F0 40 00 00 83 C4 04 68 08 8E A1 00 E8 C0 5F FF FF @.....h......_..
006E4600 83 C4 04 85 C0 7D 0D 68 AC 35 8D 00 E8 DF 40 00 .....}.h.5....@.
006E4610 00 83 C4 04 68 D0 8E A1 00 E8 A2 5F FF FF 83 C4 ....h......_....
006E4620 04 85 C0 7D 0D 68 AC 35 8D 00 E8 C1 40 00 00 83 ...}.h.5....@...
006E4630 C4 04 57 68 F5 03 00 00 6A 00 68 60 67 A1 00 68 ..Wh....j.h`g..h
006E4640 7C C5 A6 00 68 A0 35 8D 00 E8 C2 4F 00 00 8B F8 |...h.5....O....
006E4650 83 C4 14 85 FF 0F 84 35 0C 00 00 53 68 4C 14 8D .......5...ShL..
006E4660 00 E8 4A 4C 01 00 8B D8 83 C4 04 85 DB 75 0D 68 ..JL.........u.h
006E4670 AC 35 8D 00 E8 77 40 00 00 83 C4 04 56 53 E8 AD .5...w@.....VS..
006E4680 2B 03 00 8B F0 83 C4 04 85 F6 75 0D 68 AC 35 8D +.........u.h.5.
006E4690 00 E8 5A 40 00 00 83 C4 04 A1 F0 69 A1 00 83 00 ..Z@.......i....
006E46A0 01 A1 F0 69 A1 00 50 68 90 35 8D 00 57 E8 EE 58 ...i..Ph.5..W..X
006E46B0 00 00 8B 0D F0 69 A1 00 51 68 90 35 8D 00 56 E8 .....i..Qh.5..V.
006E46C0 2C 92 01 00 83 C4 18 85 C0 74 0D 68 68 35 8D 00 ,........t.hh5..
006E46D0 E8 1B 40 00 00 83 C4 04 A1 F4 69 A1 00 83 00 01 ..@.......i.....
006E46E0 8B 15 F4 69 A1 00 52 68 5C 35 8D 00 57 E8 AE 58 ...i..Rh\5..W..X
006E46F0 00 00 A1 F4 69 A1 00 50 68 5C 35 8D 00 56 E8 ED ....i..Ph\5..V..
006E4700 91 01 00 83 C4 18 85 C0 74 0D 68 68 35 8D 00 E8 ........t.hh5...
006E4710 DC 3F 00 00 83 C4 04 A1 78 6B A1 00 83 00 01 8B .?......xk......
006E4720 0D 78 6B A1 00 51 68 4C 35 8D 00 57 E8 6F 58 00 .xk..QhL5..W.oX.
006E4730 00 8B 15 78 6B A1 00 52 68 4C 35 8D 00 56 E8 AD ...xk..RhL5..V..
006E4740 91 01 00 83 C4 18 85 C0 74 0D 68 68 35 8D 00 E8 ........t.hh5...
006E4750 9C 3F 00 00 83 C4 04 A1 7C 6B A1 00 83 00 01 A1 .?......|k......
006E4760 7C 6B A1 00 50 68 40 35 8D 00 57 E8 30 58 00 00 |k..Ph@5..W.0X..
006E4770 8B 0D 7C 6B A1 00 51 68 40 35 8D 00 56 E8 6E 91 ..|k..Qh@5..V.n.
006E4780 01 00 83 C4 18 85 C0 74 0D 68 68 35 8D 00 E8 5D .......t.hh5...]
006E4790 3F 00 00 83 C4 04 A1 00 6D A1 00 83 00 01 8B 15 ?.......m.......
006E47A0 00 6D A1 00 52 68 30 35 8D 00 57 E8 F0 57 00 00 .m..Rh05..W..W..
006E47B0 A1 00 6D A1 00 50 68 30 35 8D 00 56 E8 2F 91 01 ..m..Ph05..V./..
006E47C0 00 83 C4 18 85 C0 74 0D 68 68 35 8D 00 E8 1E 3F ......t.hh5....?
006E47D0 00 00 83 C4 04 A1 04 6D A1 00 83 00 01 8B 0D 04 .......m........
006E47E0 6D A1 00 51 68 20 35 8D 00 57 E8 B1 57 00 00 8B m..Qh 5..W..W...
006E47F0 15 04 6D A1 00 52 68 20 35 8D 00 56 E8 EF 90 01 ..m..Rh 5..V....
006E4800 00 83 C4 18 85 C0 74 0D 68 68 35 8D 00 E8 DE 3E ......t.hh5....>
006E4810 00 00 83 C4 04 A1 04 6E A1 00 83 00 01 A1 04 6E .......n.......n
006E4820 A1 00 50 68 14 35 8D 00 57 E8 72 57 00 00 8B 0D ..Ph.5..W.rW....
006E4830 04 6E A1 00 51 68 14 35 8D 00 56 E8 B0 90 01 00 .n..Qh.5..V.....
006E4840 83 C4 18 85 C0 74 0D 68 68 35 8D 00 E8 9F 3E 00 .....t.hh5....>.
006E4850 00 83 C4 04 A1 88 6F A1 00 83 00 01 8B 15 88 6F ......o........o
006E4860 A1 00 52 68 00 35 8D 00 57 E8 32 57 00 00 A1 88 ..Rh.5..W.2W....
006E4870 6F A1 00 50 68 00 35 8D 00 56 E8 71 90 01 00 83 o..Ph.5..V.q....
006E4880 C4 18 85 C0 74 0D 68 68 35 8D 00 E8 60 3E 00 00 ....t.hh5...`>..
006E4890 83 C4 04 A1 8C 6F A1 00 83 00 01 8B 0D 8C 6F A1 .....o........o.
006E48A0 00 51 68 F4 34 8D 00 57 E8 F3 56 00 00 8B 15 8C .Qh.4..W..V.....
006E48B0 6F A1 00 52 68 F4 34 8D 00 56 E8 31 90 01 00 83 o..Rh.4..V.1....
006E48C0 C4 18 85 C0 74 0D 68 68 35 8D 00 E8 20 3E 00 00 ....t.hh5... >..
006E48D0 83 C4 04 A1 D4 70 A1 00 83 00 01 A1 D4 70 A1 00 .....p.......p..
006E48E0 50 68 A8 2F 8D 00 57 E8 B4 56 00 00 8B 0D D4 70 Ph./..W..V.....p
006E48F0 A1 00 51 68 A8 2F 8D 00 56 E8 F2 8F 01 00 83 C4 ..Qh./..V.......
006E4900 18 85 C0 74 0D 68 68 35 8D 00 E8 E1 3D 00 00 83 ...t.hh5....=...
006E4910 C4 04 A1 58 72 A1 00 83 00 01 8B 15 58 72 A1 00 ...Xr.......Xr..
006E4920 52 68 EC 34 8D 00 57 E8 74 56 00 00 A1 58 72 A1 Rh.4..W.tV...Xr.
006E4930 00 50 68 EC 34 8D 00 56 E8 B3 8F 01 00 83 C4 18 .Ph.4..V........
006E4940 85 C0 74 0D 68 68 35 8D 00 E8 A2 3D 00 00 83 C4 ..t.hh5....=....
006E4950 04 A1 5C 72 A1 00 83 00 01 8B 0D 5C 72 A1 00 51 ..\r.......\r..Q
006E4960 68 E4 34 8D 00 57 E8 35 56 00 00 8B 15 5C 72 A1 h.4..W.5V....\r.
006E4970 00 52 68 E4 34 8D 00 56 E8 73 8F 01 00 83 C4 18 .Rh.4..V.s......
006E4980 85 C0 74 0D 68 68 35 8D 00 E8 62 3D 00 00 83 C4 ..t.hh5...b=....
006E4990 04 A1 58 74 A1 00 83 00 01 A1 58 74 A1 00 50 68 ..Xt......Xt..Ph
006E49A0 D4 34 8D 00 57 E8 F6 55 00 00 8B 0D 58 74 A1 00 .4..W..U....Xt..
006E49B0 51 68 D4 34 8D 00 56 E8 34 8F 01 00 83 C4 18 85 Qh.4..V.4.......
006E49C0 C0 74 0D 68 68 35 8D 00 E8 23 3D 00 00 83 C4 04 .t.hh5...#=.....
006E49D0 A1 5C 74 A1 00 83 00 01 8B 15 5C 74 A1 00 52 68 .\t.......\t..Rh
006E49E0 C8 34 8D 00 57 E8 B6 55 00 00 A1 5C 74 A1 00 50 .4..W..U...\t..P
006E49F0 68 C8 34 8D 00 56 E8 F5 8E 01 00 83 C4 18 85 C0 h.4..V..........
006E4A00 74 0D 68 68 35 8D 00 E8 E4 3C 00 00 83 C4 04 A1 t.hh5....<......
006E4A10 E0 75 A1 00 83 00 01 8B 0D E0 75 A1 00 51 68 B8 .u........u..Qh.
006E4A20 34 8D 00 57 E8 77 55 00 00 8B 15 E0 75 A1 00 52 4..W.wU.....u..R
006E4A30 68 B8 34 8D 00 56 E8 B5 8E 01 00 83 C4 18 85 C0 h.4..V..........
006E4A40 74 0D 68 68 35 8D 00 E8 A4 3C 00 00 83 C4 04 A1 t.hh5....<......
006E4A50 E4 75 A1 00 83 00 01 A1 E4 75 A1 00 50 68 A4 34 .u.......u..Ph.4
006E4A60 8D 00 57 E8 38 55 00 00 8B 0D E4 75 A1 00 51 68 ..W.8U.....u..Qh
006E4A70 A4 34 8D 00 56 E8 76 8E 01 00 83 C4 18 85 C0 74 .4..V.v........t
006E4A80 0D 68 68 35 8D 00 E8 65 3C 00 00 83 C4 04 A1 68 .hh5...e<......h
006E4A90 77 A1 00 83 00 01 8B 15 68 77 A1 00 52 68 98 34 w.......hw..Rh.4
006E4AA0 8D 00 57 E8 F8 54 00 00 A1 68 77 A1 00 50 68 98 ..W..T...hw..Ph.
006E4AB0 34 8D 00 56 E8 37 8E 01 00 83 C4 18 85 C0 74 0D 4..V.7........t.
006E4AC0 68 68 35 8D 00 E8 26 3C 00 00 83 C4 04 A1 6C 77 hh5...&<......lw
006E4AD0 A1 00 83 00 01 8B 0D 6C 77 A1 00 51 68 84 34 8D .......lw..Qh.4.
006E4AE0 00 57 E8 B9 54 00 00 8B 15 6C 77 A1 00 52 68 84 .W..T....lw..Rh.
006E4AF0 34 8D 00 56 E8 F7 8D 01 00 83 C4 18 85 C0 74 0D 4..V..........t.
006E4B00 68 68 35 8D 00 E8 E6 3B 00 00 83 C4 04 A1 F0 78 hh5....;.......x
006E4B10 A1 00 83 00 01 A1 F0 78 A1 00 50 68 74 34 8D 00 .......x..Pht4..
006E4B20 57 E8 7A 54 00 00 8B 0D F0 78 A1 00 51 68 74 34 W.zT.....x..Qht4
006E4B30 8D 00 56 E8 B8 8D 01 00 83 C4 18 85 C0 74 0D 68 ..V..........t.h
006E4B40 68 35 8D 00 E8 A7 3B 00 00 83 C4 04 A1 F4 78 A1 h5....;.......x.
006E4B50 00 83 00 01 8B 15 F4 78 A1 00 52 68 68 34 8D 00 .......x..Rhh4..
006E4B60 57 E8 3A 54 00 00 A1 F4 78 A1 00 50 68 68 34 8D W.:T....x..Phh4.
006E4B70 00 56 E8 79 8D 01 00 83 C4 18 85 C0 74 0D 68 68 .V.y........t.hh
006E4B80 35 8D 00 E8 68 3B 00 00 83 C4 04 A1 18 7B A1 00 5...h;.......{..
006E4B90 83 00 01 8B 0D 18 7B A1 00 51 68 54 34 8D 00 57 ......{..QhT4..W
006E4BA0 E8 FB 53 00 00 8B 15 18 7B A1 00 52 68 54 34 8D ..S.....{..RhT4.
006E4BB0 00 56 E8 39 8D 01 00 83 C4 18 85 C0 74 0D 68 68 .V.9........t.hh
006E4BC0 35 8D 00 E8 28 3B 00 00 83 C4 04 A1 1C 7B A1 00 5...(;.......{..
006E4BD0 83 00 01 A1 1C 7B A1 00 50 68 48 34 8D 00 57 E8 .....{..PhH4..W.
006E4BE0 BC 53 00 00 8B 0D 1C 7B A1 00 51 68 48 34 8D 00 .S.....{..QhH4..
006E4BF0 56 E8 FA 8C 01 00 83 C4 18 85 C0 74 0D 68 68 35 V..........t.hh5
006E4C00 8D 00 E8 E9 3A 00 00 83 C4 04 A1 A0 7C A1 00 83 ....:.......|...
006E4C10 00 01 8B 15 A0 7C A1 00 52 68 3C 34 8D 00 57 E8 .....|..Rh<4..W.
006E4C20 7C 53 00 00 A1 A0 7C A1 00 50 68 3C 34 8D 00 56 |S....|..Ph<4..V
006E4C30 E8 BB 8C 01 00 83 C4 18 85 C0 74 0D 68 68 35 8D ..........t.hh5.
006E4C40 00 E8 AA 3A 00 00 83 C4 04 A1 A4 7C A1 00 83 00 ...:.......|....
006E4C50 01 8B 0D A4 7C A1 00 51 68 30 34 8D 00 57 E8 3D ....|..Qh04..W.=
006E4C60 53 00 00 8B 15 A4 7C A1 00 52 68 30 34 8D 00 56 S.....|..Rh04..V
006E4C70 E8 7B 8C 01 00 83 C4 18 85 C0 74 0D 68 68 35 8D .{........t.hh5.
006E4C80 00 E8 6A 3A 00 00 83 C4 04 A1 28 7E A1 00 83 00 ..j:......(~....
006E4C90 01 A1 28 7E A1 00 50 68 24 34 8D 00 57 E8 FE 52 ..(~..Ph$4..W..R
006E4CA0 00 00 8B 0D 28 7E A1 00 51 68 24 34 8D 00 56 E8 ....(~..Qh$4..V.
006E4CB0 3C 8C 01 00 83 C4 18 85 C0 74 0D 68 68 35 8D 00 <........t.hh5..
006E4CC0 E8 2B 3A 00 00 83 C4 04 A1 2C 7E A1 00 83 00 01 .+:......,~.....
006E4CD0 8B 15 2C 7E A1 00 52 68 18 34 8D 00 57 E8 BE 52 ..,~..Rh.4..W..R
006E4CE0 00 00 A1 2C 7E A1 00 50 68 18 34 8D 00 56 E8 FD ...,~..Ph.4..V..
006E4CF0 8B 01 00 83 C4 18 85 C0 74 0D 68 68 35 8D 00 E8 ........t.hh5...
006E4D00 EC 39 00 00 83 C4 04 A1 B0 7F A1 00 83 00 01 8B .9..............
006E4D10 0D B0 7F A1 00 51 68 08 34 8D 00 57 E8 7F 52 00 .....Qh.4..W..R.
006E4D20 00 8B 15 B0 7F A1 00 52 68 08 34 8D 00 56 E8 BD .......Rh.4..V..
006E4D30 8B 01 00 83 C4 18 85 C0 74 0D 68 68 35 8D 00 E8 ........t.hh5...
006E4D40 AC 39 00 00 83 C4 04 A1 B4 7F A1 00 83 00 01 A1 .9..............
006E4D50 B4 7F A1 00 50 68 F4 33 8D 00 57 E8 40 52 00 00 ....Ph.3..W.@R..
006E4D60 8B 0D B4 7F A1 00 51 68 F4 33 8D 00 56 E8 7E 8B ......Qh.3..V.~.
006E4D70 01 00 83 C4 18 85 C0 74 0D 68 68 35 8D 00 E8 6D .......t.hh5...m
006E4D80 39 00 00 83 C4 04 A1 44 80 A1 00 83 00 01 8B 15 9......D........
006E4D90 44 80 A1 00 52 68 E0 33 8D 00 57 E8 00 52 00 00 D...Rh.3..W..R..
006E4DA0 A1 44 80 A1 00 50 68 E0 33 8D 00 56 E8 3F 8B 01 .D...Ph.3..V.?..
006E4DB0 00 83 C4 18 85 C0 74 0D 68 68 35 8D 00 E8 2E 39 ......t.hh5....9
006E4DC0 00 00 83 C4 04 A1 88 82 A1 00 83 00 01 8B 0D 88 ................
006E4DD0 82 A1 00 51 68 C8 33 8D 00 57 E8 C1 51 00 00 8B ...Qh.3..W..Q...
006E4DE0 15 88 82 A1 00 52 68 C8 33 8D 00 56 E8 FF 8A 01 .....Rh.3..V....
006E4DF0 00 83 C4 18 85 C0 74 0D 68 68 35 8D 00 E8 EE 38 ......t.hh5....8
006E4E00 00 00 83 C4 04 A1 8C 82 A1 00 83 00 01 A1 8C 82 ................
006E4E10 A1 00 50 68 B8 33 8D 00 57 E8 82 51 00 00 8B 0D ..Ph.3..W..Q....
006E4E20 8C 82 A1 00 51 68 B8 33 8D 00 56 E8 C0 8A 01 00 ....Qh.3..V.....
006E4E30 83 C4 18 85 C0 74 0D 68 68 35 8D 00 E8 AF 38 00 .....t.hh5....8.
006E4E40 00 83 C4 04 A1 10 84 A1 00 83 00 01 8B 15 10 84 ................
006E4E50 A1 00 52 68 A8 33 8D 00 57 E8 42 51 00 00 A1 10 ..Rh.3..W.BQ....
006E4E60 84 A1 00 50 68 A8 33 8D 00 56 E8 81 8A 01 00 83 ...Ph.3..V......
006E4E70 C4 18 85 C0 74 0D 68 68 35 8D 00 E8 70 38 00 00 ....t.hh5...p8..
006E4E80 83 C4 04 A1 14 84 A1 00 83 00 01 8B 0D 14 84 A1 ................
006E4E90 00 51 68 94 33 8D 00 57 E8 03 51 00 00 8B 15 14 .Qh.3..W..Q.....
006E4EA0 84 A1 00 52 68 94 33 8D 00 56 E8 41 8A 01 00 83 ...Rh.3..V.A....
006E4EB0 C4 18 85 C0 74 0D 68 68 35 8D 00 E8 30 38 00 00 ....t.hh5...08..
006E4EC0 83 C4 04 A1 98 85 A1 00 83 00 01 A1 98 85 A1 00 ................
006E4ED0 50 68 84 33 8D 00 57 E8 C4 50 00 00 8B 0D 98 85 Ph.3..W..P......
006E4EE0 A1 00 51 68 84 33 8D 00 56 E8 02 8A 01 00 83 C4 ..Qh.3..V.......
006E4EF0 18 85 C0 74 0D 68 68 35 8D 00 E8 F1 37 00 00 83 ...t.hh5....7...
006E4F00 C4 04 A1 9C 85 A1 00 83 00 01 8B 15 9C 85 A1 00 ................
006E4F10 52 68 70 33 8D 00 57 E8 84 50 00 00 A1 9C 85 A1 Rhp3..W..P......
006E4F20 00 50 68 70 33 8D 00 56 E8 C3 89 01 00 83 C4 18 .Php3..V........
006E4F30 85 C0 74 0D 68 68 35 8D 00 E8 B2 37 00 00 83 C4 ..t.hh5....7....
006E4F40 04 A1 20 87 A1 00 83 00 01 8B 0D 20 87 A1 00 51 .. ........ ...Q
006E4F50 68 64 33 8D 00 57 E8 45 50 00 00 8B 15 20 87 A1 hd3..W.EP.... ..
006E4F60 00 52 68 64 33 8D 00 56 E8 83 89 01 00 83 C4 18 .Rhd3..V........
006E4F70 85 C0 74 0D 68 68 35 8D 00 E8 72 37 00 00 83 C4 ..t.hh5...r7....
006E4F80 04 A1 24 87 A1 00 83 00 01 A1 24 87 A1 00 50 68 ..$.......$...Ph
006E4F90 54 33 8D 00 57 E8 06 50 00 00 8B 0D 24 87 A1 00 T3..W..P....$...
006E4FA0 51 68 54 33 8D 00 56 E8 44 89 01 00 83 C4 18 85 QhT3..V.D.......
006E4FB0 C0 74 0D 68 68 35 8D 00 E8 33 37 00 00 83 C4 04 .t.hh5...37.....
006E4FC0 A1 A8 88 A1 00 83 00 01 8B 15 A8 88 A1 00 52 68 ..............Rh
006E4FD0 48 33 8D 00 57 E8 C6 4F 00 00 A1 A8 88 A1 00 50 H3..W..O.......P
006E4FE0 68 48 33 8D 00 56 E8 05 89 01 00 83 C4 18 85 C0 hH3..V..........
006E4FF0 74 0D 68 68 35 8D 00 E8 F4 36 00 00 83 C4 04 A1 t.hh5....6......
006E5000 AC 88 A1 00 83 00 01 8B 0D AC 88 A1 00 51 68 40 .............Qh@
006E5010 33 8D 00 57 E8 87 4F 00 00 8B 15 AC 88 A1 00 52 3..W..O........R
006E5020 68 40 33 8D 00 56 E8 C5 88 01 00 83 C4 18 85 C0 h@3..V..........
006E5030 74 0D 68 68 35 8D 00 E8 B4 36 00 00 83 C4 04 A1 t.hh5....6......
006E5040 30 8A A1 00 83 00 01 A1 30 8A A1 00 50 68 34 33 0.......0...Ph43
006E5050 8D 00 57 E8 48 4F 00 00 8B 0D 30 8A A1 00 51 68 ..W.HO....0...Qh
006E5060 34 33 8D 00 56 E8 86 88 01 00 83 C4 18 85 C0 74 43..V..........t
006E5070 0D 68 68 35 8D 00 E8 75 36 00 00 83 C4 04 A1 34 .hh5...u6......4
006E5080 8A A1 00 83 00 01 8B 15 34 8A A1 00 52 68 20 33 ........4...Rh 3
006E5090 8D 00 57 E8 08 4F 00 00 A1 34 8A A1 00 50 68 20 ..W..O...4...Ph 
006E50A0 33 8D 00 56 E8 47 88 01 00 83 C4 18 85 C0 74 0D 3..V.G........t.
006E50B0 68 68 35 8D 00 E8 36 36 00 00 83 C4 04 A1 B8 8B hh5...66........
006E50C0 A1 00 83 00 01 8B 0D B8 8B A1 00 51 68 04 33 8D ...........Qh.3.
006E50D0 00 57 E8 C9 4E 00 00 8B 15 B8 8B A1 00 52 68 04 .W..N........Rh.
006E50E0 33 8D 00 56 E8 07 88 01 00 83 C4 18 85 C0 74 0D 3..V..........t.
006E50F0 68 68 35 8D 00 E8 F6 35 00 00 83 C4 04 A1 BC 8B hh5....5........
006E5100 A1 00 83 00 01 A1 BC 8B A1 00 50 68 F4 32 8D 00 ..........Ph.2..
006E5110 57 E8 8A 4E 00 00 8B 0D BC 8B A1 00 51 68 F4 32 W..N........Qh.2
006E5120 8D 00 56 E8 C8 87 01 00 83 C4 18 85 C0 74 0D 68 ..V..........t.h
006E5130 68 35 8D 00 E8 B7 35 00 00 83 C4 04 A1 40 8D A1 h5....5......@..
006E5140 00 83 00 01 8B 15 40 8D A1 00 52 68 E4 32 8D 00 ......@...Rh.2..
006E5150 57 E8 4A 4E 00 00 A1 40 8D A1 00 50 68 E4 32 8D W.JN...@...Ph.2.
006E5160 00 56 E8 89 87 01 00 83 C4 18 85 C0 74 0D 68 68 .V..........t.hh
006E5170 35 8D 00 E8 78 35 00 00 83 C4 04 A1 44 8D A1 00 5...x5......D...
006E5180 83 00 01 8B 0D 44 8D A1 00 51 68 D4 32 8D 00 57 .....D...Qh.2..W
006E5190 E8 0B 4E 00 00 8B 15 44 8D A1 00 52 68 D4 32 8D ..N....D...Rh.2.
006E51A0 00 56 E8 49 87 01 00 83 C4 18 85 C0 74 0D 68 68 .V.I........t.hh
006E51B0 35 8D 00 E8 38 35 00 00 83 C4 04 A1 C8 8E A1 00 5...85..........
006E51C0 83 00 01 A1 C8 8E A1 00 50 68 C4 32 8D 00 57 E8 ........Ph.2..W.
006E51D0 CC 4D 00 00 8B 0D C8 8E A1 00 51 68 C4 32 8D 00 .M........Qh.2..
006E51E0 56 E8 0A 87 01 00 83 C4 18 85 C0 74 0D 68 68 35 V..........t.hh5
006E51F0 8D 00 E8 F9 34 00 00 83 C4 04 A1 CC 8E A1 00 83 ....4...........
006E5200 00 01 8B 15 CC 8E A1 00 52 68 B4 32 8D 00 57 E8 ........Rh.2..W.
006E5210 8C 4D 00 00 A1 CC 8E A1 00 50 68 B4 32 8D 00 56 .M.......Ph.2..V
006E5220 E8 CB 86 01 00 83 C4 18 85 C0 5E 74 0D 68 68 35 ..........^t.hh5
006E5230 8D 00 E8 B9 34 00 00 83 C4 04 6A 00 6A 00 68 E8 ....4.....j.j.h.
006E5240 87 A1 00 E8 98 CD FF FF 83 C4 0C 85 C0 A3 78 C5 ..............x.
006E5250 A6 00 75 0D 68 88 32 8D 00 E8 92 34 00 00 83 C4 ..u.h.2....4....
006E5260 04 83 03 FF 75 0C 8B 4B 04 8B 51 18 53 FF D2 83 ....u..K..Q.S...
006E5270 C4 04 68 80 0C 52 00 FF 15 E8 46 8A 00 83 C4 04 ..h..R....F.....
006E5280 A3 70 C5 A6 00 C7 05 74 C5 A6 00 00 00 00 00 5B .p.....t.......[
006E5290 5F C3 CC CC CC CC CC CC CC CC CC CC CC CC CC CC _...............

;; fn006E52A0: 006E52A0
;;   Called from:
;;     006E8978 (in fn006E8910)
fn006E52A0 proc
	mov	eax,[0A6C578h]
	test	eax,eax
	jz	6E52C2h

l006E52A9:
	add	dword ptr [eax],0FFh
	mov	eax,[0A6C578h]
	cmp	dword ptr [eax],0h
	jnz	6E52C2h

l006E52B6:
	mov	ecx,[eax+4h]
	mov	edx,[ecx+18h]
	push	eax
	call	edx
	add	esp,4h

l006E52C2:
	mov	eax,[0A6C570h]
	push	eax
	mov	dword ptr [0A6C578h],0h
	call	dword ptr [8A46E8h]
	pop	ecx
	ret
006E52DA                               CC CC CC CC CC CC           ......
006E52E0 8B 44 24 04 83 78 08 00 B8 D4 35 8D 00 74 05 B8 .D$..x....5..t..
006E52F0 CC 35 8D 00 8B 4C 24 08 51 50 FF 15 EC 46 8A 00 .5...L$.QP...F..
006E5300 83 C4 08 33 C0 C3 CC CC CC CC CC CC CC CC CC CC ...3............
006E5310 8B 44 24 04 83 78 08 00 74 1A A1 90 C5 A6 00 85 .D$..x..t.......
006E5320 C0 75 30 68 CC 35 8D 00 E8 43 C7 00 00 A3 90 C5 .u0h.5...C......
006E5330 A6 00 EB 18 A1 8C C5 A6 00 85 C0 75 16 68 D4 35 ...........u.h.5
006E5340 8D 00 E8 29 C7 00 00 A3 8C C5 A6 00 83 C4 04 85 ...)............
006E5350 C0 74 03 83 00 01 C3 CC CC CC CC CC CC CC CC CC .t..............
006E5360 83 7C 24 04 00 B8 E4 91 A1 00 75 05 B8 D8 91 A1 .|$.......u.....
006E5370 00 83 00 01 C3 CC CC CC CC CC CC CC CC CC CC CC ................
006E5380 51 8B 4C 24 10 8B 54 24 0C 8D 04 24 50 68 90 8F Q.L$..T$...$Ph..
006E5390 A1 00 68 DC 35 8D 00 51 52 C7 44 24 14 D8 91 A1 ..h.5..QR.D$....
006E53A0 00 E8 5A 27 00 00 83 C4 14 85 C0 75 04 33 C0 59 ..Z'.......u.3.Y
006E53B0 C3 8B 04 24 50 E8 D6 96 FF FF 83 C4 04 85 C0 7C ...$P..........|
006E53C0 EC B8 E4 91 A1 00 75 05 B8 D8 91 A1 00 83 00 01 ......u.........
006E53D0 59 C3 CC CC CC CC CC CC CC CC CC CC CC CC CC CC Y...............
006E53E0 8B 44 24 04 8B 4C 24 08 BA 18 91 A1 00 39 50 04 .D$..L$......9P.
006E53F0 75 1B 39 51 04 75 16 8B 40 08 85 41 08 B8 E4 91 u.9Q.u..@..A....
006E5400 A1 00 75 05 B8 D8 91 A1 00 83 00 01 C3 89 4C 24 ..u...........L$
006E5410 08 8B 0D 18 E8 A1 00 8B 51 38 89 44 24 04 FF E2 ........Q8.D$...
006E5420 8B 44 24 04 8B 4C 24 08 BA 18 91 A1 00 39 50 04 .D$..L$......9P.
006E5430 75 1B 39 51 04 75 16 8B 40 08 0B 41 08 B8 E4 91 u.9Q.u..@..A....
006E5440 A1 00 75 05 B8 D8 91 A1 00 83 00 01 C3 89 4C 24 ..u...........L$
006E5450 08 8B 0D 18 E8 A1 00 8B 51 40 89 44 24 04 FF E2 ........Q@.D$...
006E5460 8B 44 24 04 8B 4C 24 08 BA 18 91 A1 00 39 50 04 .D$..L$......9P.
006E5470 75 1B 39 51 04 75 16 8B 40 08 33 41 08 B8 E4 91 u.9Q.u..@.3A....
006E5480 A1 00 75 05 B8 D8 91 A1 00 83 00 01 C3 89 4C 24 ..u...........L$
006E5490 08 8B 0D 18 E8 A1 00 8B 51 3C 89 44 24 04 FF E2 ........Q<.D$...

;; fn006E54A0: 006E54A0
;;   Called from:
;;     006E6871 (in fn006E5C60)
;;     006E6973 (in fn006E5C60)
fn006E54A0 proc
	cmp	dword ptr [edi],0h
	jnz	6E54C3h

l006E54A5:
	push	0h
	call	6F2650h
	add	esp,4h
	test	eax,eax
	mov	[edi],eax
	jnz	6E54C3h

l006E54B5:
	push	ebx
	call	dword ptr [8A45D4h]
	add	esp,4h
	or	eax,0FFh
	ret

l006E54C3:
	push	esi
	push	0h
	push	ebx
	call	72E920h
	mov	esi,eax
	add	esp,8h
	test	esi,esi
	jnz	6E54E4h

l006E54D5:
	push	ebx
	call	dword ptr [8A45D4h]
	add	esp,4h
	or	eax,0FFh
	pop	esi
	ret

l006E54E4:
	mov	eax,[edi]
	push	esi
	push	eax
	call	6F2A10h
	add	esp,8h
	test	eax,eax
	jz	6E5514h

l006E54F4:
	push	ebx
	call	dword ptr [8A45D4h]
	add	esp,4h
	add	dword ptr [esi],0FFh
	jnz	6E550Fh

l006E5503:
	mov	ecx,[esi+4h]
	mov	edx,[ecx+18h]
	push	esi
	call	edx
	add	esp,4h

l006E550F:
	or	eax,0FFh
	pop	esi
	ret

l006E5514:
	add	dword ptr [esi],0FFh
	jnz	6E5525h

l006E5519:
	mov	eax,[esi+4h]
	mov	ecx,[eax+18h]
	push	esi
	call	ecx
	add	esp,4h

l006E5525:
	xor	eax,eax
	pop	esi
	ret
006E5529                            CC CC CC CC CC CC CC          .......

;; fn006E5530: 006E5530
;;   Called from:
;;     006E78B3 (in fn006E7660)
;;     006E79D4 (in fn006E7660)
fn006E5530 proc
	test	edi,edi
	jz	6E5584h

l006E5534:
	push	ebp
	mov	ebp,[esp+8h]
	test	ebp,ebp
	jnz	6E556Fh

l006E553D:
	push	ebx
	mov	ebx,[edi+8h]
	push	esi
	xor	esi,esi
	test	ebx,ebx
	jle	6E556Dh

l006E5548:
	mov	ebp,[8A45D4h]
	mov	edi,edi

l006E5550:
	mov	eax,[edi+0Ch]
	mov	ecx,[eax+esi*4]
	push	ecx
	call	72E9C0h
	push	eax
	call	ebp
	add	esi,1h
	add	esp,8h
	cmp	esi,ebx
	jl	6E5550h

l006E5569:
	mov	ebp,[esp+10h]

l006E556D:
	pop	esi
	pop	ebx

l006E556F:
	add	dword ptr [edi],0FFh
	jnz	6E5580h

l006E5574:
	mov	edx,[edi+4h]
	mov	eax,[edx+18h]
	push	edi
	call	eax
	add	esp,4h

l006E5580:
	mov	eax,ebp
	pop	ebp
	ret

l006E5584:
	mov	eax,[esp+4h]
	ret
006E5589                            CC CC CC CC CC CC CC          .......

;; fn006E5590: 006E5590
;;   Called from:
;;     006E78A8 (in fn006E7660)
fn006E5590 proc
	sub	esp,208h
	mov	eax,[0A14188h]
	xor	eax,esp
	mov	[esp+204h],eax
	mov	eax,[esp+210h]
	push	ebp
	mov	ebp,[esp+218h]
	push	esi
	push	edi
	mov	[esp+0Ch],eax
	mov	edi,ecx
	lea	esi,[esp+10h]
	call	6E0FC0h
	test	eax,eax
	jnz	6E56F5h

l006E55CC:
	test	edi,edi
	jnz	6E56E5h

l006E55D4:
	test	ebp,ebp
	jz	6E5602h

l006E55D8:
	push	ebp
	push	8D3610h
	mov	ecx,esi
	push	200h
	push	ecx
	call	724FE0h
	mov	eax,esi
	add	esp,10h
	lea	edx,[eax+1h]

l006E55F3:
	mov	cl,[eax]
	add	eax,1h
	test	cl,cl
	jnz	6E55F3h

l006E55FC:
	sub	eax,edx
	lea	esi,[esp+eax+10h]

l006E5602:
	mov	eax,[esp+218h]
	test	eax,eax
	jz	6E569Ah

l006E5611:
	push	eax
	lea	edx,[esp+214h]
	push	8D3604h
	sub	edx,esi
	push	edx
	push	esi
	call	724FE0h
	mov	eax,esi
	add	esp,10h
	xor	edi,edi
	lea	edx,[eax+1h]

l006E5631:
	mov	cl,[eax]
	add	eax,1h
	test	cl,cl
	jnz	6E5631h

l006E563A:
	sub	eax,edx
	add	esi,eax
	cmp	[ebx],edi
	jle	6E56C4h

l006E5646:
	cmp	edi,20h
	jge	6E56C4h

l006E564F:
	mov	eax,esi
	lea	ecx,[esp+10h]
	sub	eax,ecx
	cmp	eax,0DCh
	jge	6E56C4h

l006E565E:
	mov	edx,[ebx+edi*4]
	sub	edx,1h
	push	edx
	lea	eax,[esp+214h]
	push	8D35F8h
	sub	eax,esi
	push	eax
	push	esi
	call	724FE0h
	mov	eax,esi
	add	esp,10h
	lea	edx,[eax+1h]

l006E5682:
	mov	cl,[eax]
	add	eax,1h
	test	cl,cl
	jnz	6E5682h

l006E568B:
	sub	eax,edx
	add	edi,1h
	add	esi,eax
	cmp	dword ptr [ebx+edi*4],0h
	jg	6E5646h

l006E5698:
	jmp	6E56C4h

l006E569A:
	lea	ecx,[esp+210h]
	push	8D35ECh
	sub	ecx,esi
	push	ecx
	push	esi
	call	724FE0h
	mov	eax,esi
	add	esp,0Ch
	lea	edx,[eax+1h]

l006E56B7:
	mov	cl,[eax]
	add	eax,1h
	test	cl,cl
	jnz	6E56B7h

l006E56C0:
	sub	eax,edx
	add	esi,eax

l006E56C4:
	mov	edx,[esp+0Ch]
	push	edx
	lea	eax,[esp+214h]
	push	8D35E4h
	sub	eax,esi
	push	eax
	push	esi
	call	724FE0h
	add	esp,10h
	lea	edi,[esp+10h]

l006E56E5:
	mov	ecx,[0A16B7Ch]
	push	edi
	push	ecx
	call	6E0F80h
	add	esp,8h

l006E56F5:
	mov	ecx,[esp+210h]
	pop	edi
	pop	esi
	pop	ebp
	xor	ecx,esp
	call	694B8Eh
	add	esp,208h
	ret
006E570D                                        CC CC CC              ...

;; fn006E5710: 006E5710
;;   Called from:
;;     006E6EB1 (in fn006E6E70)
fn006E5710 proc
	push	ecx
	push	ebx
	mov	ebx,[8A46C8h]
	push	ebp
	push	esi
	push	edi
	mov	edi,[esp+1Ch]
	mov	eax,[edi]
	xor	esi,esi
	xor	ebp,ebp
	mov	[esp+10h],eax
	lea	esp,[esp+0h]

l006E5730:
	mov	ecx,[esp+10h]
	movsx	eax,byte ptr [ecx]
	add	ecx,1h
	cmp	eax,28h
	mov	[esp+10h],ecx
	jnz	6E574Fh

l006E5743:
	test	esi,esi
	jnz	6E574Ah

l006E5747:
	add	ebp,1h

l006E574A:
	add	esi,1h
	jmp	6E5730h

l006E574F:
	cmp	eax,29h
	jnz	6E575Dh

l006E5754:
	test	esi,esi
	jz	6E5783h

l006E5758:
	sub	esi,1h
	jmp	6E5730h

l006E575D:
	cmp	eax,3Ah
	jz	6E5783h

l006E5762:
	cmp	eax,3Bh
	jz	6E5783h

l006E5767:
	test	eax,eax
	jz	6E5783h

l006E576B:
	test	esi,esi
	jnz	6E5730h

l006E576F:
	and	eax,0FFh
	push	eax
	call	ebx
	add	esp,4h
	test	eax,eax
	jz	6E5730h

l006E577E:
	add	ebp,1h
	jmp	6E5730h

l006E5783:
	mov	esi,[esp+18h]
	push	esi
	call	704700h
	add	esp,4h
	test	eax,eax
	jz	6E58CDh

l006E5798:
	mov	eax,[esi+4h]
	cmp	eax,0A1B450h
	jz	6E58CDh

l006E57A6:
	push	0A1B450h
	push	eax
	call	6D5670h
	add	esp,8h
	test	eax,eax
	jnz	6E58CDh

l006E57BC:
	push	esi
	call	703120h
	add	esp,4h
	cmp	eax,ebp
	jz	6E5801h

l006E57C9:
	cmp	dword ptr [esp+34h],0h
	mov	ecx,[esp+28h]
	mov	dword ptr [ecx],0h
	mov	ecx,8D36A0h
	jnz	6E57E4h

l006E57DF:
	mov	ecx,8D3678h

l006E57E4:
	mov	edx,[esp+30h]
	mov	esi,[esp+2Ch]
	push	eax
	push	ebp
	push	ecx
	push	edx
	push	esi
	call	724FE0h
	add	esp,14h
	pop	edi
	mov	eax,esi
	pop	esi
	pop	ebp
	pop	ebx
	pop	ecx
	ret

l006E5801:
	mov	eax,[edi]
	xor	ebx,ebx
	test	ebp,ebp
	mov	[esp+10h],eax
	jg	6E581Bh

l006E580D:
	mov	[edi],eax
	pop	edi
	pop	esi
	pop	ebp
	xor	eax,eax
	pop	ebx
	pop	ecx
	ret

l006E5817:
	mov	esi,[esp+18h]

l006E581B:
	push	ebx
	push	esi
	call	703180h
	mov	esi,eax
	add	esp,8h
	test	esi,esi
	jz	6E588Ah

l006E582B:
	mov	ecx,[esp+38h]
	mov	edx,[esp+30h]
	mov	eax,[esp+2Ch]
	push	ecx
	mov	ecx,[esp+2Ch]
	push	edx
	mov	edx,[esp+2Ch]
	push	eax
	mov	eax,[esp+2Ch]
	add	ecx,4h
	push	ecx
	push	edx
	push	eax
	lea	ecx,[esp+28h]
	push	ecx
	push	esi
	call	6E6E70h
	add	esp,20h
	add	dword ptr [esi],0FFh
	mov	edi,eax
	jnz	6E586Dh

l006E5861:
	mov	edx,[esi+4h]
	mov	eax,[edx+18h]
	push	esi
	call	eax
	add	esp,4h

l006E586D:
	add	ebx,1h
	test	edi,edi
	jnz	6E58BFh

l006E5874:
	cmp	ebx,ebp
	jl	6E5817h

l006E5878:
	mov	edi,[esp+1Ch]
	mov	eax,[esp+10h]
	mov	[edi],eax
	pop	edi
	pop	esi
	pop	ebp
	xor	eax,eax
	pop	ebx
	pop	ecx
	ret

l006E588A:
	call	6E1160h
	mov	ecx,[esp+30h]
	mov	eax,[esp+28h]
	mov	esi,[esp+2Ch]
	push	ecx
	push	8D3664h
	add	ebx,1h
	push	esi
	mov	[eax],ebx
	mov	dword ptr [eax+4h],0h
	call	dword ptr [8A45DCh]
	add	esp,0Ch
	pop	edi
	mov	eax,esi
	pop	esi
	pop	ebp
	pop	ebx
	pop	ecx
	ret

l006E58BF:
	mov	edx,[esp+28h]
	mov	eax,edi
	pop	edi
	pop	esi
	pop	ebp
	mov	[edx],ebx
	pop	ebx
	pop	ecx
	ret

l006E58CD:
	cmp	esi,0A163B8h
	mov	ecx,[esp+28h]
	mov	dword ptr [ecx],0h
	jnz	6E58E6h

l006E58DF:
	mov	ecx,8ABDD0h
	jmp	6E58ECh

l006E58E6:
	mov	edx,[esi+4h]
	mov	ecx,[edx+0Ch]

l006E58EC:
	cmp	dword ptr [esp+34h],0h
	mov	eax,8D3640h
	jnz	6E58FDh

l006E58F8:
	mov	eax,8D361Ch

l006E58FD:
	mov	esi,[esp+2Ch]
	push	ecx
	push	ebp
	push	eax
	mov	eax,[esp+3Ch]
	push	eax
	push	esi
	call	724FE0h
	add	esp,14h
	pop	edi
	mov	eax,esi
	pop	esi
	pop	ebp
	pop	ebx
	pop	ecx
	ret
006E591A                               CC CC CC CC CC CC           ......

;; fn006E5920: 006E5920
;;   Called from:
;;     006E5CD2 (in fn006E5C60)
fn006E5920 proc
	cmp	eax,0A163B8h
	jnz	6E5940h

l006E5927:
	mov	eax,8ABDD0h
	push	eax
	push	ecx
	push	8D36C0h
	push	edx
	push	esi
	call	724FE0h
	add	esp,14h
	mov	eax,esi
	ret

l006E5940:
	mov	eax,[eax+4h]
	mov	eax,[eax+0Ch]
	push	eax
	push	ecx
	push	8D36C0h
	push	edx
	push	esi
	call	724FE0h
	add	esp,14h
	mov	eax,esi
	ret
006E595A                               CC CC CC CC CC CC           ......

;; fn006E5960: 006E5960
;;   Called from:
;;     006E5CA3 (in fn006E5C60)
;;     006E5D35 (in fn006E5C60)
;;     006E5D7E (in fn006E5C60)
;;     006E5E17 (in fn006E5C60)
;;     006E5E4D (in fn006E5C60)
;;     006E5EE4 (in fn006E5C60)
;;     006E5F1A (in fn006E5C60)
fn006E5960 proc
	mov	eax,[eax+4h]
	cmp	eax,0A1E4B8h
	jz	6E597Ch

l006E596A:
	push	0A1E4B8h
	push	eax
	call	6D5670h
	add	esp,8h
	test	eax,eax
	jz	6E599Ch

l006E597C:
	mov	ecx,[0A18A34h]
	push	1h
	push	8D36DCh
	push	ecx
	call	6E1970h
	add	esp,0Ch
	test	eax,eax
	jz	6E599Ch

l006E5996:
	mov	eax,1h
	ret

l006E599C:
	xor	eax,eax
	ret
006E599F                                              CC                .

;; fn006E59A0: 006E59A0
;;   Called from:
;;     006E6264 (in fn006E5C60)
;;     006E64B1 (in fn006E5C60)
fn006E59A0 proc
	mov	eax,[edi+4h]
	push	esi
	mov	esi,[eax+50h]
	test	esi,esi
	jz	6E59EAh

l006E59AB:
	cmp	dword ptr [esi],0h
	jz	6E59EAh

l006E59B0:
	mov	eax,[esi+8h]
	test	eax,eax
	jz	6E59EAh

l006E59B7:
	push	0h
	push	edi
	call	eax
	add	esp,8h
	cmp	eax,1h
	jz	6E59CFh

l006E59C4:
	mov	dword ptr [ebx],8D3730h
	or	eax,0FFh
	pop	esi
	ret

l006E59CF:
	mov	ecx,[esp+8h]
	mov	edx,[esi]
	push	ecx
	push	0h
	push	edi
	call	edx
	add	esp,0Ch
	test	eax,eax
	jge	6E59F3h

l006E59E2:
	mov	dword ptr [ebx],8D3720h
	pop	esi
	ret

l006E59EA:
	mov	dword ptr [ebx],8D3704h
	or	eax,0FFh

l006E59F3:
	pop	esi
	ret
006E59F5                CC CC CC CC CC CC CC CC CC CC CC      ...........
006E5A00 8B 06 8A 10 0F BE D2 83 C2 BE 83 C0 01 83 FA 38 ...............8
006E5A10 77 61 0F B6 92 90 5A 6E 00 FF 24 95 7C 5A 6E 00 wa....Zn..$.|Zn.
006E5A20 83 01 04 8A 10 80 FA 73 74 05 80 FA 74 75 44 83 .......st...tuD.
006E5A30 C0 01 83 01 04 80 38 23 8B 11 75 32 83 C2 04 83 ......8#..u2....
006E5A40 C0 01 89 11 89 06 33 C0 C3 8A 10 80 FA 21 75 0B ......3......!u.
006E5A50 83 01 08 83 C0 01 89 06 33 C0 C3 80 FA 26 75 0B ........3....&u.
006E5A60 83 01 08 83 C0 01 89 06 33 C0 C3 83 01 04 89 06 ........3.......
006E5A70 33 C0 C3 B8 5C 37 8D 00 C3 8D 49 00 6B 5A 6E 00 3...\7....I.kZn.
006E5A80 49 5A 6E 00 20 5A 6E 00 32 5A 6E 00 73 5A 6E 00 IZn. Zn.2Zn.sZn.
006E5A90 00 04 00 04 04 04 00 00 04 00 00 04 04 01 04 04 ................
006E5AA0 04 00 04 00 04 04 04 04 04 04 04 04 04 04 04 04 ................
006E5AB0 00 00 00 02 00 04 00 00 04 00 00 04 00 04 04 04 ................
006E5AC0 04 03 03 03 04 03 04 04 03 CC CC CC CC CC CC CC ................

;; fn006E5AD0: 006E5AD0
;;   Called from:
;;     00738CF3 (in fn00738CB0)
fn006E5AD0 proc
	push	esi
	mov	esi,[esp+8h]
	mov	eax,[esi+4h]
	cmp	eax,0A16588h
	jz	6E5B08h

l006E5ADF:
	push	0A16588h
	push	eax
	call	6D5670h
	add	esp,8h
	test	eax,eax
	jnz	6E5B08h

l006E5AF1:
	mov	eax,[0A18720h]
	push	8D1184h
	push	eax
	call	6E0F80h
	add	esp,8h
	xor	eax,eax
	pop	esi
	ret

l006E5B08:
	mov	edx,[esi+8h]
	mov	eax,[esp+10h]
	cmp	edx,eax
	jge	6E5B6Dh

l006E5B13:
	mov	esi,[esp+0Ch]
	test	esi,esi
	mov	ecx,8A698Fh
	jz	6E5B47h

l006E5B20:
	cmp	eax,[esp+14h]
	jz	6E5B2Bh

l006E5B26:
	mov	ecx,8D37E4h

l006E5B2B:
	push	edx
	push	eax
	push	ecx
	mov	ecx,[0A16B7Ch]
	push	esi
	push	8D37BCh
	push	ecx
	call	6E15D0h
	add	esp,18h
	xor	eax,eax
	pop	esi
	ret

l006E5B47:
	cmp	eax,[esp+14h]
	jz	6E5B52h

l006E5B4D:
	mov	ecx,8D37E4h

l006E5B52:
	push	edx
	mov	edx,[0A16B7Ch]
	push	eax
	push	ecx
	push	8D3784h
	push	edx
	call	6E15D0h
	add	esp,14h
	xor	eax,eax
	pop	esi
	ret

l006E5B6D:
	mov	ecx,[esp+14h]
	cmp	edx,ecx
	jle	6E5BCFh

l006E5B75:
	mov	esi,[esp+0Ch]
	test	esi,esi
	jz	6E5BA6h

l006E5B7D:
	cmp	eax,ecx
	mov	eax,8A698Fh
	jz	6E5B8Bh

l006E5B86:
	mov	eax,8D3778h

l006E5B8B:
	push	edx
	push	ecx
	push	eax
	mov	eax,[0A16B7Ch]
	push	esi
	push	8D37BCh
	push	eax
	call	6E15D0h
	add	esp,18h
	xor	eax,eax
	pop	esi
	ret

l006E5BA6:
	cmp	eax,ecx
	mov	eax,8A698Fh
	jz	6E5BB4h

l006E5BAF:
	mov	eax,8D3778h

l006E5BB4:
	push	edx
	push	ecx
	mov	ecx,[0A16B7Ch]
	push	eax
	push	8D3784h
	push	ecx
	call	6E15D0h
	add	esp,14h
	xor	eax,eax
	pop	esi
	ret

l006E5BCF:
	test	edx,edx
	jle	6E5BF3h

l006E5BD3:
	lea	eax,[esp+14h]
	lea	ecx,[esi+0Ch]
	push	edi
	jmp	6E5BE0h
006E5BDD                                        8D 49 00              .I.

l006E5BE0:
	mov	edi,[ecx]
	mov	esi,[eax+4h]
	add	eax,4h
	add	ecx,4h
	sub	edx,1h
	mov	[esi],edi
	jnz	6E5BE0h

l006E5BF2:
	pop	edi

l006E5BF3:
	mov	eax,1h
	pop	esi
	ret
006E5BFA                               CC CC CC CC CC CC           ......

;; fn006E5C00: 006E5C00
;;   Called from:
;;     00738CD0 (in fn00738CB0)
fn006E5C00 proc
	mov	eax,[esp+8h]
	test	eax,eax
	jnz	6E5C0Eh

l006E5C08:
	mov	eax,1h
	ret

l006E5C0E:
	cmp	dword ptr [eax+4h],0A1D1B8h
	jz	6E5C2Ch

l006E5C17:
	push	6E0h
	push	8D3814h
	call	6E1DC0h
	add	esp,8h
	xor	eax,eax
	ret

l006E5C2C:
	push	eax
	call	6FCF20h
	add	esp,4h
	test	eax,eax
	jz	6E5C08h

l006E5C39:
	mov	eax,[esp+4h]
	mov	ecx,[0A16B7Ch]
	push	eax
	push	8D37F0h
	push	ecx
	call	6E15D0h
	add	esp,0Ch
	xor	eax,eax
	ret
006E5C55                CC CC CC CC CC CC CC CC CC CC CC      ...........

;; fn006E5C60: 006E5C60
;;   Called from:
;;     006E6EEC (in fn006E6E70)
fn006E5C60 proc
	sub	esp,34h
	push	ebx
	push	ebp
	mov	ebp,[esp+40h]
	push	esi
	push	edi
	mov	edi,eax
	mov	eax,[esp+4Ch]
	mov	ebx,[eax]
	mov	al,[ebx]
	movsx	eax,al
	add	ebx,1h
	add	eax,0BEh
	cmp	eax,38h
	mov	[esp+10h],ebx
	ja	6E6D8Ch

l006E5C8B:
	movzx	ecx,byte ptr [eax+6E6E28h]
	jmp	dword ptr [6E6DC8h+ecx*4]

l006E5C99:
	add	dword ptr [edi],4h
	mov	edi,[edi]
	mov	edi,[edi-4h]
	mov	eax,ebp
	call	6E5960h
	test	eax,eax
	jnz	6E5CC3h

l006E5CAC:
	push	ebp
	call	7051A0h
	add	esp,4h
	cmp	eax,0FFh
	jnz	6E5CDFh

l006E5CBA:
	call	6E0FC0h
	test	eax,eax
	jz	6E5CE3h

l006E5CC3:
	mov	ecx,8D3BE4h

l006E5CC8:
	mov	edx,[esp+58h]
	mov	esi,[esp+54h]
	mov	eax,ebp
	call	6E5920h
	pop	edi
	pop	esi
	pop	ebp
	pop	ebx
	add	esp,34h
	ret

l006E5CDF:
	test	eax,eax
	jge	6E5CF9h

l006E5CE3:
	mov	edx,[0A18598h]
	push	8D3BB8h
	push	edx
	call	6E0F80h
	add	esp,8h
	jmp	6E5CC3h

l006E5CF9:
	cmp	eax,0FFh
	jle	6E5D15h

l006E5D00:
	mov	eax,[0A18598h]
	push	8D3B88h
	push	eax
	call	6E0F80h
	add	esp,8h
	jmp	6E5CC3h

l006E5D15:
	mov	ecx,[esp+10h]
	mov	edx,[esp+4Ch]
	mov	[edi],al
	pop	edi
	pop	esi
	pop	ebp
	mov	[edx],ecx
	xor	eax,eax
	pop	ebx
	add	esp,34h
	ret

l006E5D2B:
	add	dword ptr [edi],4h
	mov	edi,[edi]
	mov	edi,[edi-4h]
	mov	eax,ebp
	call	6E5960h
	test	eax,eax
	jz	6E5D45h

l006E5D3E:
	mov	ecx,8D3B7Ch
	jmp	6E5CC8h

l006E5D45:
	push	ebp
	call	705340h
	mov	ebx,eax
	add	esp,4h
	cmp	ebx,0FFh
	jnz	6E5D5Eh

l006E5D55:
	call	6E0FC0h
	test	eax,eax
	jnz	6E5D3Eh

l006E5D5E:
	mov	ecx,[esp+10h]
	mov	edx,[esp+4Ch]
	mov	[edi],bl
	pop	edi
	pop	esi
	pop	ebp
	mov	[edx],ecx
	xor	eax,eax
	pop	ebx
	add	esp,34h
	ret

l006E5D74:
	add	dword ptr [edi],4h
	mov	edi,[edi]
	mov	edi,[edi-4h]
	mov	eax,ebp
	call	6E5960h
	test	eax,eax
	jnz	6E5DA0h

l006E5D87:
	push	ebp
	call	7051A0h
	mov	esi,eax
	add	esp,4h
	cmp	esi,0FFh
	jnz	6E5DAAh

l006E5D97:
	call	6E0FC0h
	test	eax,eax
	jz	6E5DF6h

l006E5DA0:
	mov	ecx,8D3B70h
	jmp	6E5CC8h

l006E5DAA:
	cmp	esi,0FFFF8000h
	jge	6E5DD0h

l006E5DB2:
	mov	ecx,[0A18598h]
	push	8D3B44h
	push	ecx
	call	6E0F80h
	add	esp,8h
	mov	ecx,8D3B70h
	jmp	6E5CC8h

l006E5DD0:
	cmp	esi,7FFFh
	jle	6E5DF6h

l006E5DD8:
	mov	edx,[0A18598h]
	push	8D3B14h
	push	edx
	call	6E0F80h
	add	esp,8h
	mov	ecx,8D3B70h
	jmp	6E5CC8h

l006E5DF6:
	mov	ecx,[esp+10h]
	mov	edx,[esp+4Ch]
	mov	[edi],si
	pop	edi
	pop	esi
	pop	ebp
	mov	[edx],ecx
	xor	eax,eax
	pop	ebx
	add	esp,34h
	ret

l006E5E0D:
	add	dword ptr [edi],4h
	mov	edi,[edi]
	mov	edi,[edi-4h]
	mov	eax,ebp
	call	6E5960h
	test	eax,eax
	jnz	6E5E39h

l006E5E20:
	push	ebp
	call	705340h
	mov	esi,eax
	add	esp,4h
	cmp	esi,0FFh
	jnz	6E5DF6h

l006E5E30:
	call	6E0FC0h
	test	eax,eax
	jz	6E5DF6h

l006E5E39:
	mov	ecx,8D3B08h
	jmp	6E5CC8h

l006E5E43:
	add	dword ptr [edi],4h
	mov	edi,[edi]
	mov	edi,[edi-4h]
	mov	eax,ebp
	call	6E5960h
	test	eax,eax
	jnz	6E5E6Fh

l006E5E56:
	push	ebp
	call	7051A0h
	mov	esi,eax
	add	esp,4h
	cmp	esi,0FFh
	jnz	6E5E79h

l006E5E66:
	call	6E0FC0h
	test	eax,eax
	jz	6E5EC4h

l006E5E6F:
	mov	ecx,8D3AFCh
	jmp	6E5CC8h

l006E5E79:
	cmp	esi,7FFFFFFFh
	jle	6E5E9Eh

l006E5E81:
	mov	eax,[0A18598h]
	push	8D3AD4h
	push	eax
	call	6E0F80h
	add	esp,8h
	mov	ecx,8D3AFCh
	jmp	6E5CC8h

l006E5E9E:
	cmp	esi,80000000h
	jge	6E5EC4h

l006E5EA6:
	mov	ecx,[0A18598h]
	push	8D3AB0h
	push	ecx
	call	6E0F80h
	add	esp,8h
	mov	ecx,8D3AFCh
	jmp	6E5CC8h

l006E5EC4:
	mov	ecx,[esp+10h]
	mov	edx,[esp+4Ch]
	mov	[edi],esi
	pop	edi
	pop	esi
	pop	ebp
	mov	[edx],ecx
	xor	eax,eax
	pop	ebx
	add	esp,34h
	ret

l006E5EDA:
	add	dword ptr [edi],4h
	mov	edi,[edi]
	mov	edi,[edi-4h]
	mov	eax,ebp
	call	6E5960h
	test	eax,eax
	jnz	6E5F06h

l006E5EED:
	push	ebp
	call	705340h
	mov	esi,eax
	add	esp,4h
	cmp	esi,0FFh
	jnz	6E5EC4h

l006E5EFD:
	call	6E0FC0h
	test	eax,eax
	jz	6E5EC4h

l006E5F06:
	mov	ecx,8D3AA4h
	jmp	6E5CC8h

l006E5F10:
	add	dword ptr [edi],4h
	mov	edi,[edi]
	mov	edi,[edi-4h]
	mov	eax,ebp
	call	6E5960h
	test	eax,eax
	jnz	6E5F3Ch

l006E5F23:
	push	ebp
	call	7051A0h
	mov	esi,eax
	add	esp,4h
	cmp	esi,0FFh
	jnz	6E5EC4h

l006E5F33:
	call	6E0FC0h
	test	eax,eax
	jz	6E5EC4h

l006E5F3C:
	mov	ecx,8D3A98h
	jmp	6E5CC8h

l006E5F46:
	add	dword ptr [edi],4h
	mov	eax,[ebp+4h]
	cmp	eax,0A1E7E8h
	mov	edi,[edi]
	mov	edi,[edi-4h]
	jz	6E5FAFh

l006E5F58:
	push	0A1E7E8h
	push	eax
	call	6D5670h
	add	esp,8h
	test	eax,eax
	jnz	6E5FAFh

l006E5F6A:
	mov	eax,[ebp+4h]
	cmp	eax,0A1F400h
	jz	6E5F90h

l006E5F74:
	push	0A1F400h
	push	eax
	call	6D5670h
	add	esp,8h
	test	eax,eax
	jnz	6E5F90h

l006E5F86:
	mov	ecx,8D3A8Ch
	jmp	6E5CC8h

l006E5F90:
	push	ebp
	call	710B80h
	mov	ecx,[esp+14h]
	mov	edx,[esp+50h]
	add	esp,4h
	mov	[edi],eax
	pop	edi
	pop	esi
	pop	ebp
	mov	[edx],ecx
	xor	eax,eax
	pop	ebx
	add	esp,34h
	ret

l006E5FAF:
	push	ebp
	call	705340h
	mov	ecx,[esp+14h]
	mov	edx,[esp+50h]
	add	esp,4h
	mov	[edi],eax
	pop	edi
	pop	esi
	pop	ebp
	mov	[edx],ecx
	xor	eax,eax
	pop	ebx
	add	esp,34h
	ret

l006E5FCE:
	add	dword ptr [edi],4h
	mov	edi,[edi]
	mov	ebx,[edi-4h]
	push	ebp
	call	7114E0h
	mov	esi,eax
	mov	edi,edx
	mov	edx,esi
	and	edx,edi
	add	esp,4h
	cmp	edx,0FFh
	jnz	6E5FFFh

l006E5FEC:
	call	6E0FC0h
	test	eax,eax
	jz	6E5FFFh

l006E5FF5:
	mov	ecx,8D3A84h
	jmp	6E5CC8h

l006E5FFF:
	mov	ecx,[esp+10h]
	mov	edx,[esp+4Ch]
	mov	[ebx+4h],edi
	pop	edi
	mov	[ebx],esi
	pop	esi
	pop	ebp
	mov	[edx],ecx
	xor	eax,eax
	pop	ebx
	add	esp,34h
	ret

l006E6018:
	add	dword ptr [edi],4h
	mov	eax,[ebp+4h]
	cmp	eax,0A1E7E8h
	mov	edi,[edi]
	mov	edi,[edi-4h]
	jz	6E6084h

l006E602A:
	push	0A1E7E8h
	push	eax
	call	6D5670h
	add	esp,8h
	test	eax,eax
	jnz	6E6084h

l006E603C:
	mov	eax,[ebp+4h]
	cmp	eax,0A1F400h
	jz	6E6062h

l006E6046:
	push	0A1F400h
	push	eax
	call	6D5670h
	add	esp,8h
	test	eax,eax
	jnz	6E6062h

l006E6058:
	mov	ecx,8D3A78h
	jmp	6E5CC8h

l006E6062:
	push	ebp
	call	711700h
	mov	ecx,[esp+14h]
	add	esp,4h
	mov	[edi],eax
	mov	[edi+4h],edx
	mov	edx,[esp+4Ch]
	pop	edi
	pop	esi
	pop	ebp
	mov	[edx],ecx
	xor	eax,eax
	pop	ebx
	add	esp,34h
	ret

l006E6084:
	push	ebp
	call	705340h
	mov	ecx,[esp+14h]
	add	esp,4h
	xor	edx,edx
	mov	[edi],eax
	mov	[edi+4h],edx
	mov	edx,[esp+4Ch]
	pop	edi
	pop	esi
	pop	ebp
	mov	[edx],ecx
	xor	eax,eax
	pop	ebx
	add	esp,34h
	ret

l006E60A8:
	add	dword ptr [edi],4h
	mov	edi,[edi]
	mov	edi,[edi-4h]
	push	ebp
	call	6FF3E0h
	fstp	double ptr [esp+28h]
	add	esp,4h
	call	6E0FC0h
	test	eax,eax
	jz	6E60D0h

l006E60C6:
	mov	ecx,8D3A6Ch
	jmp	6E5CC8h

l006E60D0:
	fld	double ptr [esp+24h]
	mov	ecx,[esp+10h]
	mov	edx,[esp+4Ch]
	fstp	dword ptr [edi]
	pop	edi
	pop	esi
	pop	ebp
	mov	[edx],ecx
	xor	eax,eax
	pop	ebx
	add	esp,34h
	ret

l006E60EA:
	add	dword ptr [edi],4h
	mov	edi,[edi]
	mov	edi,[edi-4h]
	push	ebp
	call	6FF3E0h
	fstp	double ptr [esp+28h]
	add	esp,4h
	call	6E0FC0h
	test	eax,eax
	jz	6E6112h

l006E6108:
	mov	ecx,8D3A60h
	jmp	6E5CC8h

l006E6112:
	fld	double ptr [esp+24h]
	mov	ecx,[esp+10h]
	mov	edx,[esp+4Ch]
	fstp	double ptr [edi]
	pop	edi
	pop	esi
	pop	ebp
	mov	[edx],ecx
	xor	eax,eax
	pop	ebx
	add	esp,34h
	ret

l006E612C:
	add	dword ptr [edi],4h
	mov	edi,[edi]
	mov	esi,[edi-4h]
	lea	eax,[esp+34h]
	push	ebp
	push	eax
	call	7332C0h
	mov	ecx,[eax+8h]
	mov	edx,[eax+0Ch]
	mov	edi,[eax]
	mov	ebx,[eax+4h]
	add	esp,8h
	mov	[esp+2Ch],ecx
	mov	[esp+30h],edx
	call	6E0FC0h
	test	eax,eax
	jz	6E6168h

l006E615E:
	mov	ecx,8D3A54h
	jmp	6E5CC8h

l006E6168:
	mov	eax,[esp+2Ch]
	mov	ecx,[esp+30h]
	mov	edx,[esp+4Ch]
	mov	[esi],edi
	mov	[esi+4h],ebx
	mov	[esi+8h],eax
	pop	edi
	mov	[esi+0Ch],ecx
	mov	ecx,[esp+0Ch]
	pop	esi
	pop	ebp
	mov	[edx],ecx
	xor	eax,eax
	pop	ebx
	add	esp,34h
	ret

l006E618F:
	add	dword ptr [edi],4h
	mov	eax,[ebp+4h]
	cmp	eax,0A1B450h
	mov	edi,[edi]
	mov	edi,[edi-4h]
	jz	6E61B3h

l006E61A1:
	push	0A1B450h
	push	eax
	call	6D5670h
	add	esp,8h
	test	eax,eax
	jz	6E61DAh

l006E61B3:
	push	ebp
	call	6ECC00h
	add	esp,4h
	cmp	eax,1h
	jnz	6E61DAh

l006E61C1:
	mov	dl,[ebp+14h]
	mov	ecx,[esp+10h]
	mov	[edi],dl
	mov	edx,[esp+4Ch]
	pop	edi
	pop	esi
	pop	ebp
	mov	[edx],ecx
	xor	eax,eax
	pop	ebx
	add	esp,34h
	ret

l006E61DA:
	mov	ecx,8D3A4Ch
	jmp	6E5CC8h

l006E61E4:
	cmp	byte ptr [ebx],23h
	jnz	6E636Eh

l006E61ED:
	add	dword ptr [edi],4h
	mov	eax,[edi]
	mov	ebx,[eax-4h]
	mov	esi,[esp+50h]
	xor	ecx,ecx
	add	eax,4h
	and	esi,2h
	mov	[esp+14h],ecx
	mov	[esp+18h],ecx
	mov	[edi],eax
	jz	6E6216h

l006E620D:
	mov	eax,[eax-4h]
	mov	[esp+18h],eax
	jmp	6E621Dh

l006E6216:
	mov	ecx,[eax-4h]
	mov	[esp+14h],ecx

l006E621D:
	mov	eax,[ebp+4h]
	cmp	eax,0A1B450h
	jz	6E6321h

l006E622B:
	push	0A1B450h
	push	eax
	call	6D5670h
	add	esp,8h
	test	eax,eax
	jnz	6E6321h

l006E6241:
	mov	eax,[ebp+4h]
	cmp	eax,0A23B20h
	jz	6E62BBh

l006E624B:
	push	0A23B20h
	push	eax
	call	6D5670h
	add	esp,8h
	test	eax,eax
	jnz	6E62BBh

l006E625D:
	push	ebx
	lea	ebx,[esp+20h]
	mov	edi,ebp
	call	6E59A0h
	add	esp,4h
	test	eax,eax
	jge	6E6279h

l006E6270:
	mov	ecx,[esp+1Ch]
	jmp	6E5CC8h

l006E6279:
	test	esi,esi
	jz	6E629Ch

l006E627D:
	mov	edx,[esp+18h]
	add	dword ptr [esp+10h],1h
	mov	ecx,[esp+10h]
	pop	edi
	mov	[edx],eax
	mov	edx,[esp+48h]
	pop	esi
	pop	ebp
	mov	[edx],ecx
	xor	eax,eax
	pop	ebx
	add	esp,34h
	ret

l006E629C:
	mov	ecx,[esp+14h]
	add	dword ptr [esp+10h],1h
	mov	edx,[esp+4Ch]
	pop	edi
	mov	[ecx],eax
	mov	ecx,[esp+0Ch]
	pop	esi
	pop	ebp
	mov	[edx],ecx
	xor	eax,eax
	pop	ebx
	add	esp,34h
	ret

l006E62BB:
	push	0h
	push	ebp
	call	71FC50h
	add	esp,8h
	test	eax,eax
	jnz	6E62D4h

l006E62CA:
	mov	ecx,8D3A30h
	jmp	6E5CC8h

l006E62D4:
	test	esi,esi
	lea	edx,[eax+14h]
	mov	[ebx],edx
	jz	6E62FFh

l006E62DD:
	mov	eax,[eax+8h]
	mov	ecx,[esp+18h]
	add	dword ptr [esp+10h],1h
	mov	edx,[esp+4Ch]
	pop	edi
	mov	[ecx],eax
	mov	ecx,[esp+0Ch]
	pop	esi
	pop	ebp
	mov	[edx],ecx
	xor	eax,eax
	pop	ebx
	add	esp,34h
	ret

l006E62FF:
	mov	edx,[eax+8h]
	mov	eax,[esp+14h]
	add	dword ptr [esp+10h],1h
	mov	ecx,[esp+10h]
	pop	edi
	mov	[eax],edx
	mov	edx,[esp+48h]
	pop	esi
	pop	ebp
	mov	[edx],ecx
	xor	eax,eax
	pop	ebx
	add	esp,34h
	ret

l006E6321:
	test	esi,esi
	lea	ecx,[ebp+14h]
	mov	[ebx],ecx
	jz	6E634Ch

l006E632A:
	mov	edx,[ebp+8h]
	mov	eax,[esp+18h]
	add	dword ptr [esp+10h],1h
	mov	ecx,[esp+10h]
	pop	edi
	mov	[eax],edx
	mov	edx,[esp+48h]
	pop	esi
	pop	ebp
	mov	[edx],ecx
	xor	eax,eax
	pop	ebx
	add	esp,34h
	ret

l006E634C:
	mov	ecx,[ebp+8h]
	mov	edx,[esp+14h]
	add	dword ptr [esp+10h],1h
	pop	edi
	mov	[edx],ecx
	mov	ecx,[esp+0Ch]
	mov	edx,[esp+48h]
	pop	esi
	pop	ebp
	mov	[edx],ecx
	xor	eax,eax
	pop	ebx
	add	esp,34h
	ret

l006E636E:
	add	dword ptr [edi],4h
	mov	eax,[ebp+4h]
	cmp	eax,0A1B450h
	mov	edi,[edi]
	mov	edi,[edi-4h]
	jz	6E63D0h

l006E6380:
	push	0A1B450h
	push	eax
	call	6D5670h
	add	esp,8h
	test	eax,eax
	jnz	6E63D0h

l006E6392:
	mov	eax,[ebp+4h]
	cmp	eax,0A23B20h
	jz	6E63B8h

l006E639C:
	push	0A23B20h
	push	eax
	call	6D5670h
	add	esp,8h
	test	eax,eax
	jnz	6E63B8h

l006E63AE:
	mov	ecx,8D3A28h
	jmp	6E5CC8h

l006E63B8:
	push	0h
	push	ebp
	call	71FC50h
	add	esp,8h
	test	eax,eax
	jz	6E62CAh

l006E63CB:
	add	eax,14h
	jmp	6E63D3h

l006E63D0:
	lea	eax,[ebp+14h]

l006E63D3:
	mov	[edi],eax
	lea	edx,[eax+1h]

l006E63D8:
	mov	cl,[eax]
	add	eax,1h
	test	cl,cl
	jnz	6E63D8h

l006E63E1:
	sub	eax,edx
	push	ebp
	mov	esi,eax
	call	6ECC00h
	add	esp,4h
	cmp	esi,eax
	jz	6E6D6Eh

l006E63F6:
	mov	ecx,8D3A0Ch
	jmp	6E5CC8h

l006E6400:
	cmp	byte ptr [ebx],23h
	jnz	6E65B0h

l006E6409:
	add	dword ptr [edi],4h
	mov	eax,[edi]
	mov	ebx,[eax-4h]
	mov	esi,[esp+50h]
	xor	ecx,ecx
	add	eax,4h
	and	esi,2h
	mov	[esp+18h],ecx
	mov	[esp+14h],ecx
	mov	[edi],eax
	jz	6E6432h

l006E6429:
	mov	edx,[eax-4h]
	mov	[esp+14h],edx
	jmp	6E6439h

l006E6432:
	mov	eax,[eax-4h]
	mov	[esp+18h],eax

l006E6439:
	cmp	ebp,0A163B8h
	jnz	6E646Ah

l006E6441:
	cmp	esi,ecx
	mov	[ebx],ecx
	jnz	6E656Fh

l006E644B:
	mov	eax,[esp+18h]
	add	dword ptr [esp+10h],1h
	mov	edx,[esp+4Ch]
	pop	edi
	mov	[eax],ecx
	mov	ecx,[esp+0Ch]
	pop	esi
	pop	ebp
	mov	[edx],ecx
	xor	eax,eax
	pop	ebx
	add	esp,34h
	ret

l006E646A:
	mov	eax,[ebp+4h]
	cmp	eax,0A1B450h
	jz	6E6563h

l006E6478:
	push	0A1B450h
	push	eax
	call	6D5670h
	add	esp,8h
	test	eax,eax
	jnz	6E6563h

l006E648E:
	mov	eax,[ebp+4h]
	cmp	eax,0A23B20h
	jz	6E6503h

l006E6498:
	push	0A23B20h
	push	eax
	call	6D5670h
	add	esp,8h
	test	eax,eax
	jnz	6E6503h

l006E64AA:
	push	ebx
	lea	ebx,[esp+20h]
	mov	edi,ebp
	call	6E59A0h
	add	esp,4h
	test	eax,eax
	jl	6E6270h

l006E64C1:
	test	esi,esi
	jz	6E64E4h

l006E64C5:
	mov	ecx,[esp+14h]
	add	dword ptr [esp+10h],1h
	mov	edx,[esp+4Ch]
	pop	edi
	mov	[ecx],eax
	mov	ecx,[esp+0Ch]
	pop	esi
	pop	ebp
	mov	[edx],ecx
	xor	eax,eax
	pop	ebx
	add	esp,34h
	ret

l006E64E4:
	mov	edx,[esp+18h]
	add	dword ptr [esp+10h],1h
	mov	ecx,[esp+10h]
	pop	edi
	mov	[edx],eax
	mov	edx,[esp+48h]
	pop	esi
	pop	ebp
	mov	[edx],ecx
	xor	eax,eax
	pop	ebx
	add	esp,34h
	ret

l006E6503:
	push	0h
	push	ebp
	call	71FC50h
	add	esp,8h
	test	eax,eax
	jz	6E62CAh

l006E6516:
	test	esi,esi
	lea	ecx,[eax+14h]
	mov	[ebx],ecx
	jz	6E6541h

l006E651F:
	mov	edx,[eax+8h]
	mov	eax,[esp+14h]
	add	dword ptr [esp+10h],1h
	mov	ecx,[esp+10h]
	pop	edi
	mov	[eax],edx
	mov	edx,[esp+48h]
	pop	esi
	pop	ebp
	mov	[edx],ecx
	xor	eax,eax
	pop	ebx
	add	esp,34h
	ret

l006E6541:
	mov	ecx,[eax+8h]
	mov	edx,[esp+18h]
	add	dword ptr [esp+10h],1h
	pop	edi
	mov	[edx],ecx
	mov	ecx,[esp+0Ch]
	mov	edx,[esp+48h]
	pop	esi
	pop	ebp
	mov	[edx],ecx
	xor	eax,eax
	pop	ebx
	add	esp,34h
	ret

l006E6563:
	test	esi,esi
	lea	eax,[ebp+14h]
	mov	[ebx],eax
	jz	6E658Eh

l006E656C:
	mov	ecx,[ebp+8h]

l006E656F:
	mov	edx,[esp+14h]
	add	dword ptr [esp+10h],1h
	pop	edi
	mov	[edx],ecx
	mov	ecx,[esp+0Ch]
	mov	edx,[esp+48h]
	pop	esi
	pop	ebp
	mov	[edx],ecx
	xor	eax,eax
	pop	ebx
	add	esp,34h
	ret

l006E658E:
	mov	eax,[ebp+8h]
	mov	ecx,[esp+18h]
	add	dword ptr [esp+10h],1h
	mov	edx,[esp+4Ch]
	pop	edi
	mov	[ecx],eax
	mov	ecx,[esp+0Ch]
	pop	esi
	pop	ebp
	mov	[edx],ecx
	xor	eax,eax
	pop	ebx
	add	esp,34h
	ret

l006E65B0:
	add	dword ptr [edi],4h
	cmp	ebp,0A163B8h
	mov	eax,[edi]
	mov	esi,[eax-4h]
	jnz	6E65C8h

l006E65C0:
	mov	dword ptr [esi],0h
	jmp	6E6629h

l006E65C8:
	mov	eax,[ebp+4h]
	cmp	eax,0A1B450h
	jz	6E6624h

l006E65D2:
	push	0A1B450h
	push	eax
	call	6D5670h
	add	esp,8h
	test	eax,eax
	jnz	6E6624h

l006E65E4:
	mov	eax,[ebp+4h]
	cmp	eax,0A23B20h
	jz	6E660Ah

l006E65EE:
	push	0A23B20h
	push	eax
	call	6D5670h
	add	esp,8h
	test	eax,eax
	jnz	6E660Ah

l006E6600:
	mov	ecx,8D39FCh
	jmp	6E5CC8h

l006E660A:
	push	0h
	push	ebp
	call	71FC50h
	add	esp,8h
	test	eax,eax
	jz	6E62CAh

l006E661D:
	add	eax,14h
	mov	[esi],eax
	jmp	6E6629h

l006E6624:
	lea	edx,[ebp+14h]
	mov	[esi],edx

l006E6629:
	cmp	byte ptr [ebx],23h
	jnz	6E668Ah

l006E662E:
	add	dword ptr [edi],4h
	xor	esi,esi
	test	byte ptr [esp+50h],2h
	jnz	6E663Fh

l006E663A:
	mov	edi,[edi]
	mov	esi,[edi-4h]

l006E663F:
	cmp	ebp,0A163B8h
	jnz	6E6666h

l006E6647:
	mov	edx,[esp+4Ch]
	pop	edi
	add	ebx,1h
	mov	dword ptr [esi],0h
	pop	esi
	mov	ecx,ebx
	pop	ebp
	mov	[esp+4h],ebx
	mov	[edx],ecx
	xor	eax,eax
	pop	ebx
	add	esp,34h
	ret

l006E6666:
	push	ebp
	call	6ECC00h
	mov	edx,[esp+50h]
	add	esp,4h
	pop	edi
	mov	[esi],eax
	add	ebx,1h
	pop	esi
	mov	ecx,ebx
	pop	ebp
	mov	[esp+4h],ebx
	mov	[edx],ecx
	xor	eax,eax
	pop	ebx
	add	esp,34h
	ret

l006E668A:
	mov	eax,[esi]
	test	eax,eax
	jz	6E6D6Eh

l006E6694:
	lea	edx,[eax+1h]

l006E6697:
	mov	cl,[eax]
	add	eax,1h
	test	cl,cl
	jnz	6E6697h

l006E66A0:
	sub	eax,edx
	push	ebp
	mov	esi,eax
	call	6ECC00h
	add	esp,4h
	cmp	esi,eax
	jz	6E6D6Eh

l006E66B5:
	mov	ecx,8D39D8h
	jmp	6E5CC8h

l006E66BF:
	add	dword ptr [edi],4h
	mov	eax,[edi]
	mov	esi,[eax-4h]
	test	esi,esi
	jnz	6E66D2h

l006E66CB:
	call	717C60h
	mov	esi,eax

l006E66D2:
	mov	al,[ebx]
	cmp	al,73h
	jnz	6E66DFh

l006E66D8:
	mov	ecx,1h
	jmp	6E66E9h

l006E66DF:
	cmp	al,74h
	jnz	6E69DCh

l006E66E7:
	xor	ecx,ecx

l006E66E9:
	add	dword ptr [edi],4h
	mov	eax,[edi]
	mov	eax,[eax-4h]
	add	ebx,1h
	test	eax,eax
	mov	[esp+18h],eax
	mov	[esp+10h],ebx
	jnz	6E670Ah

l006E6700:
	mov	ecx,8D39C4h
	jmp	6E5CC8h

l006E670A:
	test	ecx,ecx
	jnz	6E6772h

l006E670E:
	mov	eax,[ebp+4h]
	cmp	eax,0A1B450h
	jz	6E672Ah

l006E6718:
	push	0A1B450h
	push	eax
	call	6D5670h
	add	esp,8h
	test	eax,eax
	jz	6E6772h

l006E672A:
	add	dword ptr [ebp+0h],1h
	mov	esi,ebp

l006E6730:
	mov	ecx,[esp+10h]
	cmp	byte ptr [ecx],23h
	mov	ebx,[esi+8h]
	mov	[esp+20h],ebx
	jnz	6E68F9h

l006E6744:
	mov	edx,[esp+50h]
	xor	eax,eax
	xor	ecx,ecx
	and	edx,2h
	mov	[esp+1Ch],eax
	mov	[esp+14h],ecx
	mov	[esp+24h],edx
	jz	6E67F7h

l006E6761:
	add	dword ptr [edi],4h
	mov	edi,[edi]
	mov	ecx,[edi-4h]
	mov	[esp+14h],ecx
	jmp	6E6803h

l006E6772:
	push	ebp
	call	7203E0h
	mov	ebx,eax
	add	esp,4h
	test	ebx,ebx
	jnz	6E678Bh

l006E6781:
	mov	ecx,8D39A0h
	jmp	6E5CC8h

l006E678B:
	push	0h
	push	esi
	push	ebx
	call	71FB20h
	add	esp,0Ch
	add	dword ptr [ebx],0FFh
	mov	esi,eax
	jnz	6E67AAh

l006E679E:
	mov	eax,[ebx+4h]
	mov	ecx,[eax+18h]
	push	ebx
	call	ecx
	add	esp,4h

l006E67AA:
	test	esi,esi
	jnz	6E67B8h

l006E67AE:
	mov	ecx,8D398Ch
	jmp	6E5CC8h

l006E67B8:
	mov	eax,[esi+4h]
	cmp	eax,0A1B450h
	jz	6E6730h

l006E67C6:
	push	0A1B450h
	push	eax
	call	6D5670h
	add	esp,8h
	test	eax,eax
	jnz	6E6730h

l006E67DC:
	add	dword ptr [esi],0FFh
	jnz	6E67EDh

l006E67E1:
	mov	edx,[esi+4h]
	mov	eax,[edx+18h]
	push	esi
	call	eax
	add	esp,4h

l006E67ED:
	mov	ecx,8D3968h
	jmp	6E5CC8h

l006E67F7:
	add	dword ptr [edi],4h
	mov	edi,[edi]
	mov	eax,[edi-4h]
	mov	[esp+1Ch],eax

l006E6803:
	add	dword ptr [esp+10h],1h
	test	eax,eax
	jnz	6E682Bh

l006E680C:
	test	ecx,ecx
	jnz	6E682Bh

l006E6810:
	add	dword ptr [esi],0FFh
	jnz	6E6821h

l006E6815:
	mov	edx,[esi+4h]
	mov	eax,[edx+18h]
	push	esi
	call	eax
	add	esp,4h

l006E6821:
	mov	ecx,8D3950h
	jmp	6E5CC8h

l006E682B:
	mov	edi,[esp+18h]
	cmp	dword ptr [edi],0h
	jnz	6E6895h

l006E6834:
	lea	eax,[ebx+1h]
	test	eax,eax
	jnz	6E6840h

l006E683B:
	mov	eax,1h

l006E6840:
	push	eax
	call	dword ptr [8A45BCh]
	add	esp,4h
	test	eax,eax
	mov	[edi],eax
	jnz	6E686Bh

l006E6850:
	add	dword ptr [esi],0FFh
	jnz	6E6861h

l006E6855:
	mov	ecx,[esi+4h]
	mov	edx,[ecx+18h]
	push	esi
	call	edx
	add	esp,4h

l006E6861:
	mov	ecx,8D3940h
	jmp	6E5CC8h

l006E686B:
	mov	edi,[esp+5Ch]
	mov	ebx,eax
	call	6E54A0h
	test	eax,eax
	jz	6E68C1h

l006E687A:
	add	dword ptr [esi],0FFh
	jnz	6E688Bh

l006E687F:
	mov	eax,[esi+4h]
	mov	ecx,[eax+18h]
	push	esi
	call	ecx
	add	esp,4h

l006E688B:
	mov	ecx,8D392Ch
	jmp	6E5CC8h

l006E6895:
	test	edx,edx
	jz	6E689Dh

l006E6899:
	mov	eax,[ecx]
	jmp	6E689Fh

l006E689D:
	mov	eax,[eax]

l006E689F:
	lea	ecx,[ebx+1h]
	cmp	ecx,eax
	jle	6E68C1h

l006E68A6:
	add	dword ptr [esi],0FFh
	jnz	6E68B7h

l006E68AB:
	mov	edx,[esi+4h]
	mov	eax,[edx+18h]
	push	esi
	call	eax
	add	esp,4h

l006E68B7:
	mov	ecx,8D3918h
	jmp	6E5CC8h

l006E68C1:
	mov	edi,[esp+20h]
	mov	edx,[esp+18h]
	lea	eax,[edi+1h]
	push	eax
	mov	eax,[edx]
	lea	ecx,[esi+14h]
	push	ecx
	push	eax
	call	695030h
	add	esp,0Ch
	cmp	dword ptr [esp+24h],0h
	jz	6E68EEh

l006E68E3:
	mov	ecx,[esp+14h]
	mov	[ecx],edi
	jmp	6E69B3h

l006E68EE:
	mov	edx,[esp+1Ch]
	mov	[edx],edi
	jmp	6E69B3h

l006E68F9:
	lea	eax,[esi+14h]
	lea	edx,[eax+1h]
	nop

l006E6900:
	mov	cl,[eax]
	add	eax,1h
	test	cl,cl
	jnz	6E6900h

l006E6909:
	sub	eax,edx
	cmp	eax,ebx
	jz	6E692Ah

l006E690F:
	add	dword ptr [esi],0FFh
	jnz	6E6920h

l006E6914:
	mov	eax,[esi+4h]
	mov	ecx,[eax+18h]
	push	esi
	call	ecx
	add	esp,4h

l006E6920:
	mov	ecx,8D38F4h
	jmp	6E5CC8h

l006E692A:
	lea	eax,[ebx+1h]
	test	eax,eax
	mov	[esp+24h],eax
	jnz	6E693Ah

l006E6935:
	mov	eax,1h

l006E693A:
	push	eax
	call	dword ptr [8A45BCh]
	mov	edx,[esp+1Ch]
	add	esp,4h
	test	eax,eax
	mov	[edx],eax
	jnz	6E696Dh

l006E694E:
	add	dword ptr [esi],0FFh
	jnz	6E6861h

l006E6957:
	mov	eax,[esi+4h]
	mov	ecx,[eax+18h]
	push	esi
	call	ecx
	add	esp,4h
	mov	ecx,8D3940h
	jmp	6E5CC8h

l006E696D:
	mov	edi,[esp+5Ch]
	mov	ebx,eax
	call	6E54A0h
	test	eax,eax
	jz	6E699Bh

l006E697C:
	add	dword ptr [esi],0FFh
	jnz	6E688Bh

l006E6985:
	mov	edx,[esi+4h]
	mov	eax,[edx+18h]
	push	esi
	call	eax
	add	esp,4h
	mov	ecx,8D392Ch
	jmp	6E5CC8h

l006E699B:
	mov	ecx,[esp+24h]
	mov	edx,[esp+18h]
	push	ecx
	lea	eax,[esi+14h]
	push	eax
	mov	eax,[edx]
	push	eax
	call	695030h
	add	esp,0Ch

l006E69B3:
	add	dword ptr [esi],0FFh
	jnz	6E6D6Eh

l006E69BC:
	mov	ecx,[esi+4h]
	mov	edx,[ecx+18h]
	push	esi
	call	edx
	mov	ecx,[esp+14h]
	mov	edx,[esp+50h]
	add	esp,4h
	pop	edi
	pop	esi
	pop	ebp
	mov	[edx],ecx
	xor	eax,eax
	pop	ebx
	add	esp,34h
	ret

l006E69DC:
	mov	ecx,8D38D0h
	jmp	6E5CC8h

l006E69E6:
	cmp	byte ptr [ebx],23h
	jnz	6E6A9Ah

l006E69EF:
	add	dword ptr [edi],4h
	mov	eax,[edi]
	mov	ecx,[eax-4h]
	mov	esi,[esp+50h]
	mov	[esp+24h],ecx
	xor	ecx,ecx
	add	eax,4h
	and	esi,2h
	mov	[esp+18h],ecx
	mov	[esp+1Ch],ecx
	mov	[edi],eax
	jz	6E6A1Ch

l006E6A13:
	mov	edx,[eax-4h]
	mov	[esp+1Ch],edx
	jmp	6E6A23h

l006E6A1C:
	mov	eax,[eax-4h]
	mov	[esp+18h],eax

l006E6A23:
	mov	eax,[ebp+4h]
	cmp	eax,0A23B20h
	jz	6E6A49h

l006E6A2D:
	push	0A23B20h
	push	eax
	call	6D5670h
	add	esp,8h
	test	eax,eax
	jnz	6E6A49h

l006E6A3F:
	mov	ecx,8D38B4h
	jmp	6E5CC8h

l006E6A49:
	test	esi,esi
	mov	ecx,[ebp+0Ch]
	mov	edx,[esp+24h]
	mov	[edx],ecx
	jz	6E6A78h

l006E6A56:
	mov	eax,[ebp+8h]
	mov	ecx,[esp+1Ch]
	mov	edx,[esp+4Ch]
	pop	edi
	add	ebx,1h
	mov	[ecx],eax
	pop	esi
	mov	ecx,ebx
	pop	ebp
	mov	[esp+4h],ebx
	mov	[edx],ecx
	xor	eax,eax
	pop	ebx
	add	esp,34h
	ret

l006E6A78:
	mov	edx,[ebp+8h]
	mov	eax,[esp+18h]
	pop	edi
	add	ebx,1h
	mov	[eax],edx
	mov	edx,[esp+48h]
	pop	esi
	mov	ecx,ebx
	pop	ebp
	mov	[esp+4h],ebx
	mov	[edx],ecx
	xor	eax,eax
	pop	ebx
	add	esp,34h
	ret

l006E6A9A:
	add	dword ptr [edi],4h
	mov	eax,[ebp+4h]
	cmp	eax,0A23B20h
	mov	edi,[edi]
	mov	edi,[edi-4h]
	jz	6E6ABEh

l006E6AAC:
	push	0A23B20h
	push	eax
	call	6D5670h
	add	esp,8h
	test	eax,eax
	jz	6E6B39h

l006E6ABE:
	mov	ecx,[ebp+0Ch]
	mov	edx,[esp+4Ch]
	mov	[edi],ecx
	mov	ecx,[esp+10h]
	pop	edi
	pop	esi
	pop	ebp
	mov	[edx],ecx
	xor	eax,eax
	pop	ebx
	add	esp,34h
	ret

l006E6AD7:
	add	dword ptr [edi],4h
	mov	eax,[ebp+4h]
	cmp	eax,0A1B450h
	mov	edi,[edi]
	mov	edi,[edi-4h]
	jz	6E6AFFh

l006E6AE9:
	push	0A1B450h
	push	eax
	call	6D5670h
	add	esp,8h
	test	eax,eax
	jz	6E63AEh

l006E6AFF:
	mov	ecx,[esp+10h]
	mov	edx,[esp+4Ch]
	mov	[edi],ebp
	pop	edi
	pop	esi
	pop	ebp
	mov	[edx],ecx
	xor	eax,eax
	pop	ebx
	add	esp,34h
	ret

l006E6B15:
	add	dword ptr [edi],4h
	mov	eax,[ebp+4h]
	cmp	eax,0A23B20h
	mov	edi,[edi]
	mov	edi,[edi-4h]
	jz	6E6AFFh

l006E6B27:
	push	0A23B20h
	push	eax
	call	6D5670h
	add	esp,8h
	test	eax,eax
	jnz	6E6AFFh

l006E6B39:
	mov	ecx,8D38ACh
	jmp	6E5CC8h

l006E6B43:
	mov	al,[ebx]
	add	dword ptr [edi],4h
	cmp	al,21h
	jnz	6E6B77h

l006E6B4C:
	mov	eax,[edi]
	mov	ebx,[eax-4h]
	add	dword ptr [esp+10h],1h
	add	eax,4h
	mov	[edi],eax
	mov	edx,[ebp+4h]
	mov	esi,[eax-4h]
	push	ebx
	push	edx
	call	6D5670h
	add	esp,8h
	test	eax,eax
	jnz	6E6B99h

l006E6B6F:
	mov	ecx,[ebx+0Ch]
	jmp	6E5CC8h

l006E6B77:
	cmp	al,3Fh
	jnz	6E6BAFh

l006E6B7B:
	mov	eax,[edi]
	mov	ecx,[eax-4h]
	add	eax,4h
	mov	[edi],eax
	mov	esi,[eax-4h]
	add	ebx,1h
	push	ebp
	mov	[esp+14h],ebx
	call	ecx
	add	esp,4h
	test	eax,eax
	jz	6E6BD6h

l006E6B99:
	mov	ecx,[esp+10h]
	mov	edx,[esp+4Ch]
	pop	edi
	mov	[esi],ebp
	pop	esi
	pop	ebp
	mov	[edx],ecx
	xor	eax,eax
	pop	ebx
	add	esp,34h
	ret

l006E6BAF:
	cmp	al,26h
	jnz	6E6BE0h

l006E6BB3:
	mov	eax,[edi]
	mov	ecx,[eax-4h]
	add	eax,4h
	mov	[edi],eax
	mov	eax,[eax-4h]
	push	eax
	add	ebx,1h
	push	ebp
	mov	[esp+18h],ebx
	call	ecx
	add	esp,8h
	test	eax,eax
	jnz	6E6D6Eh

l006E6BD6:
	mov	ecx,8D3720h
	jmp	6E5CC8h

l006E6BE0:
	mov	edi,[edi]
	mov	eax,[edi-4h]
	mov	ecx,[esp+10h]
	mov	edx,[esp+4Ch]
	pop	edi
	mov	[eax],ebp
	pop	esi
	pop	ebp
	mov	[edx],ecx
	xor	eax,eax
	pop	ebx
	add	esp,34h
	ret

l006E6BFB:
	add	dword ptr [edi],4h
	mov	edx,[ebp+4h]
	mov	eax,[edi]
	mov	esi,[edx+50h]
	test	esi,esi
	mov	ecx,[eax-4h]
	mov	[esp+24h],ecx
	jz	6E6CB2h

l006E6C15:
	cmp	dword ptr [esi+4h],0h
	jz	6E6CB2h

l006E6C1F:
	mov	eax,[esi+8h]
	test	eax,eax
	jz	6E6CB2h

l006E6C2A:
	push	0h
	push	ebp
	call	eax
	add	esp,8h
	cmp	eax,1h
	jz	6E6C41h

l006E6C37:
	mov	ecx,8D3888h
	jmp	6E5CC8h

l006E6C41:
	mov	eax,[esp+24h]
	mov	ecx,[esi+4h]
	push	eax
	push	0h
	push	ebp
	call	ecx
	add	esp,0Ch
	test	eax,eax
	jl	6E6BD6h

l006E6C55:
	cmp	byte ptr [ebx],23h
	jnz	6E6D6Eh

l006E6C5E:
	mov	esi,[esp+50h]
	add	dword ptr [edi],4h
	mov	edi,[edi]
	xor	ecx,ecx
	xor	edx,edx
	and	esi,2h
	jz	6E6C75h

l006E6C70:
	mov	edx,[edi-4h]
	jmp	6E6C78h

l006E6C75:
	mov	ecx,[edi-4h]

l006E6C78:
	test	esi,esi
	jz	6E6C97h

l006E6C7C:
	pop	edi
	add	ebx,1h
	mov	[edx],eax
	mov	edx,[esp+48h]
	pop	esi
	mov	ecx,ebx
	pop	ebp
	mov	[esp+4h],ebx
	mov	[edx],ecx
	xor	eax,eax
	pop	ebx
	add	esp,34h
	ret

l006E6C97:
	mov	edx,[esp+4Ch]
	pop	edi
	add	ebx,1h
	mov	[ecx],eax
	pop	esi
	mov	ecx,ebx
	pop	ebp
	mov	[esp+4h],ebx
	mov	[edx],ecx
	xor	eax,eax
	pop	ebx
	add	esp,34h
	ret

l006E6CB2:
	mov	ecx,8D3874h
	jmp	6E5CC8h

l006E6CBC:
	add	dword ptr [edi],4h
	mov	eax,[edi]
	mov	edx,[eax-4h]
	mov	cl,[ebx]
	mov	eax,[ebp+4h]
	mov	esi,[eax+50h]
	add	ebx,1h
	cmp	cl,23h
	mov	[esp+24h],edx
	mov	[esp+10h],ebx
	jz	6E6CE6h

l006E6CDC:
	mov	ecx,8D3850h
	jmp	6E5CC8h

l006E6CE6:
	test	byte ptr [eax+54h],1h
	jz	6E6D82h

l006E6CF0:
	test	esi,esi
	jz	6E6D82h

l006E6CF8:
	cmp	dword ptr [esi+0Ch],0h
	jz	6E6D82h

l006E6D02:
	mov	eax,[esi+8h]
	test	eax,eax
	jz	6E6D82h

l006E6D09:
	push	0h
	push	ebp
	call	eax
	add	esp,8h
	cmp	eax,1h
	jz	6E6D20h

l006E6D16:
	mov	ecx,8D3730h
	jmp	6E5CC8h

l006E6D20:
	mov	edx,[esp+24h]
	mov	eax,[esi+0Ch]
	push	edx
	push	0h
	push	ebp
	call	eax
	add	esp,0Ch
	test	eax,eax
	jl	6E6BD6h

l006E6D38:
	mov	esi,[esp+50h]
	add	dword ptr [edi],4h
	mov	edi,[edi]
	xor	ecx,ecx
	xor	edx,edx
	and	esi,2h
	jz	6E6D4Fh

l006E6D4A:
	mov	edx,[edi-4h]
	jmp	6E6D52h

l006E6D4F:
	mov	ecx,[edi-4h]

l006E6D52:
	test	esi,esi
	jz	6E6D6Ch

l006E6D56:
	mov	ecx,[esp+10h]
	pop	edi
	mov	[edx],eax
	mov	edx,[esp+48h]
	pop	esi
	pop	ebp
	mov	[edx],ecx
	xor	eax,eax
	pop	ebx
	add	esp,34h
	ret

l006E6D6C:
	mov	[ecx],eax

l006E6D6E:
	mov	ecx,[esp+10h]
	mov	edx,[esp+4Ch]
	pop	edi
	pop	esi
	pop	ebp
	mov	[edx],ecx
	xor	eax,eax
	pop	ebx
	add	esp,34h
	ret

l006E6D82:
	mov	ecx,8D3828h
	jmp	6E5CC8h

l006E6D8C:
	cmp	ebp,0A163B8h
	jnz	6E6D9Bh

l006E6D94:
	mov	eax,8ABDD0h
	jmp	6E6DA1h

l006E6D9B:
	mov	eax,[ebp+4h]
	mov	eax,[eax+0Ch]

l006E6DA1:
	mov	ecx,[esp+58h]
	mov	esi,[esp+54h]
	push	eax
	push	8D375Ch
	push	8D36C0h
	push	ecx
	push	esi
	call	724FE0h
	add	esp,14h
	pop	edi
	mov	eax,esi
	pop	esi
	pop	ebp
	pop	ebx
	add	esp,34h
	ret
l006E6DC8	dd	0x006E5D2B
l006E6DCC	dd	0x006E612C
l006E6DD0	dd	0x006E5E0D
l006E6DD4	dd	0x006E5EDA
l006E6DD8	dd	0x006E6018
l006E6DDC	dd	0x006E5FCE
l006E6DE0	dd	0x006E6B43
l006E6DE4	dd	0x006E6AD7
l006E6DE8	dd	0x006E6B15
l006E6DEC	dd	0x006E5C99
l006E6DF0	dd	0x006E618F
l006E6DF4	dd	0x006E60EA
l006E6DF8	dd	0x006E66BF
l006E6DFC	dd	0x006E60A8
l006E6E00	dd	0x006E5D74
l006E6E04	dd	0x006E5E43
l006E6E08	dd	0x006E5F46
l006E6E0C	dd	0x006E5F10
l006E6E10	dd	0x006E61E4
l006E6E14	dd	0x006E6CBC
l006E6E18	dd	0x006E69E6
l006E6E1C	dd	0x006E6BFB
l006E6E20	dd	0x006E6400
l006E6E24	dd	0x006E6D8C
l006E6E28	db	0x00
l006E6E29	db	0x17
l006E6E2A	db	0x01
l006E6E2B	db	0x17
l006E6E2C	db	0x17
l006E6E2D	db	0x17
l006E6E2E	db	0x02
l006E6E2F	db	0x03
l006E6E30	db	0x17
l006E6E31	db	0x04
l006E6E32	db	0x05
l006E6E33	db	0x17
l006E6E34	db	0x17
l006E6E35	db	0x06
l006E6E36	db	0x17
l006E6E37	db	0x17
l006E6E38	db	0x17
l006E6E39	db	0x07
l006E6E3A	db	0x17
l006E6E3B	db	0x08
l006E6E3C	db	0x17
l006E6E3D	db	0x17
l006E6E3E	db	0x17
l006E6E3F	db	0x17
l006E6E40	db	0x17
l006E6E41	db	0x17
l006E6E42	db	0x17
l006E6E43	db	0x17
l006E6E44	db	0x17
l006E6E45	db	0x17
l006E6E46	db	0x17
l006E6E47	db	0x17
l006E6E48	db	0x09
l006E6E49	db	0x0A
l006E6E4A	db	0x0B
l006E6E4B	db	0x0C
l006E6E4C	db	0x0D
l006E6E4D	db	0x17
l006E6E4E	db	0x0E
l006E6E4F	db	0x0F
l006E6E50	db	0x17
l006E6E51	db	0x10
l006E6E52	db	0x11
l006E6E53	db	0x17
l006E6E54	db	0x11
l006E6E55	db	0x17
l006E6E56	db	0x17
l006E6E57	db	0x17
l006E6E58	db	0x17
l006E6E59	db	0x12
l006E6E5A	db	0x13
l006E6E5B	db	0x14
l006E6E5C	db	0x17
l006E6E5D	db	0x15
l006E6E5E	db	0x17
l006E6E5F	db	0x17
l006E6E60	db	0x16
006E6E61    CC CC CC CC CC CC CC CC CC CC CC CC CC CC CC  ...............

;; fn006E6E70: 006E6E70
;;   Called from:
;;     006E5852 (in fn006E5710)
;;     006E7863 (in fn006E7660)
;;     006E795D (in fn006E7660)
fn006E6E70 proc
	push	esi
	mov	esi,[esp+0Ch]
	mov	eax,[esi]
	cmp	byte ptr [eax],28h
	mov	[esp+0Ch],eax
	jnz	6E6ECAh

l006E6E80:
	mov	ecx,[esp+20h]
	mov	edx,[esp+1Ch]
	add	eax,1h
	mov	[esp+0Ch],eax
	mov	eax,[esp+24h]
	push	eax
	mov	eax,[esp+1Ch]
	push	0h
	push	ecx
	mov	ecx,[esp+20h]
	push	edx
	mov	edx,[esp+20h]
	push	eax
	push	ecx
	mov	ecx,[esp+20h]
	push	edx
	lea	eax,[esp+28h]
	push	eax
	push	ecx
	call	6E5710h
	add	esp,24h
	test	eax,eax
	jnz	6E6EC8h

l006E6EBD:
	add	dword ptr [esp+0Ch],1h

l006E6EC2:
	mov	ecx,[esp+0Ch]
	mov	[esi],ecx

l006E6EC8:
	pop	esi
	ret

l006E6ECA:
	mov	edx,[esp+24h]
	mov	eax,[esp+20h]
	mov	ecx,[esp+1Ch]
	push	edx
	mov	edx,[esp+18h]
	push	eax
	push	ecx
	mov	ecx,[esp+14h]
	push	edx
	lea	eax,[esp+1Ch]
	push	eax
	mov	eax,[esp+24h]
	push	ecx
	call	6E5C60h
	add	esp,18h
	test	eax,eax
	jz	6E6EC2h

l006E6EF8:
	mov	edx,[esp+18h]
	mov	dword ptr [edx],0h
	pop	esi
	ret
006E6F04             CC CC CC CC CC CC CC CC CC CC CC CC     ............
006E6F10 81 EC B0 02 00 00 A1 88 41 A1 00 33 C4 89 84 24 ........A..3...$
006E6F20 AC 02 00 00 8B 84 24 B4 02 00 00 53 55 8B AC 24 ......$....SU..$
006E6F30 C4 02 00 00 56 89 44 24 0C 33 C0 57 8B BC 24 C8 ....V.D$.3.W..$.
006E6F40 02 00 00 89 44 24 14 0F BE 37 3B F0 89 4C 24 24 ....D$...7;..L$$
006E6F50 89 6C 24 20 89 54 24 2C 89 44 24 34 89 44 24 28 .l$ .T$,.D$4.D$(
006E6F60 8B DF C7 44 24 38 FF FF FF FF 89 44 24 18 74 54 ...D$8.....D$.tT
006E6F70 8B C6 25 FF 00 00 00 50 83 C7 01 FF 15 C8 46 8A ..%....P......F.
006E6F80 00 83 C4 04 85 C0 74 15 83 FE 65 74 10 83 44 24 ......t...et..D$
006E6F90 18 01 83 7D 00 00 74 45 83 C5 04 EB 1E 83 FE 7C ...}..tE.......|
006E6FA0 75 0A 8B 4C 24 18 89 4C 24 38 EB 0F 83 FE 3A 74 u..L$..L$8....:t
006E6FB0 3D 83 FE 3B 74 3E 83 FE 28 74 3F 0F BE 37 85 F6 =..;t>..(t?..7..
006E6FC0 75 AE 33 C0 39 45 00 89 5C 24 1C 74 3D 8B 0D E0 u.3.9E..\$.t=...
006E6FD0 75 A1 00 68 3C 3D 8D 00 E9 4E 06 00 00 8B 15 E0 u..h<=...N......
006E6FE0 75 A1 00 68 08 3D 8D 00 52 E9 3E 06 00 00 89 7C u..h.=..R.>....|
006E6FF0 24 28 EB CE 89 7C 24 34 EB C8 A1 E0 75 A1 00 68 $(...|$4....u..h
006E7000 D4 3C 8D 00 50 E9 22 06 00 00 39 44 24 38 7D 08 .<..P."...9D$8}.
006E7010 8B 54 24 18 89 54 24 38 39 44 24 24 8B 4C 24 10 .T$..T$89D$$.L$.
006E7020 8B 69 08 75 3D 89 44 24 30 83 7C 24 30 00 8B 5C .i.u=.D$0.|$0..\
006E7030 24 38 8B FD 0F 8E AE 00 00 00 3B EB 0F 8D AE 00 $8........;.....
006E7040 00 00 8B F5 8B 44 24 20 8B 0C B0 8B 54 24 24 51 .....D$ ....T$$Q
006E7050 52 E8 5A 68 01 00 83 C4 08 85 C0 74 73 83 C7 01 R.Zh.......ts...
006E7060 EB 7B 8B 54 24 24 52 E8 B4 5E 01 00 83 C4 04 85 .{.T$$R..^......
006E7070 C0 89 44 24 30 7E B2 33 F6 85 ED 7E AC 8D 49 00 ..D$0~.3...~..I.
006E7080 8B 44 24 20 8B 3C B0 85 FF 74 9E 8B 4C 24 24 57 .D$ .<...t..L$$W
006E7090 51 E8 1A 68 01 00 83 C4 08 85 C0 75 19 E8 1E 9F Q..h.......u....
006E70A0 FF FF 85 C0 0F 85 8A 05 00 00 83 C6 01 3B F5 7C .............;.|
006E70B0 CF E9 73 FF FF FF 8B 15 7C 6B A1 00 57 68 98 3C ..s.....|k..Wh.<
006E70C0 8D 00 52 E8 08 A5 FF FF 83 C4 0C E9 64 05 00 00 ..R.........d...
006E70D0 E8 EB 9E FF FF 85 C0 0F 85 57 05 00 00 83 C6 01 .........W......
006E70E0 3B F3 0F 8C 5C FF FF FF 3B FB 0F 8C B7 04 00 00 ;...\...;.......
006E70F0 8B 4C 24 18 3B CF 0F 8C AF 04 00 00 33 F6 85 ED .L$.;.......3...
006E7100 7E 5B 8B 7C 24 10 8B 9C 24 D0 02 00 00 83 C7 0C ~[.|$...$.......
006E7110 8B 44 24 1C 80 38 7C 75 05 83 44 24 1C 01 8D 4C .D$..8|u..D$...L
006E7120 24 14 51 8B 4C 24 30 68 00 02 00 00 8D 94 24 C4 $.Q.L$0h......$.
006E7130 00 00 00 52 8D 44 24 48 50 8B 07 53 51 8D 54 24 ...R.D$HP..SQ.T$
006E7140 34 52 50 E8 28 FD FF FF 83 C4 20 83 C6 01 85 C0 4RP.(..... .....
006E7150 75 3C 83 C7 04 3B F5 7C B7 8B 4C 24 18 83 7C 24 u<...;.|..L$..|$
006E7160 30 00 0F 85 9E 00 00 00 8B 44 24 14 85 C0 74 14 0........D$...t.
006E7170 83 00 FF 83 38 00 75 0C 8B 48 04 8B 51 18 50 FF ....8.u..H..Q.P.
006E7180 D2 83 C4 04 B8 01 00 00 00 E9 A8 04 00 00 8B 4C ...............L
006E7190 24 28 51 8B 4C 24 38 50 56 8D 5C 24 48 E8 EE E3 $(Q.L$8PV.\$H...
006E71A0 FF FF 8B 44 24 20 83 C4 0C 85 C0 8B C8 89 4C 24 ...D$ ........L$
006E71B0 10 0F 84 7D 04 00 00 8B 78 08 33 F6 85 FF 7E 2C ...}....x.3...~,
006E71C0 8B 2D D4 45 8A 00 8D 58 0C 8D A4 24 00 00 00 00 .-.E...X...$....
006E71D0 8B 13 8B 04 B2 50 E8 E5 77 04 00 50 FF D5 83 C6 .....P..w..P....
006E71E0 01 83 C4 08 3B F7 7C E8 8B 4C 24 10 83 01 FF 0F ....;.|..L$.....
006E71F0 85 3F 04 00 00 8B 51 04 8B 42 18 51 FF D0 83 C4 .?....Q..B.Q....
006E7200 04 E9 2E 04 00 00 3B E9 0F 8D 88 00 00 00 8B 9C ......;.........
006E7210 24 D0 02 00 00 8B 44 24 1C 80 38 7C 75 05 83 44 $.....D$..8|u..D
006E7220 24 1C 01 8B 4C 24 20 8B 14 A9 8B 44 24 24 52 50 $...L$ ....D$$RP
006E7230 E8 7B 66 01 00 8B F0 83 C4 08 85 F6 0F 84 0F 01 .{f.............
006E7240 00 00 83 06 01 8D 4C 24 14 51 8B 4C 24 30 68 00 ......L$.Q.L$0h.
006E7250 02 00 00 8D 94 24 C4 00 00 00 52 8D 44 24 48 50 .....$....R.D$HP
006E7260 53 51 8D 54 24 34 52 56 E8 03 FC FF FF 83 C4 20 SQ.T$4RV....... 
006E7270 83 06 FF 8B F8 75 0C 8B 46 04 8B 48 18 56 FF D1 .....u..F..H.V..
006E7280 83 C4 04 85 FF 0F 85 FE 00 00 00 83 6C 24 30 01 ............l$0.
006E7290 0F 85 E1 00 00 00 83 7C 24 30 00 0F 8E C7 FE FF .......|$0......
006E72A0 FF 8D 4C 24 28 51 8B 4C 24 28 8D 54 24 30 52 8D ..L$(Q.L$(.T$0R.
006E72B0 44 24 18 50 51 C7 44 24 20 00 00 00 00 E8 8E 4D D$.PQ.D$ ......M
006E72C0 01 00 83 C4 10 85 C0 0F 84 9B FE FF FF 8B 5C 24 ..............\$
006E72D0 18 8B 6C 24 20 EB 09 8D A4 24 00 00 00 00 8B FF ..l$ ....$......
006E72E0 8B 44 24 2C 81 78 04 50 B4 A1 00 74 1D 8B 50 04 .D$,.x.P...t..P.
006E72F0 68 50 B4 A1 00 52 E8 75 E3 FE FF 83 C4 08 85 C0 hP...R.u........
006E7300 0F 84 44 02 00 00 8B 44 24 2C 50 E8 40 59 00 00 ..D....D$,P.@Y..
006E7310 83 C4 04 33 F6 85 DB 8B F8 0F 8E A3 01 00 00 90 ...3............
006E7320 8B 54 B5 00 8B CF 8A 01 3A 02 0F 85 7E 01 00 00 .T......:...~...
006E7330 84 C0 74 16 8A 41 01 3A 42 01 0F 85 6E 01 00 00 ..t..A.:B...n...
006E7340 83 C1 02 83 C2 02 84 C0 75 DC 33 C0 E9 62 01 00 ........u.3..b..
006E7350 00 E8 6A 9C FF FF 85 C0 0F 85 8F 00 00 00 8B 4C ..j............L
006E7360 24 2C 53 8D 74 24 20 E8 94 E6 FF FF 83 C4 04 85 $,S.t$ .........
006E7370 C0 0F 85 D0 00 00 00 83 C5 01 3B 6C 24 18 0F 8C ..........;l$...
006E7380 91 FE FF FF E9 0D FF FF FF 8B 54 24 28 8B 4C 24 ..........T$(.L$
006E7390 34 52 57 83 C5 01 55 8D 5C 24 48 E8 F0 E1 FF FF 4RW...U.\$H.....
006E73A0 8B 44 24 20 83 C4 0C 85 C0 8B C8 89 4C 24 10 0F .D$ ........L$..
006E73B0 84 7F 02 00 00 8B 78 08 33 F6 85 FF 0F 8E 2A FE ......x.3.....*.
006E73C0 FF FF 8B 2D D4 45 8A 00 8D 58 0C EB 03 8D 49 00 ...-.E...X....I.
006E73D0 8B 03 8B 0C B0 51 E8 E5 75 04 00 50 FF D5 83 C6 .....Q..u..P....
006E73E0 01 83 C4 08 3B F7 7C E8 E9 FB FD FF FF 8B 44 24 ....;.|.......D$
006E73F0 14 85 C0 8B C8 89 4C 24 10 0F 84 35 02 00 00 8B ......L$...5....
006E7400 78 08 33 F6 85 FF 7E 25 8B 2D D4 45 8A 00 8D 58 x.3...~%.-.E...X
006E7410 0C 8B 0B 8B 14 B1 52 E8 A4 75 04 00 50 FF D5 83 ......R..u..P...
006E7420 C6 01 83 C4 08 3B F7 7C E8 8B 4C 24 10 83 01 FF .....;.|..L$....
006E7430 0F 85 FE 01 00 00 8B 41 04 51 8B 48 18 FF D1 83 .......A.Q.H....
006E7440 C4 04 E9 ED 01 00 00 8B 54 24 28 8B 4C 24 34 52 ........T$(.L$4R
006E7450 50 83 C5 01 55 8D 5C 24 48 C7 44 24 48 00 00 00 P...U.\$H.D$H...
006E7460 00 E8 2A E1 FF FF 8B 44 24 20 83 C4 0C 85 C0 8B ..*....D$ ......
006E7470 C8 89 4C 24 10 0F 84 B9 01 00 00 8B 78 08 33 F6 ..L$........x.3.
006E7480 85 FF 0F 8E 64 FD FF FF 8B 2D D4 45 8A 00 8D 58 ....d....-.E...X
006E7490 0C 8B 03 8B 0C B0 51 E8 24 75 04 00 50 FF D5 83 ......Q.$u..P...
006E74A0 C6 01 83 C4 08 3B F7 7C E8 E9 3A FD FF FF 1B C0 .....;.|..:.....
006E74B0 83 D8 FF 85 C0 74 6A 83 C6 01 3B F3 0F 8C 5E FE .....tj...;...^.
006E74C0 FF FF 8B 0D 7C 6B A1 00 57 68 60 3C 8D 00 51 E8 ....|k..Wh`<..Q.
006E74D0 FC A0 FF FF 8B 44 24 20 83 C4 0C 85 C0 8B C8 89 .....D$ ........
006E74E0 4C 24 20 0F 84 4B 01 00 00 8B 78 08 33 F6 85 FF L$ ..K....x.3...
006E74F0 0F 8E F6 FC FF FF 8B 2D D4 45 8A 00 8D 58 0C 90 .......-.E...X..
006E7500 8B 13 8B 04 B2 50 E8 B5 74 04 00 50 FF D5 83 C6 .....P..t..P....
006E7510 01 83 C4 08 3B F7 7C E8 8B 4C 24 20 E9 CB FC FF ....;.|..L$ ....
006E7520 FF 8D 44 24 28 50 8B 44 24 28 8D 4C 24 30 51 8D ..D$(P.D$(.L$0Q.
006E7530 54 24 18 52 50 E8 16 4B 01 00 83 C4 10 85 C0 0F T$.RP..K........
006E7540 85 9B FD FF FF E9 1E FC FF FF 8B 0D 7C 6B A1 00 ............|k..
006E7550 68 44 3C 8D 00 51 E8 25 9A FF FF 8B 44 24 1C 83 hD<..Q.%....D$..
006E7560 C4 08 85 C0 8B C8 89 4C 24 20 0F 84 C4 00 00 00 .......L$ ......
006E7570 8B 78 08 33 F6 85 FF 0F 8E 6F FC FF FF 8B 2D D4 .x.3.....o....-.
006E7580 45 8A 00 8D 58 0C 8B 13 8B 04 B2 50 E8 2F 74 04 E...X......P./t.
006E7590 00 50 FF D5 83 C6 01 83 C4 08 3B F7 7C E8 8B 4C .P........;.|..L
006E75A0 24 20 E9 45 FC FF FF 8B 4C 24 18 8B 44 24 34 85 $ .E....L$..D$4.
006E75B0 C0 75 71 3B FB 8B C3 7C 02 8B C1 83 F8 01 BD 8F .uq;...|........
006E75C0 69 8A 00 74 05 BD AC 22 8B 00 3B FB 8B F3 7C 02 i..t..."..;...|.
006E75D0 8B F1 3B D9 75 07 BA 3C 3C 8D 00 EB 0E 3B FB BA ..;.u..<<....;..
006E75E0 30 3C 8D 00 7C 05 BA 28 3C 8D 00 8B 44 24 28 85 0<..|..(<...D$(.
006E75F0 C0 75 5C B9 8F 69 8A 00 B8 1C 3C 8D 00 57 55 56 .u\..i....<..WUV
006E7600 52 51 50 68 F0 3B 8D 00 8D 84 24 D8 00 00 00 68 RQPh.;....$....h
006E7610 00 02 00 00 50 E8 C6 D9 03 00 83 C4 24 8D 84 24 ....P.......$..$
006E7620 BC 00 00 00 8B 0D 7C 6B A1 00 50 51 E8 4F 99 FF ......|k..PQ.O..
006E7630 FF 83 C4 08 33 C0 8B 8C 24 BC 02 00 00 5F 5E 5D ....3...$...._^]
006E7640 5B 33 CC E8 46 D5 FA FF 81 C4 B0 02 00 00 C3 B9 [3..F...........
006E7650 3C E8 8C 00 EB A7 CC CC CC CC CC CC CC CC CC CC <...............

;; fn006E7660: 006E7660
;;   Called from:
;;     006E7C98 (in fn006E7C80)
;;     006E7CC8 (in fn006E7CB0)
fn006E7660 proc
	sub	esp,1A8h
	mov	eax,[0A14188h]
	xor	eax,esp
	mov	[esp+1A4h],eax
	mov	eax,[esp+1B0h]
	push	ebx
	push	ebp
	xor	ebx,ebx
	mov	ebp,eax
	push	esi
	push	edi
	mov	edi,[esp+1BCh]
	and	ebp,1h
	and	eax,0FEh
	mov	[esp+24h],ecx
	mov	[esp+2Ch],edx
	mov	[esp+18h],ebx
	mov	[esp+1Ch],ebx
	mov	dword ptr [esp+28h],0FFFFFFFFh
	mov	[esp+10h],ebx
	mov	[esp+30h],edi
	mov	[esp+14h],ebx
	mov	[esp+1C0h],eax
	jmp	6E76C0h
006E76BD                                        8D 49 00              .I.

l006E76C0:
	movsx	esi,byte ptr [edi]
	mov	eax,1h
	add	edi,eax
	cmp	esi,3Bh
	ja	6E7712h

l006E76CF:
	movzx	ecx,byte ptr [esi+6E7AC4h]
	jmp	dword ptr [6E7AACh+ecx*4]

l006E76DD:
	test	ebx,ebx
	jnz	6E76E5h

l006E76E1:
	add	[esp+10h],eax

l006E76E5:
	add	ebx,eax
	cmp	ebx,1Eh
	jl	6E76C0h

l006E76EC:
	push	8D3EA0h
	call	6E86F0h
	add	esp,4h
	jmp	6E76C0h

l006E76FB:
	test	ebx,ebx
	jnz	6E770Eh

l006E76FF:
	push	8D3E80h
	call	6E86F0h
	add	esp,4h
	jmp	6E76C0h

l006E770E:
	sub	ebx,eax
	jmp	6E76C0h

l006E7712:
	test	ebx,ebx
	jnz	6E76C0h

l006E7716:
	cmp	esi,4Fh
	jnz	6E7721h

l006E771B:
	add	[esp+10h],eax
	jmp	6E76C0h

l006E7721:
	mov	edx,esi
	and	edx,0FFh
	push	edx
	call	dword ptr [8A46C8h]
	add	esp,4h
	test	eax,eax
	jz	6E7746h

l006E7737:
	cmp	esi,65h
	jz	6E76C0h

l006E773C:
	add	dword ptr [esp+10h],1h
	jmp	6E76C0h

l006E7746:
	cmp	esi,7Ch
	jnz	6E76C0h

l006E774F:
	mov	eax,[esp+10h]
	mov	[esp+28h],eax
	jmp	6E76C0h

l006E775C:
	mov	[esp+18h],edi
	jmp	6E7766h

l006E7762:
	mov	[esp+1Ch],edi

l006E7766:
	test	ebx,ebx
	jz	6E7777h

l006E776A:
	push	8D3E60h
	call	6E86F0h
	add	esp,4h

l006E7777:
	mov	ecx,[esp+28h]
	test	ecx,ecx
	mov	eax,[esp+10h]
	jge	6E7789h

l006E7783:
	mov	ecx,eax
	mov	[esp+28h],ecx

l006E7789:
	test	ebp,ebp
	mov	ebx,[esp+30h]
	mov	[esp+20h],ebx
	jz	6E78D0h

l006E7799:
	test	eax,eax
	jnz	6E77F4h

l006E779D:
	cmp	[esp+24h],eax
	jz	6E788Bh

l006E77A7:
	mov	eax,[esp+18h]
	test	eax,eax
	jnz	6E77EDh

l006E77AF:
	mov	ecx,8A698Fh
	mov	eax,8D3C1Ch

l006E77B9:
	push	ecx
	push	eax
	push	8D3E44h

l006E77C0:
	lea	ecx,[esp+0C0h]
	push	100h
	push	ecx
	call	724FE0h
	mov	eax,[0A16B7Ch]
	lea	edx,[esp+0C8h]
	push	edx
	push	eax
	call	6E0F80h
	add	esp,1Ch
	jmp	6E7A89h

l006E77ED:
	mov	ecx,8CE83Ch
	jmp	6E77B9h

l006E77F4:
	cmp	ecx,1h
	jnz	6E78C0h

l006E77FD:
	cmp	eax,ecx
	jnz	6E78C0h

l006E7805:
	cmp	dword ptr [esp+24h],0h
	jnz	6E7835h

l006E780C:
	mov	eax,[esp+18h]
	test	eax,eax
	jnz	6E7827h

l006E7814:
	mov	ecx,8A698Fh
	push	ecx
	mov	eax,8D3C1Ch
	push	eax
	push	8D3E1Ch
	jmp	6E77C0h

l006E7827:
	mov	ecx,8CE83Ch
	push	ecx
	push	eax
	push	8D3E1Ch
	jmp	6E77C0h

l006E7835:
	lea	ecx,[esp+14h]
	push	ecx
	mov	ecx,[esp+1C4h]
	push	100h
	lea	edx,[esp+0BCh]
	push	edx
	mov	edx,[esp+38h]
	lea	eax,[esp+40h]
	push	eax
	push	ecx
	mov	ecx,[esp+38h]
	push	edx
	lea	eax,[esp+38h]
	push	eax
	push	ecx
	call	6E6E70h
	add	esp,20h
	test	eax,eax
	jnz	6E7895h

l006E786F:
	mov	eax,[esp+14h]
	test	eax,eax
	jz	6E788Bh

l006E7877:
	add	dword ptr [eax],0FFh
	cmp	dword ptr [eax],0h
	jnz	6E788Bh

l006E787F:
	mov	edx,[eax+4h]
	push	eax
	mov	eax,[edx+18h]
	call	eax
	add	esp,4h

l006E788B:
	mov	eax,1h
	jmp	6E7A8Bh

l006E7895:
	mov	ecx,[esp+18h]
	mov	edx,[esp+34h]
	push	ecx
	push	eax
	push	edx
	lea	ebx,[esp+44h]

l006E78A4:
	mov	ecx,[esp+28h]
	call	6E5590h
	mov	edi,[esp+20h]
	push	0h
	call	6E5530h
	add	esp,10h
	jmp	6E7A8Bh

l006E78C0:
	mov	eax,[0A18720h]
	push	8D3DF0h
	push	eax
	jmp	6E7A81h

l006E78D0:
	mov	ecx,[esp+24h]
	mov	eax,[ecx+4h]
	cmp	eax,0A16588h
	jz	6E7901h

l006E78DE:
	push	0A16588h
	push	eax
	call	6D5670h
	add	esp,8h
	test	eax,eax
	jnz	6E7901h

l006E78F0:
	mov	edx,[0A18720h]
	push	8D3DB8h
	push	edx
	jmp	6E7A81h

l006E7901:
	mov	esi,[esp+24h]
	mov	ebp,[esi+8h]
	cmp	ebp,[esp+28h]
	jl	6E79F1h

l006E7912:
	cmp	[esp+10h],ebp
	jl	6E79F1h

l006E791C:
	xor	edi,edi
	test	ebp,ebp
	jle	6E7977h

l006E7922:
	add	esi,0Ch

l006E7925:
	cmp	byte ptr [ebx],7Ch
	jnz	6E7931h

l006E792A:
	add	ebx,1h
	mov	[esp+20h],ebx

l006E7931:
	lea	eax,[esp+14h]
	push	eax
	mov	eax,[esp+1C4h]
	push	100h
	lea	ecx,[esp+0BCh]
	push	ecx
	mov	ecx,[esp+38h]
	lea	edx,[esp+40h]
	push	edx
	push	eax
	mov	eax,[esi]
	push	ecx
	lea	edx,[esp+38h]
	push	edx
	push	eax
	call	6E6E70h
	add	esp,20h
	add	edi,1h
	test	eax,eax
	jnz	6E79E1h

l006E796C:
	mov	ebx,[esp+20h]
	add	esi,4h
	cmp	edi,ebp
	jl	6E7925h

l006E7977:
	mov	al,[ebx]
	test	al,al
	jz	6E786Fh

l006E7981:
	movzx	edx,al
	push	edx
	call	dword ptr [8A46C8h]
	add	esp,4h
	test	eax,eax
	jnz	6E786Fh

l006E7996:
	mov	al,[ebx]
	cmp	al,28h
	jz	6E786Fh

l006E79A0:
	cmp	al,7Ch
	jz	6E786Fh

l006E79A8:
	cmp	al,3Ah
	jz	6E786Fh

l006E79B0:
	cmp	al,3Bh
	jz	6E786Fh

l006E79B8:
	mov	eax,[esp+30h]
	mov	ecx,[0A18720h]
	push	eax
	push	8D3D9Ch
	push	ecx
	call	6E15D0h
	mov	edi,[esp+20h]
	push	0h
	call	6E5530h
	add	esp,10h
	jmp	6E7A8Bh

l006E79E1:
	mov	ecx,[esp+18h]
	push	ecx
	push	eax
	push	edi
	lea	ebx,[esp+40h]
	jmp	6E78A4h

l006E79F1:
	cmp	dword ptr [esp+1Ch],0h
	jnz	6E7A75h

l006E79F8:
	mov	eax,[esp+28h]
	cmp	ebp,eax
	mov	edx,[esp+10h]
	mov	ecx,eax
	jl	6E7A08h

l006E7A06:
	mov	ecx,edx

l006E7A08:
	cmp	ecx,1h
	mov	edi,8A698Fh
	jz	6E7A17h

l006E7A12:
	mov	edi,8B22ACh

l006E7A17:
	cmp	ebp,eax
	mov	esi,eax
	jl	6E7A1Fh

l006E7A1D:
	mov	esi,edx

l006E7A1F:
	cmp	eax,edx
	jnz	6E7A2Ah

l006E7A23:
	mov	edx,8D3C3Ch
	jmp	6E7A38h

l006E7A2A:
	cmp	ebp,eax
	mov	edx,8D3C30h
	jl	6E7A38h

l006E7A33:
	mov	edx,8D3C28h

l006E7A38:
	mov	eax,[esp+18h]
	test	eax,eax
	jnz	6E7AA4h

l006E7A40:
	mov	ecx,8A698Fh
	mov	eax,8D3C1Ch

l006E7A4A:
	push	ebp
	push	edi
	push	esi
	push	edx
	push	ecx
	push	eax
	push	8D3D70h
	lea	ecx,[esp+0D0h]
	push	100h
	push	ecx
	call	724FE0h
	lea	edx,[esp+0D8h]
	add	esp,24h
	mov	[esp+1Ch],edx

l006E7A75:
	mov	eax,[esp+1Ch]
	mov	ecx,[0A16B7Ch]
	push	eax
	push	ecx

l006E7A81:
	call	6E0F80h
	add	esp,8h

l006E7A89:
	xor	eax,eax

l006E7A8B:
	mov	ecx,[esp+1B4h]
	pop	edi
	pop	esi
	pop	ebp
	pop	ebx
	xor	ecx,esp
	call	694B8Eh
	add	esp,1A8h
	ret

l006E7AA4:
	mov	ecx,8CE83Ch
	jmp	6E7A4Ah
006E7AAB                                  90                        .   
l006E7AAC	dd	0x006E7766
l006E7AB0	dd	0x006E76DD
l006E7AB4	dd	0x006E76FB
l006E7AB8	dd	0x006E775C
l006E7ABC	dd	0x006E7762
l006E7AC0	dd	0x006E7712
l006E7AC4	db	0x00
l006E7AC5	db	0x05
l006E7AC6	db	0x05
l006E7AC7	db	0x05
l006E7AC8	db	0x05
l006E7AC9	db	0x05
l006E7ACA	db	0x05
l006E7ACB	db	0x05
l006E7ACC	db	0x05
l006E7ACD	db	0x05
l006E7ACE	db	0x05
l006E7ACF	db	0x05
l006E7AD0	db	0x05
l006E7AD1	db	0x05
l006E7AD2	db	0x05
l006E7AD3	db	0x05
l006E7AD4	db	0x05
l006E7AD5	db	0x05
l006E7AD6	db	0x05
l006E7AD7	db	0x05
l006E7AD8	db	0x05
l006E7AD9	db	0x05
l006E7ADA	db	0x05
l006E7ADB	db	0x05
l006E7ADC	db	0x05
l006E7ADD	db	0x05
l006E7ADE	db	0x05
l006E7ADF	db	0x05
l006E7AE0	db	0x05
l006E7AE1	db	0x05
l006E7AE2	db	0x05
l006E7AE3	db	0x05
l006E7AE4	db	0x05
l006E7AE5	db	0x05
l006E7AE6	db	0x05
l006E7AE7	db	0x05
l006E7AE8	db	0x05
l006E7AE9	db	0x05
l006E7AEA	db	0x05
l006E7AEB	db	0x05
l006E7AEC	db	0x01
l006E7AED	db	0x02
l006E7AEE	db	0x05
l006E7AEF	db	0x05
l006E7AF0	db	0x05
l006E7AF1	db	0x05
l006E7AF2	db	0x05
l006E7AF3	db	0x05
l006E7AF4	db	0x05
l006E7AF5	db	0x05
l006E7AF6	db	0x05
l006E7AF7	db	0x05
l006E7AF8	db	0x05
l006E7AF9	db	0x05
l006E7AFA	db	0x05
l006E7AFB	db	0x05
l006E7AFC	db	0x05
l006E7AFD	db	0x05
l006E7AFE	db	0x03
l006E7AFF	db	0x04
006E7B00 56 57 8B 7C 24 0C 85 FF 74 6E 8B 47 04 3D 88 65 VW.|$...tn.G.=.e
006E7B10 A1 00 74 12 68 88 65 A1 00 50 E8 51 DB FE FF 83 ..t.h.e..P.Q....
006E7B20 C4 08 85 C0 74 52 8B 74 24 10 85 F6 74 1C 8B 46 ....tR.t$...t..F
006E7B30 04 3D B8 D1 A1 00 74 12 68 B8 D1 A1 00 50 E8 2D .=....t.h....P.-
006E7B40 DB FE FF 83 C4 08 85 C0 74 2E 8B 4C 24 14 85 C9 ........t..L$...
006E7B50 74 26 8B 44 24 18 85 C0 74 1E 6A 00 50 8D 54 24 t&.D$...t.j.P.T$
006E7B60 24 51 89 54 24 18 57 8D 54 24 1C 8B CE E8 9E F3 $Q.T$.W.T$......
006E7B70 FF FF 83 C4 10 5F 5E C3 68 DF 04 00 00 68 14 38 ....._^.h....h.8
006E7B80 8D 00 E8 39 A2 FF FF 83 C4 08 5F 33 C0 5E C3 CC ...9......_3.^..
006E7B90 56 57 8B 7C 24 0C 85 FF 74 6E 8B 47 04 3D 88 65 VW.|$...tn.G.=.e
006E7BA0 A1 00 74 12 68 88 65 A1 00 50 E8 C1 DA FE FF 83 ..t.h.e..P......
006E7BB0 C4 08 85 C0 74 52 8B 74 24 10 85 F6 74 1C 8B 46 ....tR.t$...t..F
006E7BC0 04 3D B8 D1 A1 00 74 12 68 B8 D1 A1 00 50 E8 9D .=....t.h....P..
006E7BD0 DA FE FF 83 C4 08 85 C0 74 2E 8B 4C 24 14 85 C9 ........t..L$...
006E7BE0 74 26 8B 44 24 18 85 C0 74 1E 6A 02 50 8D 54 24 t&.D$...t.j.P.T$
006E7BF0 24 51 89 54 24 18 57 8D 54 24 1C 8B CE E8 0E F3 $Q.T$.W.T$......
006E7C00 FF FF 83 C4 10 5F 5E C3 68 F7 04 00 00 68 14 38 ....._^.h....h.8
006E7C10 8D 00 E8 A9 A1 FF FF 83 C4 08 5F 33 C0 5E C3 CC .........._3.^..
006E7C20 51 8B 4C 24 0C 6A 01 8D 44 24 14 51 8B 4C 24 10 Q.L$.j..D$.Q.L$.
006E7C30 8D 54 24 08 89 44 24 08 E8 23 FA FF FF 83 C4 0C .T$..D$..#......
006E7C40 C3 CC CC CC CC CC CC CC CC CC CC CC CC CC CC CC ................
006E7C50 51 8B 4C 24 0C 6A 03 8D 44 24 14 51 8B 4C 24 10 Q.L$.j..D$.Q.L$.
006E7C60 8D 54 24 08 89 44 24 08 E8 F3 F9 FF FF 83 C4 0C .T$..D$.........
006E7C70 C3 CC CC CC CC CC CC CC CC CC CC CC CC CC CC CC ................

;; fn006E7C80: 006E7C80
;;   Called from:
;;     006E7F54 (in fn006E7D90)
fn006E7C80 proc
	push	ecx
	mov	ecx,[esp+0Ch]
	push	0h
	lea	eax,[esp+14h]
	push	ecx
	mov	ecx,[esp+10h]
	lea	edx,[esp+8h]
	mov	[esp+8h],eax
	call	6E7660h
	add	esp,0Ch
	ret
006E7CA1    CC CC CC CC CC CC CC CC CC CC CC CC CC CC CC  ...............

;; fn006E7CB0: 006E7CB0
;;   Called from:
;;     00717DE1 (in fn00717CB0)
;;     00719FD4 (in fn00719F20)
fn006E7CB0 proc
	push	ecx
	mov	ecx,[esp+0Ch]
	push	2h
	lea	eax,[esp+14h]
	push	ecx
	mov	ecx,[esp+10h]
	lea	edx,[esp+8h]
	mov	[esp+8h],eax
	call	6E7660h
	add	esp,0Ch
	ret
006E7CD1    CC CC CC CC CC CC CC CC CC CC CC CC CC CC CC  ...............

;; fn006E7CE0: 006E7CE0
;;   Called from:
;;     006E1970 (in fn006E1970)
fn006E7CE0 proc
	mov	eax,[0A6C620h]
	sub	esp,0Ch
	test	eax,eax
	jnz	6E7D45h

l006E7CEC:
	lea	eax,[esp]
	push	eax
	lea	ecx,[esp+8h]
	push	ecx
	lea	edx,[esp+10h]
	push	edx
	call	6E1130h
	push	8CA540h
	call	715DD0h
	add	esp,10h
	test	eax,eax
	jz	6E7D2Ah

l006E7D10:
	push	8D2038h
	push	eax
	call	6FD8B0h
	add	esp,8h
	test	eax,eax
	mov	[0A6C620h],eax
	jz	6E7D2Ah

l006E7D27:
	add	dword ptr [eax],1h

l006E7D2A:
	mov	eax,[esp]
	mov	ecx,[esp+4h]
	mov	edx,[esp+8h]
	push	eax
	push	ecx
	push	edx
	call	6E0E00h
	mov	eax,[0A6C620h]
	add	esp,0Ch

l006E7D45:
	add	esp,0Ch
	ret
006E7D49                            CC CC CC CC CC CC CC          .......
006E7D50 A1 24 C6 A6 00 C3 CC CC CC CC CC CC CC CC CC CC .$..............
006E7D60 A1 F4 91 A1 00 C3 CC CC CC CC CC CC CC CC CC CC ................
006E7D70 A1 28 C6 A6 00 85 C0 75 16 39 05 F4 4A A7 00 75 .(.....u.9..J..u
006E7D80 0E 68 E0 3E 8D 00 FF 15 88 46 8A 00 83 C4 04 C3 .h.>.....F......

;; fn006E7D90: 006E7D90
;;   Called from:
;;     006E8157 (in fn006E8060)
fn006E7D90 proc
	push	ebx
	push	ebp
	mov	ebp,[esp+0Ch]
	mov	ebx,eax
	mov	eax,[edi+4h]
	cmp	eax,0A16588h
	push	esi
	mov	esi,ecx
	jz	6E7F41h

l006E7DA9:
	push	0A16588h
	push	eax
	call	6D5670h
	add	esp,8h
	test	eax,eax
	jnz	6E7F41h

l006E7DBF:
	push	8D2084h
	push	edi
	call	6DF760h
	add	esp,8h
	test	eax,eax
	jz	6E7F3Bh

l006E7DD5:
	push	8D2088h
	push	edi
	mov	[esi],eax
	call	6DF760h
	mov	esi,eax
	add	esp,8h
	test	esi,esi
	jz	6E7F3Bh

l006E7DEF:
	cmp	esi,0A163B8h
	jnz	6E7DFFh

l006E7DF7:
	mov	dword ptr [ebx],0h
	jmp	6E7E12h

l006E7DFF:
	push	esi
	call	6ECC50h
	add	esp,4h
	test	eax,eax
	mov	[ebx],eax
	jz	6E7F2Ah

l006E7E12:
	add	dword ptr [esi],0FFh
	jnz	6E7E23h

l006E7E17:
	mov	eax,[esi+4h]
	mov	ecx,[eax+18h]
	push	esi
	call	ecx
	add	esp,4h

l006E7E23:
	push	8D2094h
	push	edi
	call	6DF760h
	mov	esi,eax
	add	esp,8h
	test	esi,esi
	jz	6E7F3Bh

l006E7E3B:
	push	esi
	call	7051A0h
	add	esp,4h
	add	dword ptr [esi],0FFh
	mov	ebx,eax
	jnz	6E7E57h

l006E7E4B:
	mov	edx,[esi+4h]
	mov	eax,[edx+18h]
	push	esi
	call	eax
	add	esp,4h

l006E7E57:
	test	ebx,ebx
	jge	6E7E68h

l006E7E5B:
	call	6E0FC0h
	test	eax,eax
	jnz	6E7F3Bh

l006E7E68:
	push	8BC184h
	push	edi
	mov	[ebp+0h],ebx
	call	6DF760h
	mov	esi,eax
	add	esp,8h
	test	esi,esi
	jz	6E7F3Bh

l006E7E83:
	cmp	esi,0A163B8h
	jnz	6E7EA8h

l006E7E8B:
	mov	ecx,[esp+14h]
	mov	dword ptr [ecx],0FFFFFFFFh
	add	dword ptr [esi],0FFh
	jnz	6E7ED7h

l006E7E9A:
	mov	edx,[esi+4h]
	mov	eax,[edx+18h]
	push	esi
	call	eax
	add	esp,4h
	jmp	6E7ED7h

l006E7EA8:
	push	esi
	call	7051A0h
	add	esp,4h
	add	dword ptr [esi],0FFh
	mov	ebx,eax
	jnz	6E7EC4h

l006E7EB8:
	mov	ecx,[esi+4h]
	mov	edx,[ecx+18h]
	push	esi
	call	edx
	add	esp,4h

l006E7EC4:
	test	ebx,ebx
	jge	6E7ED1h

l006E7EC8:
	call	6E0FC0h
	test	eax,eax
	jnz	6E7F3Bh

l006E7ED1:
	mov	eax,[esp+14h]
	mov	[eax],ebx

l006E7ED7:
	push	8CEE18h
	push	edi
	call	6DF760h
	mov	esi,eax
	add	esp,8h
	test	esi,esi
	jz	6E7F3Bh

l006E7EEB:
	cmp	esi,0A163B8h
	jnz	6E7F17h

l006E7EF3:
	mov	ecx,[esp+18h]
	mov	dword ptr [ecx],0h

l006E7EFD:
	add	dword ptr [esi],0FFh
	jnz	6E7F0Eh

l006E7F02:
	mov	edx,[esi+4h]
	mov	eax,[edx+18h]
	push	esi
	call	eax
	add	esp,4h

l006E7F0E:
	pop	esi
	pop	ebp
	mov	eax,1h
	pop	ebx
	ret

l006E7F17:
	push	esi
	call	6ECC50h
	mov	edx,[esp+1Ch]
	add	esp,4h
	test	eax,eax
	mov	[edx],eax
	jnz	6E7EFDh

l006E7F2A:
	add	dword ptr [esi],0FFh
	jnz	6E7F3Bh

l006E7F2F:
	mov	eax,[esi+4h]
	mov	ecx,[eax+18h]
	push	esi
	call	ecx
	add	esp,4h

l006E7F3B:
	pop	esi
	pop	ebp
	xor	eax,eax
	pop	ebx
	ret

l006E7F41:
	mov	ecx,[esp+18h]
	mov	edx,[esp+14h]
	push	ecx
	push	edx
	push	ebp
	push	ebx
	push	esi
	push	8D3EECh
	push	edi
	call	6E7C80h
	add	esp,1Ch
	pop	esi
	pop	ebp
	pop	ebx
	ret

;; fn006E7F60: 006E7F60
;;   Called from:
;;     006E822A (in fn006E8060)
fn006E7F60 proc
	push	ebp
	mov	ebp,[esp+8h]
	push	esi
	push	edi
	mov	edi,ecx
	test	edi,edi
	mov	esi,eax
	jl	6E7FD2h

l006E7F6F:
	jle	6E7F86h

l006E7F71:
	lea	edx,[eax+1h]

l006E7F74:
	mov	cl,[eax]
	add	eax,1h
	test	cl,cl
	jnz	6E7F74h

l006E7F7D:
	sub	eax,edx
	cmp	edi,eax
	jnz	6E7F86h

l006E7F83:
	sub	edi,1h

l006E7F86:
	push	ebx
	mov	ebx,[8A46B0h]
	push	0Ah
	push	esi
	call	ebx
	add	esp,8h
	test	eax,eax
	jz	6E7FBDh

l006E7F99:
	lea	esp,[esp+0h]

l006E7FA0:
	mov	ecx,eax
	sub	ecx,esi
	cmp	ecx,edi
	jge	6E7FBDh

l006E7FA8:
	sub	esi,eax
	lea	edi,[edi+esi-1h]
	lea	esi,[eax+1h]
	push	0Ah
	push	esi
	call	ebx
	add	esp,8h
	test	eax,eax
	jnz	6E7FA0h

l006E7FBD:
	pop	ebx
	mov	edi,edi

l006E7FC0:
	mov	al,[esi]
	cmp	al,20h
	jz	6E7FCAh

l006E7FC6:
	cmp	al,9h
	jnz	6E7FD2h

l006E7FCA:
	add	esi,1h
	sub	edi,1h
	jmp	6E7FC0h

l006E7FD2:
	push	ebp
	push	8D3EF8h
	call	731D30h
	push	ebp
	push	esi
	call	731D30h
	add	esp,10h
	cmp	byte ptr [esi],0h
	jz	6E8003h

l006E7FEC:
	mov	eax,esi
	lea	edx,[eax+1h]

l006E7FF1:
	mov	cl,[eax]
	add	eax,1h
	test	cl,cl
	jnz	6E7FF1h

l006E7FFA:
	sub	eax,edx
	cmp	byte ptr [eax+esi-1h],0Ah
	jz	6E8011h

l006E8003:
	push	ebp
	push	8A6DE8h
	call	731D30h
	add	esp,8h

l006E8011:
	cmp	edi,0FFh
	jz	6E8053h

l006E8016:
	push	ebp
	push	8D3EF8h
	call	731D30h
	sub	edi,1h
	add	esp,8h
	test	edi,edi
	jle	6E8045h

l006E802B:
	jmp	6E8030h
006E802D                                        8D 49 00              .I.

l006E8030:
	push	ebp
	push	8A695Ch
	call	731D30h
	sub	edi,1h
	add	esp,8h
	test	edi,edi
	jg	6E8030h

l006E8045:
	push	ebp
	push	8D3EF4h
	call	731D30h
	add	esp,8h

l006E8053:
	pop	edi
	pop	esi
	pop	ebp
	ret
006E8057                      CC CC CC CC CC CC CC CC CC        .........

;; fn006E8060: 006E8060
;;   Called from:
;;     006E8F18 (in fn006E8D90)
;;     006E8F36 (in fn006E8D90)
;;     006E8FCB (in fn006E8D90)
fn006E8060 proc
	sub	esp,30h
	mov	eax,[0A14188h]
	xor	eax,esp
	mov	[esp+2Ch],eax
	mov	eax,[esp+38h]
	push	ebx
	push	ebp
	push	esi
	mov	esi,[esp+48h]
	push	edi
	mov	edi,[esp+44h]
	push	8AC538h
	mov	[esp+18h],edi
	mov	[esp+14h],eax
	xor	ebp,ebp
	call	715DD0h
	mov	ebx,eax
	mov	eax,[esp+14h]
	add	dword ptr [eax],1h
	add	esp,4h
	test	ebx,ebx
	jnz	6E80EBh

l006E80A2:
	push	8D3F24h
	call	dword ptr [8A46CCh]
	add	eax,40h
	push	eax
	call	dword ptr [8A45E0h]
	add	esp,8h

l006E80BA:
	mov	esi,[esp+10h]

l006E80BE:
	add	dword ptr [esi],0FFh
	jnz	6E80CFh

l006E80C3:
	mov	ecx,[esi+4h]
	mov	edx,[ecx+18h]
	push	esi
	call	edx
	add	esp,4h

l006E80CF:
	pop	edi
	pop	esi
	test	ebp,ebp
	pop	ebp
	pop	ebx
	jz	6E80DCh

l006E80D7:
	call	6E1160h

l006E80DC:
	mov	ecx,[esp+2Ch]
	xor	ecx,esp
	call	694B8Eh
	add	esp,30h
	ret

l006E80EB:
	call	707640h
	test	eax,eax
	jz	6E80F9h

l006E80F4:
	call	6E1160h

l006E80F9:
	call	dword ptr [8A46CCh]
	add	eax,20h
	push	eax
	call	dword ptr [8A4580h]
	add	esp,4h
	test	esi,esi
	jz	6E8128h

l006E8110:
	cmp	esi,0A163B8h
	jz	6E8128h

l006E8118:
	push	ebx
	push	esi
	call	72FBB0h
	mov	ebp,eax
	add	esp,8h
	test	ebp,ebp
	jnz	6E80BAh

l006E8128:
	mov	esi,[esp+10h]
	push	8D2070h
	push	esi
	call	6DF7C0h
	add	esp,8h
	test	eax,eax
	jz	6E816Ch

l006E813E:
	lea	ecx,[esp+2Ch]
	push	ecx
	lea	edx,[esp+24h]
	push	edx
	lea	eax,[esp+24h]
	push	eax
	lea	eax,[esp+30h]
	lea	ecx,[esp+34h]
	mov	edi,esi
	call	6E7D90h
	add	esp,0Ch
	test	eax,eax
	jnz	6E81BCh

l006E8163:
	call	6E1160h

l006E8168:
	mov	edi,[esp+14h]

l006E816C:
	mov	eax,[edi+4h]
	cmp	eax,0A1E968h
	jz	6E8264h

l006E817A:
	cmp	eax,0A15380h
	jz	6E8193h

l006E8181:
	push	0A15380h
	push	eax
	call	6D5670h
	add	esp,8h
	test	eax,eax
	jz	6E81ABh

l006E8193:
	mov	ecx,[0A169F0h]
	push	ecx
	push	edi
	call	6D5670h
	add	esp,8h
	test	eax,eax
	jnz	6E8264h

l006E81AB:
	push	1h
	push	ebx
	push	edi
	call	731B10h
	add	esp,0Ch
	jmp	6E8339h

l006E81BC:
	push	ebx
	push	8D3F18h
	call	731D30h
	mov	eax,[esp+2Ch]
	add	esp,8h
	test	eax,eax
	push	ebx
	jnz	6E81DAh

l006E81D3:
	push	8D3F0Ch
	jmp	6E81DBh

l006E81DA:
	push	eax

l006E81DB:
	call	731D30h
	add	esp,8h
	push	ebx
	push	8D3F00h
	call	731D30h
	mov	ecx,[esp+24h]
	push	ecx
	push	8A8F48h
	lea	edx,[esp+40h]
	push	0Ah
	push	edx
	call	724FE0h
	lea	eax,[esp+48h]
	push	ebx
	push	eax
	call	731D30h
	push	ebx
	push	8A6DE8h
	call	731D30h
	mov	eax,[esp+54h]
	add	esp,28h
	test	eax,eax
	jz	6E8232h

l006E8225:
	mov	ecx,[esp+20h]
	push	ebx
	call	6E7F60h
	add	esp,4h

l006E8232:
	add	dword ptr [esi],0FFh
	jnz	6E8243h

l006E8237:
	mov	ecx,[esi+4h]
	mov	edx,[ecx+18h]
	push	esi
	call	edx
	add	esp,4h

l006E8243:
	mov	eax,[esp+28h]
	mov	[esp+10h],eax
	call	6E0FC0h
	test	eax,eax
	mov	esi,[esp+10h]
	jz	6E8168h

l006E825C:
	or	ebp,0FFh
	jmp	6E80BEh

l006E8264:
	cmp	dword ptr [edi+4h],0A1E968h
	jnz	6E8279h

l006E826D:
	mov	eax,[edi+10h]
	add	eax,14h
	mov	[esp+14h],eax
	jmp	6E8282h

l006E8279:
	mov	edx,[edi+0Ch]
	mov	[esp+14h],edx
	mov	eax,edx

l006E8282:
	test	eax,eax
	jz	6E829Dh

l006E8286:
	push	2Eh
	push	eax
	call	dword ptr [8A4608h]
	add	esp,8h
	test	eax,eax
	jz	6E829Dh

l006E8296:
	add	eax,1h
	mov	[esp+14h],eax

l006E829D:
	push	8C8598h
	push	edi
	call	6DF760h
	mov	esi,eax
	add	esp,8h
	test	esi,esi
	mov	[esp+18h],esi
	jnz	6E82C7h

l006E82B5:
	push	ebx
	push	8BF7CCh
	call	731D30h
	add	esp,8h
	mov	ebp,eax
	jmp	6E8314h

l006E82C7:
	push	esi
	call	6ECC50h
	add	esp,4h
	test	eax,eax
	jz	6E8303h

l006E82D4:
	mov	edi,8D35A0h
	mov	esi,eax
	mov	ecx,0Bh
	xor	edx,edx

l006E82E2:
	rep cmpsb

l006E82E4:
	jz	6E82FFh

l006E82E6:
	push	ebx
	push	eax
	call	731D30h
	push	ebx
	push	8A6990h
	mov	ebp,eax
	call	731D30h
	add	esp,10h
	add	ebp,eax

l006E82FF:
	mov	esi,[esp+18h]

l006E8303:
	add	dword ptr [esi],0FFh
	jnz	6E8314h

l006E8308:
	mov	eax,[esi+4h]
	mov	ecx,[eax+18h]
	push	esi
	call	ecx
	add	esp,4h

l006E8314:
	test	ebp,ebp
	jnz	6E80BAh

l006E831C:
	mov	eax,[esp+14h]
	test	eax,eax
	push	ebx
	jnz	6E832Ch

l006E8325:
	push	8BF7CCh
	jmp	6E832Dh

l006E832C:
	push	eax

l006E832D:
	call	731D30h
	mov	esi,[esp+18h]
	add	esp,8h

l006E8339:
	mov	ebp,eax
	test	ebp,ebp
	jnz	6E80BEh

l006E8343:
	cmp	esi,0A163B8h
	jz	6E83C3h

l006E834B:
	push	esi
	call	6DDF70h
	mov	esi,eax
	add	esp,4h
	test	esi,esi
	jnz	6E8362h

l006E835A:
	or	ebp,0FFh
	jmp	6E80BAh

l006E8362:
	mov	eax,[esi+4h]
	cmp	eax,0A1B450h
	jz	6E837Eh

l006E836C:
	push	0A1B450h
	push	eax
	call	6D5670h
	add	esp,8h
	test	eax,eax
	jz	6E8384h

l006E837E:
	cmp	dword ptr [esi+8h],0h
	jz	6E8398h

l006E8384:
	push	ebx
	push	8BAE70h
	call	731D30h
	mov	ebp,eax
	add	esp,8h
	test	ebp,ebp
	jnz	6E83A6h

l006E8398:
	push	1h
	push	ebx
	push	esi
	call	731B10h
	add	esp,0Ch
	mov	ebp,eax

l006E83A6:
	add	dword ptr [esi],0FFh
	jnz	6E83B7h

l006E83AB:
	mov	edx,[esi+4h]
	mov	eax,[edx+18h]
	push	esi
	call	eax
	add	esp,4h

l006E83B7:
	test	ebp,ebp
	mov	esi,[esp+10h]
	jnz	6E80BEh

l006E83C3:
	push	ebx
	push	8A6DE8h
	call	731D30h
	add	esp,8h
	mov	ebp,eax
	jmp	6E80BEh
006E83D8                         CC CC CC CC CC CC CC CC         ........

;; fn006E83E0: 006E83E0
;;   Called from:
;;     006E9088 (in fn006E9040)
;;     006E9120 (in fn006E90B0)
fn006E83E0 proc
	push	esi
	push	eax
	mov	eax,[esp+0Ch]
	push	ecx
	push	edx
	push	eax
	call	72E790h
	mov	esi,eax
	add	esp,10h
	test	esi,esi
	jnz	6E83F9h

l006E83F7:
	pop	esi
	ret

l006E83F9:
	mov	ecx,[esp+10h]
	mov	edx,[esp+0Ch]
	push	edi
	push	ecx
	push	edx
	push	esi
	call	70BC90h
	add	esp,0Ch
	add	dword ptr [esi],0FFh
	mov	edi,eax
	jnz	6E8420h

l006E8414:
	mov	eax,[esi+4h]
	mov	ecx,[eax+18h]
	push	esi
	call	ecx
	add	esp,4h

l006E8420:
	mov	eax,edi
	pop	edi
	pop	esi
	ret
006E8425                CC CC CC CC CC CC CC CC CC CC CC      ...........

;; fn006E8430: 006E8430
;;   Called from:
;;     006E8B37 (in fn006E8AC0)
;;     006E8BD1 (in fn006E8B50)
fn006E8430 proc
	sub	esp,10h
	mov	edx,[0A178F4h]
	push	ebx
	push	ebp
	push	edi
	mov	edi,eax
	mov	eax,[edi]
	lea	ecx,[eax-0Bh]
	xor	ebp,ebp
	cmp	ecx,0Eh
	mov	[esp+0Ch],edx
	ja	6E85E7h

l006E8452:
	jmp	dword ptr [6E86ACh+ecx*4]

l006E8459:
	cmp	dword ptr [edi+18h],5h
	mov	eax,[0A17B18h]
	mov	[esp+0Ch],eax
	jnz	6E8472h

l006E8468:
	mov	ebx,8D4108h
	jmp	6E8605h

l006E8472:
	mov	eax,[edi+14h]
	cmp	eax,5h
	jnz	6E8484h

l006E847A:
	mov	ebx,8D40F4h
	jmp	6E8605h

l006E8484:
	cmp	eax,6h
	jnz	6E8493h

l006E8489:
	mov	ebx,8D40E0h
	jmp	6E8605h

l006E8493:
	mov	[esp+0Ch],edx
	mov	ebx,8D40D0h
	jmp	6E8605h

l006E84A1:
	mov	ebx,8D40C0h
	jmp	6E8605h

l006E84AB:
	mov	ebx,8D4098h
	jmp	6E8605h

l006E84B5:
	mov	ebx,8D4070h
	jmp	6E8605h

l006E84BF:
	call	6E0FC0h
	test	eax,eax
	jnz	6E86A2h

l006E84CC:
	mov	ecx,[0A16F88h]
	push	ecx
	call	6E0F10h
	add	esp,4h
	pop	edi
	pop	ebp
	pop	ebx
	add	esp,10h
	ret

l006E84E2:
	pop	edi
	pop	ebp
	pop	ebx
	add	esp,10h
	jmp	6E1210h

l006E84ED:
	mov	ebx,8D4050h
	jmp	6E8605h

l006E84F7:
	mov	edx,[0A17B1Ch]
	mov	[esp+0Ch],edx
	mov	ebx,8D401Ch
	jmp	6E8605h

l006E850B:
	mov	ebx,8D4008h
	jmp	6E8605h

l006E8515:
	mov	eax,[0A17B18h]
	mov	[esp+0Ch],eax
	mov	ebx,8D3FD4h
	jmp	6E8605h

l006E8528:
	mov	ecx,[0A17B18h]
	mov	[esp+0Ch],ecx
	mov	ebx,8D3FB4h
	jmp	6E8605h

l006E853C:
	lea	edx,[esp+18h]
	push	edx
	lea	eax,[esp+14h]
	push	eax
	lea	ecx,[esp+1Ch]
	push	ecx
	call	6E1130h
	mov	eax,[esp+1Ch]
	add	esp,0Ch
	test	eax,eax
	jz	6E8579h

l006E855B:
	push	eax
	call	6DDF70h
	mov	ebp,eax
	add	esp,4h
	test	ebp,ebp
	jz	6E8579h

l006E856A:
	push	ebp
	call	6ECC50h
	mov	ebx,eax
	add	esp,4h
	test	ebx,ebx
	jnz	6E857Eh

l006E8579:
	mov	ebx,8D3F9Ch

l006E857E:
	mov	eax,[esp+14h]
	test	eax,eax
	jz	6E859Eh

l006E8586:
	add	dword ptr [eax],0FFh
	mov	eax,[esp+14h]
	cmp	dword ptr [eax],0h
	jnz	6E859Eh

l006E8592:
	mov	edx,[eax+4h]
	push	eax
	mov	eax,[edx+18h]
	call	eax
	add	esp,4h

l006E859E:
	mov	eax,[esp+10h]
	test	eax,eax
	jz	6E85BEh

l006E85A6:
	add	dword ptr [eax],0FFh
	mov	eax,[esp+10h]
	cmp	dword ptr [eax],0h
	jnz	6E85BEh

l006E85B2:
	mov	ecx,[eax+4h]
	mov	edx,[ecx+18h]
	push	eax
	call	edx
	add	esp,4h

l006E85BE:
	mov	eax,[esp+18h]
	test	eax,eax
	jz	6E8605h

l006E85C6:
	add	dword ptr [eax],0FFh
	mov	eax,[esp+18h]
	cmp	dword ptr [eax],0h
	jnz	6E8605h

l006E85D2:
	mov	ecx,[eax+4h]
	mov	edx,[ecx+18h]
	push	eax
	call	edx
	add	esp,4h
	jmp	6E8605h

l006E85E0:
	mov	ebx,8D3F64h
	jmp	6E8605h

l006E85E7:
	push	eax
	push	8D3F58h
	call	dword ptr [8A46CCh]
	add	eax,40h
	push	eax
	call	dword ptr [8A45E0h]
	add	esp,0Ch
	mov	ebx,8D3F40h

l006E8605:
	mov	eax,[edi+10h]
	mov	ecx,[edi+0Ch]
	mov	edx,[edi+8h]
	push	esi
	push	eax
	mov	eax,[edi+4h]
	push	ecx
	push	edx
	push	eax
	push	8D3F38h
	call	6EA200h
	mov	esi,eax
	mov	eax,[edi+10h]
	add	esp,14h
	test	eax,eax
	jz	6E863Ch

l006E862C:
	push	eax
	call	7239C0h
	add	esp,4h
	mov	dword ptr [edi+10h],0h

l006E863C:
	xor	edi,edi
	test	esi,esi
	jz	6E8653h

l006E8642:
	push	esi
	push	ebx
	push	8C8040h
	call	6EA200h
	add	esp,0Ch
	mov	edi,eax

l006E8653:
	test	ebp,ebp
	jz	6E8669h

l006E8657:
	add	dword ptr [ebp+0h],0FFh
	jnz	6E8669h

l006E865D:
	mov	ecx,[ebp+4h]
	mov	edx,[ecx+18h]
	push	ebp
	call	edx
	add	esp,4h

l006E8669:
	test	esi,esi
	jz	6E867Eh

l006E866D:
	add	dword ptr [esi],0FFh
	jnz	6E867Eh

l006E8672:
	mov	eax,[esi+4h]
	mov	ecx,[eax+18h]
	push	esi
	call	ecx
	add	esp,4h

l006E867E:
	mov	edx,[esp+10h]
	push	edi
	push	edx
	call	6E0E90h
	add	esp,8h
	test	edi,edi
	pop	esi
	jz	6E86A2h

l006E8691:
	add	dword ptr [edi],0FFh
	jnz	6E86A2h

l006E8696:
	mov	eax,[edi+4h]
	mov	ecx,[eax+18h]
	push	edi
	call	ecx
	add	esp,4h

l006E86A2:
	pop	edi
	pop	ebp
	pop	ebx
	add	esp,10h
	ret
006E86A9                            8D 49 00                      .I.   
l006E86AC	dd	0x006E84ED
l006E86B0	dd	0x006E84BF
l006E86B4	dd	0x006E84A1
l006E86B8	dd	0x006E8459
l006E86BC	dd	0x006E84E2
l006E86C0	dd	0x006E85E7
l006E86C4	dd	0x006E85E7
l006E86C8	dd	0x006E84F7
l006E86CC	dd	0x006E850B
l006E86D0	dd	0x006E8528
l006E86D4	dd	0x006E8515
l006E86D8	dd	0x006E853C
l006E86DC	dd	0x006E84AB
l006E86E0	dd	0x006E84B5
l006E86E4	dd	0x006E85E0
006E86E8                         CC CC CC CC CC CC CC CC         ........

;; fn006E86F0: 006E86F0
;;   Called from:
;;     006DFDAC (in fn006DFD20)
;;     006E0C28 (in fn006E0B00)
;;     006E76F1 (in fn006E7660)
;;     006E7704 (in fn006E7660)
;;     006E776F (in fn006E7660)
;;     006EC8BD (in fn006EC890)
;;     006F271B (in fn006F2650)
;;     006F5DB4 (in fn006F5DA0)
;;     006F62FC (in fn006F62D0)
;;     006F63B6 (in fn006F63A0)
;;     006F6454 (in fn006F6440)
;;     006F6480 (in fn006F6440)
;;     006F64A6 (in fn006F6490)
;;     006F70D4 (in fn006F70C0)
;;     006F847E (in fn006F8440)
;;     006F94F2 (in fn006F94A0)
;;     006FDD42 (in fn006FDCC0)
;;     006FE2CA (in fn006FE2A0)
;;     006FE43D (in fn006FE400)
;;     006FE89E (in fn006FE400)
;;     006FEE43 (in fn006FEE30)
;;     00706BF6 (in fn00706BE0)
;;     00706C2E (in fn00706C20)
;;     00708FAD (in fn00708DC0)
;;     00708FE0 (in fn00708DC0)
;;     007094B3 (in fn00708DC0)
;;     007157B9 (in fn007157B0)
;;     007157CE (in fn007157B0)
;;     007157FA (in fn007157B0)
;;     00715B95 (in fn00715B80)
;;     00715BFA (in fn00715BD0)
;;     00715C17 (in fn00715BD0)
;;     00725112 (in fn00725010)
;;     00725DF7 (in fn00725DA0)
;;     007272CD (in fn00727290)
;;     00727593 (in fn007274B0)
;;     007279BB (in fn00727910)
;;     007291AE (in fn00729040)
;;     0072C2D9 (in fn0072C160)
;;     00734B84 (in fn00734B60)
;;     0073B1FD (in fn0073AFB0)
;;     0073B250 (in fn0073B240)
;;     0073B290 (in fn0073B280)
;;     0073BA30 (in fn0073B9B0)
;;     0074E9DE (in fn0074E980)
;;     0074EA12 (in fn0074E980)
;;     0074EA3C (in fn0074E980)
;;     0075012B (in fn007500E0)
;;     007503B3 (in fn00750380)
;;     007540C8 (in fn007540B0)
;;     0075459E (in fn007544F0)
;;     00754A8C (in fn007544F0)
;;     00754B7D (in fn007544F0)
;;     00754BE7 (in fn007544F0)
;;     00754C97 (in fn007544F0)
;;     00754CE9 (in fn007544F0)
;;     00754DA6 (in fn007544F0)
;;     00754E45 (in fn007544F0)
;;     00754ECB (in fn007544F0)
fn006E86F0 proc
	push	esi
	push	edi
	mov	edi,[esp+0Ch]
	push	edi
	push	8D413Ch
	call	dword ptr [8A46CCh]
	add	eax,40h
	push	eax
	call	dword ptr [8A45E0h]
	mov	esi,[8A40B4h]
	add	esp,0Ch
	push	8D4124h
	call	esi
	push	edi
	call	esi
	push	8A6DE8h
	call	esi
	pop	edi
	pop	esi
	jmp	dword ptr [8A46F0h]
006E872E                                           CC CC               ..

;; fn006E8730: 006E8730
;;   Called from:
;;     006E891E (in fn006E8910)
fn006E8730 proc
	push	esi
	push	8D416Ch
	call	715DD0h
	mov	esi,eax
	add	esp,4h
	test	esi,esi
	jz	6E879Eh

l006E8744:
	add	dword ptr [esi],1h
	push	0h
	push	8D416Ch
	call	715E50h
	push	0h
	push	0h
	push	esi
	call	707680h
	add	esp,14h
	test	eax,eax
	jnz	6E878Dh

l006E8764:
	mov	eax,[0A16E04h]
	push	eax
	call	6E1110h
	add	esp,4h
	test	eax,eax
	jnz	6E8783h

l006E8776:
	push	8D4154h
	call	716B20h
	add	esp,4h

l006E8783:
	push	1h
	call	6E8D90h
	add	esp,4h

l006E878D:
	add	dword ptr [esi],0FFh
	jnz	6E879Eh

l006E8792:
	mov	ecx,[esi+4h]
	mov	edx,[ecx+18h]
	push	esi
	call	edx
	add	esp,4h

l006E879E:
	call	707640h
	test	eax,eax
	pop	esi
	jz	6E87ADh

l006E87A8:
	jmp	6E1160h

l006E87AD:
	ret
006E87AE                                           CC CC               ..

l006E87B0:
	mov	eax,[0A6C62Ch]
	test	eax,eax
	jle	6E87DAh

l006E87B9:
	lea	esp,[esp+0h]

l006E87C0:
	sub	eax,1h
	mov	[0A6C62Ch],eax
	mov	eax,[0A6C598h+eax*4]
	call	eax
	mov	eax,[0A6C62Ch]
	test	eax,eax
	jg	6E87C0h

l006E87DA:
	push	esi
	mov	esi,[8A46CCh]
	push	edi
	call	esi
	mov	edi,[8A4580h]
	add	eax,20h
	push	eax
	call	edi
	call	esi
	add	eax,40h
	push	eax
	call	edi
	add	esp,8h
	pop	edi
	pop	esi
	ret
006E87FE                                           CC CC               ..

;; fn006E8800: 006E8800
;;   Called from:
;;     006DDDB9 (in fn006DDDB0)
;;     006DEECF (in fn006DEEA0)
;;     00706DC7 (in fn00706DC0)
fn006E8800 proc
	push	ebp
	mov	ebp,esp
	push	0FEh
	push	9F71F8h
	push	6955D5h
	mov	eax,fs:[0000h]
	push	eax
	sub	esp,0Ch
	mov	eax,[0A14188h]
	xor	[ebp-8h],eax
	xor	eax,ebp
	mov	[ebp-1Ch],eax
	push	ebx
	push	esi
	push	edi
	push	eax
	lea	eax,[ebp-10h]
	mov	fs:[0000h],eax
	mov	[ebp-18h],esp
	mov	dword ptr [ebp-4h],0h
	mov	eax,2000h
	call	82ABF0h
	mov	[ebp-18h],esp
	mov	dword ptr [ebp-4h],0FFFFFFFEh
	xor	eax,eax
	jmp	6E886Ah
006E8855                B8 01 00 00 00 C3 8B 65 E8 C7 45      .......e..E
006E8860 FC FE FF FF FF B8 01 00 00 00                   ..........     

l006E886A:
	lea	esp,[ebp-2Ch]
	mov	ecx,[ebp-10h]
	mov	fs:[0000h],ecx
	pop	ecx
	pop	edi
	pop	esi
	pop	ebx
	mov	ecx,[ebp-1Ch]
	xor	ecx,ebp
	call	694B8Eh
	mov	esp,ebp
	pop	ebp
	ret
006E8889                            CC CC CC CC CC CC CC          .......
006E8890 57 8B 7C 24 08 8D 47 FE 83 F8 14 77 32 0F B6 80 W.|$..G....w2...
006E88A0 DC 88 6E 00 FF 24 85 D4 88 6E 00 53 8B 1D F4 46 ..n..$...n.S...F
006E88B0 8A 00 56 6A 01 57 FF D3 8B F0 83 C4 08 83 FE FF ..Vj.W..........
006E88C0 74 07 56 57 FF D3 83 C4 08 8B C6 5E 5B 5F C3 83 t.VW.......^[_..
006E88D0 C8 FF 5F C3 AB 88 6E 00 CF 88 6E 00 00 01 00 01 .._...n...n.....
006E88E0 01 01 00 01 01 00 01 01 01 00 01 01 01 01 01 00 ................
006E88F0 00 CC CC CC CC CC CC CC CC CC CC CC CC CC CC CC ................
006E8900 FF 25 F4 46 8A 00 CC CC CC CC CC CC CC CC CC CC .%.F............

;; fn006E8910: 006E8910
;;   Called from:
;;     006E8C30 (in fn006E8C30)
fn006E8910 proc
	cmp	dword ptr [0A6C624h],0h
	jz	6E89CFh

l006E891D:
	push	esi
	call	6E8730h
	mov	eax,[0A6D67Ch]
	mov	esi,[eax+4h]
	mov	dword ptr [0A6C624h],0h
	call	72ECF0h
	mov	eax,[0A6C620h]
	test	eax,eax
	jz	6E8954h

l006E8943:
	add	dword ptr [eax],0FFh
	jnz	6E8954h

l006E8948:
	mov	ecx,[eax+4h]
	mov	edx,[ecx+18h]
	push	eax
	call	edx
	add	esp,4h

l006E8954:
	mov	dword ptr [0A6C620h],0h
	call	6FEE00h
	call	6F5DD0h
	call	6F5C20h
	call	7159F0h
	push	esi
	call	715A70h
	call	6E52A0h
	push	0h
	call	7158B0h
	push	esi
	call	715BD0h
	call	70E820h
	call	73B5E0h
	call	6F9B70h
	call	6E0CA0h
	call	6F2610h
	call	738D80h
	call	6EC950h
	call	706900h
	call	700EC0h
	call	71F9C0h
	push	0A2AC58h
	call	737950h
	add	esp,10h
	pop	esi
	jmp	6E87B0h

l006E89CF:
	ret
006E89D0 51 53 55 56 57 68 6C A5 8C 00 E8 C1 D9 00 00 8B QSUVWhl.........
006E89E0 1D E0 45 8A 00 8B 2D CC 46 8A 00 8B 35 B4 40 8A ..E...-.F...5.@.
006E89F0 00 8B F8 83 C4 04 85 FF 75 30 68 B4 41 8D 00 68 ........u0h.A..h
006E8A00 3C 41 8D 00 FF D5 83 C0 40 50 FF D3 83 C4 0C 68 <A......@P.....h
006E8A10 24 41 8D 00 FF D6 68 B4 41 8D 00 FF D6 68 E8 6D $A....h.A....h.m
006E8A20 8A 00 FF D6 FF 15 F0 46 8A 00 57 E8 00 E8 02 00 .......F..W.....
006E8A30 8B F8 68 A4 41 8D 00 57 E8 73 4E 01 00 83 C4 0C ..h.A..W.sN.....
006E8A40 85 C0 75 6D 68 4C 14 8D 00 E8 62 08 01 00 83 C4 ..umhL....b.....
006E8A50 04 85 C0 89 44 24 10 74 13 50 68 A4 41 8D 00 57 ....D$.t.Ph.A..W
006E8A60 E8 8B 4E 01 00 83 C4 0C 85 C0 74 30 68 80 41 8D ..N.......t0h.A.
006E8A70 00 68 3C 41 8D 00 FF D5 83 C0 40 50 FF D3 83 C4 .h<A......@P....
006E8A80 0C 68 24 41 8D 00 FF D6 68 80 41 8D 00 FF D6 68 .h$A....h.A....h
006E8A90 E8 6D 8A 00 FF D6 FF 15 F0 46 8A 00 8B 44 24 10 .m.......F...D$.
006E8AA0 83 00 FF 75 0C 8B 48 04 8B 51 18 50 FF D2 83 C4 ...u..H..Q.P....
006E8AB0 04 5F 5E 5D 5B 59 C3 CC CC CC CC CC CC CC CC CC ._^][Y..........

;; fn006E8AC0: 006E8AC0
;;   Called from:
;;     006E9068 (in fn006E9040)
fn006E8AC0 proc
	sub	esp,1Ch
	push	ebx
	mov	ebx,[esp+30h]
	test	ebx,ebx
	push	esi
	push	edi
	jz	6E8AE8h

l006E8ACE:
	mov	ecx,[ebx]
	mov	eax,ecx
	and	eax,8000h
	neg	eax
	sbb	eax,eax
	shr	ecx,8h
	and	eax,3h
	and	ecx,2h
	or	eax,ecx
	jmp	6E8AEAh

l006E8AE8:
	xor	eax,eax

l006E8AEA:
	mov	ecx,[esp+34h]
	mov	edi,[esp+30h]
	mov	edx,[esp+2Ch]
	push	eax
	lea	eax,[esp+10h]
	push	eax
	push	ecx
	push	0A2AC58h
	push	edi
	push	edx
	call	740A90h
	mov	esi,eax
	add	esp,18h
	test	esi,esi
	jz	6E8B33h

l006E8B12:
	mov	eax,[esp+3Ch]
	push	eax
	push	edi
	push	ebx
	push	esi
	call	7403E0h
	push	esi
	mov	edi,eax
	call	73B7F0h
	add	esp,14h
	mov	eax,edi
	pop	edi
	pop	esi
	pop	ebx
	add	esp,1Ch
	ret

l006E8B33:
	lea	eax,[esp+0Ch]
	call	6E8430h
	pop	edi
	pop	esi
	xor	eax,eax
	pop	ebx
	add	esp,1Ch
	ret
006E8B45                CC CC CC CC CC CC CC CC CC CC CC      ...........

;; fn006E8B50: 006E8B50
;;   Called from:
;;     006E90DC (in fn006E90B0)
;;     006F67E6 (in fn006F67C0)
fn006E8B50 proc
	sub	esp,1Ch
	push	ebx
	mov	ebx,[esp+38h]
	test	ebx,ebx
	push	esi
	push	edi
	jz	6E8B78h

l006E8B5E:
	mov	ecx,[ebx]
	mov	eax,ecx
	and	eax,8000h
	neg	eax
	sbb	eax,eax
	shr	ecx,8h
	and	eax,3h
	and	ecx,2h
	or	eax,ecx
	jmp	6E8B7Ah

l006E8B78:
	xor	eax,eax

l006E8B7A:
	mov	ecx,[esp+3Ch]
	mov	edx,[esp+38h]
	mov	edi,[esp+30h]
	push	eax
	lea	eax,[esp+10h]
	push	eax
	mov	eax,[esp+3Ch]
	push	ecx
	mov	ecx,[esp+38h]
	push	edx
	push	eax
	push	0A2AC58h
	push	edi
	push	ecx
	call	740B40h
	mov	esi,eax
	add	esp,20h
	test	esi,esi
	jz	6E8BCDh

l006E8BAC:
	mov	edx,[esp+48h]
	push	edx
	push	edi
	push	ebx
	push	esi
	call	7403E0h
	push	esi
	mov	edi,eax
	call	73B7F0h
	add	esp,14h
	mov	eax,edi
	pop	edi
	pop	esi
	pop	ebx
	add	esp,1Ch
	ret

l006E8BCD:
	lea	eax,[esp+0Ch]
	call	6E8430h
	mov	eax,[esp+44h]
	test	eax,eax
	jz	6E8BE4h

l006E8BDE:
	mov	ecx,[esp+0Ch]
	mov	[eax],ecx

l006E8BE4:
	pop	edi
	pop	esi
	xor	eax,eax
	pop	ebx
	add	esp,1Ch
	ret
006E8BED                                        CC CC CC              ...
006E8BF0 8B 44 24 0C 8B 54 24 08 83 EC 1C 56 50 8B 44 24 .D$..T$....VP.D$
006E8C00 28 8D 4C 24 08 51 52 68 58 AC A2 00 50 E8 DE 7F (.L$.QRhX...P...
006E8C10 05 00 8B F0 83 C4 14 85 F6 75 0B 8D 44 24 04 E8 .........u..D$..
006E8C20 0C F8 FF FF 8B C6 5E 83 C4 1C C3 CC CC CC CC CC ......^.........

;; fn006E8C30: 006E8C30
;;   Called from:
;;     006E8D81 (in fn006E8D90)
fn006E8C30 proc
	call	6E8910h
	mov	eax,[esp+4h]
	push	eax
	call	dword ptr [8A4600h]
006E8C40 CC CC CC CC CC CC CC CC CC CC CC CC CC CC CC CC ................

l006E8C50:
	sub	esp,0Ch
	push	ebx
	push	edi
	lea	eax,[esp+0Ch]
	push	eax
	lea	ecx,[esp+0Ch]
	push	ecx
	lea	edx,[esp+18h]
	push	edx
	xor	edi,edi
	call	6E1130h
	add	esp,0Ch
	call	707640h
	test	eax,eax
	jz	6E8C7Ch

l006E8C77:
	call	6E1160h

l006E8C7C:
	mov	ebx,[8A46CCh]
	call	ebx
	add	eax,20h
	push	eax
	call	dword ptr [8A4580h]
	mov	eax,[esp+0Ch]
	add	esp,4h
	test	eax,eax
	jz	6E8D68h

l006E8C9D:
	cmp	eax,0A163B8h
	jz	6E8D68h

l006E8CA8:
	cmp	dword ptr [eax+4h],0A1EB98h
	push	esi
	jz	6E8CCDh

l006E8CB2:
	mov	ecx,[0A169F0h]
	mov	edx,[eax+4h]
	push	ecx
	push	edx
	call	6D5670h
	add	esp,8h
	test	eax,eax
	jz	6E8D0Ch

l006E8CC9:
	mov	eax,[esp+0Ch]

l006E8CCD:
	push	8D2D4Ch
	push	eax
	call	6DF760h
	mov	esi,eax
	add	esp,8h
	test	esi,esi
	jz	6E8D0Ch

l006E8CE1:
	mov	eax,[esp+0Ch]
	add	dword ptr [eax],0FFh
	mov	eax,[esp+0Ch]
	cmp	[eax],edi
	jnz	6E8CFCh

l006E8CF0:
	mov	ecx,[eax+4h]
	mov	edx,[ecx+18h]
	push	eax
	call	edx
	add	esp,4h

l006E8CFC:
	cmp	esi,0A163B8h
	mov	eax,esi
	mov	[esp+0Ch],eax
	jz	6E8D67h

l006E8D0A:
	jmp	6E8D10h

l006E8D0C:
	mov	eax,[esp+0Ch]

l006E8D10:
	cmp	dword ptr [eax+4h],0A1E7E8h
	jz	6E8D58h

l006E8D19:
	mov	eax,[eax+4h]
	push	0A1E7E8h
	push	eax
	call	6D5670h
	add	esp,8h
	test	eax,eax
	jnz	6E8D54h

l006E8D2E:
	push	1h
	call	ebx
	mov	ecx,[esp+10h]
	add	eax,40h
	push	eax
	push	ecx
	call	6DEFC0h
	push	8A6DE8h
	call	716B20h
	add	esp,10h
	mov	edi,1h
	jmp	6E8D63h

l006E8D54:
	mov	eax,[esp+0Ch]

l006E8D58:
	push	eax
	call	7051A0h
	add	esp,4h
	mov	edi,eax

l006E8D63:
	mov	eax,[esp+0Ch]

l006E8D67:
	pop	esi

l006E8D68:
	mov	edx,[esp+0Ch]
	push	edx
	push	eax
	mov	eax,[esp+18h]
	push	eax
	call	6E0E00h
	add	esp,0Ch
	call	6E1160h
	push	edi
	call	6E8C30h
	pop	edi
	pop	ebx
	int	3h
	int	3h
	int	3h
	int	3h
	int	3h
	int	3h
	int	3h
	int	3h

;; fn006E8D90: 006E8D90
;;   Called from:
;;     0042E0AF (in fn0042DF20)
;;     00657160 (in fn00657140)
;;     0065726D (in fn00657140)
;;     006E8785 (in fn006E8730)
fn006E8D90 proc
	mov	eax,[0A16E04h]
	sub	esp,18h
	push	eax
	call	6E1110h
	add	esp,4h
	test	eax,eax
	jz	6E8DAAh

l006E8DA5:
	jmp	6E8C50h

l006E8DAA:
	lea	ecx,[esp+8h]
	push	ecx
	lea	edx,[esp+8h]
	push	edx
	lea	eax,[esp+8h]
	push	eax
	call	6E1130h
	add	esp,0Ch
	cmp	dword ptr [esp],0h
	jz	6E9035h

l006E8DCB:
	lea	ecx,[esp+8h]
	push	ecx
	lea	edx,[esp+8h]
	push	edx
	lea	eax,[esp+8h]
	push	eax
	call	6E1BD0h
	mov	eax,[esp+0Ch]
	add	esp,0Ch
	test	eax,eax
	jz	6E9035h

l006E8DEE:
	cmp	dword ptr [esp+1Ch],0h
	jz	6E8E21h

l006E8DF5:
	push	eax
	push	8D4250h
	call	715E50h
	mov	ecx,[esp+0Ch]
	push	ecx
	push	8D4244h
	call	715E50h
	mov	edx,[esp+18h]
	push	edx
	push	8D4234h
	call	715E50h
	add	esp,18h

l006E8E21:
	push	esi
	push	edi
	push	8D4228h
	call	715DD0h
	mov	esi,eax
	add	esp,4h
	test	esi,esi
	jz	6E8FB2h

l006E8E3A:
	mov	eax,[esp+10h]
	test	eax,eax
	jnz	6E8E47h

l006E8E42:
	mov	eax,0A163B8h

l006E8E47:
	mov	ecx,[esp+8h]
	push	eax
	mov	eax,[esp+10h]
	push	eax
	push	ecx
	push	3h
	call	6DFF80h
	mov	edi,eax
	push	0h
	push	edi
	push	esi
	call	707680h
	add	esp,1Ch
	test	eax,eax
	jnz	6E8F8Ah

l006E8E6F:
	mov	edx,[0A16E04h]
	push	edx
	call	6E1110h
	add	esp,4h
	test	eax,eax
	jz	6E8E87h

l006E8E82:
	jmp	6E8C50h

l006E8E87:
	lea	eax,[esp+1Ch]
	push	eax
	lea	ecx,[esp+1Ch]
	push	ecx
	lea	edx,[esp+1Ch]
	push	edx
	call	6E1130h
	lea	eax,[esp+28h]
	push	eax
	lea	ecx,[esp+28h]
	push	ecx
	lea	edx,[esp+28h]
	push	edx
	call	6E1BD0h
	add	esp,18h
	cmp	dword ptr [esp+14h],0h
	mov	eax,1h
	jnz	6E8ECCh

l006E8EBE:
	add	[0A163B8h],eax
	mov	dword ptr [esp+14h],0A163B8h

l006E8ECC:
	cmp	dword ptr [esp+18h],0h
	jnz	6E8EE1h

l006E8ED3:
	add	[0A163B8h],eax
	mov	dword ptr [esp+18h],0A163B8h

l006E8EE1:
	call	707640h
	test	eax,eax
	jz	6E8EEFh

l006E8EEA:
	call	6E1160h

l006E8EEF:
	call	dword ptr [8A46CCh]
	add	eax,20h
	push	eax
	call	dword ptr [8A4580h]
	push	8D420Ch
	call	716B20h
	mov	eax,[esp+24h]
	mov	ecx,[esp+20h]
	mov	edx,[esp+1Ch]
	push	eax
	push	ecx
	push	edx
	call	6E8060h
	push	8D41F0h
	call	716B20h
	mov	eax,[esp+28h]
	mov	ecx,[esp+24h]
	mov	edx,[esp+20h]
	push	eax
	push	ecx
	push	edx
	call	6E8060h
	mov	eax,[esp+38h]
	add	dword ptr [eax],0FFh
	mov	eax,[esp+38h]
	add	esp,24h
	cmp	dword ptr [eax],0h
	jnz	6E8F5Ah

l006E8F4E:
	mov	ecx,[eax+4h]
	mov	edx,[ecx+18h]
	push	eax
	call	edx
	add	esp,4h

l006E8F5A:
	mov	eax,[esp+18h]
	add	dword ptr [eax],0FFh
	mov	eax,[esp+18h]
	cmp	dword ptr [eax],0h
	jnz	6E8F76h

l006E8F6A:
	mov	ecx,[eax+4h]
	mov	edx,[ecx+18h]
	push	eax
	call	edx
	add	esp,4h

l006E8F76:
	mov	eax,[esp+1Ch]
	test	eax,eax
	jz	6E8F9Bh

l006E8F7E:
	add	dword ptr [eax],0FFh
	mov	eax,[esp+1Ch]
	cmp	dword ptr [eax],0h
	jmp	6E8F8Dh

l006E8F8A:
	add	dword ptr [eax],0FFh

l006E8F8D:
	jnz	6E8F9Bh

l006E8F8F:
	mov	ecx,[eax+4h]
	mov	edx,[ecx+18h]
	push	eax
	call	edx
	add	esp,4h

l006E8F9B:
	test	edi,edi
	jz	6E8FD3h

l006E8F9F:
	add	dword ptr [edi],0FFh
	jnz	6E8FD3h

l006E8FA4:
	mov	eax,[edi+4h]
	mov	ecx,[eax+18h]
	push	edi
	call	ecx
	add	esp,4h
	jmp	6E8FD3h

l006E8FB2:
	push	8D41D4h
	call	716B20h
	mov	edx,[esp+14h]
	mov	eax,[esp+10h]
	mov	ecx,[esp+0Ch]
	push	edx
	push	eax
	push	ecx
	call	6E8060h
	add	esp,10h

l006E8FD3:
	mov	eax,[esp+8h]
	test	eax,eax
	jz	6E8FF3h

l006E8FDB:
	add	dword ptr [eax],0FFh
	mov	eax,[esp+8h]
	cmp	dword ptr [eax],0h
	jnz	6E8FF3h

l006E8FE7:
	mov	edx,[eax+4h]
	push	eax
	mov	eax,[edx+18h]
	call	eax
	add	esp,4h

l006E8FF3:
	mov	eax,[esp+0Ch]
	test	eax,eax
	jz	6E9013h

l006E8FFB:
	add	dword ptr [eax],0FFh
	mov	eax,[esp+0Ch]
	cmp	dword ptr [eax],0h
	jnz	6E9013h

l006E9007:
	mov	ecx,[eax+4h]
	mov	edx,[ecx+18h]
	push	eax
	call	edx
	add	esp,4h

l006E9013:
	mov	eax,[esp+10h]
	test	eax,eax
	jz	6E9033h

l006E901B:
	add	dword ptr [eax],0FFh
	mov	eax,[esp+10h]
	cmp	dword ptr [eax],0h
	jnz	6E9033h

l006E9027:
	mov	ecx,[eax+4h]
	mov	edx,[ecx+18h]
	push	eax
	call	edx
	add	esp,4h

l006E9033:
	pop	edi
	pop	esi

l006E9035:
	add	esp,18h
	ret
006E9039                            CC CC CC CC CC CC CC          .......

;; fn006E9040: 006E9040
;;   Called from:
;;     0070BFBC (in fn0070BCC0)
fn006E9040 proc
	push	ebx
	push	esi
	xor	ebx,ebx
	call	740CC0h
	mov	esi,eax
	test	esi,esi
	jnz	6E9052h

l006E904F:
	pop	esi
	pop	ebx
	ret

l006E9052:
	mov	eax,[esp+10h]
	mov	ecx,[esp+0Ch]
	push	edi
	mov	edi,[esp+20h]
	push	esi
	push	edi
	push	eax
	push	8D3F0Ch
	push	ecx
	call	6E8AC0h
	add	esp,14h
	test	eax,eax
	jz	6E9092h

l006E9074:
	mov	edx,[esp+1Ch]
	mov	ecx,[esp+18h]
	push	edx
	push	ecx
	push	eax
	mov	eax,esi
	mov	ecx,edi
	mov	edx,8D3F0Ch
	call	6E83E0h
	add	esp,0Ch
	mov	ebx,eax

l006E9092:
	push	esi
	call	740D60h
	add	esp,4h
	pop	edi
	pop	esi
	mov	eax,ebx
	pop	ebx
	ret
006E90A1    CC CC CC CC CC CC CC CC CC CC CC CC CC CC CC  ...............

;; fn006E90B0: 006E90B0
;;   Called from:
;;     0070C02B (in fn0070BCC0)
fn006E90B0 proc
	push	esi
	call	740CC0h
	mov	esi,eax
	test	esi,esi
	jnz	6E90BEh

l006E90BC:
	pop	esi
	ret

l006E90BE:
	mov	eax,[esp+10h]
	mov	ecx,[esp+8h]
	push	ebx
	mov	ebx,[esp+24h]
	push	ebp
	mov	ebp,[esp+14h]
	push	edi
	push	esi
	push	0h
	push	ebx
	push	0h
	push	0h
	push	eax
	push	ebp
	push	ecx
	call	6E8B50h
	add	esp,20h
	cmp	dword ptr [esp+28h],0h
	mov	edi,eax
	jz	6E90FBh

l006E90ED:
	mov	edx,[esp+14h]
	push	edx
	call	dword ptr [8A4644h]
	add	esp,4h

l006E90FB:
	test	edi,edi
	jnz	6E910Fh

l006E90FF:
	push	esi
	call	740D60h
	add	esp,4h
	pop	edi
	pop	ebp
	pop	ebx
	xor	eax,eax
	pop	esi
	ret

l006E910F:
	mov	eax,[esp+24h]
	mov	ecx,[esp+20h]
	push	eax
	push	ecx
	push	edi
	mov	eax,esi
	mov	ecx,ebx
	mov	edx,ebp
	call	6E83E0h
	push	esi
	mov	edi,eax
	call	740D60h
	add	esp,10h
	mov	eax,edi
	pop	edi
	pop	ebp
	pop	ebx
	pop	esi
	ret
006E9137                      CC CC CC CC CC CC CC CC CC        .........
006E9140 56 E8 7A 7B 05 00 8B F0 85 F6 75 02 5E C3 8B 44 V.z{......u.^..D
006E9150 24 10 8B 4C 24 08 53 8B 5C 24 10 57 8B 7C 24 1C $..L$.S.\$.W.|$.
006E9160 56 57 50 53 51 E8 56 F9 FF FF 83 C4 14 85 C0 75 VWPSQ.V........u
006E9170 0F 56 E8 E9 7B 05 00 83 C4 04 5F 5B 33 C0 5E C3 .V..{....._[3.^.
006E9180 85 FF 74 1F F7 07 00 04 00 00 74 17 50 E8 8E E1 ..t.......t.P...
006E9190 05 00 56 8B F8 E8 C6 7B 05 00 83 C4 08 8B C7 5F ..V....{......._
006E91A0 5B 5E C3 56 57 53 50 E8 E4 55 04 00 56 8B F8 E8 [^.VWSP..U..V...
006E91B0 AC 7B 05 00 83 C4 14 8B C7 5F 5B 5E C3 CC CC CC .{......._[^....
006E91C0 83 EC 1C 57 E8 F7 7A 05 00 8B F8 85 FF 75 05 5F ...W..z......u._
006E91D0 83 C4 1C C3 8B 4C 24 2C 8B 54 24 24 53 55 8B 6C .....L$,.T$$SU.l
006E91E0 24 30 56 6A 00 8D 44 24 14 50 51 68 58 AC A2 00 $0Vj..D$.PQhX...
006E91F0 55 52 E8 99 78 05 00 8B F0 83 C4 18 85 F6 74 2C UR..x.........t,
006E9200 57 55 6A 00 56 E8 D6 71 05 00 56 8B D8 E8 DE 25 WUj.V..q..V....%
006E9210 05 00 83 C4 14 85 DB 75 2F 57 E8 41 7B 05 00 83 .......u/W.A{...
006E9220 C4 04 5E 5D 5B 33 C0 5F 83 C4 1C C3 8D 44 24 10 ..^][3._.....D$.
006E9230 E8 FB F1 FF FF 57 E8 25 7B 05 00 83 C4 04 5E 5D .....W.%{.....^]
006E9240 5B 33 C0 5F 83 C4 1C C3 6A 00 55 53 E8 CF 05 06 [3._....j.US....
006E9250 00 57 8B F0 E8 07 7B 05 00 83 C4 10 8B C6 5E 5D .W....{.......^]
006E9260 5B 5F 83 C4 1C C3 CC CC CC CC CC CC CC CC CC CC [_..............
006E9270 6A 01 E8 19 FB FF FF 59 C3 CC CC CC CC CC CC CC j......Y........
006E9280 68 AC 42 8D 00 E8 26 00 01 00 83 C4 04 85 C0 75 h.B...&........u
006E9290 3E 68 38 C5 8A 00 E8 35 CB 02 00 83 C4 04 83 3D >h8....5.......=
006E92A0 F0 4A A7 00 00 50 74 15 68 88 42 8D 00 E8 7E 8A .J...Pt.h.B...~.
006E92B0 04 00 6A 01 E8 D7 FA FF FF 83 C4 0C C3 68 5C 42 ..j..........h\B
006E92C0 8D 00 E8 69 8A 04 00 83 C4 08 E9 91 7E FF FF 83 ...i........~...
006E92D0 00 FF 75 0A 8B 48 04 8B 51 18 50 FF D2 59 C3 CC ..u..H..Q.P..Y..
006E92E0 68 6C A5 8C 00 E8 B6 D0 00 00 83 C4 04 85 C0 74 hl.............t
006E92F0 2D 50 E8 39 DF 02 00 8B 4C 24 0C 8B 54 24 08 51 -P.9....L$..T$.Q
006E9300 50 50 68 01 01 00 00 52 E8 33 FD FF FF 83 C4 18 PPh....R.3......
006E9310 85 C0 75 0E 6A 01 E8 75 FA FF FF 83 C4 04 83 C8 ..u.j..u........
006E9320 FF C3 83 00 FF 75 0C 8B 48 04 8B 51 18 50 FF D2 .....u..H..Q.P..
006E9330 83 C4 04 E8 08 E3 01 00 85 C0 74 05 E8 1F 7E FF ..........t...~.
006E9340 FF 33 C0 C3 CC CC CC CC CC CC CC CC CC CC CC CC .3..............
006E9350 83 3D 24 C6 A6 00 00 0F 85 94 02 00 00 83 3D F4 .=$...........=.
006E9360 4A A7 00 00 53 56 57 C7 05 24 C6 A6 00 01 00 00 J...SVW..$......
006E9370 00 0F 85 BA 00 00 00 8B 1D 88 46 8A 00 68 94 44 ..........F..h.D
006E9380 8D 00 FF D3 8B 3D 8C 46 8A 00 83 C4 04 85 C0 74 .....=.F.......t
006E9390 26 80 38 00 74 21 8B 35 F8 4A A7 00 50 FF D7 83 &.8.t!.5.J..P...
006E93A0 C4 04 3B F0 0F 4C F0 83 FE 01 7D 05 BE 01 00 00 ..;..L....}.....
006E93B0 00 89 35 F8 4A A7 00 83 3D F4 4A A7 00 00 75 71 ..5.J...=.J...uq
006E93C0 68 84 44 8D 00 FF D3 83 C4 04 85 C0 74 26 80 38 h.D.........t&.8
006E93D0 00 74 21 8B 35 F0 4A A7 00 50 FF D7 83 C4 04 3B .t!.5.J..P.....;
006E93E0 F0 0F 4C F0 83 FE 01 7D 05 BE 01 00 00 00 89 35 ..L....}.......5
006E93F0 F0 4A A7 00 83 3D F4 4A A7 00 00 75 34 68 74 44 .J...=.J...u4htD
006E9400 8D 00 FF D3 83 C4 04 85 C0 74 26 80 38 00 74 21 .........t&.8.t!
006E9410 8B 35 F4 DB A6 00 50 FF D7 83 C4 04 3B F0 0F 4C .5....P.....;..L
006E9420 F0 83 FE 01 7D 05 BE 01 00 00 00 89 35 F4 DB A6 ....}.......5...
006E9430 00 E8 8A C1 02 00 8B F0 85 F6 75 0D 68 48 44 8D ..........u.hHD.
006E9440 00 E8 AA F2 FF FF 83 C4 04 56 E8 F1 C7 02 00 8B .........V......
006E9450 D8 83 C4 04 85 DB 75 0D 68 20 44 8D 00 E8 8E F2 ......u.h D.....
006E9460 FF FF 83 C4 04 53 E8 45 C4 02 00 83 C4 04 E8 7D .....S.E.......}
006E9470 57 FF FF E8 18 1B 05 00 85 C0 75 0D 68 FC 43 8D W.........u.h.C.
006E9480 00 E8 6A F2 FF FF 83 C4 04 E8 B2 D3 01 00 85 C0 ..j.............
006E9490 75 0D 68 DC 43 8D 00 E8 54 F2 FF FF 83 C4 04 E8 u.h.C...T.......
006E94A0 8C 77 01 00 E8 17 48 01 00 85 C0 89 46 08 75 0D .w....H.....F.u.
006E94B0 68 AC 43 8D 00 E8 36 F2 FF FF 83 C4 04 E8 FE 47 h.C...6........G
006E94C0 01 00 85 C0 89 46 14 75 0D 68 74 43 8D 00 E8 1D .....F.u.htC....
006E94D0 F2 FF FF 83 C4 04 E8 95 63 03 00 E8 A0 3C 06 00 ........c....<..
006E94E0 8B F8 85 FF 75 0D 68 48 43 8D 00 E8 00 F2 FF FF ....u.hHC.......
006E94F0 83 C4 04 57 E8 37 DD 02 00 83 C4 04 85 C0 89 46 ...W.7.........F
006E9500 10 75 0D 68 18 43 8D 00 E8 E3 F1 FF FF 83 C4 04 .u.h.C..........
006E9510 8B 46 10 83 00 01 E8 35 D6 02 00 8B F8 85 FF 75 .F.....5.......u
006E9520 0D 68 F4 42 8D 00 E8 C5 F1 FF FF 83 C4 04 57 E8 .h.B..........W.
006E9530 FC DC 02 00 83 C4 04 85 C0 89 46 0C 75 0D 68 C8 ..........F.u.h.
006E9540 42 8D 00 E8 A8 F1 FF FF 83 C4 04 8B 46 0C 83 00 B...........F...
006E9550 01 68 94 C5 8A 00 68 94 C5 8A 00 E8 70 CD 00 00 .h....h.....p...
006E9560 E8 FB 0F 06 00 50 E8 05 D4 02 00 8B 46 08 8B 4E .....P......F..N
006E9570 0C 50 68 40 A5 8C 00 51 E8 73 43 01 00 E8 9E C5 .Ph@...Q.sC.....
006E9580 00 00 E8 29 AB FF FF 68 A0 35 8D 00 68 A0 35 8D ...)...h.5..h.5.
006E9590 00 E8 3A CD 00 00 68 4C 14 8D 00 68 4C 14 8D 00 ..:...hL...hL...
006E95A0 E8 2B CD 00 00 83 C4 28 E8 43 FD 00 00 83 7C 24 .+.....(.C....|$
006E95B0 10 00 74 05 E8 F7 5B 04 00 E8 12 F4 FF FF 83 3D ..t...[........=
006E95C0 FC 4A A7 00 00 75 05 E8 B4 FC FF FF 53 56 E8 3D .J...u......SV.=
006E95D0 C7 02 00 68 38 20 8D 00 E8 D3 FC 00 00 83 C4 0C ...h8 ..........
006E95E0 85 C0 5F 5E A3 20 C6 A6 00 5B 75 05 E9 6F 7B FF .._^. ...[u..o{.
006E95F0 FF C3 CC CC CC CC CC CC CC CC CC CC CC CC CC CC ................
006E9600 6A 01 E8 49 FD FF FF 59 C3 CC CC CC CC CC CC CC j..I...Y........
006E9610 81 EC 10 02 00 00 A1 88 41 A1 00 33 C4 89 84 24 ........A..3...$
006E9620 0C 02 00 00 8B 84 24 1C 02 00 00 8B 8C 24 20 02 ......$......$ .
006E9630 00 00 56 8B B4 24 18 02 00 00 57 8B BC 24 20 02 ..V..$....W..$ .
006E9640 00 00 89 44 24 10 89 4C 24 0C E8 01 E7 FF FF 85 ...D$..L$.......
006E9650 C0 75 0D 68 D8 44 8D 00 E8 93 F0 FF FF 83 C4 04 .u.h.D..........
006E9660 8B 84 24 2C 02 00 00 3D F5 03 00 00 74 4F 50 56 ..$,...=....tOPV
006E9670 68 F5 03 00 00 56 68 F8 91 A1 00 8D 54 24 28 68 h....Vh.....T$(h
006E9680 00 02 00 00 52 E8 56 B9 03 00 8B 0D 40 8D A1 00 ....R.V.....@...
006E9690 6A 01 8D 44 24 34 50 51 E8 D3 82 FF FF 83 C4 28 j..D$4PQ.......(
006E96A0 85 C0 74 19 5F 33 C0 5E 8B 8C 24 0C 02 00 00 33 ..t._3.^..$....3
006E96B0 CC E8 D8 B4 FA FF 81 C4 10 02 00 00 C3 A1 30 C6 ..............0.
006E96C0 A6 00 85 C0 74 4E 6A 2E 50 FF 15 08 46 8A 00 83 ....tNj.P...F...
006E96D0 C4 08 85 C0 74 3E 8D 48 01 8B C6 EB 03 8D 49 00 ....t>.H......I.
006E96E0 8A 10 3A 11 75 1A 84 D2 74 12 8A 50 01 3A 51 01 ..:.u...t..P.:Q.
006E96F0 75 0E 83 C0 02 83 C1 02 84 D2 75 E4 33 C0 EB 05 u.........u.3...
006E9700 1B C0 83 D8 FF 85 C0 75 0B 8B 35 30 C6 A6 00 A3 .......u..50....
006E9710 30 C6 A6 00 53 56 E8 85 CC 00 00 8B D8 83 C4 04 0...SV..........
006E9720 85 DB 89 5C 24 0C 75 18 5B 5F 5E 8B 8C 24 0C 02 ...\$.u.[_^..$..
006E9730 00 00 33 CC E8 55 B4 FA FF 81 C4 10 02 00 00 C3 ..3..U..........
006E9740 55 53 E8 E9 DA 02 00 83 C4 04 85 FF 8B E8 0F 84 US..............
006E9750 82 00 00 00 56 E8 66 33 00 00 8B D8 83 C4 04 85 ....V.f3........
006E9760 DB 0F 84 2E 01 00 00 83 3F 00 74 55 8D 64 24 00 ........?.tU.d$.
006E9770 F6 47 08 30 0F 85 E2 00 00 00 8B 54 24 14 53 52 .G.0.......T$.SR
006E9780 57 E8 1A FD 00 00 8B F0 83 C4 0C 85 F6 0F 84 A1 W...............
006E9790 00 00 00 8B 07 56 50 55 E8 53 41 01 00 83 C4 0C .....VPU.SA.....
006E97A0 85 C0 0F 85 A1 00 00 00 83 06 FF 75 0C 8B 4E 04 ...........u..N.
006E97B0 8B 51 18 56 FF D2 83 C4 04 83 C7 10 83 3F 00 75 .Q.V.........?.u
006E97C0 AF 83 03 FF 75 0C 8B 43 04 8B 48 18 53 FF D1 83 ....u..C..H.S...
006E97D0 C4 04 8B 5C 24 10 8B 44 24 18 85 C0 74 3B 50 E8 ...\$..D$...t;P.
006E97E0 DC 32 00 00 8B F0 83 C4 04 85 F6 0F 84 A4 00 00 .2..............
006E97F0 00 56 68 58 0D 8D 00 55 E8 F3 40 01 00 83 C4 0C .VhX...U..@.....
006E9800 85 C0 0F 85 7C 00 00 00 83 06 FF 75 0C 8B 56 04 ....|......u..V.
006E9810 8B 42 18 56 FF D0 83 C4 04 8B C3 8B 8C 24 1C 02 .B.V.........$..
006E9820 00 00 5D 5B 5F 5E 33 CC E8 61 B3 FA FF 81 C4 10 ..][_^3..a......
006E9830 02 00 00 C3 83 03 FF 75 5C 8B 43 04 8B 48 18 53 .......u\.C..H.S
006E9840 FF D1 83 C4 04 33 C0 EB D2 83 06 FF 75 21 8B 56 .....3......u!.V
006E9850 04 8B 42 18 56 FF D0 83 C4 04 EB 13 A1 2C 7E A1 ..B.V........,~.
006E9860 00 68 A0 44 8D 00 50 E8 14 77 FF FF 83 C4 08 83 .h.D..P..w......
006E9870 03 FF 75 21 8B 4B 04 8B 51 18 53 FF D2 83 C4 04 ..u!.K..Q.S.....
006E9880 33 C0 EB 97 83 06 FF 75 0C 8B 4E 04 8B 51 18 56 3......u..N..Q.V
006E9890 FF D2 83 C4 04 33 C0 EB 82 CC CC CC CC CC CC CC .....3..........

;; fn006E98A0: 006E98A0
;;   Called from:
;;     006E9C35 (in fn006E9BD0)
;;     006E9C59 (in fn006E9BD0)
;;     006E9C7E (in fn006E9BD0)
;;     006EA19A (in fn006EA190)
fn006E98A0 proc
	push	esi
	mov	esi,eax
	xor	eax,eax
	xor	edx,edx

l006E98A7:
	test	edx,edx
	jg	6E98B2h

l006E98AB:
	movsx	ecx,byte ptr [esi]
	cmp	ecx,edi
	jz	6E9902h

l006E98B2:
	movsx	ecx,byte ptr [esi]
	cmp	ecx,7Dh
	ja	6E98DFh

l006E98BA:
	movzx	ecx,byte ptr [ecx+6E9918h]
	jmp	dword ptr [6E9904h+ecx*4]

l006E98C8:
	test	edx,edx
	jnz	6E98CFh

l006E98CC:
	add	eax,1h

l006E98CF:
	add	edx,1h
	add	esi,1h
	jmp	6E98A7h

l006E98D7:
	sub	edx,1h
	add	esi,1h
	jmp	6E98A7h

l006E98DF:
	test	edx,edx
	jnz	6E98E6h

l006E98E3:
	add	eax,1h

l006E98E6:
	add	esi,1h
	jmp	6E98A7h

l006E98EB:
	mov	edx,[0A18720h]
	push	8D4508h
	push	edx
	call	6E0F80h
	add	esp,8h
	or	eax,0FFh

l006E9902:
	pop	esi
	ret
l006E9904	dd	0x006E98EB
l006E9908	dd	0x006E98E6
l006E990C	dd	0x006E98C8
l006E9910	dd	0x006E98D7
l006E9914	dd	0x006E98DF
l006E9918	db	0x00
l006E9919	db	0x04
l006E991A	db	0x04
l006E991B	db	0x04
l006E991C	db	0x04
l006E991D	db	0x04
l006E991E	db	0x04
l006E991F	db	0x04
l006E9920	db	0x04
l006E9921	db	0x01
l006E9922	db	0x04
l006E9923	db	0x04
l006E9924	db	0x04
l006E9925	db	0x04
l006E9926	db	0x04
l006E9927	db	0x04
l006E9928	db	0x04
l006E9929	db	0x04
l006E992A	db	0x04
l006E992B	db	0x04
l006E992C	db	0x04
l006E992D	db	0x04
l006E992E	db	0x04
l006E992F	db	0x04
l006E9930	db	0x04
l006E9931	db	0x04
l006E9932	db	0x04
l006E9933	db	0x04
l006E9934	db	0x04
l006E9935	db	0x04
l006E9936	db	0x04
l006E9937	db	0x04
l006E9938	db	0x01
l006E9939	db	0x04
l006E993A	db	0x04
l006E993B	db	0x01
l006E993C	db	0x04
l006E993D	db	0x04
l006E993E	db	0x01
l006E993F	db	0x04
l006E9940	db	0x02
l006E9941	db	0x03
l006E9942	db	0x04
l006E9943	db	0x04
l006E9944	db	0x01
l006E9945	db	0x04
l006E9946	db	0x04
l006E9947	db	0x04
l006E9948	db	0x04
l006E9949	db	0x04
l006E994A	db	0x04
l006E994B	db	0x04
l006E994C	db	0x04
l006E994D	db	0x04
l006E994E	db	0x04
l006E994F	db	0x04
l006E9950	db	0x04
l006E9951	db	0x04
l006E9952	db	0x01
l006E9953	db	0x04
l006E9954	db	0x04
l006E9955	db	0x04
l006E9956	db	0x04
l006E9957	db	0x04
l006E9958	db	0x04
l006E9959	db	0x04
l006E995A	db	0x04
l006E995B	db	0x04
l006E995C	db	0x04
l006E995D	db	0x04
l006E995E	db	0x04
l006E995F	db	0x04
l006E9960	db	0x04
l006E9961	db	0x04
l006E9962	db	0x04
l006E9963	db	0x04
l006E9964	db	0x04
l006E9965	db	0x04
l006E9966	db	0x04
l006E9967	db	0x04
l006E9968	db	0x04
l006E9969	db	0x04
l006E996A	db	0x04
l006E996B	db	0x04
l006E996C	db	0x04
l006E996D	db	0x04
l006E996E	db	0x04
l006E996F	db	0x04
l006E9970	db	0x04
l006E9971	db	0x04
l006E9972	db	0x04
l006E9973	db	0x02
l006E9974	db	0x04
l006E9975	db	0x03
l006E9976	db	0x04
l006E9977	db	0x04
l006E9978	db	0x04
l006E9979	db	0x04
l006E997A	db	0x04
l006E997B	db	0x04
l006E997C	db	0x04
l006E997D	db	0x04
l006E997E	db	0x04
l006E997F	db	0x04
l006E9980	db	0x04
l006E9981	db	0x04
l006E9982	db	0x04
l006E9983	db	0x04
l006E9984	db	0x04
l006E9985	db	0x04
l006E9986	db	0x04
l006E9987	db	0x04
l006E9988	db	0x04
l006E9989	db	0x04
l006E998A	db	0x04
l006E998B	db	0x04
l006E998C	db	0x04
l006E998D	db	0x04
l006E998E	db	0x04
l006E998F	db	0x04
l006E9990	db	0x04
l006E9991	db	0x04
l006E9992	db	0x04
l006E9993	db	0x02
l006E9994	db	0x04
l006E9995	db	0x03
006E9996                   CC CC CC CC CC CC CC CC CC CC       ..........

;; fn006E99A0: 006E99A0
;;   Called from:
;;     006E9C8B (in fn006E9BD0)
fn006E99A0 proc
	sub	esp,8h
	push	ebp
	push	esi
	mov	esi,[esp+20h]
	xor	ebp,ebp
	cmp	esi,ebp
	jge	6E99B7h

l006E99AF:
	pop	esi
	xor	eax,eax
	pop	ebp
	add	esp,8h
	ret

l006E99B7:
	call	6FDCC0h
	mov	edx,eax
	cmp	edx,ebp
	mov	[esp+8h],edx
	jz	6E99AFh

l006E99C6:
	cmp	esi,ebp
	push	ebx
	push	edi
	mov	[esp+14h],ebp
	jle	6E9A7Ah

l006E99D4:
	mov	edi,[esp+2Ch]
	mov	ebx,[esp+20h]
	mov	eax,[esp+1Ch]
	push	edi
	push	ebx
	push	eax
	call	6E9BD0h
	mov	esi,eax
	add	esp,0Ch
	test	esi,esi
	jnz	6E9A01h

l006E99F1:
	mov	ebp,1h
	add	[0A163B8h],ebp
	mov	esi,0A163B8h

l006E9A01:
	mov	ecx,[esp+1Ch]
	push	edi
	push	ebx
	push	ecx
	call	6E9BD0h
	mov	edi,eax
	add	esp,0Ch
	test	edi,edi
	jnz	6E9A26h

l006E9A16:
	mov	ebp,1h
	add	[0A163B8h],ebp
	mov	edi,0A163B8h

l006E9A26:
	mov	edx,[esp+10h]
	push	edi
	push	esi
	push	edx
	call	6FBD90h
	add	esp,0Ch
	add	dword ptr [esi],0FFh
	mov	ebx,eax
	jnz	6E9A48h

l006E9A3C:
	mov	eax,[esi+4h]
	mov	ecx,[eax+18h]
	push	esi
	call	ecx
	add	esp,4h

l006E9A48:
	add	dword ptr [edi],0FFh
	jnz	6E9A59h

l006E9A4D:
	mov	edx,[edi+4h]
	mov	eax,[edx+18h]
	push	edi
	call	eax
	add	esp,4h

l006E9A59:
	test	ebx,ebx
	jl	6E9AC6h

l006E9A5D:
	test	ebp,ebp
	jnz	6E9AC6h

l006E9A61:
	mov	eax,[esp+14h]
	add	eax,2h
	cmp	eax,[esp+28h]
	mov	[esp+14h],eax
	jl	6E99D4h

l006E9A76:
	mov	edx,[esp+10h]

l006E9A7A:
	mov	esi,[esp+1Ch]
	mov	eax,[esi]
	movsx	edi,byte ptr [eax]
	mov	ecx,[esp+24h]
	cmp	edi,ecx
	jz	6E9AE5h

l006E9A8B:
	add	dword ptr [edx],0FFh
	jnz	6E9A9Ch

l006E9A90:
	mov	eax,[edx+4h]
	mov	ecx,[eax+18h]
	push	edx
	call	ecx
	add	esp,4h

l006E9A9C:
	mov	edx,[0A18720h]
	push	8D4524h
	push	edx
	mov	dword ptr [esp+18h],0h
	call	6E0F80h
	mov	edx,[esp+18h]
	add	esp,8h
	pop	edi
	pop	ebx
	pop	esi
	mov	eax,edx
	pop	ebp
	add	esp,8h
	ret

l006E9AC6:
	mov	eax,[esp+10h]
	add	dword ptr [eax],0FFh
	jnz	6E9ADBh

l006E9ACF:
	mov	ecx,[eax+4h]
	mov	edx,[ecx+18h]
	push	eax
	call	edx
	add	esp,4h

l006E9ADB:
	pop	edi
	pop	ebx
	pop	esi
	xor	eax,eax
	pop	ebp
	add	esp,8h
	ret

l006E9AE5:
	test	ecx,ecx
	jz	6E9AEEh

l006E9AE9:
	add	eax,1h
	mov	[esi],eax

l006E9AEE:
	pop	edi
	pop	ebx
	pop	esi
	mov	eax,edx
	pop	ebp
	add	esp,8h
	ret
006E9AF8                         CC CC CC CC CC CC CC CC         ........

;; fn006E9B00: 006E9B00
;;   Called from:
;;     006E9C67 (in fn006E9BD0)
fn006E9B00 proc
	push	ebp
	xor	ebp,ebp
	test	edi,edi
	jge	6E9B0Bh

l006E9B07:
	xor	eax,eax
	pop	ebp
	ret

l006E9B0B:
	push	ebx
	push	edi
	call	6F2650h
	mov	ebx,eax
	add	esp,4h
	test	ebx,ebx
	jnz	6E9B1Eh

l006E9B1B:
	pop	ebx
	pop	ebp
	ret

l006E9B1E:
	push	esi
	xor	esi,esi
	test	edi,edi
	jle	6E9B83h

l006E9B25:
	jmp	6E9B30h
006E9B27                      8D A4 24 00 00 00 00 8B FF        ..$......

l006E9B30:
	mov	eax,[esp+1Ch]
	mov	ecx,[esp+14h]
	mov	edx,[esp+10h]
	push	eax
	push	ecx
	push	edx
	call	6E9BD0h
	add	esp,0Ch
	test	eax,eax
	jnz	6E9B5Bh

l006E9B4B:
	mov	ebp,1h
	add	[0A163B8h],ebp
	mov	eax,0A163B8h

l006E9B5B:
	mov	ecx,[ebx+0Ch]
	mov	[ecx+esi*4],eax
	add	esi,1h
	cmp	esi,edi
	jl	6E9B30h

l006E9B68:
	test	ebp,ebp
	jz	6E9B83h

l006E9B6C:
	add	dword ptr [ebx],0FFh
	jnz	6E9B7Dh

l006E9B71:
	mov	edx,[ebx+4h]
	mov	eax,[edx+18h]
	push	ebx
	call	eax
	add	esp,4h

l006E9B7D:
	pop	esi
	pop	ebx
	xor	eax,eax
	pop	ebp
	ret

l006E9B83:
	mov	edx,[esp+10h]
	mov	eax,[edx]
	movsx	esi,byte ptr [eax]
	mov	ecx,[esp+18h]
	cmp	esi,ecx
	jz	6E9BBEh

l006E9B94:
	add	dword ptr [ebx],0FFh
	jnz	6E9BA5h

l006E9B99:
	mov	ecx,[ebx+4h]
	mov	edx,[ecx+18h]
	push	ebx
	call	edx
	add	esp,4h

l006E9BA5:
	mov	eax,[0A18720h]
	push	8D4524h
	push	eax
	call	6E0F80h
	add	esp,8h
	pop	esi
	pop	ebx
	xor	eax,eax
	pop	ebp
	ret

l006E9BBE:
	test	ecx,ecx
	jz	6E9BC7h

l006E9BC2:
	add	eax,1h
	mov	[edx],eax

l006E9BC7:
	pop	esi
	mov	eax,ebx
	pop	ebx
	pop	ebp
	ret
006E9BCD                                        CC CC CC              ...

;; fn006E9BD0: 006E9BD0
;;   Called from:
;;     006E99E3 (in fn006E99A0)
;;     006E9A08 (in fn006E99A0)
;;     006E9B3F (in fn006E9B00)
;;     006EA0E7 (in fn006EA0A0)
;;     006EA1D4 (in fn006EA190)
fn006E9BD0 proc
	push	esi
	mov	esi,[esp+8h]
	mov	eax,[esi]
	movsx	ecx,byte ptr [eax]
	add	eax,1h
	mov	[esi],eax
	lea	eax,[ecx-9h]
	cmp	eax,72h
	push	edi
	ja	6E9C10h

l006E9BE8:
	jmp	6E9BF0h
006E9BEA                               8D 9B 00 00 00 00           ......

l006E9BF0:
	movzx	eax,byte ptr [eax+6E9F20h]
	jmp	dword ptr [6E9EDCh+eax*4]

l006E9BFE:
	mov	eax,[esi]
	movsx	ecx,byte ptr [eax]
	add	eax,1h
	mov	[esi],eax
	lea	eax,[ecx-9h]
	cmp	eax,72h
	jbe	6E9BF0h

l006E9C10:
	mov	ecx,[0A18720h]
	push	8D4588h
	push	ecx
	call	6E0F80h
	add	esp,8h
	xor	eax,eax
	pop	edi
	pop	esi
	ret

l006E9C29:
	mov	ecx,[esp+14h]
	mov	eax,[esi]
	push	ecx
	mov	edi,29h
	call	6E98A0h
	mov	edx,[esp+14h]
	push	eax
	push	edi
	push	edx
	push	esi
	call	6EA0A0h
	add	esp,14h
	pop	edi
	pop	esi
	ret

l006E9C4D:
	mov	eax,[esp+14h]
	push	eax
	mov	eax,[esi]
	mov	edi,5Dh
	call	6E98A0h
	mov	ecx,[esp+14h]
	push	edi
	push	ecx
	push	esi
	mov	edi,eax
	call	6E9B00h
	add	esp,10h
	pop	edi
	pop	esi
	ret

l006E9C72:
	mov	edx,[esp+14h]
	mov	eax,[esi]
	push	edx
	mov	edi,7Dh
	call	6E98A0h
	push	eax
	mov	eax,[esp+18h]
	push	edi
	push	eax
	push	esi
	call	6E99A0h
	add	esp,14h
	pop	edi
	pop	esi
	ret

l006E9C96:
	mov	eax,[esp+10h]
	add	dword ptr [eax],4h
	mov	eax,[eax]
	mov	ecx,[eax-4h]
	push	ecx

l006E9CA3:
	call	7050A0h
	add	esp,4h
	pop	edi
	pop	esi
	ret

l006E9CAE:
	mov	eax,[esp+10h]
	add	dword ptr [eax],4h
	mov	eax,[eax]
	mov	edx,[eax-4h]
	push	edx
	call	7050A0h
	add	esp,4h
	pop	edi
	pop	esi
	ret

l006E9CC6:
	mov	eax,[esp+10h]
	add	dword ptr [eax],4h
	mov	eax,[eax]
	mov	esi,[eax-4h]
	call	705040h
	cmp	esi,eax
	push	esi
	jbe	6E9CA3h

l006E9CDC:
	call	710730h
	add	esp,4h
	pop	edi
	pop	esi
	ret

l006E9CE7:
	mov	eax,[esp+10h]
	add	dword ptr [eax],4h
	mov	eax,[eax]
	mov	eax,[eax-4h]
	push	eax
	call	7050A0h
	add	esp,4h
	pop	edi
	pop	esi
	ret

l006E9CFF:
	mov	eax,[esp+10h]
	add	dword ptr [eax],8h
	mov	eax,[eax]
	mov	ecx,[eax-4h]
	mov	edx,[eax-8h]
	push	ecx
	push	edx
	call	711330h
	add	esp,8h
	pop	edi
	pop	esi
	ret

l006E9D1B:
	mov	eax,[esp+10h]
	add	dword ptr [eax],8h
	mov	eax,[eax]
	mov	ecx,[eax-4h]
	mov	edx,[eax-8h]
	push	ecx
	push	edx
	call	711400h
	add	esp,8h
	pop	edi
	pop	esi
	ret

l006E9D37:
	mov	eax,[esp+10h]
	add	dword ptr [eax],4h
	mov	ecx,[eax]
	mov	edx,[ecx-4h]
	mov	ecx,[esi]
	cmp	byte ptr [ecx],23h
	jnz	6E9D59h

l006E9D4A:
	add	ecx,1h
	mov	[esi],ecx
	add	dword ptr [eax],4h
	mov	eax,[eax]
	mov	ecx,[eax-4h]
	jmp	6E9D5Ch

l006E9D59:
	or	ecx,0FFh

l006E9D5C:
	test	edx,edx
	jnz	6E9D6Fh

l006E9D60:
	mov	eax,0A163B8h
	add	dword ptr [0A163B8h],1h
	pop	edi
	pop	esi
	ret

l006E9D6F:
	test	ecx,ecx
	jge	6E9D8Ch

l006E9D73:
	xor	ecx,ecx
	cmp	[edx],cx
	mov	eax,edx
	jz	6E9D8Ch

l006E9D7C:
	lea	esp,[esp+0h]

l006E9D80:
	add	eax,2h
	add	ecx,1h
	cmp	word ptr [eax],0h
	jnz	6E9D80h

l006E9D8C:
	push	ecx
	push	edx
	call	717A20h
	add	esp,8h
	pop	edi
	pop	esi
	ret

l006E9D99:
	mov	eax,[esp+10h]
	add	dword ptr [eax],8h
	mov	eax,[eax]
	fld	double ptr [eax-8h]
	sub	esp,8h
	fstp	double ptr [esp]
	call	6FF060h
	add	esp,8h
	pop	edi
	pop	esi
	ret

l006E9DB6:
	mov	eax,[esp+10h]
	add	dword ptr [eax],4h
	mov	eax,[eax]
	mov	eax,[eax-4h]
	mov	edx,[eax]
	sub	esp,10h
	mov	ecx,esp
	mov	[ecx],edx
	mov	edx,[eax+4h]
	mov	[ecx+4h],edx
	mov	edx,[eax+8h]
	mov	eax,[eax+0Ch]
	mov	[ecx+8h],edx
	mov	[ecx+0Ch],eax
	call	7331D0h
	add	esp,10h
	pop	edi
	pop	esi
	ret

l006E9DE8:
	mov	eax,[esp+10h]
	add	dword ptr [eax],4h
	mov	eax,[eax]
	mov	cl,[eax-4h]
	lea	edx,[esp+0Ch]
	push	1h
	push	edx
	mov	[esp+14h],cl
	call	6EC9B0h
	add	esp,8h
	pop	edi
	pop	esi
	ret

l006E9E0A:
	mov	eax,[esp+10h]
	add	dword ptr [eax],4h
	mov	ecx,[eax]
	mov	edi,[ecx-4h]
	mov	ecx,[esi]
	cmp	byte ptr [ecx],23h
	jnz	6E9E2Ch

l006E9E1D:
	add	ecx,1h
	mov	[esi],ecx
	add	dword ptr [eax],4h
	mov	eax,[eax]
	mov	eax,[eax-4h]
	jmp	6E9E2Fh

l006E9E2C:
	or	eax,0FFh

l006E9E2F:
	test	edi,edi
	jz	6E9D60h

l006E9E37:
	test	eax,eax
	jge	6E9E6Ah

l006E9E3B:
	mov	eax,edi
	lea	edx,[eax+1h]

l006E9E40:
	mov	cl,[eax]
	add	eax,1h
	test	cl,cl
	jnz	6E9E40h

l006E9E49:
	sub	eax,edx
	cmp	eax,7FFFFFFFh
	jbe	6E9E6Ah

l006E9E52:
	mov	eax,[0A18598h]
	push	8D4564h
	push	eax
	call	6E0F80h
	add	esp,8h
	xor	eax,eax
	pop	edi
	pop	esi
	ret

l006E9E6A:
	push	eax
	push	edi
	call	6EC9B0h
	add	esp,8h
	pop	edi
	pop	esi
	ret

l006E9E77:
	mov	ecx,[esi]
	cmp	byte ptr [ecx],26h
	mov	eax,[esp+10h]
	jnz	6E9E9Eh

l006E9E82:
	add	dword ptr [eax],4h
	mov	ecx,[eax]
	mov	edx,[ecx-4h]
	add	ecx,4h
	mov	[eax],ecx
	mov	ecx,[ecx-4h]
	add	dword ptr [esi],1h
	push	ecx
	call	edx
	add	esp,4h
	pop	edi
	pop	esi
	ret

l006E9E9E:
	add	dword ptr [eax],4h
	mov	eax,[eax]
	mov	edi,[eax-4h]
	test	edi,edi
	jz	6E9EBAh

l006E9EAA:
	mov	edx,[esi]
	cmp	byte ptr [edx-1h],4Eh
	jz	6E9ED6h

l006E9EB2:
	add	dword ptr [edi],1h
	mov	eax,edi
	pop	edi
	pop	esi
	ret

l006E9EBA:
	call	6E0FC0h
	test	eax,eax
	jnz	6E9ED6h

l006E9EC3:
	mov	eax,[0A18720h]
	push	8D4540h
	push	eax
	call	6E0F80h
	add	esp,8h

l006E9ED6:
	mov	eax,edi
	pop	edi
	pop	esi
	ret
006E9EDB                                  90                        .   
l006E9EDC	dd	0x006E9BFE
l006E9EE0	dd	0x006E9C29
l006E9EE4	dd	0x006E9C96
l006E9EE8	dd	0x006E9DB6
l006E9EEC	dd	0x006E9CAE
l006E9EF0	dd	0x006E9CC6
l006E9EF4	dd	0x006E9D1B
l006E9EF8	dd	0x006E9CFF
l006E9EFC	dd	0x006E9E77
l006E9F00	dd	0x006E9C4D
l006E9F04	dd	0x006E9DE8
l006E9F08	dd	0x006E9D99
l006E9F0C	dd	0x006E9CE7
l006E9F10	dd	0x006E9E0A
l006E9F14	dd	0x006E9D37
l006E9F18	dd	0x006E9C72
l006E9F1C	dd	0x006E9C10
l006E9F20	db	0x00
l006E9F21	db	0x10
l006E9F22	db	0x10
l006E9F23	db	0x10
l006E9F24	db	0x10
l006E9F25	db	0x10
l006E9F26	db	0x10
l006E9F27	db	0x10
l006E9F28	db	0x10
l006E9F29	db	0x10
l006E9F2A	db	0x10
l006E9F2B	db	0x10
l006E9F2C	db	0x10
l006E9F2D	db	0x10
l006E9F2E	db	0x10
l006E9F2F	db	0x10
l006E9F30	db	0x10
l006E9F31	db	0x10
l006E9F32	db	0x10
l006E9F33	db	0x10
l006E9F34	db	0x10
l006E9F35	db	0x10
l006E9F36	db	0x10
l006E9F37	db	0x00
l006E9F38	db	0x10
l006E9F39	db	0x10
l006E9F3A	db	0x10
l006E9F3B	db	0x10
l006E9F3C	db	0x10
l006E9F3D	db	0x10
l006E9F3E	db	0x10
l006E9F3F	db	0x01
l006E9F40	db	0x10
l006E9F41	db	0x10
l006E9F42	db	0x10
l006E9F43	db	0x00
l006E9F44	db	0x10
l006E9F45	db	0x10
l006E9F46	db	0x10
l006E9F47	db	0x10
l006E9F48	db	0x10
l006E9F49	db	0x10
l006E9F4A	db	0x10
l006E9F4B	db	0x10
l006E9F4C	db	0x10
l006E9F4D	db	0x10
l006E9F4E	db	0x10
l006E9F4F	db	0x10
l006E9F50	db	0x10
l006E9F51	db	0x00
l006E9F52	db	0x10
l006E9F53	db	0x10
l006E9F54	db	0x10
l006E9F55	db	0x10
l006E9F56	db	0x10
l006E9F57	db	0x10
l006E9F58	db	0x10
l006E9F59	db	0x02
l006E9F5A	db	0x10
l006E9F5B	db	0x03
l006E9F5C	db	0x10
l006E9F5D	db	0x10
l006E9F5E	db	0x10
l006E9F5F	db	0x04
l006E9F60	db	0x05
l006E9F61	db	0x10
l006E9F62	db	0x06
l006E9F63	db	0x07
l006E9F64	db	0x10
l006E9F65	db	0x08
l006E9F66	db	0x08
l006E9F67	db	0x10
l006E9F68	db	0x10
l006E9F69	db	0x10
l006E9F6A	db	0x08
l006E9F6B	db	0x10
l006E9F6C	db	0x10
l006E9F6D	db	0x10
l006E9F6E	db	0x10
l006E9F6F	db	0x10
l006E9F70	db	0x10
l006E9F71	db	0x10
l006E9F72	db	0x09
l006E9F73	db	0x10
l006E9F74	db	0x10
l006E9F75	db	0x10
l006E9F76	db	0x10
l006E9F77	db	0x10
l006E9F78	db	0x10
l006E9F79	db	0x02
l006E9F7A	db	0x0A
l006E9F7B	db	0x0B
l006E9F7C	db	0x10
l006E9F7D	db	0x0B
l006E9F7E	db	0x10
l006E9F7F	db	0x02
l006E9F80	db	0x02
l006E9F81	db	0x10
l006E9F82	db	0x05
l006E9F83	db	0x0C
l006E9F84	db	0x10
l006E9F85	db	0x0C
l006E9F86	db	0x10
l006E9F87	db	0x10
l006E9F88	db	0x10
l006E9F89	db	0x10
l006E9F8A	db	0x0D
l006E9F8B	db	0x10
l006E9F8C	db	0x0E
l006E9F8D	db	0x10
l006E9F8E	db	0x10
l006E9F8F	db	0x10
l006E9F90	db	0x10
l006E9F91	db	0x0D
l006E9F92	db	0x0F
006E9F93          CC CC CC CC CC CC CC CC CC CC CC CC CC    .............

;; fn006E9FA0: 006E9FA0
;;   Called from:
;;     006EA091 (in fn006EA080)
fn006E9FA0 proc
	push	edi
	mov	edi,[esp+8h]
	mov	eax,[edi+4h]
	cmp	eax,0A215C0h
	jz	6E9FD9h

l006E9FAF:
	push	0A215C0h
	push	eax
	call	6D5670h
	add	esp,8h
	test	eax,eax
	jnz	6E9FD9h

l006E9FC1:
	mov	eax,[0A16B7Ch]
	push	8D45F8h
	push	eax
	call	6E0F80h
	add	esp,8h
	or	eax,0FFh
	pop	edi
	ret

l006E9FD9:
	push	esi
	mov	esi,[esp+14h]
	test	esi,esi
	jnz	6EA005h

l006E9FE2:
	call	6E0FC0h
	test	eax,eax
	jnz	6E9FFFh

l006E9FEB:
	mov	ecx,[0A16B7Ch]
	push	8D45CCh
	push	ecx
	call	6E0F80h
	add	esp,8h

l006E9FFF:
	pop	esi
	or	eax,0FFh
	pop	edi
	ret

l006EA005:
	push	edi
	call	717230h
	add	esp,4h
	test	eax,eax
	jnz	6EA033h

l006EA012:
	push	edi
	call	717280h
	mov	edx,[0A18720h]
	push	eax
	push	8D45B0h
	push	edx
	call	6E15D0h
	add	esp,10h

l006EA02D:
	pop	esi
	or	eax,0FFh
	pop	edi
	ret

l006EA033:
	mov	ecx,[esp+10h]
	push	esi
	push	ecx
	push	eax
	call	6FD8F0h
	add	esp,0Ch
	test	eax,eax
	jnz	6EA02Dh

l006EA046:
	add	dword ptr [esi],0FFh
	jnz	6EA057h

l006EA04B:
	mov	edx,[esi+4h]
	mov	eax,[edx+18h]
	push	esi
	call	eax
	add	esp,4h

l006EA057:
	pop	esi
	xor	eax,eax
	pop	edi
	ret
006EA05C                                     CC CC CC CC             ....
006EA060 8B 44 24 0C 50 E8 36 B0 01 00 83 C4 04 89 44 24 .D$.P.6.......D$
006EA070 0C E9 2A FF FF FF CC CC CC CC CC CC CC CC CC CC ..*.............

;; fn006EA080: 006EA080
;;   Called from:
;;     0074FAAE (in fn0074F9E0)
fn006EA080 proc
	mov	eax,[esp+0Ch]
	push	eax
	call	6ECAC0h
	add	esp,4h
	mov	[esp+0Ch],eax
	jmp	6E9FA0h
006EA096                   CC CC CC CC CC CC CC CC CC CC       ..........

;; fn006EA0A0: 006EA0A0
;;   Called from:
;;     006E9C42 (in fn006E9BD0)
;;     006EA1ED (in fn006EA190)
fn006EA0A0 proc
	push	ecx
	push	esi
	mov	esi,[esp+18h]
	test	esi,esi
	mov	dword ptr [esp+4h],0h
	jge	6EA0B7h

l006EA0B2:
	xor	eax,eax
	pop	esi
	pop	ecx
	ret

l006EA0B7:
	push	edi
	push	esi
	call	6DFD20h
	mov	edi,eax
	add	esp,4h
	test	edi,edi
	mov	[esp+1Ch],edi
	jz	6EA16Fh

l006EA0CF:
	test	esi,esi
	jle	6EA139h

l006EA0D3:
	push	ebx
	mov	ebx,[esp+24h]
	push	ebp
	mov	ebp,[esp+1Ch]
	add	edi,0Ch

l006EA0E0:
	mov	eax,[esp+18h]
	push	ebx
	push	ebp
	push	eax
	call	6E9BD0h
	add	esp,0Ch
	test	eax,eax
	jnz	6EA107h

l006EA0F3:
	mov	eax,1h
	add	[0A163B8h],eax
	mov	[esp+10h],eax
	mov	eax,0A163B8h

l006EA107:
	mov	[edi],eax
	add	edi,4h
	sub	esi,1h
	jnz	6EA0E0h

l006EA111:
	cmp	dword ptr [esp+10h],0h
	pop	ebp
	pop	ebx
	jz	6EA135h

l006EA11A:
	mov	eax,[esp+1Ch]
	add	dword ptr [eax],0FFh
	jnz	6EA12Fh

l006EA123:
	mov	ecx,[eax+4h]
	mov	edx,[ecx+18h]
	push	eax
	call	edx
	add	esp,4h

l006EA12F:
	pop	edi
	xor	eax,eax
	pop	esi
	pop	ecx
	ret

l006EA135:
	mov	edi,[esp+1Ch]

l006EA139:
	mov	edx,[esp+10h]
	mov	eax,[edx]
	movsx	esi,byte ptr [eax]
	mov	ecx,[esp+18h]
	cmp	esi,ecx
	jz	6EA175h

l006EA14A:
	add	dword ptr [edi],0FFh
	jnz	6EA15Bh

l006EA14F:
	mov	eax,[edi+4h]
	mov	ecx,[eax+18h]
	push	edi
	call	ecx
	add	esp,4h

l006EA15B:
	mov	edx,[0A18720h]
	push	8D4524h
	push	edx
	call	6E0F80h
	add	esp,8h

l006EA16F:
	pop	edi
	xor	eax,eax
	pop	esi
	pop	ecx
	ret

l006EA175:
	test	ecx,ecx
	jz	6EA17Eh

l006EA179:
	add	eax,1h
	mov	[edx],eax

l006EA17E:
	mov	eax,edi
	pop	edi
	pop	esi
	pop	ecx
	ret
006EA184             CC CC CC CC CC CC CC CC CC CC CC CC     ............

;; fn006EA190: 006EA190
;;   Called from:
;;     006EA20C (in fn006EA200)
;;     006EA24C (in fn006EA240)
;;     006EA26F (in fn006EA260)
fn006EA190 proc
	sub	esp,8h
	push	edi
	xor	edi,edi
	mov	[esp+8h],eax
	call	6E98A0h
	test	eax,eax
	mov	ecx,[esp+10h]
	mov	[esp+4h],ecx
	pop	edi
	jge	6EA1B2h

l006EA1AC:
	xor	eax,eax
	add	esp,8h
	ret

l006EA1B2:
	jnz	6EA1C4h

l006EA1B4:
	add	dword ptr [0A163B8h],1h
	mov	eax,0A163B8h
	add	esp,8h
	ret

l006EA1C4:
	cmp	eax,1h
	push	esi
	jnz	6EA1E0h

l006EA1CA:
	lea	edx,[esp+4h]
	push	edx
	lea	eax,[esp+0Ch]
	push	eax
	call	6E9BD0h
	add	esp,0Ch
	add	esp,8h
	ret

l006EA1E0:
	push	eax
	push	0h
	lea	ecx,[esp+0Ch]
	push	ecx
	lea	edx,[esp+14h]
	push	edx
	call	6EA0A0h
	add	esp,14h
	add	esp,8h
	ret
006EA1F9                            CC CC CC CC CC CC CC          .......

;; fn006EA200: 006EA200
;;   Called from:
;;     00651DEC (in fn00651DD0)
;;     006E1335 (in fn006E1260)
;;     006E1346 (in fn006E1260)
;;     006E149A (in fn006E1400)
;;     006E14AB (in fn006E1400)
;;     006E861B (in fn006E8430)
;;     006E8649 (in fn006E8430)
;;     006F89D8 (in fn006F8960)
;;     006F9169 (in fn006F9120)
;;     006F91D7 (in fn006F9120)
;;     007283A6 (in fn00728360)
;;     007283BF (in fn00728360)
;;     0072EC61 (in fn0072EC10)
;;     0073B83B (in fn0073B830)
;;     0073B922 (in fn0073B870)
;;     0073C244 (in fn0073C100)
;;     0073CC20 (in fn0073CAE0)
;;     0073CCC6 (in fn0073CAE0)
;;     0073DC57 (in fn0073DBD0)
;;     0073DECE (in fn0073DBD0)
;;     0073EDB8 (in fn0073EB70)
;;     0073F9F7 (in fn0073F9D0)
;;     0073FB1E (in fn0073FAF0)
;;     0073FF56 (in fn0073FC30)
;;     0073FFAA (in fn0073FC30)
;;     0073FFF4 (in fn0073FC30)
fn006EA200 proc
	push	esi
	lea	eax,[esp+0Ch]
	push	eax
	mov	eax,[esp+0Ch]
	xor	esi,esi
	call	6EA190h
	add	esp,4h
	pop	esi
	ret
006EA216                   CC CC CC CC CC CC CC CC CC CC       ..........
006EA220 56 8D 44 24 0C 50 8B 44 24 0C BE 01 00 00 00 E8 V.D$.P.D$.......
006EA230 5C FF FF FF 83 C4 04 5E C3 CC CC CC CC CC CC CC \......^........

;; fn006EA240: 006EA240
;;   Called from:
;;     0070383C (in fn00703800)
;;     0070395D (in fn007038E0)
fn006EA240 proc
	mov	eax,[esp+8h]
	push	esi
	push	eax
	mov	eax,[esp+0Ch]
	xor	esi,esi
	call	6EA190h
	add	esp,4h
	pop	esi
	ret
006EA256                   CC CC CC CC CC CC CC CC CC CC       ..........

;; fn006EA260: 006EA260
;;   Called from:
;;     007038AC (in fn00703870)
fn006EA260 proc
	mov	eax,[esp+8h]
	push	esi
	push	eax
	mov	eax,[esp+0Ch]
	mov	esi,1h
	call	6EA190h
	add	esp,4h
	pop	esi
	ret
006EA279                            CC CC CC CC CC CC CC          .......
006EA280 8B 44 24 08 8B 4C 24 04 57 50 51 E8 D0 54 FF FF .D$..L$.WPQ..T..
006EA290 8B F8 83 C4 08 85 FF 75 02 5F C3 8B 44 24 10 56 .......u._..D$.V
006EA2A0 8D 54 24 18 52 33 F6 E8 E4 FE FF FF 8B F0 83 C4 .T$.R3..........
006EA2B0 04 85 F6 75 16 83 07 FF 75 0C 8B 47 04 8B 48 18 ...u....u..G..H.
006EA2C0 57 FF D1 83 C4 04 5E 33 C0 5F C3 53 6A 00 56 57 W.....^3._.Sj.VW
006EA2D0 E8 AB D3 01 00 83 C4 0C 83 07 FF 8B D8 75 0C 8B .............u..
006EA2E0 57 04 8B 42 18 57 FF D0 83 C4 04 83 06 FF 75 0C W..B.W........u.
006EA2F0 8B 4E 04 8B 51 18 56 FF D2 83 C4 04 8B C3 5B 5E .N..Q.V.......[^
006EA300 5F C3 CC CC CC CC CC CC CC CC CC CC CC CC CC CC _...............
006EA310 56 8B 74 24 08 8B 46 04 3D 50 B4 A1 00 74 1B 68 V.t$..F.=P...t.h
006EA320 50 B4 A1 00 50 E8 46 B3 FE FF 83 C4 08 85 C0 75 P...P.F........u
006EA330 09 E8 9A 6E FF FF 33 C0 5E C3 8B 44 24 0C 85 C0 ...n..3.^..D$...
006EA340 75 05 E8 19 D9 02 00 8B 4C 24 10 51 50 56 E8 3D u.......L$.QPV.=
006EA350 4B 06 00 83 C4 0C 85 C0 75 00 5E C3 CC CC CC CC K.......u.^.....
006EA360 56 8B 74 24 08 8B 46 04 3D 50 B4 A1 00 74 1B 68 V.t$..F.=P...t.h
006EA370 50 B4 A1 00 50 E8 F6 B2 FE FF 83 C4 08 85 C0 75 P...P..........u
006EA380 09 E8 4A 6E FF FF 33 C0 5E C3 8B 44 24 0C 85 C0 ..Jn..3.^..D$...
006EA390 75 05 E8 C9 D8 02 00 8B 4C 24 10 51 50 56 E8 DD u.......L$.QPV..
006EA3A0 49 06 00 83 C4 0C 85 C0 75 00 5E C3 CC CC CC CC I.......u.^.....
006EA3B0 56 8B 74 24 08 8B 46 10 83 E8 00 74 44 83 E8 01 V.t$..F....tD...
006EA3C0 74 19 83 E8 01 75 0D 68 08 48 8D 00 E8 1F E3 FF t....u.h.H......
006EA3D0 FF 83 C4 04 68 E4 47 8D 00 EB 1E A1 38 C6 A6 00 ....h.G.....8...
006EA3E0 56 50 C7 06 03 00 00 00 E8 73 1A 01 00 83 C4 08 VP.......s......
006EA3F0 85 C0 74 0D 68 C0 47 8D 00 E8 F2 E2 FF FF 83 C4 ..t.h.G.........
006EA400 04 8B 4E 04 8B 91 A0 00 00 00 56 FF D2 83 C4 04 ..N.......V.....
006EA410 5E C3 CC CC CC CC CC CC CC CC CC CC CC CC CC CC ^...............

;; fn006EA420: 006EA420
;;   Called from:
;;     006ECC2D (in fn006ECC00)
;;     006ECC7D (in fn006ECC50)
;;     006F1C19 (in fn006F1AA0)
;;     0070BF7A (in fn0070BCC0)
fn006EA420 proc
	push	edi
	mov	edi,[esp+0Ch]
	test	edi,edi
	jnz	6EA440h

l006EA429:
	push	2E3h
	push	8D487Ch
	call	6E1DC0h
	add	esp,8h
	or	eax,0FFh
	pop	edi
	ret

l006EA440:
	push	esi
	mov	esi,[esp+0Ch]
	mov	eax,[esi+4h]
	cmp	eax,0A1B450h
	jz	6EA4AFh

l006EA44F:
	push	0A1B450h
	push	eax
	call	6D5670h
	add	esp,8h
	test	eax,eax
	jnz	6EA4AFh

l006EA461:
	mov	eax,[esi+4h]
	cmp	eax,0A23B20h
	jz	6EA49Eh

l006EA46B:
	push	0A23B20h
	push	eax
	call	6D5670h
	add	esp,8h
	test	eax,eax
	jnz	6EA49Eh

l006EA47D:
	mov	eax,[esi+4h]
	mov	ecx,[eax+0Ch]
	mov	edx,[0A16B7Ch]
	push	ecx
	push	8D484Ch
	push	edx
	call	6E15D0h
	add	esp,0Ch
	pop	esi
	or	eax,0FFh
	pop	edi
	ret

l006EA49E:
	push	0h
	push	esi
	call	71FC50h
	mov	esi,eax
	add	esp,8h
	test	esi,esi
	jz	6EA4F4h

l006EA4AF:
	mov	ecx,[esp+14h]
	test	ecx,ecx
	lea	eax,[esi+14h]
	mov	[edi],eax
	jz	6EA4C6h

l006EA4BC:
	mov	eax,[esi+8h]
	mov	[ecx],eax

l006EA4C1:
	pop	esi
	xor	eax,eax
	pop	edi
	ret

l006EA4C6:
	lea	edx,[eax+1h]
	lea	esp,[esp+0h]

l006EA4D0:
	mov	cl,[eax]
	add	eax,1h
	test	cl,cl
	jnz	6EA4D0h

l006EA4D9:
	sub	eax,edx
	cmp	eax,[esi+8h]
	jz	6EA4C1h

l006EA4E0:
	mov	ecx,[0A16B7Ch]
	push	8D4828h
	push	ecx
	call	6E0F80h
	add	esp,8h

l006EA4F4:
	pop	esi
	or	eax,0FFh
	pop	edi
	ret
006EA4FA                               CC CC CC CC CC CC           ......
006EA500 83 EC 14 8B 44 24 20 55 56 33 F6 8B EA 2B E8 89 ....D$ UV3...+..
006EA510 74 24 10 89 6C 24 18 79 0B 5E 83 C8 FF 5D 83 C4 t$..l$.y.^...]..
006EA520 14 C2 10 00 83 F8 01 53 7F 66 85 C0 7E 56 39 74 .......S.f..~V9t
006EA530 24 30 75 2A 33 C9 85 D2 7E 19 8B 44 24 28 8A 18 $0u*3...~..D$(..
006EA540 8B 44 24 24 38 1C 01 75 03 83 C6 01 83 C1 01 3B .D$$8..u.......;
006EA550 CA 7C ED 5B 8B C6 5E 5D 83 C4 14 C2 10 00 33 C0 .|.[..^]......3.
006EA560 85 D2 7E 20 8B 4C 24 28 8A 09 8D 9B 00 00 00 00 ..~ .L$(........
006EA570 8B 74 24 24 38 0C 30 0F 84 50 01 00 00 83 C0 01 .t$$8.0..P......
006EA580 3B C2 7C EC 5B 5E 83 C8 FF 5D 83 C4 14 C2 10 00 ;.|.[^...]......
006EA590 57 8D 78 FF 33 DB 8D 4F FF 33 F6 85 FF 89 4C 24 W.x.3..O.3....L$
006EA5A0 1C 89 5C 24 14 7E 3F 8B 54 24 2C 8A 1C 17 8B C1 ..\$.~?.T$,.....
006EA5B0 8B 4C 24 2C 8A 14 0E 0F B6 CA 83 E1 1F BD 01 00 .L$,............
006EA5C0 00 00 D3 E5 09 6C 24 14 3A D3 75 04 89 44 24 1C .....l$.:.u..D$.
006EA5D0 83 C6 01 83 E8 01 3B F7 7C D6 8B 44 24 30 8B 5C ......;.|..D$0.\
006EA5E0 24 14 8B 6C 24 20 8B 74 24 2C 0F B6 0C 37 83 E1 $..l$ .t$,...7..
006EA5F0 1F BA 01 00 00 00 D3 E2 0B DA 33 D2 85 ED 89 5C ..........3....\
006EA600 24 14 0F 8C A0 00 00 00 8B 4C 24 28 8D 2C 01 8A $........L$(.,..
006EA610 4C 06 FF 88 4C 24 13 EB 07 8D A4 24 00 00 00 00 L...L$.....$....
006EA620 8A 4C 24 13 38 4C 2A FF 75 5D 33 C9 85 FF 7E 2B .L$.8L*.u]3...~+
006EA630 8B 44 24 28 8D 34 02 EB 07 8D A4 24 00 00 00 00 .D$(.4.....$....
006EA640 8A 04 0E 8B 5C 24 2C 3A 04 19 75 07 83 C1 01 3B ....\$,:..u....;
006EA650 CF 7C ED 8B 44 24 30 8B 5C 24 14 3B CF 75 10 83 .|..D$0.\$.;.u..
006EA660 7C 24 34 00 75 56 83 44 24 18 01 03 D7 EB 2C 0F |$4.uV.D$.....,.
006EA670 B6 0C 2A 83 E1 1F BE 01 00 00 00 D3 E6 85 F3 74 ..*............t
006EA680 18 03 54 24 1C EB 14 0F B6 0C 2A 83 E1 1F BE 01 ..T$......*.....
006EA690 00 00 00 D3 E6 85 F3 75 02 03 D0 83 C2 01 3B 54 .......u......;T
006EA6A0 24 20 0F 8E 78 FF FF FF 83 7C 24 34 00 74 19 5F $ ..x....|$4.t._
006EA6B0 5B 5E 83 C8 FF 5D 83 C4 14 C2 10 00 5F 5B 5E 8B [^...]......_[^.
006EA6C0 C2 5D 83 C4 14 C2 10 00 8B 44 24 18 5F 5B 5E 5D .].......D$._[^]
006EA6D0 83 C4 14 C2 10 00 CC CC CC CC CC CC CC CC CC CC ................
006EA6E0 51 85 DB 75 15 85 C9 7D 07 83 C8 FF 59 C2 0C 00 Q..u...}....Y...
006EA6F0 8B 44 24 10 03 C1 59 C2 0C 00 83 C8 FF 2B CB 55 .D$...Y......+.U
006EA700 89 44 24 04 8B E9 0F 88 AE 00 00 00 56 57 8B FF .D$.........VW..
006EA710 83 FB 04 8B 44 24 14 8B 54 24 18 8B CB 8D 34 28 ....D$..T$....4(
006EA720 72 14 8B 06 3B 02 75 12 83 E9 04 83 C2 04 83 C6 r...;.u.........
006EA730 04 83 F9 04 73 EC 85 C9 74 5D 0F B6 02 0F B6 3E ....s...t].....>
006EA740 2B F8 75 45 83 E9 01 83 C2 01 83 C6 01 85 C9 74 +.uE...........t
006EA750 46 0F B6 02 0F B6 3E 2B F8 75 2E 83 E9 01 83 C2 F.....>+.u......
006EA760 01 83 C6 01 85 C9 74 2F 0F B6 02 0F B6 3E 2B F8 ......t/.....>+.
006EA770 75 17 83 E9 01 83 C2 01 83 C6 01 85 C9 74 18 0F u............t..
006EA780 B6 0A 0F B6 3E 2B F9 74 0E 85 FF B9 01 00 00 00 ....>+.t........
006EA790 7F 07 83 C9 FF EB 02 33 C9 85 C9 74 14 83 ED 01 .......3...t....
006EA7A0 0F 89 6A FF FF FF 8B 44 24 0C 5F 5E 5D 59 C2 0C ..j....D$._^]Y..
006EA7B0 00 8B 54 24 1C 5F 8D 04 2A 5E 5D 59 C2 0C 00 CC ..T$._..*^]Y....
006EA7C0 56 8B 74 24 10 85 F6 7D 06 03 F1 79 02 33 F6 3B V.t$...}...y.3.;
006EA7D0 C1 0F 4F C1 85 C0 7D 06 03 C1 79 02 33 C0 2B C6 ..O...}...y.3.+.
006EA7E0 85 D2 75 11 85 C0 7D 07 83 C8 FF 5E C2 0C 00 8B ..u...}....^....
006EA7F0 C6 5E C2 0C 00 8B 4C 24 0C 6A 01 52 8B 54 24 10 .^....L$.j.R.T$.
006EA800 03 D6 51 52 8B D0 E8 F5 FC FF FF 85 C0 7C 02 03 ..QR.........|..
006EA810 C6 5E C2 0C 00 CC CC CC CC CC CC CC CC CC CC CC .^..............
006EA820 55 8B 6C 24 08 81 7D 04 50 B4 A1 00 56 57 74 42 U.l$..}.P...VWtB
006EA830 55 E8 3A 37 FF FF 8B F0 83 C4 04 85 F6 75 07 5F U.:7.........u._
006EA840 5E 83 C8 FF 5D C3 8B 44 24 18 8B 4C 24 14 50 51 ^...]..D$..L$.PQ
006EA850 56 E8 CA FF FF FF 83 C4 0C 83 06 FF 8B F8 75 0C V.............u.
006EA860 8B 56 04 8B 42 18 56 FF D0 83 C4 04 8B C7 5F 5E .V..B.V......._^
006EA870 5D C3 F6 44 24 18 01 53 74 68 8B 5D 08 81 FB FF ]..D$..Sth.]....
006EA880 FF FF 7F 8D 75 14 8B 6C 24 18 7E 41 8D 8B 00 00 ....u..l$.~A....
006EA890 00 80 B8 01 80 00 00 F7 E1 2B CA D1 E9 03 CA C1 .........+......
006EA8A0 E9 1E 83 C1 01 8B F9 69 C9 00 40 00 80 03 D9 90 .......i..@.....
006EA8B0 55 68 00 C0 FF 7F 6A 01 56 FF 15 48 46 8A 00 83 Uh....j.V..HF...
006EA8C0 C4 10 81 C6 00 C0 FF 7F 83 EF 01 75 E3 55 53 6A ...........u.USj
006EA8D0 01 56 FF 15 48 46 8A 00 83 C4 10 5B 5F 5E 33 C0 .V..HF.....[_^3.
006EA8E0 5D C3 8B 55 08 8B 35 FC 46 8A 00 52 8D 7D 14 6A ]..U..5.F..R.}.j
006EA8F0 27 57 C7 44 24 20 27 00 00 00 FF D6 83 C4 0C 85 'W.D$ '.........
006EA900 C0 74 18 8B 45 08 50 6A 22 57 FF D6 83 C4 0C 85 .t..E.Pj"W......
006EA910 C0 75 08 C7 44 24 14 22 00 00 00 8B 74 24 18 8B .u..D$."....t$..
006EA920 4C 24 14 56 51 FF 15 F8 46 8A 00 33 DB 83 C4 08 L$.VQ...F..3....
006EA930 39 5D 08 0F 8E 81 00 00 00 8B 3D E0 45 8A 00 90 9]........=.E...
006EA940 8A 44 2B 14 0F BE C8 3B 4C 24 14 74 59 3C 5C 74 .D+....;L$.tY<\t
006EA950 55 3C 09 75 0D 68 AC 48 8D 00 56 FF D7 83 C4 08 U<.u.h.H..V.....
006EA960 EB 50 3C 0A 75 0D 68 A8 48 8D 00 56 FF D7 83 C4 .P<.u.h.H..V....
006EA970 08 EB 3F 3C 0D 75 0D 68 A4 48 8D 00 56 FF D7 83 ..?<.u.h.H..V...
006EA980 C4 08 EB 2E 8A D0 80 EA 20 80 FA 5E 77 0D 56 51 ........ ..^w.VQ
006EA990 FF 15 F8 46 8A 00 83 C4 08 EB 17 0F B6 C0 50 68 ...F..........Ph
006EA9A0 9C 48 8D 00 EB 06 51 68 98 48 8D 00 56 FF D7 83 .H....Qh.H..V...
006EA9B0 C4 0C 83 C3 01 3B 5D 08 7C 86 8B 4C 24 14 56 51 .....;].|..L$.VQ
006EA9C0 FF 15 F8 46 8A 00 83 C4 08 5B 5F 5E 33 C0 5D C3 ...F.....[_^3.].

;; fn006EA9D0: 006EA9D0
;;   Called from:
;;     006EC474 (in fn006EC440)
fn006EA9D0 proc
	push	ebx
	mov	ebx,[esp+0Ch]
	mov	eax,[ebx+4h]
	push	esi
	mov	esi,0A1B450h
	cmp	eax,esi
	jz	6EAA3Dh

l006EA9E2:
	push	esi
	push	eax
	call	6D5670h
	add	esp,8h
	test	eax,eax
	jnz	6EAA3Dh

l006EA9F0:
	mov	eax,[ebx+4h]
	cmp	eax,0A23B20h
	jz	6EAA2Ch

l006EA9FA:
	push	0A23B20h
	push	eax
	call	6D5670h
	add	esp,8h
	test	eax,eax
	jnz	6EAA2Ch

l006EAA0C:
	mov	eax,[ebx+4h]
	mov	ecx,[eax+0Ch]
	mov	edx,[0A16B7Ch]
	push	ecx
	push	8D48D0h
	push	edx
	call	6E15D0h
	add	esp,0Ch
	pop	esi
	xor	eax,eax
	pop	ebx
	ret

l006EAA2C:
	mov	eax,[esp+0Ch]
	push	ebx
	push	eax
	call	721290h
	add	esp,8h
	pop	esi
	pop	ebx
	ret

l006EAA3D:
	push	edi
	mov	edi,[esp+10h]
	mov	eax,[edi+8h]
	test	eax,eax
	jz	6EAA4Fh

l006EAA49:
	cmp	dword ptr [ebx+8h],0h
	jnz	6EAA6Fh

l006EAA4F:
	cmp	[edi+4h],esi
	jnz	6EAA6Fh

l006EAA54:
	cmp	[ebx+4h],esi
	jnz	6EAA6Fh

l006EAA59:
	test	eax,eax
	jnz	6EAA66h

l006EAA5D:
	add	dword ptr [ebx],1h
	pop	edi
	pop	esi
	mov	eax,ebx
	pop	ebx
	ret

l006EAA66:
	add	dword ptr [edi],1h
	mov	eax,edi
	pop	edi
	pop	esi
	pop	ebx
	ret

l006EAA6F:
	push	ebp
	mov	ebp,[ebx+8h]
	add	ebp,eax
	mov	[esp+18h],ebp
	jns	6EAA96h

l006EAA7B:
	mov	ecx,[0A18598h]
	push	8D48B0h
	push	ecx
	call	6E0F80h
	add	esp,8h
	pop	ebp
	pop	edi
	pop	esi
	xor	eax,eax
	pop	ebx
	ret

l006EAA96:
	lea	edx,[ebp+18h]
	push	edx
	call	723860h
	mov	esi,eax
	add	esp,4h
	test	esi,esi
	jnz	6EAAB1h

l006EAAA8:
	pop	ebp
	pop	edi
	pop	esi
	pop	ebx
	jmp	6E1210h

l006EAAB1:
	mov	[esi+8h],ebp
	mov	dword ptr [esi+4h],0A1B450h
	mov	dword ptr [esi],1h
	mov	dword ptr [esi+0Ch],0FFFFFFFFh
	mov	dword ptr [esi+10h],0h
	mov	eax,[edi+8h]
	cmp	eax,10h
	lea	ecx,[esi+14h]
	lea	edx,[edi+14h]
	jc	6EAAEAh

l006EAADD:
	push	eax
	push	edx
	push	ecx
	call	695030h
	add	esp,0Ch
	jmp	6EAB03h

l006EAAEA:
	test	eax,eax
	jbe	6EAB03h

l006EAAEE:
	sub	edx,ecx
	mov	ebp,eax

l006EAAF2:
	mov	al,[edx+ecx]
	mov	[ecx],al
	add	ecx,1h
	sub	ebp,1h
	jnz	6EAAF2h

l006EAAFF:
	mov	ebp,[esp+18h]

l006EAB03:
	mov	edx,[edi+8h]
	mov	ecx,[ebx+8h]
	cmp	ecx,10h
	lea	eax,[edx+esi+14h]
	lea	edx,[ebx+14h]
	jc	6EAB2Ch

l006EAB15:
	push	ecx
	push	edx
	push	eax
	call	695030h
	add	esp,0Ch
	mov	byte ptr [esi+ebp+14h],0h
	pop	ebp
	pop	edi
	mov	eax,esi
	pop	esi
	pop	ebx
	ret

l006EAB2C:
	test	ecx,ecx
	jbe	6EAB41h

l006EAB30:
	sub	edx,eax
	mov	edi,ecx

l006EAB34:
	mov	cl,[edx+eax]
	mov	[eax],cl
	add	eax,1h
	sub	edi,1h
	jnz	6EAB34h

l006EAB41:
	mov	byte ptr [esi+ebp+14h],0h
	pop	ebp
	pop	edi
	mov	eax,esi
	pop	esi
	pop	ebx
	ret
006EAB4D                                        CC CC CC              ...
006EAB50 51 53 8B 5C 24 10 85 DB 55 56 7D 02 33 DB 8B 6C QS.\$...UV}.3..l
006EAB60 24 14 8B 4D 08 8B F1 0F AF F3 85 DB 89 74 24 18 $..M.........t$.
006EAB70 74 23 8B C6 99 F7 FB 3B C1 74 1A A1 98 85 A1 00 t#.....;.t......
006EAB80 68 00 49 8D 00 50 E8 F5 63 FF FF 83 C4 08 5E 5D h.I..P..c.....^]
006EAB90 33 C0 5B 59 C3 3B F1 75 14 81 7D 04 50 B4 A1 00 3.[Y.;.u..}.P...
006EABA0 75 0B 83 45 00 01 5E 8B C5 5D 5B 59 C3 8D 46 18 u..E..^..][Y..F.
006EABB0 3B C6 77 1B 8B 0D 98 85 A1 00 68 00 49 8D 00 51 ;.w.......h.I..Q
006EABC0 E8 BB 63 FF FF 83 C4 08 5E 5D 33 C0 5B 59 C3 57 ..c.....^]3.[Y.W
006EABD0 50 E8 8A 8C 03 00 8B F8 83 C4 04 85 FF 89 7C 24 P.............|$
006EABE0 10 75 0C 5F 5E 5D 5B 83 C4 04 E9 21 66 FF FF 89 .u._^][....!f...
006EABF0 77 08 C7 47 04 50 B4 A1 00 C7 07 01 00 00 00 C7 w..G.P..........
006EAC00 47 0C FF FF FF FF C7 47 10 00 00 00 00 C6 44 37 G......G......D7
006EAC10 14 00 8B 4D 08 83 F9 01 75 1E 85 DB 7E 1A 0F BE ...M....u...~...
006EAC20 55 14 53 52 8D 47 14 50 E8 F3 A3 FA FF 83 C4 0C U.SR.G.P........
006EAC30 8B C7 5F 5E 5D 5B 59 C3 85 F6 0F 8E 89 00 00 00 .._^][Y.........
006EAC40 83 F9 10 8D 5F 14 8D 55 14 72 0D 51 52 53 E8 DD ...._..U.r.QRS..
006EAC50 A3 FA FF 83 C4 0C EB 1B 85 C9 76 17 8B EA 8B C3 ..........v.....
006EAC60 2B EB 8A 14 28 88 10 83 C0 01 83 E9 01 75 F3 8B +...(........u..
006EAC70 6C 24 18 8B 6D 08 3B EE 7D 4F EB 08 8D 64 24 00 l$..m.;.}O...d$.
006EAC80 8B 74 24 1C 2B F5 3B EE 7F 02 8B F5 83 FE 10 8D .t$.+.;.........
006EAC90 04 2B 72 0D 56 53 50 E8 94 A3 FA FF 83 C4 0C EB .+r.VSP.........
006EACA0 20 85 F6 76 1C 8B CB 2B C8 8B FE EB 03 8D 49 00  ..v...+......I.
006EACB0 8A 14 01 88 10 83 C0 01 83 EF 01 75 F3 8B 7C 24 ...........u..|$
006EACC0 10 03 EE 3B 6C 24 1C 7C B7 8B C7 5F 5E 5D 5B 59 ...;l$.|..._^][Y
006EACD0 C3 CC CC CC CC CC CC CC CC CC CC CC CC CC CC CC ................
006EACE0 56 8B 74 24 0C 8B 46 04 3D 50 B4 A1 00 74 5D 3D V.t$..F.=P...t]=
006EACF0 20 3B A2 00 74 46 68 20 3B A2 00 50 E8 6F A9 FE  ;..tFh ;..P.o..
006EAD00 FF 83 C4 08 85 C0 75 34 8B 46 04 3D 50 B4 A1 00 ......u4.F.=P...
006EAD10 74 3A 68 50 B4 A1 00 50 E8 53 A9 FE FF 83 C4 08 t:hP...P.S......
006EAD20 85 C0 75 28 A1 7C 6B A1 00 68 1C 49 8D 00 50 E8 ..u(.|k..h.I..P.
006EAD30 4C 62 FF FF 83 C4 08 83 C8 FF 5E C3 8B 4C 24 08 Lb........^..L$.
006EAD40 56 51 E8 59 64 03 00 83 C4 08 5E C3 8B 46 08 85 VQ.Yd.....^..F..
006EAD50 C0 8B 4C 24 08 8B 51 08 75 14 85 D2 0F 9D C0 33 ..L$..Q.u......3
006EAD60 D2 5E 83 E8 01 83 F8 FF 0F 95 C2 8B C2 C3 6A 01 .^............j.
006EAD70 50 83 C6 14 56 83 C1 14 51 E8 82 F7 FF FF 33 D2 P...V...Q.....3.
006EAD80 83 F8 FF 0F 95 C2 5E 8B C2 C3 CC CC CC CC CC CC ......^.........
006EAD90 56 57 8B 7C 24 0C 8B 47 04 3D 50 B4 A1 00 74 12 VW.|$..G.=P...t.
006EADA0 68 50 B4 A1 00 50 E8 C5 A8 FE FF 83 C4 08 85 C0 hP...P..........
006EADB0 74 20 8B 74 24 10 8B 46 04 3D 50 B4 A1 00 74 1D t .t$..F.=P...t.
006EADC0 68 50 B4 A1 00 50 E8 A5 A8 FE FF 83 C4 08 85 C0 hP...P..........
006EADD0 75 0B B8 80 64 A1 00 83 00 01 5F 5E C3 3B FE 8B u...d....._^.;..
006EADE0 54 24 14 75 22 83 FA 05 77 1D FF 24 95 E8 AF 6E T$.u"...w..$...n
006EADF0 00 B8 E4 91 A1 00 83 00 01 5F 5E C3 B8 D8 91 A1 ........._^.....
006EAE00 00 83 00 01 5F 5E C3 83 FA 02 55 0F 85 B0 00 00 ...._^....U.....
006EAE10 00 8B 6F 08 3B 6E 08 0F 85 B3 01 00 00 8A 47 14 ..o.;n........G.
006EAE20 3A 46 14 8D 57 14 8D 4E 14 0F 85 A1 01 00 00 8B :F..W..N........
006EAE30 C5 83 F8 04 72 14 8B 32 3B 31 75 12 83 E8 04 83 ....r..2;1u.....
006EAE40 C1 04 83 C2 04 83 F8 04 73 EC 85 C0 74 5D 0F B6 ........s...t]..
006EAE50 32 0F B6 39 2B F7 75 45 83 E8 01 83 C1 01 83 C2 2..9+.uE........
006EAE60 01 85 C0 74 46 0F B6 32 0F B6 39 2B F7 75 2E 83 ...tF..2..9+.u..
006EAE70 E8 01 83 C1 01 83 C2 01 85 C0 74 2F 0F B6 32 0F ..........t/..2.
006EAE80 B6 39 2B F7 75 17 83 E8 01 83 C1 01 83 C2 01 85 .9+.u...........
006EAE90 C0 74 18 0F B6 32 0F B6 09 2B F1 74 0E 85 F6 B8 .t...2...+.t....
006EAEA0 01 00 00 00 7F 07 83 C8 FF EB 02 33 C0 85 C0 0F ...........3....
006EAEB0 85 1B 01 00 00 5D B8 E4 91 A1 00 83 00 01 5F 5E .....]........_^
006EAEC0 C3 8B 6E 08 53 8B 5F 08 3B DD 8B C3 7C 02 8B C5 ..n.S._.;...|...
006EAED0 85 C0 0F 8E 9C 00 00 00 0F B6 4F 14 8D 57 14 0F ..........O..W..
006EAEE0 B6 7E 14 83 C6 14 2B CF 0F 85 98 00 00 00 83 F8 .~....+.........
006EAEF0 04 8B CE 72 14 8B 32 3B 31 75 12 83 E8 04 83 C1 ...r..2;1u......
006EAF00 04 83 C2 04 83 F8 04 73 EC 85 C0 74 5D 0F B6 32 .......s...t]..2
006EAF10 0F B6 39 2B F7 75 45 83 E8 01 83 C1 01 83 C2 01 ..9+.uE.........
006EAF20 85 C0 74 46 0F B6 32 0F B6 39 2B F7 75 2E 83 E8 ..tF..2..9+.u...
006EAF30 01 83 C1 01 83 C2 01 85 C0 74 2F 0F B6 32 0F B6 .........t/..2..
006EAF40 39 2B F7 75 17 83 E8 01 83 C1 01 83 C2 01 85 C0 9+.u............
006EAF50 74 18 0F B6 32 0F B6 11 2B F2 74 0E 85 F6 B9 01 t...2...+.t.....
006EAF60 00 00 00 7F 07 83 C9 FF EB 02 33 C9 85 C9 75 16 ..........3...u.
006EAF70 8B 54 24 1C 3B DD 7D 05 83 C9 FF EB 0D 33 C9 3B .T$.;.}......3.;
006EAF80 DD 0F 9F C1 EB 04 8B 54 24 1C 83 FA 05 5B 77 4C .......T$....[wL
006EAF90 FF 24 95 00 B0 6E 00 33 C0 85 C9 0F 9C C0 EB 26 .$...n.3.......&
006EAFA0 33 D2 85 C9 0F 9E C2 8B CA EB 1D 33 C0 85 C9 0F 3..........3....
006EAFB0 95 C0 EB 12 33 D2 85 C9 0F 9F C2 8B CA EB 09 33 ....3..........3
006EAFC0 C0 85 C9 0F 9D C0 8B C8 85 C9 0F 85 E5 FE FF FF ................
006EAFD0 5D B8 D8 91 A1 00 83 00 01 5F 5E C3 5D B8 80 64 ]........_^.]..d
006EAFE0 A1 00 83 00 01 5F 5E C3 FC AD 6E 00 F1 AD 6E 00 ....._^...n...n.
006EAFF0 F1 AD 6E 00 FC AD 6E 00 FC AD 6E 00 F1 AD 6E 00 ..n...n...n...n.
006EB000 97 AF 6E 00 A0 AF 6E 00 C8 AF 6E 00 AB AF 6E 00 ..n...n...n...n.
006EB010 B4 AF 6E 00 BF AF 6E 00 CC CC CC CC CC CC CC CC ..n...n.........
006EB020 8B 44 24 04 8B 4C 24 08 56 8B 70 08 3B 71 08 0F .D$..L$.V.p.;q..
006EB030 85 9E 00 00 00 8D 50 14 8A 02 83 C1 14 3A 01 0F ......P......:..
006EB040 85 8E 00 00 00 8B C6 83 F8 04 57 72 17 8D 49 00 ..........Wr..I.
006EB050 8B 32 3B 31 75 12 83 E8 04 83 C1 04 83 C2 04 83 .2;1u...........
006EB060 F8 04 73 EC 85 C0 74 5D 0F B6 32 0F B6 39 2B F7 ..s...t]..2..9+.
006EB070 75 45 83 E8 01 83 C1 01 83 C2 01 85 C0 74 46 0F uE...........tF.
006EB080 B6 32 0F B6 39 2B F7 75 2E 83 E8 01 83 C1 01 83 .2..9+.u........
006EB090 C2 01 85 C0 74 2F 0F B6 32 0F B6 39 2B F7 75 17 ....t/..2..9+.u.
006EB0A0 83 E8 01 83 C1 01 83 C2 01 85 C0 74 18 0F B6 32 ...........t...2
006EB0B0 0F B6 09 2B F1 74 0E 85 F6 B8 01 00 00 00 7F 07 ...+.t..........
006EB0C0 83 C8 FF EB 02 33 C0 85 C0 5F 75 07 B8 01 00 00 .....3..._u.....
006EB0D0 00 5E C3 33 C0 5E C3 CC CC CC CC CC CC CC CC CC .^.3.^..........
006EB0E0 57 8B 7C 24 08 8B 47 0C 83 F8 FF 75 3A 0F B6 47 W.|$..G....u:..G
006EB0F0 14 8D 4F 14 56 8B 77 08 8D 56 FF C1 E0 07 85 D2 ..O.V.w..V......
006EB100 7C 15 53 0F B6 19 69 C0 43 42 0F 00 33 C3 83 C1 |.S...i.CB..3...
006EB110 01 83 EA 01 79 ED 5B 33 C6 83 F8 FF 5E 75 05 B8 ....y.[3....^u..
006EB120 FE FF FF FF 89 47 0C 5F C3 CC CC CC CC CC CC CC .....G._........
006EB130 83 7C 24 08 00 74 17 A1 20 87 A1 00 68 4C 49 8D .|$..t.. ...hLI.
006EB140 00 50 E8 39 5E FF FF 83 C4 08 83 C8 FF C3 8B 44 .P.9^..........D
006EB150 24 04 8B 54 24 0C 8D 48 14 89 0A 8B 40 08 C3 CC $..T$..H....@...
006EB160 A1 7C 6B A1 00 68 74 49 8D 00 50 E8 10 5E FF FF .|k..htI..P..^..
006EB170 83 C4 08 83 C8 FF C3 CC CC CC CC CC CC CC CC CC ................
006EB180 8B 44 24 08 85 C0 74 09 8B 4C 24 04 8B 51 08 89 .D$...t..L$..Q..
006EB190 10 B8 01 00 00 00 C3 CC CC CC CC CC CC CC CC CC ................
006EB1A0 83 EC 10 56 8B F0 8D 44 24 04 50 8B 44 24 1C 68 ...V...D$.P.D$.h
006EB1B0 70 7D 70 00 8D 4C 24 10 51 68 70 7D 70 00 8D 54 p}p..L$.Qhp}p..T
006EB1C0 24 28 52 68 9C 49 8D 00 50 C7 44 24 24 00 00 00 $(Rh.I..P.D$$...
006EB1D0 00 C7 44 24 20 FF FF FF 7F E8 D2 CA FF FF 83 C4 ..D$ ...........
006EB1E0 1C 85 C0 75 0C B8 FE FF FF FF 5E 83 C4 10 C2 04 ...u......^.....
006EB1F0 00 8B 44 24 18 81 78 04 50 B4 A1 00 55 0F 84 80 ..D$..x.P...U...
006EB200 00 00 00 8B 48 04 68 50 B4 A1 00 51 E8 5F A4 FE ....H.hP...Q._..
006EB210 FF 83 C4 08 85 C0 8B 44 24 1C 75 67 81 78 04 20 .......D$.ug.x. 
006EB220 3B A2 00 74 41 8B 50 04 68 20 3B A2 00 52 E8 3D ;..tA.P.h ;..R.=
006EB230 A4 FE FF 83 C4 08 85 C0 75 28 8B 54 24 1C 8D 44 ........u(.T$..D
006EB240 24 14 50 8D 4C 24 14 51 52 E8 32 66 01 00 83 C4 $.P.L$.QR.2f....
006EB250 0C 85 C0 74 3E 5D B8 FE FF FF FF 5E 83 C4 10 C2 ...t>].....^....
006EB260 04 00 8B 44 24 1C 8B 4C 24 08 8B 54 24 0C 56 51 ...D$..L$..T$.VQ
006EB270 52 50 57 E8 48 53 03 00 83 C4 14 5D 5E 83 C4 10 RPW.HS.....]^...
006EB280 C2 04 00 8D 68 14 89 6C 24 10 8B 50 08 89 54 24 ....h..l$..P..T$
006EB290 14 EB 08 8B 6C 24 10 8B 54 24 14 85 F6 8B 44 24 ....l$..T$....D$
006EB2A0 0C 7E 1A 50 8B 44 24 0C 55 8D 4F 14 51 8B 4F 08 .~.P.D$.U.O.Q.O.
006EB2B0 E8 0B F5 FF FF 5D 5E 83 C4 10 C2 04 00 85 C0 8B .....]^.........
006EB2C0 4C 24 08 8B 77 08 7D 06 03 C6 79 02 33 C0 3B CE L$..w.}...y.3.;.
006EB2D0 0F 4F CE 85 C9 7D 06 03 CE 79 02 33 C9 53 50 2B .O...}...y.3.SP+
006EB2E0 C8 55 8D 44 38 14 50 8B DA E8 F2 F3 FF FF 5B 5D .U.D8.P.......[]
006EB2F0 5E 83 C4 10 C2 04 00 CC CC CC CC CC CC CC CC CC ^...............
006EB300 8B 44 24 08 57 8B 7C 24 08 50 B8 01 00 00 00 E8 .D$.W.|$.P......
006EB310 8C FE FF FF 83 F8 FE 5F 75 03 33 C0 C3 50 E8 FD ......._u.3..P..
006EB320 9D 01 00 83 C4 04 C3 CC CC CC CC CC CC CC CC CC ................
006EB330 8B 44 24 08 57 8B 7C 24 08 50 B8 01 00 00 00 E8 .D$.W.|$.P......
006EB340 5C FE FF FF 83 F8 FE 5F 74 19 83 F8 FF 75 17 8B \......_t....u..
006EB350 0D 2C 7E A1 00 68 BC 49 8D 00 51 E8 20 5C FF FF .,~..h.I..Q. \..
006EB360 83 C4 08 33 C0 C3 50 E8 B4 9D 01 00 83 C4 04 C3 ...3..P.........
006EB370 8B 44 24 08 57 8B 7C 24 08 50 83 C8 FF E8 1E FE .D$.W.|$.P......
006EB380 FF FF 83 F8 FE 5F 75 03 33 C0 C3 50 E8 8F 9D 01 ....._u.3..P....
006EB390 00 83 C4 04 C3 CC CC CC CC CC CC CC CC CC CC CC ................
006EB3A0 8B 44 24 08 57 8B 7C 24 08 50 83 C8 FF E8 EE FD .D$.W.|$.P......
006EB3B0 FF FF 83 F8 FE 5F 74 19 83 F8 FF 75 17 8B 0D 2C ....._t....u...,
006EB3C0 7E A1 00 68 BC 49 8D 00 51 E8 B2 5B FF FF 83 C4 ~..h.I..Q..[....
006EB3D0 08 33 C0 C3 50 E8 46 9D 01 00 83 C4 04 C3 CC CC .3..P.F.........
006EB3E0 83 EC 10 57 8B 7C 24 18 8D 44 24 18 50 8B 44 24 ...W.|$..D$.P.D$
006EB3F0 20 68 70 7D 70 00 8D 4C 24 10 51 68 70 7D 70 00  hp}p..L$.Qhp}p.
006EB400 8D 54 24 14 52 68 D0 49 8D 00 50 C7 44 24 24 00 .T$.Rh.I..P.D$$.
006EB410 00 00 00 C7 44 24 34 FF FF FF 7F E8 90 C8 FF FF ....D$4.........
006EB420 83 C4 1C 85 C0 75 05 5F 83 C4 10 C3 8B 44 24 04 .....u._.....D$.
006EB430 81 78 04 50 B4 A1 00 56 0F 84 83 00 00 00 8B 48 .x.P...V.......H
006EB440 04 68 50 B4 A1 00 51 E8 24 A2 FE FF 83 C4 08 85 .hP...Q.$.......
006EB450 C0 8B 44 24 08 75 6A 81 78 04 20 3B A2 00 74 3C ..D$.uj.x. ;..t<
006EB460 8B 50 04 68 20 3B A2 00 52 E8 02 A2 FE FF 83 C4 .P.h ;..R.......
006EB470 08 85 C0 75 23 8B 54 24 08 8D 44 24 10 50 8D 4C ...u#.T$..D$.P.L
006EB480 24 18 51 52 E8 F7 63 01 00 83 C4 0C 85 C0 74 41 $.QR..c.......tA
006EB490 5E 33 C0 5F 83 C4 10 C3 8B 44 24 08 8B 4C 24 1C ^3._.....D$..L$.
006EB4A0 8B 54 24 0C 51 52 50 57 E8 13 50 03 00 83 C4 10 .T$.QRPW..P.....
006EB4B0 83 F8 FF 0F 85 8B 00 00 00 5E 33 C0 5F 83 C4 10 .........^3._...
006EB4C0 C3 8D 48 14 89 4C 24 14 8B 70 08 89 74 24 10 EB ..H..L$..p..t$..
006EB4D0 04 8B 74 24 10 8B 57 08 8B 44 24 1C 3B C2 7E 04 ..t$..W..D$.;.~.
006EB4E0 8B C2 EB 06 85 C0 7D 10 03 C2 85 C0 89 44 24 1C ......}......D$.
006EB4F0 7D 06 33 C0 89 44 24 1C 8B 4C 24 0C 85 C9 7D 0E }.3..D$..L$...}.
006EB500 03 CA 89 4C 24 0C 79 06 33 C9 89 4C 24 0C 2B C1 ...L$.y.3..L$.+.
006EB510 85 F6 75 16 85 C0 7C 2A 83 C0 01 50 E8 FF 9B 01 ..u...|*...P....
006EB520 00 83 C4 04 5E 5F 83 C4 10 C3 8B 54 24 14 6A 00 ....^_.....T$.j.
006EB530 56 52 8D 4C 39 14 51 8B D0 E8 C2 EF FF FF 85 C0 VR.L9.Q.........
006EB540 7D 02 33 C0 50 E8 D6 9B 01 00 83 C4 04 5E 5F 83 }.3.P........^_.
006EB550 C4 10 C3 CC CC CC CC CC CC CC CC CC CC CC CC CC ................
006EB560 53 55 8B 2D FC 46 8A 00 56 8D 34 08 57 0F BE 7C SU.-.F..V.4.W..|
006EB570 24 14 8B D6 2B D0 52 57 50 33 DB FF D5 83 C4 0C $...+.RWP3......
006EB580 85 C0 74 1C 83 C3 01 3B 5C 24 18 7D 13 83 C0 01 ..t....;\$.}....
006EB590 8B CE 2B C8 51 57 50 FF D5 83 C4 0C 85 C0 75 E4 ..+.QWP.......u.
006EB5A0 5F 5E 5D 8B C3 5B C2 08 00 CC CC CC CC CC CC CC _^]..[..........
006EB5B0 53 8B 5C 24 0C 55 8B 6C 24 14 56 8B 74 24 10 57 S.\$.U.l$.V.t$.W
006EB5C0 8B 7C 24 20 85 FF 7D 0E 03 F9 89 7C 24 20 79 06 .|$ ..}....|$ y.
006EB5D0 33 FF 89 7C 24 20 3B C1 7E 04 8B C1 EB 0A 85 C0 3..|$ ;.~.......
006EB5E0 7D 06 03 C1 79 02 33 C0 85 ED 75 11 85 D2 0F 8E }...y.3...u.....
006EB5F0 DD 01 00 00 8B C7 5F 5E 5D 5B C2 10 00 2B C5 85 ......_^][...+..
006EB600 D2 0F 8D ED 00 00 00 3B C7 0F 8C BF 01 00 00 8A .......;........
006EB610 0B 88 4C 24 1C EB 09 8D A4 24 00 00 00 00 8B FF ..L$.....$......
006EB620 8A 54 24 1C 38 14 06 0F 85 B2 00 00 00 8D 0C 2E .T$.8...........
006EB630 8A 54 01 FF 3A 54 2B FF 0F 85 A1 00 00 00 8D 4D .T..:T+........M
006EB640 FE 83 F9 04 8D 53 01 8D 74 06 01 72 17 8D 49 00 .....S..t..r..I.
006EB650 8B 1E 3B 1A 75 12 83 E9 04 83 C2 04 83 C6 04 83 ..;.u...........
006EB660 F9 04 73 EC 85 C9 74 65 0F B6 3E 0F B6 1A 2B FB ..s...te..>...+.
006EB670 75 45 83 E9 01 83 C2 01 83 C6 01 85 C9 74 4A 0F uE...........tJ.
006EB680 B6 3E 0F B6 1A 2B FB 75 2E 83 E9 01 83 C2 01 83 .>...+.u........
006EB690 C6 01 85 C9 74 33 0F B6 3E 0F B6 1A 2B FB 75 17 ....t3..>...+.u.
006EB6A0 83 E9 01 83 C2 01 83 C6 01 85 C9 74 1C 0F B6 3E ...........t...>
006EB6B0 0F B6 0A 2B F9 74 12 85 FF 8B 7C 24 20 B9 01 00 ...+.t....|$ ...
006EB6C0 00 00 7F 0B 83 C9 FF EB 06 8B 7C 24 20 33 C9 85 ..........|$ 3..
006EB6D0 C9 0F 84 FA 00 00 00 8B 5C 24 18 8B 74 24 14 83 ........\$..t$..
006EB6E0 E8 01 3B C7 0F 8D 36 FF FF FF 5F 5E 5D 83 C8 FF ..;...6..._^]...
006EB6F0 5B C2 10 00 3B F8 0F 8F D2 00 00 00 8A 13 88 54 [...;..........T
006EB700 24 1C 8A 4C 24 1C 38 0C 3E 0F 85 B0 00 00 00 8D $..L$.8.>.......
006EB710 14 2E 8A 4C 3A FF 3A 4C 2B FF 0F 85 9F 00 00 00 ...L:.:L+.......
006EB720 8D 4D FE 83 F9 04 8D 53 01 8D 74 3E 01 72 15 90 .M.....S..t>.r..
006EB730 8B 1E 3B 1A 75 12 83 E9 04 83 C2 04 83 C6 04 83 ..;.u...........
006EB740 F9 04 73 EC 85 C9 74 65 0F B6 1A 0F B6 3E 2B FB ..s...te.....>+.
006EB750 75 45 83 E9 01 83 C2 01 83 C6 01 85 C9 74 4A 0F uE...........tJ.
006EB760 B6 1A 0F B6 3E 2B FB 75 2E 83 E9 01 83 C2 01 83 ....>+.u........
006EB770 C6 01 85 C9 74 33 0F B6 1A 0F B6 3E 2B FB 75 17 ....t3.....>+.u.
006EB780 83 E9 01 83 C2 01 83 C6 01 85 C9 74 1C 0F B6 12 ...........t....
006EB790 0F B6 3E 2B FA 74 12 85 FF 8B 7C 24 20 B9 01 00 ..>+.t....|$ ...
006EB7A0 00 00 7F 0B 83 C9 FF EB 06 8B 7C 24 20 33 C9 85 ..........|$ 3..
006EB7B0 C9 0F 84 3D FE FF FF 8B 5C 24 18 8B 74 24 14 83 ...=....\$..t$..
006EB7C0 C7 01 3B F8 89 7C 24 20 0F 8E 34 FF FF FF 83 C8 ..;..|$ ..4.....
006EB7D0 FF 5F 5E 5D 5B C2 10 00 CC CC CC CC CC CC CC CC ._^][...........
006EB7E0 51 55 8B 6C 24 10 56 8B 74 24 10 57 8B 7C 24 1C QU.l$.V.t$.W.|$.
006EB7F0 85 FF C7 44 24 0C 00 00 00 00 7D 0E 03 F9 89 7C ...D$.....}....|
006EB800 24 1C 79 06 33 FF 89 7C 24 1C 3B C1 7E 04 8B C1 $.y.3..|$.;.~...
006EB810 EB 0A 85 C0 7D 06 03 C1 79 02 33 C0 85 DB 8B 54 ....}...y.3....T
006EB820 24 24 0F 84 15 02 00 00 85 D2 0F 84 0D 02 00 00 $$..............
006EB830 2B C3 83 7C 24 20 00 0F 8D 05 01 00 00 3B C7 0F +..|$ .......;..
006EB840 8C ED 01 00 00 8A 4D 00 88 4C 24 20 8D 64 24 00 ......M..L$ .d$.
006EB850 8A 54 24 20 38 14 06 0F 85 CF 00 00 00 8D 0C 1E .T$ 8...........
006EB860 8A 54 01 FF 3A 54 2B FF 0F 85 BE 00 00 00 8D 4B .T..:T+........K
006EB870 FE 83 F9 04 8D 55 01 8D 74 06 01 72 17 8D 49 00 .....U..t..r..I.
006EB880 8B 2E 3B 2A 75 12 83 E9 04 83 C2 04 83 C6 04 83 ..;*u...........
006EB890 F9 04 73 EC 85 C9 74 65 0F B6 3E 0F B6 2A 2B FD ..s...te..>..*+.
006EB8A0 75 45 83 E9 01 83 C2 01 83 C6 01 85 C9 74 4A 0F uE...........tJ.
006EB8B0 B6 3E 0F B6 2A 2B FD 75 2E 83 E9 01 83 C2 01 83 .>..*+.u........
006EB8C0 C6 01 85 C9 74 33 0F B6 3E 0F B6 2A 2B FD 75 17 ....t3..>..*+.u.
006EB8D0 83 E9 01 83 C2 01 83 C6 01 85 C9 74 1C 0F B6 3E ...........t...>
006EB8E0 0F B6 0A 2B F9 74 12 85 FF 8B 7C 24 1C B9 01 00 ...+.t....|$....
006EB8F0 00 00 7F 0B 83 C9 FF EB 06 8B 7C 24 1C 33 C9 85 ..........|$.3..
006EB900 C9 75 21 8B 4C 24 24 83 44 24 0C 01 83 E9 01 85 .u!.L$$.D$......
006EB910 C9 89 4C 24 24 0F 8E 17 01 00 00 BA 01 00 00 00 ..L$$...........
006EB920 2B D3 03 C2 8B 74 24 14 8B 6C 24 18 83 E8 01 3B +....t$..l$....;
006EB930 C7 0F 8D 19 FF FF FF 8B 44 24 0C 5F 5E 5D 59 C2 ........D$._^]Y.
006EB940 14 00 3B F8 0F 8F E8 00 00 00 8A 4D 00 88 4C 24 ..;........M..L$
006EB950 20 8A 54 24 20 38 14 3E 0F 85 C5 00 00 00 8D 0C  .T$ 8.>........
006EB960 1E 8A 54 39 FF 3A 54 2B FF 0F 85 B4 00 00 00 8D ..T9.:T+........
006EB970 4B FE 83 F9 04 8D 55 01 8D 74 3E 01 72 16 8B FF K.....U..t>.r...
006EB980 8B 2E 3B 2A 75 12 83 E9 04 83 C2 04 83 C6 04 83 ..;*u...........
006EB990 F9 04 73 EC 85 C9 74 65 0F B6 2A 0F B6 3E 2B FD ..s...te..*..>+.
006EB9A0 75 45 83 E9 01 83 C2 01 83 C6 01 85 C9 74 4A 0F uE...........tJ.
006EB9B0 B6 2A 0F B6 3E 2B FD 75 2E 83 E9 01 83 C2 01 83 .*..>+.u........
006EB9C0 C6 01 85 C9 74 33 0F B6 2A 0F B6 3E 2B FD 75 17 ....t3..*..>+.u.
006EB9D0 83 E9 01 83 C2 01 83 C6 01 85 C9 74 1C 0F B6 0A ...........t....
006EB9E0 0F B6 3E 2B F9 74 12 85 FF 8B 7C 24 1C B9 01 00 ..>+.t....|$....
006EB9F0 00 00 7F 0B 83 C9 FF EB 06 8B 7C 24 1C 33 C9 85 ..........|$.3..
006EBA00 C9 75 18 8B 4C 24 24 83 44 24 0C 01 83 E9 01 85 .u..L$$.D$......
006EBA10 C9 89 4C 24 24 7E 1B 8D 7C 1F FF 8B 74 24 14 8B ..L$$~..|...t$..
006EBA20 6C 24 18 83 C7 01 3B F8 89 7C 24 1C 0F 8E 1F FF l$....;..|$.....
006EBA30 FF FF 8B 44 24 0C 5F 5E 5D 59 C2 14 00 8D 41 01 ...D$._^]Y....A.
006EBA40 3B C2 7C 02 8B C2 5F 5E 5D 59 C2 14 00 CC CC CC ;.|..._^]Y......
006EBA50 83 EC 08 53 55 56 8B D8 8B 44 24 18 8B 68 08 57 ...SUV...D$..h.W
006EBA60 8B FA 8B 47 04 3D 50 B4 A1 00 8B F1 74 71 68 50 ...G.=P.....tqhP
006EBA70 B4 A1 00 50 E8 F7 9B FE FF 83 C4 08 85 C0 75 5F ...P..........u_
006EBA80 8B 47 04 3D 20 3B A2 00 74 36 68 20 3B A2 00 50 .G.= ;..t6h ;..P
006EBA90 E8 DB 9B FE FF 83 C4 08 85 C0 75 24 8D 4C 24 10 ..........u$.L$.
006EBAA0 51 8D 54 24 18 52 57 E8 D4 5D 01 00 83 C4 0C 85 Q.T$.RW..]......
006EBAB0 C0 74 3C 5F 5E 5D 83 C8 FF 5B 83 C4 08 C2 08 00 .t<_^]...[......
006EBAC0 8B 44 24 20 8B 4C 24 1C 50 53 56 57 51 E8 DE 4B .D$ .L$.PSVWQ..K
006EBAD0 03 00 83 C4 14 5F 5E 5D 5B 83 C4 08 C2 08 00 8B ....._^][.......
006EBAE0 47 08 8D 57 14 89 54 24 14 89 44 24 10 EB 04 8B G..W..T$..D$....
006EBAF0 44 24 10 3B DD 7E 04 8B DD EB 06 85 DB 7D 08 03 D$.;.~.......}..
006EBB00 DD 85 DB 7D 02 33 DB 85 F6 7D 06 03 F5 79 02 33 ...}.3...}...y.3
006EBB10 F6 83 7C 24 20 00 7D 13 8D 0C 30 3B CD 7E 22 5F ..|$ .}...0;.~"_
006EBB20 5E 5D 33 C0 5B 83 C4 08 C2 08 00 8B D3 2B D6 3B ^]3.[........+.;
006EBB30 D0 7C EC 3B F5 7F E8 8B CB 2B C8 3B CE 7E 02 8B .|.;.....+.;.~..
006EBB40 F1 2B DE 3B D8 7C D8 83 F8 04 8B 54 24 1C 8B 4C .+.;.|.....T$..L
006EBB50 24 14 8D 54 32 14 72 14 8B 32 3B 31 75 12 83 E8 $..T2.r..2;1u...
006EBB60 04 83 C1 04 83 C2 04 83 F8 04 73 EC 85 C0 74 6E ..........s...tn
006EBB70 0F B6 32 0F B6 39 2B F7 75 45 83 E8 01 83 C1 01 ..2..9+.uE......
006EBB80 83 C2 01 85 C0 74 57 0F B6 32 0F B6 39 2B F7 75 .....tW..2..9+.u
006EBB90 2E 83 E8 01 83 C1 01 83 C2 01 85 C0 74 40 0F B6 ............t@..
006EBBA0 32 0F B6 39 2B F7 75 17 83 E8 01 83 C1 01 83 C2 2..9+.u.........
006EBBB0 01 85 C0 74 29 0F B6 32 0F B6 01 2B F0 74 1F 85 ...t)..2...+.t..
006EBBC0 F6 B8 01 00 00 00 7F 18 83 C8 FF 33 C9 85 C0 0F ...........3....
006EBBD0 94 C1 5F 5E 5D 5B 8B C1 83 C4 08 C2 08 00 33 C0 .._^][........3.
006EBBE0 33 C9 85 C0 0F 94 C1 5F 5E 5D 5B 8B C1 83 C4 08 3......_^][.....
006EBBF0 C2 08 00 CC CC CC CC CC CC CC CC CC CC CC CC CC ................
006EBC00 83 EC 0C 57 8D 44 24 08 50 8B 44 24 1C 68 70 7D ...W.D$.P.D$.hp}
006EBC10 70 00 8D 4C 24 14 51 68 70 7D 70 00 8D 54 24 14 p..L$.Qhp}p..T$.
006EBC20 52 68 E0 49 8D 00 33 FF 50 89 7C 24 28 C7 44 24 Rh.I..3.P.|$(.D$
006EBC30 24 FF FF FF 7F E8 76 C0 FF FF 83 C4 1C 85 C0 75 $.....v........u
006EBC40 07 33 C0 5F 83 C4 0C C3 8B 54 24 04 81 7A 04 88 .3._.....T$..z..
006EBC50 65 A1 00 74 44 8B 4A 04 68 88 65 A1 00 51 E8 0D e..tD.J.h.e..Q..
006EBC60 9A FE FF 83 C4 08 85 C0 75 2B 8B 54 24 14 8B 44 ........u+.T$..D
006EBC70 24 08 8B 4C 24 0C 6A FF 52 8B 54 24 0C E8 CE FD $..L$.j.R.T$....
006EBC80 FF FF 83 F8 FF 74 BA 50 E8 D3 96 FF FF 83 C4 04 .....t.P........
006EBC90 5F 83 C4 0C C3 8B 54 24 04 39 7A 08 53 56 7E 3B _.....T$.9z.SV~;
006EBCA0 8B 5C 24 1C BE 0C 00 00 00 8D A4 24 00 00 00 00 .\$........$....
006EBCB0 8B 44 24 10 8B 4C 24 14 8B 14 16 6A FF 53 E8 8D .D$..L$....j.S..
006EBCC0 FD FF FF 83 F8 FF 74 26 85 C0 75 2B 8B 54 24 0C ......t&..u+.T$.
006EBCD0 83 C7 01 83 C6 04 3B 7A 08 7C D5 83 05 D8 91 A1 ......;z.|......
006EBCE0 00 01 5E 5B B8 D8 91 A1 00 5F 83 C4 0C C3 5E 5B ..^[....._....^[
006EBCF0 33 C0 5F 83 C4 0C C3 83 05 E4 91 A1 00 01 5E 5B 3._...........^[
006EBD00 B8 E4 91 A1 00 5F 83 C4 0C C3 CC CC CC CC CC CC ....._..........
006EBD10 83 EC 0C 57 8D 44 24 08 50 8B 44 24 1C 68 70 7D ...W.D$.P.D$.hp}
006EBD20 70 00 8D 4C 24 14 51 68 70 7D 70 00 8D 54 24 14 p..L$.Qhp}p..T$.
006EBD30 52 68 F4 49 8D 00 33 FF 50 89 7C 24 28 C7 44 24 Rh.I..3.P.|$(.D$
006EBD40 24 FF FF FF 7F E8 66 BF FF FF 83 C4 1C 85 C0 75 $.....f........u
006EBD50 07 33 C0 5F 83 C4 0C C3 8B 54 24 04 81 7A 04 88 .3._.....T$..z..
006EBD60 65 A1 00 74 44 8B 4A 04 68 88 65 A1 00 51 E8 FD e..tD.J.h.e..Q..
006EBD70 98 FE FF 83 C4 08 85 C0 75 2B 8B 54 24 14 8B 44 ........u+.T$..D
006EBD80 24 08 8B 4C 24 0C 6A 01 52 8B 54 24 0C E8 BE FC $..L$.j.R.T$....
006EBD90 FF FF 83 F8 FF 74 BA 50 E8 C3 95 FF FF 83 C4 04 .....t.P........
006EBDA0 5F 83 C4 0C C3 8B 54 24 04 39 7A 08 53 56 7E 3B _.....T$.9z.SV~;
006EBDB0 8B 5C 24 1C BE 0C 00 00 00 8D A4 24 00 00 00 00 .\$........$....
006EBDC0 8B 44 24 10 8B 4C 24 14 8B 14 16 6A 01 53 E8 7D .D$..L$....j.S.}
006EBDD0 FC FF FF 83 F8 FF 74 26 85 C0 75 2B 8B 54 24 0C ......t&..u+.T$.
006EBDE0 83 C7 01 83 C6 04 3B 7A 08 7C D5 83 05 D8 91 A1 ......;z.|......
006EBDF0 00 01 5E 5B B8 D8 91 A1 00 5F 83 C4 0C C3 5E 5B ..^[....._....^[
006EBE00 33 C0 5F 83 C4 0C C3 83 05 E4 91 A1 00 01 5E 5B 3._...........^[
006EBE10 B8 E4 91 A1 00 5F 83 C4 0C C3 CC CC CC CC CC CC ....._..........
006EBE20 83 EC 08 8B 54 24 10 8D 04 24 50 8D 4C 24 08 51 ....T$...$P.L$.Q
006EBE30 68 44 4A 8D 00 52 C7 44 24 14 00 00 00 00 C7 44 hDJ..R.D$......D
006EBE40 24 10 00 00 00 00 E8 65 BE FF FF 83 C4 10 85 C0 $......e........
006EBE50 75 04 83 C4 08 C3 8B 04 24 8B 4C 24 04 8B 54 24 u.......$.L$..T$
006EBE60 0C 56 50 51 52 E8 F6 E4 FF FF 8B F0 83 C4 0C 85 .VPQR...........
006EBE70 F6 74 64 8B 46 04 3D 50 B4 A1 00 74 61 68 50 B4 .td.F.=P...tahP.
006EBE80 A1 00 50 E8 E8 97 FE FF 83 C4 08 85 C0 75 4F 8B ..P..........uO.
006EBE90 46 04 3D 20 3B A2 00 74 45 68 20 3B A2 00 50 E8 F.= ;..tEh ;..P.
006EBEA0 CC 97 FE FF 83 C4 08 85 C0 75 33 8B 46 04 8B 48 .........u3.F..H
006EBEB0 0C 8B 15 7C 6B A1 00 51 68 04 4A 8D 00 52 E8 0D ...|k..Qh.J..R..
006EBEC0 57 FF FF 83 C4 0C 83 06 FF 75 0C 8B 46 04 8B 48 W........u..F..H
006EBED0 18 56 FF D1 83 C4 04 33 C0 5E 83 C4 08 C3 8B C6 .V.....3.^......
006EBEE0 5E 83 C4 08 C3 CC CC CC CC CC CC CC CC CC CC CC ^...............
006EBEF0 83 EC 08 8B 54 24 10 8D 04 24 50 8D 4C 24 08 51 ....T$...$P.L$.Q
006EBF00 68 90 4A 8D 00 52 C7 44 24 14 00 00 00 00 C7 44 h.J..R.D$......D
006EBF10 24 10 00 00 00 00 E8 95 BD FF FF 83 C4 10 85 C0 $...............
006EBF20 75 04 83 C4 08 C3 8B 04 24 8B 4C 24 04 8B 54 24 u.......$.L$..T$
006EBF30 0C 56 50 51 52 E8 D6 E3 FF FF 8B F0 83 C4 0C 85 .VPQR...........
006EBF40 F6 74 64 8B 46 04 3D 50 B4 A1 00 74 61 68 50 B4 .td.F.=P...tahP.
006EBF50 A1 00 50 E8 18 97 FE FF 83 C4 08 85 C0 75 4F 8B ..P..........uO.
006EBF60 46 04 3D 20 3B A2 00 74 45 68 20 3B A2 00 50 E8 F.= ;..tEh ;..P.
006EBF70 FC 96 FE FF 83 C4 08 85 C0 75 33 8B 46 04 8B 48 .........u3.F..H
006EBF80 0C 8B 15 7C 6B A1 00 51 68 50 4A 8D 00 52 E8 3D ...|k..QhPJ..R.=
006EBF90 56 FF FF 83 C4 0C 83 06 FF 75 0C 8B 46 04 8B 48 V........u..F..H
006EBFA0 18 56 FF D1 83 C4 04 33 C0 5E 83 C4 08 C3 8B C6 .V.....3.^......
006EBFB0 5E 83 C4 08 C3 CC CC CC CC CC CC CC CC CC CC CC ^...............
006EBFC0 53 8B 1D 84 46 8A 00 56 57 8B 7C 24 10 83 7F 08 S...F..VW.|$....
006EBFD0 01 8D 77 14 75 1D 0F B6 06 50 FF D3 83 C4 04 85 ..w.u....P......
006EBFE0 C0 74 10 5F 5E 5B C7 44 24 04 01 00 00 00 E9 6D .t._^[.D$......m
006EBFF0 93 FF FF 8B 7F 08 85 FF 75 10 5F 5E 5B C7 44 24 ........u._^[.D$
006EC000 04 00 00 00 00 E9 56 93 FF FF 03 FE 3B F7 73 14 ......V.....;.s.
006EC010 0F B6 0E 51 FF D3 83 C4 04 85 C0 74 17 83 C6 01 ...Q.......t....
006EC020 3B F7 72 EC 5F 5E 5B C7 44 24 04 01 00 00 00 E9 ;.r._^[.D$......
006EC030 2C 93 FF FF 5F 5E 5B C7 44 24 04 00 00 00 00 E9 ,..._^[.D$......
006EC040 1C 93 FF FF CC CC CC CC CC CC CC CC CC CC CC CC ................
006EC050 53 8B 1D C8 46 8A 00 56 57 8B 7C 24 10 83 7F 08 S...F..VW.|$....
006EC060 01 8D 77 14 75 1D 0F B6 06 50 FF D3 83 C4 04 85 ..w.u....P......
006EC070 C0 74 10 5F 5E 5B C7 44 24 04 01 00 00 00 E9 DD .t._^[.D$.......
006EC080 92 FF FF 8B 7F 08 85 FF 75 10 5F 5E 5B C7 44 24 ........u._^[.D$
006EC090 04 00 00 00 00 E9 C6 92 FF FF 03 FE 3B F7 73 14 ............;.s.
006EC0A0 0F B6 0E 51 FF D3 83 C4 04 85 C0 74 17 83 C6 01 ...Q.......t....
006EC0B0 3B F7 72 EC 5F 5E 5B C7 44 24 04 01 00 00 00 E9 ;.r._^[.D$......
006EC0C0 9C 92 FF FF 5F 5E 5B C7 44 24 04 00 00 00 00 E9 ...._^[.D$......
006EC0D0 8C 92 FF FF CC CC CC CC CC CC CC CC CC CC CC CC ................
006EC0E0 53 8B 1D C4 46 8A 00 56 57 8B 7C 24 10 83 7F 08 S...F..VW.|$....
006EC0F0 01 8D 77 14 75 1D 0F B6 06 50 FF D3 83 C4 04 85 ..w.u....P......
006EC100 C0 74 10 5F 5E 5B C7 44 24 04 01 00 00 00 E9 4D .t._^[.D$......M
006EC110 92 FF FF 8B 7F 08 85 FF 75 10 5F 5E 5B C7 44 24 ........u._^[.D$
006EC120 04 00 00 00 00 E9 36 92 FF FF 03 FE 3B F7 73 14 ......6.....;.s.
006EC130 0F B6 0E 51 FF D3 83 C4 04 85 C0 74 17 83 C6 01 ...Q.......t....
006EC140 3B F7 72 EC 5F 5E 5B C7 44 24 04 01 00 00 00 E9 ;.r._^[.D$......
006EC150 0C 92 FF FF 5F 5E 5B C7 44 24 04 00 00 00 00 E9 ...._^[.D$......
006EC160 FC 91 FF FF CC CC CC CC CC CC CC CC CC CC CC CC ................
006EC170 53 8B 1D 00 47 8A 00 56 57 8B 7C 24 10 83 7F 08 S...G..VW.|$....
006EC180 01 8D 77 14 75 1D 0F B6 06 50 FF D3 83 C4 04 85 ..w.u....P......
006EC190 C0 74 10 5F 5E 5B C7 44 24 04 01 00 00 00 E9 BD .t._^[.D$.......
006EC1A0 91 FF FF 8B 7F 08 85 FF 75 10 5F 5E 5B C7 44 24 ........u._^[.D$
006EC1B0 04 00 00 00 00 E9 A6 91 FF FF 03 FE 3B F7 73 14 ............;.s.
006EC1C0 0F B6 0E 51 FF D3 83 C4 04 85 C0 74 17 83 C6 01 ...Q.......t....
006EC1D0 3B F7 72 EC 5F 5E 5B C7 44 24 04 01 00 00 00 E9 ;.r._^[.D$......
006EC1E0 7C 91 FF FF 5F 5E 5B C7 44 24 04 00 00 00 00 E9 |..._^[.D$......
006EC1F0 6C 91 FF FF CC CC CC CC CC CC CC CC CC CC CC CC l...............
006EC200 8B 44 24 04 56 8D 70 14 8B 40 08 83 F8 01 75 1D .D$.V.p..@....u.
006EC210 0F B6 06 50 FF 15 08 47 8A 00 83 C4 04 F7 D8 1B ...P...G........
006EC220 C0 F7 D8 5E 89 44 24 04 E9 33 91 FF FF 85 C0 75 ...^.D$..3.....u
006EC230 0A 5E 89 44 24 04 E9 25 91 FF FF 53 55 57 8D 3C .^.D$..%...SUW.<
006EC240 30 33 DB 3B F7 73 37 8B 2D 08 47 8A 00 8D 49 00 03.;.s7.-.G...I.
006EC250 0F B6 0E 51 FF 15 04 47 8A 00 83 C4 04 85 C0 75 ...Q...G.......u
006EC260 2B 85 DB 75 12 0F B6 16 52 FF D5 83 C4 04 85 C0 +..u....R.......
006EC270 74 05 BB 01 00 00 00 83 C6 01 3B F7 72 D2 53 E8 t.........;.r.S.
006EC280 DC 90 FF FF 83 C4 04 5F 5D 5B 5E C3 5F 5D 5B 5E ......._][^._][^
006EC290 C7 44 24 04 00 00 00 00 E9 C3 90 FF FF CC CC CC .D$.............
006EC2A0 8B 44 24 04 56 8D 70 14 8B 40 08 83 F8 01 75 1D .D$.V.p..@....u.
006EC2B0 0F B6 06 50 FF 15 04 47 8A 00 83 C4 04 F7 D8 1B ...P...G........
006EC2C0 C0 F7 D8 5E 89 44 24 04 E9 93 90 FF FF 85 C0 75 ...^.D$........u
006EC2D0 0A 5E 89 44 24 04 E9 85 90 FF FF 53 55 57 8D 3C .^.D$......SUW.<
006EC2E0 30 33 DB 3B F7 73 37 8B 2D 04 47 8A 00 8D 49 00 03.;.s7.-.G...I.
006EC2F0 0F B6 0E 51 FF 15 08 47 8A 00 83 C4 04 85 C0 75 ...Q...G.......u
006EC300 2B 85 DB 75 12 0F B6 16 52 FF D5 83 C4 04 85 C0 +..u....R.......
006EC310 74 05 BB 01 00 00 00 83 C6 01 3B F7 72 D2 53 E8 t.........;.r.S.
006EC320 3C 90 FF FF 83 C4 04 5F 5D 5B 5E C3 5F 5D 5B 5E <......_][^._][^
006EC330 C7 44 24 04 00 00 00 00 E9 23 90 FF FF CC CC CC .D$......#......
006EC340 8B 44 24 04 56 8D 70 14 8B 40 08 83 F8 01 75 1B .D$.V.p..@....u.
006EC350 0F B6 06 50 FF 15 04 47 8A 00 F7 D8 1B C0 F7 D8 ...P...G........
006EC360 50 E8 FA 8F FF FF 83 C4 08 5E C3 85 C0 75 0B 50 P........^...u.P
006EC370 E8 EB 8F FF FF 83 C4 04 5E C3 53 55 03 C6 57 33 ........^.SU..W3
006EC380 ED 33 FF 3B F0 89 44 24 14 73 49 EB 03 8D 49 00 .3.;..D$.sI...I.
006EC390 0F B6 1E 53 FF 15 04 47 8A 00 83 C4 04 85 C0 74 ...S...G.......t
006EC3A0 0D 85 FF 75 3D BF 01 00 00 00 8B EF EB 1D 53 FF ...u=.........S.
006EC3B0 15 08 47 8A 00 83 C4 04 85 C0 74 0D 85 FF 74 22 ..G.......t...t"
006EC3C0 BF 01 00 00 00 8B EF EB 02 33 FF 83 C6 01 3B 74 .........3....;t
006EC3D0 24 14 72 BC 55 E8 86 8F FF FF 83 C4 04 5F 5D 5B $.r.U........_][
006EC3E0 5E C3 6A 00 E8 77 8F FF FF 83 C4 04 5F 5D 5B 5E ^.j..w......_][^
006EC3F0 C3 CC CC CC CC CC CC CC CC CC CC CC CC CC CC CC ................
006EC400 8B 44 24 04 8B 48 08 51 83 C0 14 50 68 10 CE 8C .D$..H.Q...Ph...
006EC410 00 E8 0A DE FF FF 83 C4 0C C3 CC CC CC CC CC CC ................
006EC420 A1 7C 6B A1 00 68 9C 4A 8D 00 50 E8 50 4B FF FF .|k..h.J..P.PK..
006EC430 83 C4 08 33 C0 C3 CC CC CC CC CC CC CC CC CC CC ...3............

;; fn006EC440: 006EC440
;;   Called from:
;;     006EC4CB (in fn006EC4C0)
;;     00708573 (in fn00708410)
fn006EC440 proc
	push	esi
	mov	esi,[esp+8h]
	mov	eax,[esi]
	test	eax,eax
	jz	6EC4BAh

l006EC44B:
	push	edi
	mov	edi,[esp+10h]
	test	edi,edi
	jz	6EC49Bh

l006EC454:
	mov	eax,[eax+4h]
	cmp	eax,0A1B450h
	jz	6EC470h

l006EC45E:
	push	0A1B450h
	push	eax
	call	6D5670h
	add	esp,8h
	test	eax,eax
	jz	6EC49Bh

l006EC470:
	mov	eax,[esi]
	push	edi
	push	eax
	call	6EA9D0h
	mov	edi,eax
	mov	eax,[esi]
	add	dword ptr [eax],0FFh
	mov	eax,[esi]
	add	esp,8h
	cmp	dword ptr [eax],0h
	jnz	6EC496h

l006EC48A:
	mov	ecx,[eax+4h]
	mov	edx,[ecx+18h]
	push	eax
	call	edx
	add	esp,4h

l006EC496:
	mov	[esi],edi
	pop	edi
	pop	esi
	ret

l006EC49B:
	mov	eax,[esi]
	add	dword ptr [eax],0FFh
	mov	eax,[esi]
	cmp	dword ptr [eax],0h
	jnz	6EC4B3h

l006EC4A7:
	mov	ecx,[eax+4h]
	mov	edx,[ecx+18h]
	push	eax
	call	edx
	add	esp,4h

l006EC4B3:
	mov	dword ptr [esi],0h
	pop	edi

l006EC4BA:
	pop	esi
	ret
006EC4BC                                     CC CC CC CC             ....

;; fn006EC4C0: 006EC4C0
;;   Called from:
;;     0073D74B (in fn0073D660)
fn006EC4C0 proc
	mov	eax,[esp+4h]
	push	esi
	mov	esi,[esp+0Ch]
	push	esi
	push	eax
	call	6EC440h
	add	esp,8h
	test	esi,esi
	jz	6EC4E8h

l006EC4D7:
	add	dword ptr [esi],0FFh
	jnz	6EC4E8h

l006EC4DC:
	mov	ecx,[esi+4h]
	mov	edx,[ecx+18h]
	push	esi
	call	edx
	add	esp,4h

l006EC4E8:
	pop	esi
	ret
006EC4EA                               CC CC CC CC CC CC           ......

;; fn006EC4F0: 006EC4F0
;;   Called from:
;;     006F1F6D (in fn006F1AA0)
;;     006F2454 (in fn006F2090)
;;     00708537 (in fn00708410)
;;     00718B24 (in fn007189B0)
;;     0071A26A (in fn0071A060)
;;     0071A33B (in fn0071A060)
;;     0071A3D8 (in fn0071A060)
;;     0071AA56 (in fn0071A9F0)
;;     0072874D (in fn007286D0)
;;     007287F3 (in fn007286D0)
;;     00728861 (in fn007286D0)
;;     00728941 (in fn007288B0)
;;     0072A48E (in fn0072A350)
;;     0072A4A4 (in fn0072A350)
;;     0073565D (in fn00735640)
fn006EC4F0 proc
	push	ebx
	mov	ebx,[esp+8h]
	push	esi
	mov	esi,[ebx]
	mov	eax,[esi+4h]
	cmp	eax,0A1B450h
	push	edi
	jz	6EC515h

l006EC503:
	push	0A1B450h
	push	eax
	call	6D5670h
	add	esp,8h
	test	eax,eax
	jz	6EC56Dh

l006EC515:
	cmp	dword ptr [esi],1h
	jnz	6EC56Dh

l006EC51A:
	mov	edi,[esp+14h]
	test	edi,edi
	jl	6EC56Dh

l006EC522:
	cmp	dword ptr [esi+10h],0h
	jnz	6EC56Dh

l006EC528:
	lea	eax,[edi+18h]
	push	eax
	push	esi
	call	723B60h
	add	esp,8h
	test	eax,eax
	mov	[ebx],eax
	jnz	6EC550h

l006EC53B:
	push	esi
	call	7239C0h
	add	esp,4h
	call	6E1210h
	pop	edi
	pop	esi
	or	eax,0FFh
	pop	ebx
	ret

l006EC550:
	mov	dword ptr [eax],1h
	mov	eax,[ebx]
	mov	[eax+8h],edi
	mov	byte ptr [eax+edi+14h],0h
	pop	edi
	pop	esi
	mov	dword ptr [eax+0Ch],0FFFFFFFFh
	xor	eax,eax
	pop	ebx
	ret

l006EC56D:
	mov	dword ptr [ebx],0h
	add	dword ptr [esi],0FFh
	jnz	6EC584h

l006EC578:
	mov	ecx,[esi+4h]
	mov	edx,[ecx+18h]
	push	esi
	call	edx
	add	esp,4h

l006EC584:
	push	100Dh
	push	8D487Ch
	call	6E1DC0h
	add	esp,8h
	pop	edi
	pop	esi
	or	eax,0FFh
	pop	ebx
	ret
006EC59D                                        CC CC CC              ...
006EC5A0 83 EC 20 A1 88 41 A1 00 33 C4 89 44 24 1C 8B 44 .. ..A..3..D$..D
006EC5B0 24 2C 53 55 8B 6C 24 2C 57 50 8B F9 8B DA E8 1D $,SU.l$,WP......
006EC5C0 2E 01 00 DD 54 24 10 D9 C0 83 C4 04 DD 05 F8 86 ....T$..........
006EC5D0 8A 00 D9 C9 DF E9 DD D8 9F F6 C4 44 7A 1F DD D8 ...........Dz...
006EC5E0 E8 DB 49 FF FF 85 C0 74 10 A1 7C 6B A1 00 68 48 ..I....t..|k..hH
006EC5F0 4B 8D 00 50 E9 C2 00 00 00 DD 44 24 0C 85 DB 7D K..P......D$...}
006EC600 05 BB 06 00 00 00 83 FF 66 75 1D D9 E1 DC 0D 40 ........fu.....@
006EC610 4B 8D 00 DD 05 38 4B 8D 00 D9 C9 DF F1 DD D8 72 K....8K........r
006EC620 1F BF 67 00 00 00 EB 0C 83 FF 67 DD D8 74 05 83 ..g.......g..t..
006EC630 FF 47 75 07 8D 4B 0A 3B E9 76 74 83 FF 66 75 07 .Gu..K.;.vt..fu.
006EC640 8D 53 35 3B EA 76 68 F6 44 24 34 08 B8 30 4B 8D .S5;.vh.D$4..0K.
006EC650 00 75 05 B8 8F 69 8A 00 57 53 50 68 24 4B 8D 00 .u...i..WSPh$K..
006EC660 8D 44 24 24 6A 14 50 E8 74 89 03 00 DD 44 24 24 .D$$j.P.t....D$$
006EC670 83 C4 10 DD 1C 24 8D 4C 24 1C 51 55 56 E8 FE 2B .....$.L$.QUV..+
006EC680 06 00 8B C6 83 C4 14 8D 50 01 8D 9B 00 00 00 00 ........P.......
006EC690 8A 08 83 C0 01 84 C9 75 F7 5F 5D 2B C2 5B 8B 4C .......u._]+.[.L
006EC6A0 24 1C 33 CC E8 E5 84 FA FF 83 C4 20 C2 0C 00 8B $.3........ ....
006EC6B0 15 98 85 A1 00 68 F0 4A 8D 00 52 E8 C0 48 FF FF .....h.J..R..H..
006EC6C0 8B 4C 24 30 83 C4 08 5F 5D 5B 33 CC 83 C8 FF E8 .L$0..._][3.....
006EC6D0 BA 84 FA FF 83 C4 20 C2 0C 00 CC CC CC CC CC CC ...... .........
006EC6E0 83 EC 44 A1 88 41 A1 00 33 C4 89 44 24 40 8B 44 ..D..A..3..D$@.D
006EC6F0 24 54 55 56 57 50 8B F9 E8 A3 8A 01 00 8B F0 83 $TUVWP..........
006EC700 C4 04 83 FE FF 75 19 E8 B4 48 FF FF 85 C0 74 14 .....u...H....t.
006EC710 A1 7C 6B A1 00 68 BC 4B 8D 00 50 E9 EC 00 00 00 .|k..h.K..P.....
006EC720 85 F6 7D 0A 83 FF 75 75 43 BF 64 00 00 00 BD 8F ..}...uuC.d.....
006EC730 69 8A 00 8B 4C 24 5C 85 C9 7D 0C C7 44 24 5C 01 i...L$\..}..D$\.
006EC740 00 00 00 8B 4C 24 5C 8B 44 24 58 83 E0 08 74 32 ....L$\.D$X...t2
006EC750 83 FF 78 74 05 83 FF 58 75 28 57 51 57 55 68 AC ..xt...Xu(WQWUh.
006EC760 4B 8D 00 6A 40 8D 4C 24 24 51 EB 34 83 FF 78 74 K..j@.L$$Q.4..xt
006EC770 0A 83 FF 58 74 05 83 FF 6F 75 B3 BD A8 4B 8D 00 ...Xt...ou...K..
006EC780 EB B1 85 C0 B8 30 4B 8D 00 75 05 B8 8F 69 8A 00 .....0K..u...i..
006EC790 57 51 50 55 68 98 4B 8D 00 6A 40 8D 54 24 24 52 WQPUh.K..j@.T$$R
006EC7A0 E8 3B 88 03 00 8B 44 24 70 83 C4 1C 83 F8 0E 76 .;....D$p......v
006EC7B0 4F 8B 4C 24 5C 83 C1 03 3B C1 76 44 80 7D 00 00 O.L$\...;.vD.}..
006EC7C0 74 0A F7 DE 56 8D 54 24 10 52 EB 06 56 8D 4C 24 t...V.T$.R..V.L$
006EC7D0 10 51 50 53 E8 07 88 03 00 8B C3 83 C4 10 8D 50 .QPS...........P
006EC7E0 01 8A 08 83 C0 01 84 C9 75 F7 5F 5E 2B C2 5D 8B ........u._^+.].
006EC7F0 4C 24 40 33 CC E8 94 83 FA FF 83 C4 44 C2 10 00 L$@3........D...
006EC800 8B 15 98 85 A1 00 68 60 4B 8D 00 52 E8 6F 47 FF ......h`K..R.oG.
006EC810 FF 8B 4C 24 54 83 C4 08 5F 5E 5D 33 CC 83 C8 FF ..L$T..._^]3....
006EC820 E8 69 83 FA FF 83 C4 44 C2 10 00 CC CC CC CC CC .i.....D........
006EC830 8B 46 04 3D 50 B4 A1 00 74 29 68 50 B4 A1 00 50 .F.=P...t)hP...P
006EC840 E8 2B 8E FE FF 83 C4 08 85 C0 75 17 57 68 F0 4B .+........u.Wh.K
006EC850 8D 00 56 E8 F8 B3 FF FF 83 C4 0C 85 C0 75 1B 83 ..V..........u..
006EC860 C8 FF C3 57 68 D4 4B 8D 00 56 E8 E1 B3 FF FF 83 ...Wh.K..V......
006EC870 C4 0C 85 C0 75 04 83 C8 FF C3 C6 47 01 00 B8 01 ....u......G....
006EC880 00 00 00 C3 CC CC CC CC CC CC CC CC CC CC CC CC ................

;; fn006EC890: 006EC890
;;   Called from:
;;     006DE4C9 (in fn006DE430)
;;     006ECA66 (in fn006EC9B0)
;;     006ECA93 (in fn006EC9B0)
;;     006ECBAB (in fn006ECAC0)
;;     006ECBD5 (in fn006ECAC0)
;;     006F1A8B (in fn006F1A70)
;;     006F1BC6 (in fn006F1AA0)
;;     006F2109 (in fn006F2090)
;;     006FD90F (in fn006FD8F0)
;;     00734B8D (in fn00734B60)
;;     00734DC5 (in fn00734BB0)
;;     00736C68 (in fn007367D0)
;;     0073CAAA (in fn0073C870)
;;     0074EB65 (in fn0074EB10)
fn006EC890 proc
	push	ebx
	mov	ebx,[esp+8h]
	push	esi
	mov	esi,[ebx]
	test	esi,esi
	jz	6EC8B8h

l006EC89C:
	mov	eax,[esi+4h]
	cmp	eax,0A1B450h
	jz	6EC8C5h

l006EC8A6:
	push	0A1B450h
	push	eax
	call	6D5670h
	add	esp,8h
	test	eax,eax
	jnz	6EC8C5h

l006EC8B8:
	push	8D4C0Ch
	call	6E86F0h
	add	esp,4h

l006EC8C5:
	cmp	dword ptr [esi+4h],0A1B450h
	jnz	6EC94Bh

l006EC8CE:
	cmp	dword ptr [esi+10h],0h
	jnz	6EC94Bh

l006EC8D4:
	mov	eax,[0A6C638h]
	test	eax,eax
	jnz	6EC8F2h

l006EC8DD:
	call	6FDCC0h
	test	eax,eax
	mov	[0A6C638h],eax
	jnz	6EC8F2h

l006EC8EB:
	pop	esi
	pop	ebx
	jmp	6E1160h

l006EC8F2:
	push	edi
	push	esi
	push	eax
	call	6FBCC0h
	mov	edi,eax
	add	esp,8h
	test	edi,edi
	jz	6EC924h

l006EC903:
	add	dword ptr [edi],1h
	mov	eax,[ebx]
	add	dword ptr [eax],0FFh
	mov	eax,[ebx]
	cmp	dword ptr [eax],0h
	jnz	6EC91Eh

l006EC912:
	mov	ecx,[eax+4h]
	mov	edx,[ecx+18h]
	push	eax
	call	edx
	add	esp,4h

l006EC91E:
	mov	[ebx],edi
	pop	edi
	pop	esi
	pop	ebx
	ret

l006EC924:
	mov	eax,[0A6C638h]
	push	esi
	push	esi
	push	eax
	call	6FBD90h
	add	esp,0Ch
	test	eax,eax
	jge	6EC940h

l006EC938:
	pop	edi
	pop	esi
	pop	ebx
	jmp	6E1160h

l006EC940:
	add	dword ptr [esi],0FEh
	mov	dword ptr [esi+10h],1h
	pop	edi

l006EC94B:
	pop	esi
	pop	ebx
	ret
006EC94E                                           CC CC               ..

;; fn006EC950: 006EC950
;;   Called from:
;;     006E89A8 (in fn006E8910)
fn006EC950 proc
	push	esi
	mov	esi,0A6C640h

l006EC956:
	mov	eax,[esi]
	test	eax,eax
	jz	6EC972h

l006EC95C:
	add	dword ptr [eax],0FFh
	mov	eax,[esi]
	cmp	dword ptr [eax],0h
	jnz	6EC972h

l006EC966:
	mov	ecx,[eax+4h]
	mov	edx,[ecx+18h]
	push	eax
	call	edx
	add	esp,4h

l006EC972:
	mov	dword ptr [esi],0h
	add	esi,4h
	cmp	esi,0A6CA40h
	jl	6EC956h

l006EC983:
	mov	eax,[0A6C63Ch]
	test	eax,eax
	pop	esi
	jz	6EC99Eh

l006EC98D:
	add	dword ptr [eax],0FFh
	jnz	6EC99Eh

l006EC992:
	mov	ecx,[eax+4h]
	mov	edx,[ecx+18h]
	push	eax
	call	edx
	add	esp,4h

l006EC99E:
	mov	dword ptr [0A6C63Ch],0h
	ret
006EC9A9                            CC CC CC CC CC CC CC          .......

;; fn006EC9B0: 006EC9B0
;;   Called from:
;;     006E9DFF (in fn006E9BD0)
;;     006E9E6C (in fn006E9BD0)
;;     00712524 (in fn007120F0)
;;     00718A14 (in fn007189B0)
;;     00718B08 (in fn007189B0)
;;     0071A0B8 (in fn0071A060)
;;     0071AA33 (in fn0071A9F0)
;;     00726214 (in fn00726150)
;;     00726FFF (in fn00726930)
;;     00728674 (in fn00728650)
;;     00728686 (in fn00728650)
;;     0072A784 (in fn0072A740)
;;     0072AA5E (in fn0072A940)
;;     00736C0F (in fn007367D0)
;;     0073CA32 (in fn0073C870)
;;     0073D2E9 (in fn0073D2A0)
;;     0073D632 (in fn0073D450)
;;     00748495 (in fn00748470)
;;     0074E0E9 (in fn0074E0B0)
;;     0075349B (in fn007533F0)
fn006EC9B0 proc
	push	ebx
	mov	ebx,[esp+8h]
	push	edi
	mov	edi,[esp+10h]
	test	edi,edi
	jnz	6EC9CDh

l006EC9BE:
	mov	eax,[0A6C63Ch]
	test	eax,eax
	jz	6EC9E9h

l006EC9C7:
	add	dword ptr [eax],1h
	pop	edi
	pop	ebx
	ret

l006EC9CD:
	cmp	edi,1h
	jnz	6EC9E9h

l006EC9D2:
	test	ebx,ebx
	jz	6EC9E9h

l006EC9D6:
	movzx	eax,byte ptr [ebx]
	mov	eax,[0A6C640h+eax*4]
	test	eax,eax
	jz	6EC9E9h

l006EC9E4:
	add	[eax],edi
	pop	edi
	pop	ebx
	ret

l006EC9E9:
	lea	ecx,[edi+18h]
	push	esi
	push	ecx
	call	723860h
	mov	esi,eax
	add	esp,4h
	test	esi,esi
	jnz	6ECA04h

l006EC9FC:
	pop	esi
	pop	edi
	pop	ebx
	jmp	6E1210h

l006ECA04:
	test	ebx,ebx
	mov	[esi+8h],edi
	mov	dword ptr [esi+4h],0A1B450h
	mov	dword ptr [esi],1h
	mov	dword ptr [esi+0Ch],0FFFFFFFFh
	mov	dword ptr [esi+10h],0h
	jz	6ECA54h

l006ECA26:
	cmp	edi,10h
	lea	eax,[esi+14h]
	jc	6ECA3Bh

l006ECA2E:
	push	edi
	push	ebx
	push	eax
	call	695030h
	add	esp,0Ch
	jmp	6ECA54h

l006ECA3B:
	test	edi,edi
	jbe	6ECA54h

l006ECA3F:
	mov	ecx,ebx
	push	ebp
	sub	ecx,eax
	mov	ebp,edi

l006ECA46:
	mov	dl,[ecx+eax]
	mov	[eax],dl
	add	eax,1h
	sub	ebp,1h
	jnz	6ECA46h

l006ECA53:
	pop	ebp

l006ECA54:
	test	edi,edi
	mov	byte ptr [esi+edi+14h],0h
	jnz	6ECA81h

l006ECA5D:
	lea	eax,[esp+14h]
	push	eax
	mov	[esp+18h],esi
	call	6EC890h
	mov	esi,[esp+18h]
	add	esp,4h
	add	dword ptr [esi],1h
	mov	[0A6C63Ch],esi
	mov	eax,esi
	pop	esi
	pop	edi
	pop	ebx
	ret

l006ECA81:
	cmp	edi,1h
	jnz	6ECAABh

l006ECA86:
	test	ebx,ebx
	jz	6ECAABh

l006ECA8A:
	lea	ecx,[esp+14h]
	push	ecx
	mov	[esp+18h],esi
	call	6EC890h
	movzx	edx,byte ptr [ebx]
	mov	esi,[esp+18h]
	mov	[0A6C640h+edx*4],esi
	add	esp,4h
	add	[esi],edi

l006ECAAB:
	mov	eax,esi
	pop	esi
	pop	edi
	pop	ebx
	ret
006ECAB1    CC CC CC CC CC CC CC CC CC CC CC CC CC CC CC  ...............

;; fn006ECAC0: 006ECAC0
;;   Called from:
;;     006DDDE8 (in fn006DDDB0)
;;     006DDEC0 (in fn006DDEB0)
;;     006E0F86 (in fn006E0F80)
;;     006E11DD (in fn006E11D0)
;;     006E152B (in fn006E1520)
;;     006E1B74 (in fn006E1AB0)
;;     006E1E7D (in fn006E1DE0)
;;     006E390B (in fn006E3900)
;;     006EA085 (in fn006EA080)
;;     006F1A76 (in fn006F1A70)
;;     006F27EA (in fn006F2790)
;;     006F650B (in fn006F6490)
;;     006F89C4 (in fn006F8960)
;;     006F92B6 (in fn006F92B0)
;;     006FD8B6 (in fn006FD8B0)
;;     006FD8F6 (in fn006FD8F0)
;;     006FD956 (in fn006FD950)
;;     006FDCD0 (in fn006FDCC0)
;;     006FE886 (in fn006FE400)
;;     00703B6E (in fn00703B60)
;;     00703D11 (in fn00703D00)
;;     0071719C (in fn00717180)
;;     00727322 (in fn007272E0)
;;     00728CA5 (in fn00728BE0)
;;     0072B2AE (in fn0072B360)
;;     0072D853 (in fn0072D830)
;;     0072E682 (in fn0072E660)
;;     00731D85 (in fn00731D30)
;;     00738BC6 (in fn00738BB0)
;;     0074E165 (in fn0074E140)
fn006ECAC0 proc
	push	ecx
	push	ebx
	mov	ebx,[esp+0Ch]
	mov	eax,ebx
	push	edi
	lea	edx,[eax+1h]
	lea	esp,[esp+0h]

l006ECAD0:
	mov	cl,[eax]
	add	eax,1h
	test	cl,cl
	jnz	6ECAD0h

l006ECAD9:
	sub	eax,edx
	mov	edi,eax
	cmp	edi,7FFFFFFFh
	jbe	6ECAFEh

l006ECAE5:
	mov	eax,[0A18598h]
	push	8D4C3Ch
	push	eax
	call	6E0F80h
	add	esp,8h
	pop	edi
	xor	eax,eax
	pop	ebx
	pop	ecx
	ret

l006ECAFE:
	test	edi,edi
	jnz	6ECB12h

l006ECB02:
	mov	eax,[0A6C63Ch]
	test	eax,eax
	jz	6ECB2Bh

l006ECB0B:
	add	dword ptr [eax],1h
	pop	edi
	pop	ebx
	pop	ecx
	ret

l006ECB12:
	cmp	edi,1h
	jnz	6ECB2Bh

l006ECB17:
	movzx	ecx,byte ptr [ebx]
	mov	eax,[0A6C640h+ecx*4]
	test	eax,eax
	jz	6ECB2Bh

l006ECB25:
	add	[eax],edi
	pop	edi
	pop	ebx
	pop	ecx
	ret

l006ECB2B:
	lea	edx,[edi+18h]
	push	esi
	push	edx
	call	723860h
	mov	esi,eax
	add	esp,4h
	test	esi,esi
	jnz	6ECB49h

l006ECB3E:
	pop	esi
	pop	edi
	pop	ebx
	add	esp,4h
	jmp	6E1210h

l006ECB49:
	lea	ecx,[edi+1h]
	cmp	ecx,10h
	mov	[esi+8h],edi
	mov	dword ptr [esi+4h],0A1B450h
	mov	dword ptr [esi],1h
	mov	dword ptr [esi+0Ch],0FFFFFFFFh
	mov	dword ptr [esi+10h],0h
	lea	eax,[esi+14h]
	jc	6ECB7Fh

l006ECB72:
	push	ecx
	push	ebx
	push	eax
	call	695030h
	add	esp,0Ch
	jmp	6ECB9Eh

l006ECB7F:
	test	ecx,ecx
	jbe	6ECB9Eh

l006ECB83:
	mov	edx,ebx
	push	ebp
	sub	edx,eax
	mov	ebp,ecx
	lea	ebx,[ebx+0h]

l006ECB90:
	mov	cl,[edx+eax]
	mov	[eax],cl
	add	eax,1h
	sub	ebp,1h
	jnz	6ECB90h

l006ECB9D:
	pop	ebp

l006ECB9E:
	test	edi,edi
	jnz	6ECBC7h

l006ECBA2:
	lea	edx,[esp+0Ch]
	push	edx
	mov	[esp+10h],esi
	call	6EC890h
	mov	esi,[esp+10h]
	add	esp,4h
	add	dword ptr [esi],1h
	mov	[0A6C63Ch],esi
	mov	eax,esi
	pop	esi
	pop	edi
	pop	ebx
	pop	ecx
	ret

l006ECBC7:
	cmp	edi,1h
	jnz	6ECBEDh

l006ECBCC:
	lea	eax,[esp+0Ch]
	push	eax
	mov	[esp+10h],esi
	call	6EC890h
	movzx	ecx,byte ptr [ebx]
	mov	esi,[esp+10h]
	mov	[0A6C640h+ecx*4],esi
	add	esp,4h
	add	[esi],edi

l006ECBED:
	mov	eax,esi
	pop	esi
	pop	edi
	pop	ebx
	pop	ecx
	ret
006ECBF4             CC CC CC CC CC CC CC CC CC CC CC CC     ............

;; fn006ECC00: 006ECC00
;;   Called from:
;;     006E61B4 (in fn006E5C60)
;;     006E63E6 (in fn006E5C60)
;;     006E6667 (in fn006E5C60)
;;     006E66A5 (in fn006E5C60)
;;     006F7A2E (in fn006F7890)
;;     0071AA4A (in fn0071A9F0)
;;     00726979 (in fn00726930)
;;     0073555A (in fn00735550)
;;     0073564E (in fn00735640)
;;     0073D37E (in fn0073D2A0)
;;     00755052 (in fn00755020)
;;     007550C6 (in fn00755020)
fn006ECC00 proc
	push	ecx
	push	esi
	mov	esi,[esp+0Ch]
	mov	eax,[esi+4h]
	cmp	eax,0A1B450h
	jz	6ECC46h

l006ECC10:
	push	0A1B450h
	push	eax
	call	6D5670h
	add	esp,8h
	test	eax,eax
	jnz	6ECC46h

l006ECC22:
	lea	eax,[esp+0Ch]
	push	eax
	lea	ecx,[esp+8h]
	push	ecx
	push	esi
	call	6EA420h
	add	esp,0Ch
	test	eax,eax
	jz	6ECC3Fh

l006ECC39:
	or	eax,0FFh
	pop	esi
	pop	ecx
	ret

l006ECC3F:
	mov	eax,[esp+0Ch]
	pop	esi
	pop	ecx
	ret

l006ECC46:
	mov	eax,[esi+8h]
	pop	esi
	pop	ecx
	ret
006ECC4C                                     CC CC CC CC             ....

;; fn006ECC50: 006ECC50
;;   Called from:
;;     006565D6 (in fn00656570)
;;     00657232 (in fn00657140)
;;     006E187E (in fn006E1780)
;;     006E7E00 (in fn006E7D90)
;;     006E7F18 (in fn006E7D90)
;;     006E82C8 (in fn006E8060)
;;     006E856B (in fn006E8430)
;;     006F2132 (in fn006F2090)
;;     006F7A9A (in fn006F7890)
;;     006FE695 (in fn006FE400)
;;     006FE7D2 (in fn006FE400)
;;     0070777A (in fn00707750)
;;     0070779C (in fn00707750)
;;     007077B3 (in fn00707750)
;;     007079F3 (in fn00707950)
;;     007081E5 (in fn007081C0)
;;     007083E5 (in fn007083E0)
;;     0070B696 (in fn0070B600)
;;     0070B751 (in fn0070B600)
;;     0070B97B (in fn0070B600)
;;     0070B988 (in fn0070B600)
;;     0070B9AB (in fn0070B600)
;;     0070B9B8 (in fn0070B600)
;;     0070B9DE (in fn0070B600)
;;     0070BA40 (in fn0070B600)
;;     0070BFEC (in fn0070BCC0)
;;     007172E2 (in fn00717280)
;;     00717409 (in fn007173A0)
;;     007174B9 (in fn007173A0)
;;     00726158 (in fn00726150)
;;     007261AB (in fn00726150)
;;     00726B00 (in fn00726930)
;;     0072F95F (in fn0072F830)
;;     0072FB62 (in fn0072FB30)
;;     0072FB79 (in fn0072FB30)
;;     0073556A (in fn00735550)
;;     0073D2FE (in fn0073D2A0)
;;     0073D376 (in fn0073D2A0)
;;     007481D5 (in fn00748190)
;;     00752B66 (in fn00752B30)
;;     00753482 (in fn007533F0)
;;     00753872 (in fn007537F0)
;;     007539AE (in fn007537F0)
;;     00753AE3 (in fn00753A60)
;;     0075505A (in fn00755020)
fn006ECC50 proc
	push	ecx
	push	esi
	mov	esi,[esp+0Ch]
	mov	eax,[esi+4h]
	cmp	eax,0A1B450h
	jz	6ECC92h

l006ECC60:
	push	0A1B450h
	push	eax
	call	6D5670h
	add	esp,8h
	test	eax,eax
	jnz	6ECC92h

l006ECC72:
	lea	eax,[esp+4h]
	push	eax
	lea	ecx,[esp+10h]
	push	ecx
	push	esi
	call	6EA420h
	add	esp,0Ch
	neg	eax
	sbb	eax,eax
	not	eax
	and	eax,[esp+0Ch]
	pop	esi
	pop	ecx
	ret

l006ECC92:
	lea	eax,[esi+14h]
	pop	esi
	pop	ecx
	ret
006ECC98                         CC CC CC CC CC CC CC CC         ........
006ECCA0 53 55 8B 6C 24 1C 85 ED 8B D8 75 1A A1 2C 7E A1 SU.l$.....u..,~.
006ECCB0 00 68 64 4C 8D 00 50 E8 C4 42 FF FF 83 C4 08 5D .hdL..P..B.....]
006ECCC0 33 C0 5B C2 14 00 56 6A 03 E8 52 30 FF FF 8B F0 3.[...Vj..R0....
006ECCD0 83 C4 04 85 F6 75 06 5E 5D 5B C2 14 00 8B 4C 24 .....u.^][....L$
006ECCE0 1C 8B 54 24 14 57 6A 01 55 51 52 8B D3 E8 0E D8 ..T$.Wj.UQR.....
006ECCF0 FF FF 8B F8 85 FF 7D 24 8B 44 24 14 83 00 01 89 ......}$.D$.....
006ECD00 46 0C A1 3C C6 A6 00 83 00 01 89 46 10 83 00 01 F..<.......F....
006ECD10 89 46 14 5F 8B C6 5E 5D 5B C2 14 00 8B 44 24 18 .F._..^][....D$.
006ECD20 57 50 E8 89 FC FF FF 8B 4C 24 20 03 FD 89 46 0C WP......L$ ...F.
006ECD30 8B 44 24 24 83 00 01 2B DF 03 F9 53 57 89 46 10 .D$$...+...SW.F.
006ECD40 E8 6B FC FF FF 83 C4 10 89 46 14 E8 70 42 FF FF .k.......F..pB..
006ECD50 85 C0 74 BF 83 06 FF 75 0C 8B 56 04 8B 42 18 56 ..t....u..V..B.V
006ECD60 FF D0 83 C4 04 5F 5E 5D 33 C0 5B C2 14 00 CC CC ....._^]3.[.....
006ECD70 51 85 DB 75 19 A1 2C 7E A1 00 68 64 4C 8D 00 50 Q..u..,~..hdL..P
006ECD80 E8 FB 41 FF FF 83 C4 08 33 C0 59 C2 14 00 56 6A ..A.....3.Y...Vj
006ECD90 03 E8 8A 2F FF FF 8B F0 83 C4 04 85 F6 89 74 24 .../..........t$
006ECDA0 04 75 05 5E 59 C2 14 00 55 57 8B 7C 24 1C 2B FB .u.^Y...UW.|$.+.
006ECDB0 0F 88 A3 00 00 00 8B 54 24 18 8B 4C 24 24 03 D7 .......T$..L$$..
006ECDC0 83 FB 04 8B C3 72 14 8B 2A 3B 29 75 12 83 E8 04 .....r..*;)u....
006ECDD0 83 C1 04 83 C2 04 83 F8 04 73 EC 85 C0 74 65 0F .........s...te.
006ECDE0 B6 32 0F B6 29 2B F5 75 45 83 E8 01 83 C1 01 83 .2..)+.uE.......
006ECDF0 C2 01 85 C0 74 4A 0F B6 32 0F B6 29 2B F5 75 2E ....tJ..2..)+.u.
006ECE00 83 E8 01 83 C1 01 83 C2 01 85 C0 74 33 0F B6 32 ...........t3..2
006ECE10 0F B6 29 2B F5 75 17 83 E8 01 83 C1 01 83 C2 01 ..)+.u..........
006ECE20 85 C0 74 1C 0F B6 32 0F B6 01 2B F0 74 12 85 F6 ..t...2...+.t...
006ECE30 8B 74 24 0C B8 01 00 00 00 7F 0B 83 C8 FF EB 06 .t$.............
006ECE40 8B 74 24 0C 33 C0 85 C0 74 0B 83 EF 01 0F 89 63 .t$.3...t......c
006ECE50 FF FF FF EB 04 85 FF 7D 24 A1 3C C6 A6 00 83 00 .......}$.<.....
006ECE60 01 89 46 0C 83 00 01 89 46 10 8B 44 24 14 83 00 ..F.....F..D$...
006ECE70 01 89 46 14 5F 5D 8B C6 5E 59 C2 14 00 8B 6C 24 ..F._]..^Y....l$
006ECE80 18 57 55 E8 28 FB FF FF 8B 4C 24 24 89 46 0C 8B .WU.(....L$$.F..
006ECE90 44 24 28 83 00 01 89 46 10 8D 04 1F 2B C8 51 03 D$(....F....+.Q.
006ECEA0 C5 50 E8 09 FB FF FF 83 C4 10 89 46 14 E8 0E 41 .P.........F...A
006ECEB0 FF FF 85 C0 74 BE 83 06 FF 75 0C 8B 4E 04 8B 51 ....t....u..N..Q
006ECEC0 18 56 FF D2 83 C4 04 5F 5D 33 C0 5E 59 C2 14 00 .V....._]3.^Y...
006ECED0 51 55 8B 6C 24 0C 8B 45 08 56 8D 34 85 02 00 00 QU.l$..E.V.4....
006ECEE0 00 81 FE FF FF FF 7F 0F 87 6B 01 00 00 8B CE C1 .........k......
006ECEF0 E9 02 3B C8 0F 85 5E 01 00 00 85 F6 75 09 A1 3C ..;...^.....u..<
006ECF00 C6 A6 00 85 C0 75 58 8D 56 18 52 E8 50 69 03 00 .....uX.V.R.Pi..
006ECF10 83 C4 04 85 C0 75 07 E8 F4 42 FF FF EB 44 85 F6 .....u...B...D..
006ECF20 89 70 08 C7 40 04 50 B4 A1 00 C7 00 01 00 00 00 .p..@.P.........
006ECF30 C7 40 0C FF FF FF FF C7 40 10 00 00 00 00 C6 44 .@......@......D
006ECF40 30 14 00 75 1D 89 44 24 10 8D 44 24 10 50 E8 3D 0..u..D$..D$.P.=
006ECF50 F9 FF FF 8B 44 24 14 83 C4 04 A3 3C C6 A6 00 83 ....D$.....<....
006ECF60 00 01 85 C0 89 44 24 10 89 44 24 08 0F 84 FA 00 .....D$..D$.....
006ECF70 00 00 83 7C 24 14 00 53 57 BB 27 00 00 00 74 2D ...|$..SW.'...t-
006ECF80 8B 4D 08 8B 3D FC 46 8A 00 51 8D 75 14 53 56 FF .M..=.F..Q.u.SV.
006ECF90 D7 83 C4 0C 85 C0 74 15 8B 55 08 52 6A 22 56 FF ......t..U.Rj"V.
006ECFA0 D7 83 C4 0C 85 C0 75 05 BB 22 00 00 00 8B 74 24 ......u.."....t$
006ECFB0 18 83 C6 14 88 1E 33 FF 83 C6 01 39 7D 08 7E 71 ......3....9}.~q
006ECFC0 8A 44 2F 14 0F BE C8 3B CB 74 53 3C 5C 74 4F 3C .D/....;.tS<\tO<
006ECFD0 09 75 0B C6 06 5C 83 C6 01 C6 06 74 EB 48 3C 0A .u...\.....t.H<.
006ECFE0 75 0B C6 06 5C 83 C6 01 C6 06 6E EB 39 3C 0D 75 u...\.....n.9<.u
006ECFF0 0B C6 06 5C 83 C6 01 C6 06 72 EB 2A 8A D0 80 EA ...\.....r.*....
006ED000 20 80 FA 5E 76 1E 0F B6 C0 50 68 9C 48 8D 00 56  ..^v....Ph.H..V
006ED010 FF 15 50 46 8A 00 83 C4 0C 83 C6 04 EB 0B C6 06 ..PF............
006ED020 5C 83 C6 01 88 06 83 C6 01 83 C7 01 3B 7D 08 7C \...........;}.|
006ED030 8F 88 1E 83 C6 01 C6 06 00 2B 74 24 18 8D 4C 24 .........+t$..L$
006ED040 10 83 EE 14 56 51 E8 A5 F4 FF FF 8B 44 24 18 83 ....VQ......D$..
006ED050 C4 08 5F 5B 5E 5D 59 C3 8B 15 98 85 A1 00 68 74 .._[^]Y.......ht
006ED060 4C 8D 00 52 E8 17 3F FF FF 83 C4 08 5E 33 C0 5D L..R..?.....^3.]
006ED070 59 C3 CC CC CC CC CC CC CC CC CC CC CC CC CC CC Y...............
006ED080 8B 44 24 04 6A 01 50 E8 44 FE FF FF 83 C4 08 C3 .D$.j.P.D.......
006ED090 8B 44 24 04 81 78 04 50 B4 A1 00 75 04 83 00 01 .D$..x.P...u....
006ED0A0 C3 8B 48 08 51 83 C0 14 50 E8 02 F9 FF FF 83 C4 ..H.Q...P.......
006ED0B0 08 C3 CC CC CC CC CC CC CC CC CC CC CC CC CC CC ................
006ED0C0 8B 54 24 08 85 D2 7D 02 33 D2 8B 4C 24 0C 85 C9 .T$...}.3..L$...
006ED0D0 7D 02 33 C9 8B 44 24 04 56 8B 70 08 3B CE 0F 4F }.3..D$.V.p.;..O
006ED0E0 CE 85 D2 75 12 3B CE 75 0E 81 78 04 50 B4 A1 00 ...u.;.u..x.P...
006ED0F0 75 05 83 00 01 5E C3 3B CA 0F 4C CA 2B CA 51 8D u....^.;..L.+.Q.
006ED100 44 10 14 50 E8 A7 F8 FF FF 83 C4 08 5E C3 CC CC D..P........^...
006ED110 8B 44 24 08 85 C0 7C 7D 8B 4C 24 04 3B 41 08 7D .D$...|}.L$.;A.}
006ED120 74 53 8A 5C 01 14 56 0F B6 F3 8B 04 B5 40 C6 A6 tS.\..V......@..
006ED130 00 85 C0 75 5A 6A 19 E8 24 67 03 00 83 C4 04 85 ...uZj..$g......
006ED140 C0 75 07 5E 5B E9 C6 40 FF FF C7 40 08 01 00 00 .u.^[..@...@....
006ED150 00 C7 40 04 50 B4 A1 00 C7 00 01 00 00 00 C7 40 ..@.P..........@
006ED160 0C FF FF FF FF C7 40 10 00 00 00 00 88 58 14 C6 ......@......X..
006ED170 40 15 00 89 44 24 10 8D 44 24 10 50 E8 0F F7 FF @...D$..D$.P....
006ED180 FF 8B 44 24 14 83 C4 04 89 04 B5 40 C6 A6 00 83 ..D$.......@....
006ED190 00 01 5E 5B C3 8B 0D A4 7C A1 00 68 98 4C 8D 00 ..^[....|..h.L..
006ED1A0 51 E8 DA 3D FF FF 83 C4 08 33 C0 C3 CC CC CC CC Q..=.....3......
006ED1B0 8B 54 24 08 8B 4A 04 8B 41 30 83 EC 10 85 C0 56 .T$..J..A0.....V
006ED1C0 57 74 54 F7 41 54 00 00 02 00 74 4B 83 B8 98 00 WtT.AT....tK....
006ED1D0 00 00 00 74 42 A1 A4 7C A1 00 50 52 E8 4F 5A 01 ...tB..|..PR.OZ.
006ED1E0 00 8B 7C 24 24 8B F0 83 C4 08 83 FE FF 75 11 E8 ..|$$........u..
006ED1F0 CC 3D FF FF 85 C0 74 0C 5F 33 C0 5E 83 C4 10 C3 .=....t._3.^....
006ED200 85 F6 7D 03 03 77 08 56 57 E8 02 FF FF FF 83 C4 ..}..w.VW.......
006ED210 08 5F 5E 83 C4 10 C3 81 F9 30 5D A2 00 0F 85 FC ._^......0].....
006ED220 00 00 00 8B 74 24 1C 8D 4C 24 20 51 8D 44 24 14 ....t$..L$ Q.D$.
006ED230 50 8D 4C 24 1C 51 8B 4E 08 8D 44 24 18 50 51 52 P.L$.Q.N..D$.PQR
006ED240 E8 8B 20 04 00 83 C4 18 85 C0 0F 8C E2 00 00 00 .. .............
006ED250 83 7C 24 20 00 7F 60 A1 3C C6 A6 00 85 C0 75 4E .|$ ..`.<.....uN
006ED260 6A 18 E8 F9 65 03 00 83 C4 04 85 C0 74 64 8D 54 j...e.......td.T
006ED270 24 08 52 C7 40 08 00 00 00 00 C7 40 04 50 B4 A1 $.R.@......@.P..
006ED280 00 C7 00 01 00 00 00 C7 40 0C FF FF FF FF C7 40 ........@......@
006ED290 10 00 00 00 00 C6 40 14 00 89 44 24 0C E8 EE F5 ......@...D$....
006ED2A0 FF FF 8B 44 24 0C 83 C4 04 A3 3C C6 A6 00 83 00 ...D$.....<.....
006ED2B0 01 5F 5E 83 C4 10 C3 56 E8 93 F9 FF FF 8B F8 8B ._^....V........
006ED2C0 44 24 24 50 E8 07 1A FF FF 8B F0 83 C4 08 85 F6 D$$P............
006ED2D0 75 0B E8 39 3F FF FF 5F 5E 83 C4 10 C3 8B 54 24 u..9?.._^.....T$
006ED2E0 20 8B 44 24 0C 33 C9 85 D2 7E 1A EB 03 8D 49 00  .D$.3...~....I.
006ED2F0 8A 14 38 88 14 31 8B 54 24 20 03 44 24 10 83 C1 ..8..1.T$ .D$...
006ED300 01 3B CA 7C EB 52 56 E8 A4 F6 FF FF 56 8B F8 E8 .;.|.RV.....V...
006ED310 FC 19 FF FF 83 C4 0C 8B C7 5F 5E 83 C4 10 C3 A1 ........._^.....
006ED320 7C 6B A1 00 68 B4 4C 8D 00 50 E8 51 3C FF FF 83 |k..h.L..P.Q<...
006ED330 C4 08 5F 33 C0 5E 83 C4 10 C3 CC CC CC CC CC CC .._3.^..........
006ED340 51 53 55 8B 6C 24 10 56 8B D8 8B 44 24 18 33 F6 QSU.l$.V...D$.3.
006ED350 83 F8 0C 57 89 74 24 10 7C 07 B8 0C 00 00 00 EB ...W.t$.|.......
006ED360 03 83 C0 01 50 E8 E6 52 00 00 8B F8 83 C4 04 3B ....P..R.......;
006ED370 FE 89 7C 24 18 0F 84 4F 01 00 00 39 74 24 1C 0F ..|$...O...9t$..
006ED380 8E BE 00 00 00 83 6C 24 1C 01 3B F3 7D 1D 8B FF ......l$..;.}...
006ED390 0F B6 04 2E 50 FF 15 84 46 8A 00 83 C4 04 85 C0 ....P...F.......
006ED3A0 74 07 83 C6 01 3B F3 7C E7 3B F3 0F 84 92 00 00 t....;.|.;......
006ED3B0 00 8B FE 83 C6 01 3B F3 7D 1F 8D 9B 00 00 00 00 ......;.}.......
006ED3C0 0F B6 0C 2E 51 FF 15 84 46 8A 00 83 C4 04 85 C0 ....Q...F.......
006ED3D0 75 07 83 C6 01 3B F3 7C E7 8B D6 2B D7 52 03 FD u....;.|...+.R..
006ED3E0 57 E8 CA F5 FF FF 8B F8 83 C4 08 85 FF 0F 84 C2 W...............
006ED3F0 00 00 00 8B 44 24 10 83 F8 0C 7D 0C 8B 4C 24 18 ....D$....}..L$.
006ED400 8B 51 0C 89 3C 82 EB 27 8B 44 24 18 57 50 E8 FD .Q..<..'.D$.WP..
006ED410 55 00 00 83 C4 08 85 C0 0F 85 86 00 00 00 83 07 U...............
006ED420 FF 75 0C 8B 4F 04 8B 51 18 57 FF D2 83 C4 04 83 .u..O..Q.W......
006ED430 44 24 10 01 83 7C 24 1C 00 8B 7C 24 18 0F 8F 42 D$...|$...|$...B
006ED440 FF FF FF 3B F3 0F 8D CB 00 00 00 EB 03 8D 49 00 ...;..........I.
006ED450 0F B6 14 2E 52 FF 15 84 46 8A 00 83 C4 04 85 C0 ....R...F.......
006ED460 74 07 83 C6 01 3B F3 7C E7 3B F3 0F 84 A5 00 00 t....;.|.;......
006ED470 00 2B DE 53 03 F5 56 E8 34 F5 FF FF 8B F0 83 C4 .+.S..V.4.......
006ED480 08 85 F6 74 34 8B 5C 24 10 83 FB 0C 7D 46 8B 47 ...t4.\$....}F.G
006ED490 0C 89 34 98 83 C3 01 89 5F 08 8B C7 5F 5E 5D 5B ..4....._..._^][
006ED4A0 59 C2 08 00 83 07 FF 75 0C 8B 47 04 8B 48 18 57 Y......u..G..H.W
006ED4B0 FF D1 83 C4 04 8B 7C 24 18 83 07 FF 75 0C 8B 47 ......|$....u..G
006ED4C0 04 8B 48 18 57 FF D1 83 C4 04 5F 5E 5D 33 C0 5B ..H.W....._^]3.[
006ED4D0 59 C2 08 00 56 57 E8 35 55 00 00 83 C4 08 85 C0 Y...VW.5U.......
006ED4E0 74 13 83 06 FF 75 D2 8B 4E 04 8B 51 18 56 FF D2 t....u..N..Q.V..
006ED4F0 83 C4 04 EB C4 83 06 FF 75 0C 8B 56 04 8B 42 18 ........u..V..B.
006ED500 56 FF D0 83 C4 04 83 C3 01 89 5F 08 8B C7 5F 5E V........._..._^
006ED510 5D 5B 59 C2 08 00 8B 5C 24 10 89 5F 08 8B C7 5F ][Y....\$.._..._
006ED520 5E 5D 5B 59 C2 08 00 CC CC CC CC CC CC CC CC CC ^][Y............
006ED530 53 55 8B 6C 24 10 57 8B 7C 24 1C 33 DB 83 FF 0C SU.l$.W.|$.3....
006ED540 B8 0C 00 00 00 7D 03 8D 47 01 50 E8 00 51 00 00 .....}..G.P..Q..
006ED550 83 C4 04 85 C0 89 44 24 14 75 06 5F 5D 5B C2 10 ......D$.u._][..
006ED560 00 56 33 F6 33 C0 85 ED 7F 4A 3B C5 0F 8F 2D 01 .V3.3....J;...-.
006ED570 00 00 8B 4C 24 14 2B E8 03 C1 55 50 E8 2F F4 FF ...L$.+...UP./..
006ED580 FF 8B F0 83 C4 08 85 F6 0F 84 DF 00 00 00 83 FB ................
006ED590 0C 0F 8D B3 00 00 00 8B 54 24 18 8B 42 0C 89 34 ........T$..B..4
006ED5A0 98 5E 5F 83 C3 01 8B C2 5D 89 58 08 5B C2 10 00 .^_.....].X.[...
006ED5B0 8B 7C 24 20 8B CF 83 EF 01 85 C9 89 7C 24 20 7E .|$ ........|$ ~
006ED5C0 A9 3B F5 7D A5 8A 54 24 1C 8B 7C 24 14 38 14 3E .;.}..T$..|$.8.>
006ED5D0 74 09 83 C6 01 3B F5 7C EC EB 8F 8B CE 2B C8 51 t....;.|.....+.Q
006ED5E0 03 C7 50 E8 C8 F3 FF FF 8B F8 83 C4 08 85 FF 74 ..P............t
006ED5F0 7C 83 FB 0C 7D 0C 8B 54 24 18 8B 42 0C 89 3C 98 |...}..T$..B..<.
006ED600 EB 23 8B 4C 24 18 57 51 E8 03 54 00 00 83 C4 08 .#.L$.WQ..T.....
006ED610 85 C0 75 26 83 07 FF 75 0C 8B 57 04 8B 42 18 57 ..u&...u..W..B.W
006ED620 FF D0 83 C4 04 83 C6 01 83 C3 01 3B F5 8B C6 0F ...........;....
006ED630 8C 7B FF FF FF E9 30 FF FF FF 83 07 FF 75 2E 8B .{....0......u..
006ED640 4F 04 8B 51 18 57 FF D2 EB 20 8B 4C 24 18 56 51 O..Q.W... .L$.VQ
006ED650 E8 BB 53 00 00 83 C4 08 85 C0 74 2F 83 06 FF 75 ..S.......t/...u
006ED660 0C 8B 56 04 8B 42 18 56 FF D0 83 C4 04 8B 44 24 ..V..B.V......D$
006ED670 18 83 00 FF 75 0C 8B 48 04 8B 51 18 50 FF D2 83 ....u..H..Q.P...
006ED680 C4 04 5E 5F 5D 33 C0 5B C2 10 00 83 06 FF 75 0C ..^_]3.[......u.
006ED690 8B 46 04 8B 48 18 56 FF D1 83 C4 04 83 C3 01 8B .F..H.V.........
006ED6A0 44 24 18 5E 5F 5D 89 58 08 5B C2 10 00 CC CC CC D$.^_].X.[......
006ED6B0 83 EC 2C 8B 54 24 34 53 55 56 8B 74 24 3C 57 8B ..,.T$4SUV.t$<W.
006ED6C0 7E 08 8D 44 24 10 50 8D 4C 24 18 51 68 D4 4C 8D ~..D$.P.L$.Qh.L.
006ED6D0 00 33 ED 8D 5E 14 52 89 7C 24 38 C7 44 24 20 FF .3..^.R.|$8.D$ .
006ED6E0 FF FF FF 89 6C 24 40 89 5C 24 34 C7 44 24 24 B8 ....l$@.\$4.D$$.
006ED6F0 63 A1 00 E8 B8 A5 FF FF 83 C4 10 85 C0 0F 84 88 c...............
006ED700 00 00 00 8B 4C 24 10 3B CD 7D 09 B9 FF FF FF 7F ....L$.;.}......
006ED710 89 4C 24 10 8B 44 24 14 3D B8 63 A1 00 75 11 51 .L$..D$.=.c..u.Q
006ED720 53 8B C7 E8 18 FC FF FF 5F 5E 5D 5B 83 C4 2C C3 S......._^][..,.
006ED730 81 78 04 50 B4 A1 00 74 7B 8B 40 04 68 50 B4 A1 .x.P...t{.@.hP..
006ED740 00 50 E8 29 7F FE FF 83 C4 08 85 C0 8B 44 24 14 .P.).........D$.
006ED750 75 5E 81 78 04 20 3B A2 00 74 3E 8B 48 04 68 20 u^.x. ;..t>.H.h 
006ED760 3B A2 00 51 E8 07 7F FE FF 83 C4 08 85 C0 75 25 ;..Q..........u%
006ED770 8B 4C 24 14 8D 54 24 20 52 8D 44 24 20 50 51 E8 .L$..T$ R.D$ PQ.
006ED780 FC 40 01 00 83 C4 0C 85 C0 74 39 5F 5E 5D 33 C0 .@.......t9_^]3.
006ED790 5B 83 C4 2C C3 8B 44 24 14 8B 54 24 10 52 50 56 [..,..D$..T$.RPV
006ED7A0 E8 BB 45 03 00 83 C4 0C 5F 5E 5D 5B 83 C4 2C C3 ..E....._^][..,.
006ED7B0 8B 4C 24 10 8D 50 14 89 54 24 1C 8B 40 08 89 44 .L$..P..T$..@..D
006ED7C0 24 20 EB 08 8B 4C 24 10 8B 44 24 20 3B C5 75 1D $ ...L$..D$ ;.u.
006ED7D0 A1 2C 7E A1 00 68 64 4C 8D 00 50 E8 A0 37 FF FF .,~..hdL..P..7..
006ED7E0 83 C4 08 5F 5E 5D 33 C0 5B 83 C4 2C C3 83 F8 01 ..._^]3.[..,....
006ED7F0 75 18 51 8B 4C 24 20 0F B6 11 52 57 53 E8 2E FD u.Q.L$ ...RWS...
006ED800 FF FF 5F 5E 5D 5B 83 C4 2C C3 83 F9 0C B8 0C 00 .._^][..,.......
006ED810 00 00 7D 03 8D 41 01 50 E8 33 4E 00 00 83 C4 04 ..}..A.P.3N.....
006ED820 3B C5 89 44 24 18 0F 84 5F FF FF FF 8B 4C 24 28 ;..D$..._....L$(
006ED830 89 6C 24 2C 8B 6C 24 20 33 FF 3B E9 0F 8F 89 01 .l$,.l$ 3.;.....
006ED840 00 00 8B 44 24 10 8B D0 83 E8 01 85 D2 89 44 24 ...D$.........D$
006ED850 10 0F 8E 74 01 00 00 8D 04 2F 3B C1 0F 8F 5A 01 ...t...../;...Z.
006ED860 00 00 8B 74 24 1C 8A 0E 88 4C 24 40 8B CB 2B CD ...t$....L$@..+.
006ED870 89 44 24 34 89 4C 24 38 EB 06 8D 9B 00 00 00 00 .D$4.L$8........
006ED880 8A 54 24 40 38 14 01 0F 85 B2 00 00 00 8D 14 2F .T$@8........../
006ED890 8A 54 1A FF 3A 54 2E FF 0F 85 A1 00 00 00 8D 45 .T..:T.........E
006ED8A0 FE 83 F8 04 8D 4E 01 8D 54 1F 01 72 17 8D 49 00 .....N..T..r..I.
006ED8B0 8B 32 3B 31 75 12 83 E8 04 83 C1 04 83 C2 04 83 .2;1u...........
006ED8C0 F8 04 73 EC 85 C0 74 65 0F B6 32 0F B6 19 2B F3 ..s...te..2...+.
006ED8D0 75 45 83 E8 01 83 C1 01 83 C2 01 85 C0 74 4A 0F uE...........tJ.
006ED8E0 B6 32 0F B6 19 2B F3 75 2E 83 E8 01 83 C1 01 83 .2...+.u........
006ED8F0 C2 01 85 C0 74 33 0F B6 32 0F B6 19 2B F3 75 17 ....t3..2...+.u.
006ED900 83 E8 01 83 C1 01 83 C2 01 85 C0 74 1C 0F B6 32 ...........t...2
006ED910 0F B6 01 2B F0 74 12 85 F6 8B 5C 24 24 B8 01 00 ...+.t....\$$...
006ED920 00 00 7F 0B 83 C8 FF EB 06 8B 5C 24 24 33 C0 85 ..........\$$3..
006ED930 C0 74 22 8B 4C 24 38 8B 44 24 34 8B 74 24 1C 83 .t".L$8.D$4.t$..
006ED940 C0 01 83 C7 01 3B 44 24 28 89 44 24 34 0F 8E 2D .....;D$(.D$4..-
006ED950 FF FF FF EB 67 8B 44 24 2C 8B CF 2B C8 51 03 C3 ....g.D$,..+.Q..
006ED960 50 E8 4A F0 FF FF 8B F0 83 C4 08 85 F6 0F 84 C6 P.J.............
006ED970 00 00 00 8B 6C 24 30 83 FD 0C 7D 0C 8B 54 24 18 ....l$0...}..T$.
006ED980 8B 42 0C 89 34 A8 EB 23 8B 4C 24 18 56 51 E8 7D .B..4..#.L$.VQ.}
006ED990 50 00 00 83 C4 08 85 C0 75 6C 83 06 FF 75 0C 8B P.......ul...u..
006ED9A0 56 04 8B 42 18 56 FF D0 83 C4 04 83 C5 01 89 6C V..B.V.........l
006ED9B0 24 30 8B 6C 24 20 03 FD 89 7C 24 2C 8B 4C 24 28 $0.l$ ...|$,.L$(
006ED9C0 8D 14 2F 3B D1 0F 8E 77 FE FF FF 8B 44 24 2C 2B ../;...w....D$,+
006ED9D0 C8 51 03 C3 50 E8 D6 EF FF FF 8B F0 83 C4 08 85 .Q..P...........
006ED9E0 F6 74 56 8B 7C 24 30 83 FF 0C 7D 2A 8B 54 24 18 .tV.|$0...}*.T$.
006ED9F0 8B 42 0C 89 34 B8 83 C7 01 8B C2 89 78 08 5F 5E .B..4.......x._^
006EDA00 5D 5B 83 C4 2C C3 83 06 FF 75 2E 8B 46 04 8B 48 ][..,....u..F..H
006EDA10 18 56 FF D1 EB 20 8B 4C 24 18 56 51 E8 EF 4F 00 .V... .L$.VQ..O.
006EDA20 00 83 C4 08 85 C0 74 30 83 06 FF 75 0C 8B 56 04 ......t0...u..V.
006EDA30 8B 42 18 56 FF D0 83 C4 04 8B 44 24 18 83 00 FF .B.V......D$....
006EDA40 75 0C 8B 48 04 8B 51 18 50 FF D2 83 C4 04 5F 5E u..H..Q.P....._^
006EDA50 5D 33 C0 5B 83 C4 2C C3 83 06 FF 75 0C 8B 46 04 ]3.[..,....u..F.
006EDA60 8B 48 18 56 FF D1 83 C4 04 8B 44 24 18 83 C7 01 .H.V......D$....
006EDA70 89 78 08 5F 5E 5D 5B 83 C4 2C C3 CC CC CC CC CC .x._^][..,......
006EDA80 51 56 8B 74 24 10 8B 46 04 3D 50 B4 A1 00 74 5B QV.t$..F.=P...t[
006EDA90 68 50 B4 A1 00 50 E8 D5 7B FE FF 83 C4 08 85 C0 hP...P..{.......
006EDAA0 75 49 8B 46 04 3D 20 3B A2 00 74 2E 68 20 3B A2 uI.F.= ;..t.h ;.
006EDAB0 00 50 E8 B9 7B FE FF 83 C4 08 85 C0 75 1C 8D 44 .P..{.......u..D
006EDAC0 24 10 50 8D 4C 24 08 51 56 E8 B2 3D 01 00 83 C4 $.P.L$.QV..=....
006EDAD0 0C 85 C0 74 24 33 C0 5E 59 C3 8B 54 24 0C 56 52 ...t$3.^Y..T$.VR
006EDAE0 E8 0B 44 03 00 83 C4 08 5E 59 C3 8B 4E 08 8D 46 ..D.....^Y..N..F
006EDAF0 14 89 44 24 04 89 4C 24 10 8B 54 24 10 8B 44 24 ..D$..L$..T$..D$
006EDB00 04 52 50 8B 44 24 14 56 8D 48 14 51 50 8B 40 08 .RP.D$.V.H.QP.@.
006EDB10 E8 8B F1 FF FF 5E 59 C3 CC CC CC CC CC CC CC CC .....^Y.........
006EDB20 51 56 8B 74 24 10 8B 46 04 3D 50 B4 A1 00 74 5B QV.t$..F.=P...t[
006EDB30 68 50 B4 A1 00 50 E8 35 7B FE FF 83 C4 08 85 C0 hP...P.5{.......
006EDB40 75 49 8B 46 04 3D 20 3B A2 00 74 2E 68 20 3B A2 uI.F.= ;..t.h ;.
006EDB50 00 50 E8 19 7B FE FF 83 C4 08 85 C0 75 1C 8D 44 .P..{.......u..D
006EDB60 24 04 50 8D 4C 24 14 51 56 E8 12 3D 01 00 83 C4 $.P.L$.QV..=....
006EDB70 0C 85 C0 74 24 33 C0 5E 59 C3 8B 54 24 0C 56 52 ...t$3.^Y..T$.VR
006EDB80 E8 6B 43 03 00 83 C4 08 5E 59 C3 8B 4E 08 8D 46 .kC.....^Y..N..F
006EDB90 14 89 44 24 10 89 4C 24 04 8B 54 24 10 8B 44 24 ..D$..L$..T$..D$
006EDBA0 0C 8B 48 08 53 8B 5C 24 08 52 56 51 8D 50 14 52 ..H.S.\$.RVQ.P.R
006EDBB0 50 E8 BA F1 FF FF 5B 5E 59 C3 CC CC CC CC CC CC P.....[^Y.......
006EDBC0 83 EC 08 53 55 8B 6C 24 18 83 FD 0C 8B D8 57 C7 ...SU.l$......W.
006EDBD0 44 24 10 00 00 00 00 B8 0C 00 00 00 7D 03 8D 45 D$..........}..E
006EDBE0 01 50 E8 69 4A 00 00 8B F8 83 C4 04 85 FF 89 7C .P.iJ..........|
006EDBF0 24 0C 75 09 5F 5D 5B 83 C4 08 C2 08 00 56 8B 74 $.u._][......V.t
006EDC00 24 1C 83 C6 FF 85 ED 8B 2D 84 46 8A 00 0F 8E 04 $.......-.F.....
006EDC10 01 00 00 83 6C 24 20 01 85 F6 7C 17 8D 64 24 00 ....l$ ...|..d$.
006EDC20 0F B6 04 1E 50 FF D5 83 C4 04 85 C0 74 29 83 EE ....P.......t)..
006EDC30 01 79 ED 8B 5C 24 14 57 89 5F 08 E8 50 72 00 00 .y..\$.W._..Pr..
006EDC40 83 C4 04 85 C0 0F 8C AF 00 00 00 5E 8B C7 5F 5D ...........^.._]
006EDC50 5B 83 C4 08 C2 08 00 85 F6 7C D8 8B FE 83 EE 01 [........|......
006EDC60 78 13 0F B6 0C 1E 51 FF D5 83 C4 04 85 C0 75 05 x.....Q.......u.
006EDC70 83 EE 01 79 ED 2B FE 8D 54 1E 01 57 52 E8 2E ED ...y.+..T..WR...
006EDC80 FF FF 8B F8 83 C4 08 85 FF 74 6B 8B 44 24 14 83 .........tk.D$..
006EDC90 F8 0C 7D 1B 8B 4C 24 10 8B 51 0C 83 44 24 14 01 ..}..L$..Q..D$..
006EDCA0 83 7C 24 20 00 89 3C 82 8B F9 E9 5E FF FF FF 8B .|$ ..<....^....
006EDCB0 44 24 10 57 50 E8 56 4D 00 00 83 C4 08 85 C0 75 D$.WP.VM.......u
006EDCC0 24 83 07 FF 75 0C 8B 4F 04 8B 51 18 57 FF D2 83 $...u..O..Q.W...
006EDCD0 C4 04 83 44 24 14 01 8B 7C 24 10 83 7C 24 20 00 ...D$...|$..|$ .
006EDCE0 E9 28 FF FF FF 83 07 FF 75 0C 8B 47 04 8B 48 18 .(......u..G..H.
006EDCF0 57 FF D1 83 C4 04 8B 7C 24 10 83 07 FF 75 0C 8B W......|$....u..
006EDD00 57 04 8B 42 18 57 FF D0 83 C4 04 5E 5F 5D 33 C0 W..B.W.....^_]3.
006EDD10 5B 83 C4 08 C2 08 00 85 F6 0F 8C 14 FF FF FF 90 [...............
006EDD20 0F B6 14 1E 52 FF D5 83 C4 04 85 C0 74 0A 83 EE ....R.......t...
006EDD30 01 79 ED E9 FB FE FF FF 85 F6 0F 8C F3 FE FF FF .y..............
006EDD40 83 C6 01 56 53 E8 66 EC FF FF 8B F0 83 C4 08 85 ...VS.f.........
006EDD50 F6 74 A7 8B 5C 24 14 83 FB 0C 7D 0E 8B 47 0C 89 .t..\$....}..G..
006EDD60 34 98 83 C3 01 E9 CD FE FF FF 56 57 E8 9F 4C 00 4.........VW..L.
006EDD70 00 83 C4 08 85 C0 74 1A 83 06 FF 0F 85 79 FF FF ......t......y..
006EDD80 FF 8B 4E 04 8B 51 18 56 FF D2 83 C4 04 E9 68 FF ..N..Q.V......h.
006EDD90 FF FF 83 06 FF 75 0C 8B 46 04 8B 48 18 56 FF D1 .....u..F..H.V..
006EDDA0 83 C4 04 83 C3 01 E9 8C FE FF FF CC CC CC CC CC ................
006EDDB0 51 55 57 8B 7C 24 18 33 ED 83 FF 0C B8 0C 00 00 QUW.|$.3........
006EDDC0 00 7D 03 8D 47 01 50 E8 84 48 00 00 83 C4 04 85 .}..G.P..H......
006EDDD0 C0 89 44 24 08 75 06 5F 5D 59 C2 0C 00 8B 44 24 ..D$.u._]Y....D$
006EDDE0 10 83 C0 FF 56 8B F0 79 3C 83 F8 FF 0F 8C F9 00 ....V..y<.......
006EDDF0 00 00 83 C0 01 50 53 E8 B4 EB FF FF 8B F0 83 C4 .....PS.........
006EDE00 08 85 F6 0F 84 F6 00 00 00 83 FD 0C 0F 8D A0 00 ................
006EDE10 00 00 8B 54 24 0C 8B 42 0C 89 34 A8 E9 C7 00 00 ...T$..B..4.....
006EDE20 00 8B 7C 24 1C 8B CF 83 EF 01 85 C9 89 7C 24 1C ..|$.........|$.
006EDE30 7E B7 8A 54 24 18 38 14 1E 74 07 83 EE 01 79 F2 ~..T$.8..t....y.
006EDE40 EB A7 2B C6 50 8D 44 1E 01 50 E8 61 EB FF FF 8B ..+.P.D..P.a....
006EDE50 F8 83 C4 08 85 FF 0F 84 A3 00 00 00 83 FD 0C 7D ...............}
006EDE60 0C 8B 4C 24 0C 8B 51 0C 89 3C AA EB 23 8B 44 24 ..L$..Q..<..#.D$
006EDE70 0C 57 50 E8 98 4B 00 00 83 C4 08 85 C0 75 20 83 .WP..K.......u .
006EDE80 07 FF 75 0C 8B 4F 04 8B 51 18 57 FF D2 83 C4 04 ..u..O..Q.W.....
006EDE90 83 C5 01 83 EE 01 8B C6 79 87 E9 4A FF FF FF 83 ........y..J....
006EDEA0 07 FF 75 5B 8B 47 04 8B 48 18 57 FF D1 83 C4 04 ..u[.G..H.W.....
006EDEB0 EB 4D 8B 4C 24 0C 56 51 E8 53 4B 00 00 83 C4 08 .M.L$.VQ.SK.....
006EDEC0 85 C0 74 13 83 06 FF 75 36 8B 56 04 8B 42 18 56 ..t....u6.V..B.V
006EDED0 FF D0 83 C4 04 EB 28 83 06 FF 75 0C 8B 4E 04 8B ......(...u..N..
006EDEE0 51 18 56 FF D2 83 C4 04 83 C5 01 8B 44 24 0C 50 Q.V.........D$.P
006EDEF0 89 68 08 E8 98 6F 00 00 83 C4 04 85 C0 7D 1E 8B .h...o.......}..
006EDF00 44 24 0C 83 00 FF 75 0C 8B 48 04 8B 51 18 50 FF D$....u..H..Q.P.
006EDF10 D2 83 C4 04 5E 5F 33 C0 5D 59 C2 0C 00 8B 44 24 ....^_3.]Y....D$
006EDF20 0C 5E 5F 5D 59 C2 0C 00 CC CC CC CC CC CC CC CC .^_]Y...........
006EDF30 83 EC 20 8B 54 24 28 53 56 57 8B 7C 24 30 8B 77 .. .T$(SVW.|$0.w
006EDF40 08 8D 44 24 0C 50 8D 4C 24 18 51 68 E0 4C 8D 00 ..D$.P.L$.Qh.L..
006EDF50 8D 5F 14 52 C7 44 24 1C FF FF FF FF C7 44 24 38 ._.R.D$......D$8
006EDF60 00 00 00 00 89 5C 24 30 C7 44 24 24 B8 63 A1 00 .....\$0.D$$.c..
006EDF70 E8 3B 9D FF FF 83 C4 10 85 C0 0F 84 87 00 00 00 .;..............
006EDF80 8B 4C 24 0C 85 C9 7D 09 B9 FF FF FF 7F 89 4C 24 .L$...}.......L$
006EDF90 0C 8B 44 24 14 3D B8 63 A1 00 75 10 51 56 8B C3 ..D$.=.c..u.QV..
006EDFA0 E8 1B FC FF FF 5F 5E 5B 83 C4 20 C3 81 78 04 50 ....._^[.. ..x.P
006EDFB0 B4 A1 00 74 79 8B 40 04 68 50 B4 A1 00 50 E8 AD ...ty.@.hP...P..
006EDFC0 76 FE FF 83 C4 08 85 C0 8B 44 24 14 75 5C 81 78 v........D$.u\.x
006EDFD0 04 20 3B A2 00 74 3D 8B 48 04 68 20 3B A2 00 51 . ;..t=.H.h ;..Q
006EDFE0 E8 8B 76 FE FF 83 C4 08 85 C0 75 24 8B 4C 24 14 ..v.......u$.L$.
006EDFF0 8D 54 24 1C 52 8D 44 24 1C 50 51 E8 80 38 01 00 .T$.R.D$.PQ..8..
006EE000 83 C4 0C 85 C0 74 37 5F 5E 33 C0 5B 83 C4 20 C3 .....t7_^3.[.. .
006EE010 8B 44 24 14 8B 54 24 0C 52 50 57 E8 70 40 03 00 .D$..T$.RPW.p@..
006EE020 83 C4 0C 5F 5E 5B 83 C4 20 C3 8B 4C 24 0C 8D 50 ..._^[.. ..L$..P
006EE030 14 89 54 24 18 8B 40 08 89 44 24 1C EB 08 8B 4C ..T$..@..D$....L
006EE040 24 0C 8B 44 24 1C 85 C0 75 1C A1 2C 7E A1 00 68 $..D$...u..,~..h
006EE050 64 4C 8D 00 50 E8 26 2F FF FF 83 C4 08 5F 5E 33 dL..P.&/....._^3
006EE060 C0 5B 83 C4 20 C3 83 F8 01 75 16 51 8B 4C 24 1C .[.. ....u.Q.L$.
006EE070 0F B6 11 52 56 E8 36 FD FF FF 5F 5E 5B 83 C4 20 ...RV.6..._^[.. 
006EE080 C3 83 F9 0C B8 0C 00 00 00 7D 03 8D 41 01 50 E8 .........}..A.P.
006EE090 BC 45 00 00 83 C4 04 85 C0 89 44 24 10 0F 84 64 .E........D$...d
006EE0A0 FF FF FF 55 8B 6C 24 20 89 74 24 28 2B F5 8B FE ...U.l$ .t$(+...
006EE0B0 0F 88 5C 01 00 00 8B 44 24 10 8B C8 83 E8 01 85 ..\....D$.......
006EE0C0 C9 89 44 24 10 0F 8E 47 01 00 00 8B 4C 24 1C 8A ..D$...G....L$..
006EE0D0 11 88 54 24 34 EB 09 8D A4 24 00 00 00 00 8B FF ..T$4....$......
006EE0E0 8A 44 24 34 38 04 1F 0F 85 AA 00 00 00 8D 14 2F .D$48........../
006EE0F0 8A 44 1A FF 3A 44 29 FF 0F 85 99 00 00 00 8D 45 .D..:D)........E
006EE100 FE 83 C1 01 83 F8 04 8D 54 1F 01 72 17 8D 49 00 ........T..r..I.
006EE110 8B 32 3B 31 75 12 83 E8 04 83 C1 04 83 C2 04 83 .2;1u...........
006EE120 F8 04 73 EC 85 C0 74 65 0F B6 19 0F B6 32 2B F3 ..s...te.....2+.
006EE130 75 45 83 E8 01 83 C1 01 83 C2 01 85 C0 74 4A 0F uE...........tJ.
006EE140 B6 19 0F B6 32 2B F3 75 2E 83 E8 01 83 C1 01 83 ....2+.u........
006EE150 C2 01 85 C0 74 33 0F B6 19 0F B6 32 2B F3 75 17 ....t3.....2+.u.
006EE160 83 E8 01 83 C1 01 83 C2 01 85 C0 74 1C 0F B6 09 ...........t....
006EE170 0F B6 32 2B F1 74 12 85 F6 8B 5C 24 24 B8 01 00 ..2+.t....\$$...
006EE180 00 00 7F 0B 83 C8 FF EB 06 8B 5C 24 24 33 C0 85 ..........\$$3..
006EE190 C0 74 0F 8B 4C 24 1C 83 EF 01 0F 89 40 FF FF FF .t..L$......@...
006EE1A0 EB 70 8B 44 24 28 2B C7 2B C5 8D 14 2F 50 03 D3 .p.D$(+.+.../P..
006EE1B0 52 E8 FA E7 FF FF 8B F0 83 C4 08 85 F6 0F 84 C5 R...............
006EE1C0 00 00 00 8B 6C 24 2C 83 FD 0C 7D 0C 8B 44 24 14 ....l$,...}..D$.
006EE1D0 8B 48 0C 89 34 A9 EB 23 8B 54 24 14 56 52 E8 2D .H..4..#.T$.VR.-
006EE1E0 48 00 00 83 C4 08 85 C0 75 63 83 06 FF 75 0C 8B H.......uc...u..
006EE1F0 46 04 8B 48 18 56 FF D1 83 C4 04 83 C5 01 89 6C F..H.V.........l
006EE200 24 2C 8B 6C 24 20 89 7C 24 28 2B FD 0F 89 A4 FE $,.l$ .|$(+.....
006EE210 FF FF 8B 4C 24 28 51 53 E8 93 E7 FF FF 8B F0 83 ...L$(QS........
006EE220 C4 08 85 F6 74 62 8B 7C 24 2C 83 FF 0C 7D 0C 8B ....tb.|$,...}..
006EE230 54 24 14 8B 42 0C 89 34 B8 EB 36 8B 4C 24 14 56 T$..B..4..6.L$.V
006EE240 51 E8 CA 47 00 00 83 C4 08 85 C0 74 13 83 06 FF Q..G.......t....
006EE250 75 36 8B 56 04 8B 42 18 56 FF D0 83 C4 04 EB 28 u6.V..B.V......(
006EE260 83 06 FF 75 0C 8B 4E 04 8B 51 18 56 FF D2 83 C4 ...u..N..Q.V....
006EE270 04 8B 44 24 14 83 C7 01 50 89 78 08 E8 0F 6C 00 ..D$....P.x...l.
006EE280 00 83 C4 04 85 C0 7D 1F 8B 44 24 14 83 00 FF 75 ......}..D$....u
006EE290 0C 8B 48 04 8B 51 18 50 FF D2 83 C4 04 5D 5F 5E ..H..Q.P.....]_^
006EE2A0 33 C0 5B 83 C4 20 C3 8B 44 24 14 5D 5F 5E 5B 83 3.[.. ..D$.]_^[.
006EE2B0 C4 20 C3 CC CC CC CC CC CC CC CC CC CC CC CC CC . ..............
006EE2C0 83 EC 14 8B 44 24 18 8B 50 08 53 56 8D 48 14 8B ....D$..P.SV.H..
006EE2D0 44 24 24 68 8F 69 8A 00 50 89 4C 24 20 89 54 24 D$$h.i..P.L$ .T$
006EE2E0 1C 33 F6 E8 B8 6A 01 00 8B D8 83 C4 08 85 DB 89 .3...j..........
006EE2F0 5C 24 08 75 06 5E 5B 83 C4 14 C3 53 E8 1F 4E 01 \$.u.^[....S..N.
006EE300 00 83 C4 04 85 C0 89 44 24 0C 75 24 83 03 FF 75 .......D$.u$...u
006EE310 0C 8B 4B 04 8B 51 18 53 FF D2 83 C4 04 68 8F 69 ..K..Q.S.....h.i
006EE320 8A 00 E8 99 E7 FF FF 83 C4 04 5E 5B 83 C4 14 C3 ..........^[....
006EE330 83 F8 01 57 75 58 8B 43 04 3D F0 BA A1 00 74 17 ...WuX.C.=....t.
006EE340 68 F0 BA A1 00 50 E8 25 73 FE FF 83 C4 08 85 C0 h....P.%s.......
006EE350 75 05 8B 7B 0C EB 05 8B 43 0C 8B 38 8B 47 04 3D u..{....C..8.G.=
006EE360 50 B4 A1 00 74 07 3D 20 3B A2 00 75 1D 83 07 01 P...t.= ;..u....
006EE370 83 03 FF 75 0C 8B 4B 04 8B 51 18 53 FF D2 83 C4 ...u..K..Q.S....
006EE380 04 8B C7 5F 5E 5B 83 C4 14 C3 8B 44 24 10 55 33 ..._^[.....D$.U3
006EE390 ED 85 C0 0F 8E 8B 00 00 00 8D 43 0C 89 44 24 18 ..........C..D$.
006EE3A0 8B 7C 24 10 8B 47 04 3D F0 BA A1 00 8B DE 74 1A .|$..G.=......t.
006EE3B0 68 F0 BA A1 00 50 E8 B5 72 FE FF 83 C4 08 85 C0 h....P..r.......
006EE3C0 75 08 8B 44 24 18 8B 38 EB 09 8B 4F 0C 8D 47 0C u..D$..8...O..G.
006EE3D0 8B 3C A9 8B 47 04 3D 50 B4 A1 00 74 12 68 50 B4 .<..G.=P...t.hP.
006EE3E0 A1 00 50 E8 88 72 FE FF 83 C4 08 85 C0 74 60 03 ..P..r.......t`.
006EE3F0 77 08 85 ED 74 04 03 74 24 1C 3B F3 0F 82 B6 00 w...t..t$.;.....
006EE400 00 00 81 FE FF FF FF 7F 0F 87 AA 00 00 00 83 44 ...............D
006EE410 24 18 04 83 C5 01 3B 6C 24 14 7C 84 85 F6 8B 5C $.....;l$.|....\
006EE420 24 10 75 0D A1 3C C6 A6 00 85 C0 0F 85 FB 00 00 $.u..<..........
006EE430 00 8D 4E 18 51 E8 26 54 03 00 83 C4 04 85 C0 0F ..N.Q.&T........
006EE440 85 A6 00 00 00 E8 C6 2D FF FF E9 E0 00 00 00 8B .......-........
006EE450 47 04 3D 20 3B A2 00 74 30 68 20 3B A2 00 50 E8 G.= ;..t0h ;..P.
006EE460 0C 72 FE FF 83 C4 08 85 C0 75 1E 8B 57 04 8B 42 .r.......u..W..B
006EE470 0C 8B 0D 7C 6B A1 00 50 55 68 1C 4D 8D 00 51 E8 ...|k..PUh.M..Q.
006EE480 4C 31 FF FF 83 C4 10 EB 43 8B 7C 24 10 8B 4C 24 L1......C.|$..L$
006EE490 28 57 51 E8 D8 22 03 00 83 C4 08 83 07 FF 8B F0 (WQ.."..........
006EE4A0 75 0C 8B 57 04 8B 42 18 57 FF D0 83 C4 04 5D 5F u..W..B.W.....]_
006EE4B0 8B C6 5E 5B 83 C4 14 C3 8B 0D 98 85 A1 00 68 EC ..^[..........h.
006EE4C0 4C 8D 00 51 E8 B7 2A FF FF 83 C4 08 8B 44 24 10 L..Q..*......D$.
006EE4D0 83 00 FF 75 75 8B 50 04 50 8B 42 18 FF D0 83 C4 ...uu.P.P.B.....
006EE4E0 04 5D 5F 5E 33 C0 5B 83 C4 14 C3 85 F6 89 70 08 .]_^3.[.......p.
006EE4F0 C7 40 04 50 B4 A1 00 C7 00 01 00 00 00 C7 40 0C .@.P..........@.
006EE500 FF FF FF FF C7 40 10 00 00 00 00 C6 44 30 14 00 .....@......D0..
006EE510 75 1D 8D 54 24 28 52 89 44 24 2C E8 70 E3 FF FF u..T$(R.D$,.p...
006EE520 8B 44 24 2C 83 C4 04 A3 3C C6 A6 00 83 00 01 8B .D$,....<.......
006EE530 F8 85 FF 89 44 24 28 75 1B 83 03 FF 75 0C 8B 43 ....D$(u....u..C
006EE540 04 8B 48 18 53 FF D1 83 C4 04 5D 5F 5E 33 C0 5B ..H.S.....]_^3.[
006EE550 83 C4 14 C3 8B 6C 24 10 33 DB 83 C7 14 39 5C 24 .....l$.3....9\$
006EE560 14 0F 8E C6 00 00 00 8D 45 0C 89 44 24 18 8B FF ........E..D$...
006EE570 8B 45 04 3D F0 BA A1 00 74 1A 68 F0 BA A1 00 50 .E.=....t.h....P
006EE580 E8 EB 70 FE FF 83 C4 08 85 C0 75 08 8B 54 24 18 ..p.......u..T$.
006EE590 8B 02 EB 06 8B 45 0C 8B 04 98 8B 70 08 83 FE 10 .....E.....p....
006EE5A0 8D 48 14 72 0D 56 51 57 E8 83 6A FA FF 83 C4 0C .H.r.VQW..j.....
006EE5B0 EB 1F 85 F6 76 1B 8B C7 2B CF 8B EE 8D 64 24 00 ....v...+....d$.
006EE5C0 8A 14 01 88 10 83 C0 01 83 ED 01 75 F3 8B 6C 24 ...........u..l$
006EE5D0 10 8B 44 24 14 83 C0 FF 03 FE 3B D8 7D 3D 8B 74 ..D$......;.}=.t
006EE5E0 24 1C 83 FE 10 72 11 8B 44 24 20 56 50 57 E8 3D $....r..D$ VPW.=
006EE5F0 6A FA FF 83 C4 0C EB 21 85 F6 76 1D 8B 4C 24 20 j......!..v..L$ 
006EE600 8B C7 2B CF 8A 14 01 88 10 83 C0 01 83 EE 01 75 ..+............u
006EE610 F3 8B 6C 24 10 8B 74 24 1C 03 FE 83 44 24 18 04 ..l$..t$....D$..
006EE620 83 C3 01 3B 5C 24 14 0F 8C 43 FF FF FF 83 45 00 ...;\$...C....E.
006EE630 FF 75 0C 8B 45 04 8B 48 18 55 FF D1 83 C4 04 8B .u..E..H.U......
006EE640 44 24 28 5D 5F 5E 5B 83 C4 14 C3 CC CC CC CC CC D$(]_^[.........
006EE650 E9 6B FC FF FF CC CC CC CC CC CC CC CC CC CC CC .k..............
006EE660 83 EC 08 8B 4B 08 55 56 57 8D 68 14 8B 40 08 33 ....K.UVW.h..@.3
006EE670 FF 83 7C 24 18 01 89 4C 24 0C 89 44 24 10 74 26 ..|$...L$..D$.t&
006EE680 85 C9 7E 22 8B 4C 24 10 0F B6 54 1F 14 51 52 55 ..~".L$...T..QRU
006EE690 FF 15 FC 46 8A 00 83 C4 0C 85 C0 74 09 83 C7 01 ...F.......t....
006EE6A0 3B 7C 24 0C 7C DE 83 7C 24 18 00 8B 74 24 0C 74 ;|$.|..|$...t$.t
006EE6B0 23 83 EE 01 3B F7 7C 19 8B 44 24 10 0F B6 4C 1E #...;.|..D$...L.
006EE6C0 14 50 51 55 FF 15 FC 46 8A 00 83 C4 0C 85 C0 75 .PQU...F.......u
006EE6D0 E0 83 C6 01 85 FF 75 1D 3B 74 24 0C 75 17 81 7B ......u.;t$.u..{
006EE6E0 04 50 B4 A1 00 75 0E 83 03 01 5F 5E 8B C3 5D 83 .P...u...._^..].
006EE6F0 C4 08 C2 04 00 2B F7 8D 54 1F 14 56 52 E8 AE E2 .....+..T..VR...
006EE700 FF FF 83 C4 08 5F 5E 5D 83 C4 08 C2 04 00 CC CC ....._^]........
006EE710 55 8B 6B 08 56 57 33 FF 83 7C 24 10 01 74 1E 85 U.k.VW3..|$..t..
006EE720 ED 7E 1A 0F B6 44 1F 14 50 FF 15 84 46 8A 00 83 .~...D..P...F...
006EE730 C4 04 85 C0 74 07 83 C7 01 3B FD 7C E6 83 7C 24 ....t....;.|..|$
006EE740 10 00 8B F5 74 1D 83 EE 01 3B F7 7C 13 0F B6 4C ....t....;.|...L
006EE750 1E 14 51 FF 15 84 46 8A 00 83 C4 04 85 C0 75 E6 ..Q...F.......u.
006EE760 83 C6 01 85 FF 75 18 3B F5 75 14 81 7B 04 50 B4 .....u.;.u..{.P.
006EE770 A1 00 75 0B 83 03 01 5F 5E 8B C3 5D C2 04 00 2B ..u...._^..]...+
006EE780 F7 8D 54 1F 14 56 52 E8 24 E2 FF FF 83 C4 08 5F ..T..VR.$......_
006EE790 5E 5D C2 04 00 CC CC CC CC CC CC CC CC CC CC CC ^]..............
006EE7A0 51 53 57 8B F8 8D 44 24 08 8B D9 8B 0C BD AC 92 QSW...D$........
006EE7B0 A1 00 50 51 52 C7 44 24 14 00 00 00 00 E8 EE 94 ..PQR.D$........
006EE7C0 FF FF 83 C4 0C 85 C0 74 7D 8B 44 24 08 85 C0 0F .......t}.D$....
006EE7D0 84 BF 00 00 00 3D B8 63 A1 00 0F 84 B4 00 00 00 .....=.c........
006EE7E0 81 78 04 50 B4 A1 00 0F 84 9D 00 00 00 8B 40 04 .x.P..........@.
006EE7F0 68 50 B4 A1 00 50 E8 75 6E FE FF 83 C4 08 85 C0 hP...P.un.......
006EE800 8B 44 24 08 0F 85 80 00 00 00 81 78 04 20 3B A2 .D$........x. ;.
006EE810 00 74 39 8B 48 04 68 20 3B A2 00 51 E8 4F 6E FE .t9.H.h ;..Q.On.
006EE820 FF 83 C4 08 85 C0 75 24 8B 14 BD AC 92 A1 00 A1 ......u$........
006EE830 7C 6B A1 00 83 C2 03 52 68 4C 4D 8D 00 50 E8 8D |k.....RhLM..P..
006EE840 2D FF FF 83 C4 0C 5F 33 C0 5B 59 C3 56 53 E8 8D -....._3.[Y.VS..
006EE850 1B 03 00 8B F0 83 C4 04 85 F6 75 05 5E 5F 5B 59 ..........u.^_[Y
006EE860 C3 8B 4C 24 0C 51 57 56 E8 23 05 03 00 83 C4 0C ..L$.QWV.#......
006EE870 83 06 FF 8B F8 75 0C 8B 56 04 8B 42 18 56 FF D0 .....u..V..B.V..
006EE880 83 C4 04 5E 8B C7 5F 5B 59 C3 57 E8 D0 FD FF FF ...^.._[Y.W.....
006EE890 5F 5B 59 C3 57 E8 76 FE FF FF 5F 5B 59 C3 CC CC _[Y.W.v..._[Y...
006EE8A0 8B 54 24 08 83 7A 08 00 75 0E 53 8B 5C 24 08 6A .T$..z..u.S.\$.j
006EE8B0 02 E8 5A FE FF FF 5B C3 8B 4C 24 04 B8 02 00 00 ..Z...[..L$.....
006EE8C0 00 E9 DA FE FF FF CC CC CC CC CC CC CC CC CC CC ................
006EE8D0 8B 54 24 08 83 7A 08 00 75 58 53 8B 5C 24 08 56 .T$..z..uXS.\$.V
006EE8E0 57 8B 7B 08 33 F6 85 FF 7E 22 55 8B 2D 84 46 8A W.{.3...~"U.-.F.
006EE8F0 00 0F B6 44 1E 14 50 FF D5 83 C4 04 85 C0 74 07 ...D..P.......t.
006EE900 83 C6 01 3B F7 7C EA 85 F6 5D 75 12 81 7B 04 50 ...;.|...]u..{.P
006EE910 B4 A1 00 75 09 83 03 01 5F 5E 8B C3 5B C3 2B FE ...u...._^..[.+.
006EE920 8D 4C 1E 14 57 51 E8 85 E0 FF FF 83 C4 08 5F 5E .L..WQ........_^
006EE930 5B C3 8B 4C 24 04 33 C0 E9 63 FE FF FF CC CC CC [..L$.3..c......
006EE940 8B 54 24 08 83 7A 08 00 75 56 53 55 56 57 8B 7C .T$..z..uVSUVW.|
006EE950 24 14 8B 6F 08 8D 5F 14 8B F5 8D 9B 00 00 00 00 $..o.._.........
006EE960 83 EE 01 78 12 0F B6 04 1E 50 FF 15 84 46 8A 00 ...x.....P...F..
006EE970 83 C4 04 85 C0 75 E9 83 C6 01 3B F5 75 13 81 7F .....u....;.u...
006EE980 04 50 B4 A1 00 75 0A 83 07 01 8B C7 5F 5E 5D 5B .P...u......_^][
006EE990 C3 56 53 E8 18 E0 FF FF 83 C4 08 5F 5E 5D 5B C3 .VS........_^][.
006EE9A0 8B 4C 24 04 B8 01 00 00 00 E9 F2 FD FF FF CC CC .L$.............
006EE9B0 53 55 56 8B 74 24 10 57 8B 7E 08 33 DB 3B FB 75 SUV.t$.W.~.3.;.u
006EE9C0 09 A1 3C C6 A6 00 3B C3 75 53 8D 47 18 50 E8 8D ..<...;.uS.G.P..
006EE9D0 4E 03 00 83 C4 04 3B C3 75 07 E8 31 28 FF FF EB N.....;.u..1(...
006EE9E0 3F 3B FB 89 78 08 C7 40 04 50 B4 A1 00 C7 00 01 ?;..x..@.P......
006EE9F0 00 00 00 C7 40 0C FF FF FF FF 89 58 10 88 5C 38 ....@......X..\8
006EEA00 14 75 1D 8D 4C 24 14 51 89 44 24 18 E8 7F DE FF .u..L$.Q.D$.....
006EEA10 FF 8B 44 24 18 83 C4 04 A3 3C C6 A6 00 83 00 01 ..D$.....<......
006EEA20 8B E8 3B EB 89 44 24 14 75 07 5F 5E 5D 33 C0 5B ..;..D$.u._^]3.[
006EEA30 C3 83 C5 14 83 FF 10 8D 4E 14 72 0D 57 51 55 E8 ........N.r.WQU.
006EEA40 EC 65 FA FF 83 C4 0C EB 17 3B FB 76 13 8B C5 2B .e.......;.v...+
006EEA50 CD 8B F7 8A 14 01 88 10 83 C0 01 83 EE 01 75 F3 ..............u.
006EEA60 33 F6 3B FB 7E 29 EB 08 8D A4 24 00 00 00 00 90 3.;.~)....$.....
006EEA70 0F B6 1C 2E 53 FF 15 04 47 8A 00 83 C4 04 85 C0 ....S...G.......
006EEA80 74 06 80 C3 20 88 1C 2E 83 C6 01 3B F7 7C E1 8B t... ......;.|..
006EEA90 44 24 14 5F 5E 5D 5B C3 CC CC CC CC CC CC CC CC D$._^][.........
006EEAA0 53 55 56 8B 74 24 10 57 8B 7E 08 33 DB 3B FB 75 SUV.t$.W.~.3.;.u
006EEAB0 09 A1 3C C6 A6 00 3B C3 75 53 8D 47 18 50 E8 9D ..<...;.uS.G.P..
006EEAC0 4D 03 00 83 C4 04 3B C3 75 07 E8 41 27 FF FF EB M.....;.u..A'...
006EEAD0 3F 3B FB 89 78 08 C7 40 04 50 B4 A1 00 C7 00 01 ?;..x..@.P......
006EEAE0 00 00 00 C7 40 0C FF FF FF FF 89 58 10 88 5C 38 ....@......X..\8
006EEAF0 14 75 1D 8D 4C 24 14 51 89 44 24 18 E8 8F DD FF .u..L$.Q.D$.....
006EEB00 FF 8B 44 24 18 83 C4 04 A3 3C C6 A6 00 83 00 01 ..D$.....<......
006EEB10 8B E8 3B EB 89 44 24 14 75 07 5F 5E 5D 33 C0 5B ..;..D$.u._^]3.[
006EEB20 C3 83 C5 14 83 FF 10 8D 4E 14 72 0D 57 51 55 E8 ........N.r.WQU.
006EEB30 FC 64 FA FF 83 C4 0C EB 17 3B FB 76 13 8B C5 2B .d.......;.v...+
006EEB40 CD 8B F7 8A 14 01 88 10 83 C0 01 83 EE 01 75 F3 ..............u.
006EEB50 33 F6 3B FB 7E 29 EB 08 8D A4 24 00 00 00 00 90 3.;.~)....$.....
006EEB60 0F B6 1C 2E 53 FF 15 08 47 8A 00 83 C4 04 85 C0 ....S...G.......
006EEB70 74 06 80 EB 20 88 1C 2E 83 C6 01 3B F7 7C E1 8B t... ......;.|..
006EEB80 44 24 14 5F 5E 5D 5B C3 CC CC CC CC CC CC CC CC D$._^][.........
006EEB90 51 8B 44 24 08 56 8B 70 08 57 33 FF 3B F7 8D 48 Q.D$.V.p.W3.;..H
006EEBA0 14 89 4C 24 08 75 09 A1 3C C6 A6 00 3B C7 75 54 ..L$.u..<...;.uT
006EEBB0 8D 56 18 52 E8 A7 4C 03 00 83 C4 04 3B C7 75 07 .V.R..L.....;.u.
006EEBC0 E8 4B 26 FF FF EB 40 3B F7 89 70 08 C7 40 04 50 .K&...@;..p..@.P
006EEBD0 B4 A1 00 C7 00 01 00 00 00 C7 40 0C FF FF FF FF ..........@.....
006EEBE0 89 78 10 C6 44 30 14 00 75 1D 89 44 24 10 8D 44 .x..D0..u..D$..D
006EEBF0 24 10 50 E8 98 DC FF FF 8B 44 24 14 83 C4 04 A3 $.P......D$.....
006EEC00 3C C6 A6 00 83 00 01 3B C7 89 44 24 10 75 06 5F <......;..D$.u._
006EEC10 33 C0 5E 59 C3 55 50 E8 34 E0 FF FF 83 C4 04 3B 3.^Y.UP.4......;
006EEC20 F7 8B E8 7E 6F 53 EB 08 8D A4 24 00 00 00 00 90 ...~oS....$.....
006EEC30 8B 4C 24 10 0F B6 19 83 44 24 10 01 53 FF 15 08 .L$.....D$..S...
006EEC40 47 8A 00 83 C4 04 85 C0 74 17 85 FF 75 31 53 FF G.......t...u1S.
006EEC50 15 0C 47 8A 00 83 C4 04 8B D8 BF 01 00 00 00 EB ..G.............
006EEC60 27 53 FF 15 04 47 8A 00 83 C4 04 85 C0 74 17 85 'S...G.......t..
006EEC70 FF 74 0C 53 FF 15 9C 45 8A 00 83 C4 04 8B D8 BF .t.S...E........
006EEC80 01 00 00 00 EB 02 33 FF 88 5D 00 83 C5 01 83 EE ......3..]......
006EEC90 01 75 9D 5B 8B 44 24 14 5D 5F 5E 59 C3 CC CC CC .u.[.D$.]_^Y....
006EECA0 51 8B 44 24 08 53 55 56 8B 70 08 33 DB 3B F3 8D Q.D$.SUV.p.3.;..
006EECB0 68 14 75 09 A1 3C C6 A6 00 3B C3 75 53 8D 46 18 h.u..<...;.uS.F.
006EECC0 50 E8 9A 4B 03 00 83 C4 04 3B C3 75 07 E8 3E 25 P..K.....;.u..>%
006EECD0 FF FF EB 3F 3B F3 89 70 08 C7 40 04 50 B4 A1 00 ...?;..p..@.P...
006EECE0 C7 00 01 00 00 00 C7 40 0C FF FF FF FF 89 58 10 .......@......X.
006EECF0 88 5C 30 14 75 1D 8D 4C 24 14 51 89 44 24 18 E8 .\0.u..L$.Q.D$..
006EED00 8C DB FF FF 8B 44 24 18 83 C4 04 A3 3C C6 A6 00 .....D$.....<...
006EED10 83 00 01 3B C3 89 44 24 14 75 07 5E 5D 33 C0 5B ...;..D$.u.^]3.[
006EED20 59 C3 57 50 E8 27 DF FF FF 83 C4 04 3B F3 8B F8 Y.WP.'......;...
006EED30 7E 28 0F B6 5D 00 53 83 C5 01 FF 15 08 47 8A 00 ~(..].S......G..
006EED40 83 C4 04 85 C0 74 0E 53 FF 15 0C 47 8A 00 83 C4 .....t.S...G....
006EED50 04 88 07 EB 02 88 1F 83 C7 01 83 FE 01 7E 3C 83 .............~<.
006EED60 C6 FF 89 74 24 10 8B 35 04 47 8A 00 8D 64 24 00 ...t$..5.G...d$.
006EED70 0F B6 5D 00 53 83 C5 01 FF D6 83 C4 04 85 C0 74 ..].S..........t
006EED80 0E 53 FF 15 9C 45 8A 00 83 C4 04 88 07 EB 02 88 .S...E..........
006EED90 1F 83 C7 01 83 6C 24 10 01 75 D5 8B 44 24 18 5F .....l$..u..D$._
006EEDA0 5E 5D 5B 59 C3 CC CC CC CC CC CC CC CC CC CC CC ^][Y............
006EEDB0 51 8B 44 24 08 53 55 56 8B 70 08 33 DB 3B F3 8D Q.D$.SUV.p.3.;..
006EEDC0 68 14 75 09 A1 3C C6 A6 00 3B C3 75 53 8D 46 18 h.u..<...;.uS.F.
006EEDD0 50 E8 8A 4A 03 00 83 C4 04 3B C3 75 07 E8 2E 24 P..J.....;.u...$
006EEDE0 FF FF EB 3F 3B F3 89 70 08 C7 40 04 50 B4 A1 00 ...?;..p..@.P...
006EEDF0 C7 00 01 00 00 00 C7 40 0C FF FF FF FF 89 58 10 .......@......X.
006EEE00 88 5C 30 14 75 1D 8D 4C 24 14 51 89 44 24 18 E8 .\0.u..L$.Q.D$..
006EEE10 7C DA FF FF 8B 44 24 18 83 C4 04 A3 3C C6 A6 00 |....D$.....<...
006EEE20 83 00 01 3B C3 89 44 24 14 75 07 5E 5D 33 C0 5B ...;..D$.u.^]3.[
006EEE30 59 C3 57 50 E8 17 DE FF FF 83 C4 04 3B F3 8B F8 Y.WP........;...
006EEE40 7E 54 89 74 24 10 8B 35 08 47 8A 00 8D 64 24 00 ~T.t$..5.G...d$.
006EEE50 0F B6 5D 00 53 83 C5 01 FF D6 83 C4 04 85 C0 53 ..].S..........S
006EEE60 74 0D FF 15 0C 47 8A 00 83 C4 04 88 07 EB 1D FF t....G..........
006EEE70 15 04 47 8A 00 83 C4 04 85 C0 74 0E 53 FF 15 9C ..G.......t.S...
006EEE80 45 8A 00 83 C4 04 88 07 EB 02 88 1F 83 C7 01 83 E...............
006EEE90 6C 24 10 01 75 BA 8B 44 24 18 5F 5E 5D 5B 59 C3 l$..u..D$._^][Y.
006EEEA0 81 EC 28 04 00 00 8B 94 24 30 04 00 00 53 8D 44 ..(.....$0...S.D
006EEEB0 24 08 50 8D 4C 24 10 51 6A 02 6A 01 33 DB 68 88 $.P.L$.Qj.j.3.h.
006EEEC0 46 8D 00 52 89 5C 24 30 89 5C 24 28 89 5C 24 2C F..R.\$0.\$(.\$,
006EEED0 89 5C 24 20 E8 F7 6B FF FF 83 C4 18 85 C0 75 08 .\$ ..k.......u.
006EEEE0 5B 81 C4 28 04 00 00 C3 8B 44 24 0C 56 57 BF 50 [..(.....D$.VW.P
006EEEF0 B4 A1 00 39 78 04 BE 20 3B A2 00 0F 84 9C 00 00 ...9x.. ;.......
006EEF00 00 8B 40 04 57 50 E8 65 67 FE FF 83 C4 08 85 C0 ..@.WP.eg.......
006EEF10 8B 44 24 14 0F 85 83 00 00 00 39 70 04 74 3C 8B .D$.......9p.t<.
006EEF20 48 04 56 51 E8 47 67 FE FF 83 C4 08 85 C0 75 27 H.VQ.Gg.......u'
006EEF30 8B 4C 24 14 8D 54 24 24 52 8D 44 24 30 50 51 E8 .L$..T$$R.D$0PQ.
006EEF40 3C 29 01 00 83 C4 0C 85 C0 74 60 5F 5E 33 C0 5B <).......t`_^3.[
006EEF50 81 C4 28 04 00 00 C3 8B 44 24 14 39 5C 24 10 74 ..(.....D$.9\$.t
006EEF60 20 8B 15 7C 6B A1 00 68 A0 4D 8D 00 52 E8 0E 20  ..|k..h.M..R.. 
006EEF70 FF FF 83 C4 08 5F 5E 33 C0 5B 81 C4 28 04 00 00 ....._^3.[..(...
006EEF80 C3 53 50 8B 84 24 40 04 00 00 50 E8 A0 14 03 00 .SP..$@...P.....
006EEF90 83 C4 0C 5F 5E 5B 81 C4 28 04 00 00 C3 8D 48 14 ..._^[..(.....H.
006EEFA0 89 4C 24 2C 8B 50 08 89 54 24 24 81 7C 24 24 00 .L$,.P..T$$.|$$.
006EEFB0 01 00 00 74 1F A1 2C 7E A1 00 68 70 4D 8D 00 50 ...t..,~..hpM..P
006EEFC0 E8 BB 1F FF FF 83 C4 08 5F 5E 33 C0 5B 81 C4 28 ........_^3.[..(
006EEFD0 04 00 00 C3 8B 44 24 10 3B C3 0F 84 86 00 00 00 .....D$.;.......
006EEFE0 39 78 04 74 71 8B 48 04 57 51 E8 81 66 FE FF 83 9x.tq.H.WQ..f...
006EEFF0 C4 08 85 C0 8B 44 24 10 75 5C 39 70 04 74 38 8B .....D$.u\9p.t8.
006EF000 50 04 56 52 E8 67 66 FE FF 83 C4 08 85 C0 75 27 P.VR.gf.......u'
006EF010 8B 54 24 10 8D 44 24 1C 50 8D 4C 24 1C 51 52 E8 .T$..D$.P.L$.QR.
006EF020 5C 28 01 00 83 C4 0C 85 C0 74 43 5F 5E 33 C0 5B \(.......tC_^3.[
006EF030 81 C4 28 04 00 00 C3 A1 7C 6B A1 00 68 A0 4D 8D ..(.....|k..h.M.
006EF040 00 50 E8 39 1F FF FF 83 C4 08 5F 5E 33 C0 5B 81 .P.9......_^3.[.
006EF050 C4 28 04 00 00 C3 8D 48 14 89 4C 24 18 8B 50 08 .(.....H..L$..P.
006EF060 89 54 24 1C EB 08 89 5C 24 18 89 5C 24 1C 8B B4 .T$....\$..\$...
006EF070 24 38 04 00 00 8B 7C 24 2C 55 8B 6E 08 3B EB 75 $8....|$,U.n.;.u
006EF080 14 A1 3C C6 A6 00 3B C3 74 0B 83 00 01 8B D8 89 ..<...;.t.......
006EF090 5C 24 10 EB 62 8D 45 18 50 E8 C2 47 03 00 83 C4 \$..b.E.P..G....
006EF0A0 04 3B C3 75 0D E8 66 21 FF FF 8B D8 89 5C 24 10 .;.u..f!.....\$.
006EF0B0 EB 45 3B EB 89 68 08 C7 40 04 50 B4 A1 00 C7 00 .E;..h..@.P.....
006EF0C0 01 00 00 00 C7 40 0C FF FF FF FF 89 58 10 88 5C .....@......X..\
006EF0D0 28 14 75 1D 8D 4C 24 10 51 89 44 24 14 E8 AE D7 (.u..L$.Q.D$....
006EF0E0 FF FF 8B 44 24 14 83 C4 04 83 00 01 A3 3C C6 A6 ...D$........<..
006EF0F0 00 8B D8 89 44 24 10 85 DB 89 5C 24 2C 75 0D 5D ....D$....\$,u.]
006EF100 5F 5E 33 C0 5B 81 C4 28 04 00 00 C3 53 E8 3E DB _^3.[..(....S.>.
006EF110 FF FF 8B 54 24 24 83 C4 04 83 C6 14 85 D2 89 44 ...T$$.........D
006EF120 24 34 75 77 83 C5 FF 78 30 8D A4 24 00 00 00 00 $4uw...x0..$....
006EF130 0F B6 0E 8A 14 39 88 10 0F B6 D2 83 C6 01 83 C0 .....9..........
006EF140 01 3B D1 74 08 C7 44 24 24 01 00 00 00 83 ED 01 .;.t..D$$.......
006EF150 79 DE 83 7C 24 24 00 75 35 8B B4 24 3C 04 00 00 y..|$$.u5..$<...
006EF160 81 7E 04 50 B4 A1 00 75 25 83 03 FF 0F 85 BE 00 .~.P...u%.......
006EF170 00 00 8B 43 04 8B 48 18 53 FF D1 83 C4 04 83 06 ...C..H.S.......
006EF180 01 5D 5F 8B C6 5E 5B 81 C4 28 04 00 00 C3 5D 5F .]_..^[..(....]_
006EF190 5E 8B C3 5B 81 C4 28 04 00 00 C3 33 C9 8D 49 00 ^..[..(....3..I.
006EF1A0 0F B6 1C 39 89 5C 8C 38 83 C1 01 81 F9 00 01 00 ...9.\.8........
006EF1B0 00 7C ED 33 C9 85 D2 7E 1A 8B 7C 24 1C 8D 49 00 .|.3...~..|$..I.
006EF1C0 0F B6 1C 39 83 C1 01 3B CA C7 44 9C 38 FF FF FF ...9...;..D.8...
006EF1D0 FF 7C ED 8D 7D FF 85 FF 7C 31 8B 5C 24 24 8B FF .|..}...|1.\$$..
006EF1E0 0F B6 16 83 C6 01 83 7C 94 38 FF 74 10 8A 4C 94 .......|.8.t..L.
006EF1F0 38 88 08 0F B6 C9 83 C0 01 3B CA 74 05 BB 01 00 8........;.t....
006EF200 00 00 83 EF 01 79 D9 85 DB 75 35 8B B4 24 3C 04 .....y...u5..$<.
006EF210 00 00 81 7E 04 50 B4 A1 00 75 25 8B 44 24 10 83 ...~.P...u%.D$..
006EF220 00 FF 75 0C 8B 50 04 50 8B 42 18 FF D0 83 C4 04 ..u..P.P.B......
006EF230 83 06 01 5D 5F 8B C6 5E 5B 81 C4 28 04 00 00 C3 ...]_..^[..(....
006EF240 85 ED 7E 12 2B 44 24 34 8D 4C 24 2C 50 51 E8 9D ..~.+D$4.L$,PQ..
006EF250 D2 FF FF 83 C4 08 8B 44 24 2C 5D 5F 5E 5B 81 C4 .......D$,]_^[..
006EF260 28 04 00 00 C3 CC CC CC CC CC CC CC CC CC CC CC (...............
006EF270 81 78 04 50 B4 A1 00 75 04 83 00 01 C3 8B 48 08 .x.P...u......H.
006EF280 51 83 C0 14 50 E8 26 D7 FF FF 83 C4 08 C3 CC CC Q...P.&.........
006EF290 83 EC 10 8B 4C 24 14 53 55 8B 6C 24 24 56 57 8B ....L$.SU.l$$VW.
006EF2A0 79 08 8D 5F 01 3B C3 0F 4C D8 8B F3 0F AF F5 8B y.._.;..L.......
006EF2B0 C6 99 F7 FD 89 7C 24 14 3B C3 74 20 8B 15 98 85 .....|$.;.t ....
006EF2C0 A1 00 68 D4 4D 8D 00 52 E8 B3 1C FF FF 83 C4 08 ..h.M..R........
006EF2D0 5F 5E 5D 33 C0 5B 83 C4 10 C2 0C 00 03 F7 79 1F _^]3.[........y.
006EF2E0 A1 98 85 A1 00 68 D4 4D 8D 00 50 E8 90 1C FF FF .....h.M..P.....
006EF2F0 83 C4 08 5F 5E 5D 33 C0 5B 83 C4 10 C2 0C 00 85 ..._^]3.[.......
006EF300 F6 75 09 A1 3C C6 A6 00 85 C0 75 58 8D 4E 18 51 .u..<.....uX.N.Q
006EF310 E8 4B 45 03 00 83 C4 04 85 C0 75 07 E8 EF 1E FF .KE.......u.....
006EF320 FF EB 44 85 F6 89 70 08 C7 40 04 50 B4 A1 00 C7 ..D...p..@.P....
006EF330 00 01 00 00 00 C7 40 0C FF FF FF FF C7 40 10 00 ......@......@..
006EF340 00 00 00 C6 44 30 14 00 75 1D 8D 54 24 2C 52 89 ....D0..u..T$,R.
006EF350 44 24 30 E8 38 D5 FF FF 8B 44 24 30 83 C4 04 A3 D$0.8....D$0....
006EF360 3C C6 A6 00 83 00 01 8B F0 85 F6 89 44 24 2C 0F <...........D$,.
006EF370 84 5B FF FF FF 8B 44 24 24 83 C0 14 83 C6 14 83 .[....D$$.......
006EF380 FD 10 89 44 24 24 72 11 8B 4C 24 28 55 51 56 E8 ...D$$r..L$(UQV.
006EF390 9C 5C FA FF 83 C4 0C EB 1F 85 ED 76 1B 8B 7C 24 .\.........v..|$
006EF3A0 28 8B C6 2B FE 8B CD 8A 14 07 88 10 83 C0 01 83 (..+............
006EF3B0 E9 01 75 F3 8B 7C 24 14 83 EB 01 03 F5 33 C0 85 ..u..|$......3..
006EF3C0 DB 7E 74 8B 7C 24 28 8B D5 F7 DA 89 54 24 18 2B .~t.|$(.....T$.+
006EF3D0 FE 89 5C 24 10 89 5C 24 1C 8D A4 24 00 00 00 00 ..\$..\$...$....
006EF3E0 8B 44 24 24 8A 08 88 0E 83 C0 01 83 C6 01 83 EF .D$$............
006EF3F0 01 83 FD 10 89 44 24 24 72 15 8B 54 24 28 55 52 .....D$$r..T$(UR
006EF400 56 E8 2A 5C FA FF 8B 54 24 24 83 C4 0C EB 15 85 V.*\...T$$......
006EF410 ED 76 11 8B C6 8B CD 8A 1C 07 88 18 83 C0 01 83 .v..............
006EF420 E9 01 75 F3 03 F5 03 FA 83 6C 24 10 01 75 B1 8B ..u......l$..u..
006EF430 44 24 1C 8B 7C 24 14 2B F8 8B D7 83 FA 10 72 1D D$..|$.+......r.
006EF440 8B 44 24 24 52 50 56 E8 E4 5B FA FF 8B 44 24 38 .D$$RPV..[...D$8
006EF450 83 C4 0C 5F 5E 5D 5B 83 C4 10 C2 0C 00 85 D2 76 ..._^][........v
006EF460 1C 8B 4C 24 24 8B C6 2B CE 8B F2 EB 03 8D 49 00 ..L$$..+......I.
006EF470 8A 14 01 88 10 83 C0 01 83 EE 01 75 F3 8B 44 24 ...........u..D$
006EF480 2C 5F 5E 5D 5B 83 C4 10 C2 0C 00 CC CC CC CC CC ,_^][...........
006EF490 8B 4C 24 08 83 EC 08 53 55 8B 6C 24 14 56 57 8B .L$....SU.l$.VW.
006EF4A0 7D 08 50 8D 75 14 51 8B CF 8B C6 E8 B0 C0 FF FF }.P.u.Q.........
006EF4B0 8B D8 85 DB 75 30 81 7D 04 50 B4 A1 00 75 10 83 ....u0.}.P...u..
006EF4C0 45 00 01 5F 5E 8B C5 5D 5B 83 C4 08 C2 08 00 8B E.._^..][.......
006EF4D0 55 08 52 56 E8 D7 D4 FF FF 83 C4 08 5F 5E 5D 5B U.RV........_^][
006EF4E0 83 C4 08 C2 08 00 8B EF 2B EB 75 09 A1 3C C6 A6 ........+.u..<..
006EF4F0 00 85 C0 75 58 8D 45 18 50 E8 62 43 03 00 83 C4 ...uX.E.P.bC....
006EF500 04 85 C0 75 07 E8 06 1D FF FF EB 44 85 ED 89 68 ...u.......D...h
006EF510 08 C7 40 04 50 B4 A1 00 C7 00 01 00 00 00 C7 40 ..@.P..........@
006EF520 0C FF FF FF FF C7 40 10 00 00 00 00 C6 44 28 14 ......@......D(.
006EF530 00 75 1D 8D 4C 24 1C 51 89 44 24 20 E8 4F D3 FF .u..L$.Q.D$ .O..
006EF540 FF 8B 44 24 20 83 C4 04 A3 3C C6 A6 00 83 00 01 ..D$ ....<......
006EF550 8B E8 85 ED 89 44 24 1C 75 0A 5F 5E 5D 5B 83 C4 .....D$.u._^][..
006EF560 08 C2 08 00 03 FE 83 C5 14 85 DB 89 7C 24 10 7E ............|$.~
006EF570 71 0F BE 54 24 20 89 54 24 14 EB 08 8D 64 24 00 q..T$ .T$....d$.
006EF580 8B 5C 24 20 8B 4C 24 14 8B C7 2B C6 50 51 83 EB .\$ .L$...+.PQ..
006EF590 01 56 89 5C 24 2C FF 15 FC 46 8A 00 8B D8 83 C4 .V.\$,...F......
006EF5A0 0C 85 DB 74 3D 8B FB 2B FE 83 FF 10 72 0D 57 56 ...t=..+....r.WV
006EF5B0 55 E8 7A 5A FA FF 83 C4 0C EB 17 85 FF 76 13 8B U.zZ.........v..
006EF5C0 C5 2B F5 8B CF 8A 14 06 88 10 83 C0 01 83 E9 01 .+..............
006EF5D0 75 F3 03 EF 83 7C 24 20 00 8B 7C 24 10 8D 73 01 u....|$ ..|$..s.
006EF5E0 7F 9E 2B FE 83 FF 10 72 19 57 56 55 E8 3F 5A FA ..+....r.WVU.?Z.
006EF5F0 FF 8B 44 24 28 83 C4 0C 5F 5E 5D 5B 83 C4 08 C2 ..D$(..._^][....
006EF600 08 00 85 FF 76 18 2B F5 EB 06 8D 9B 00 00 00 00 ....v.+.........
006EF610 8A 04 2E 88 45 00 83 C5 01 83 EF 01 75 F2 8B 44 ....E.......u..D
006EF620 24 1C 5F 5E 5D 5B 83 C4 08 C2 08 00 CC CC CC CC $._^][..........
006EF630 83 EC 0C 8B 54 24 10 53 8B 5C 24 18 55 56 57 51 ....T$.S.\$.UVWQ
006EF640 6A 01 8B F0 8B 7E 08 6A 00 8D 46 14 52 89 44 24 j....~.j..F.R.D$
006EF650 24 50 8B C7 8B CF E8 85 C1 FF FF 8B E8 85 ED 75 $P.............u
006EF660 30 81 7E 04 50 B4 A1 00 75 0F 83 06 01 5F 8B C6 0.~.P...u...._..
006EF670 5E 5D 5B 83 C4 0C C2 08 00 8B 44 24 14 57 50 E8 ^][.......D$.WP.
006EF680 2C D3 FF FF 83 C4 08 5F 5E 5D 5B 83 C4 0C C2 08 ,......_^][.....
006EF690 00 8B CD 0F AF CB 8B DF 2B D9 75 09 A1 3C C6 A6 ........+.u..<..
006EF6A0 00 85 C0 75 58 8D 53 18 52 E8 B2 41 03 00 83 C4 ...uX.S.R..A....
006EF6B0 04 85 C0 75 07 E8 56 1B FF FF EB 44 85 DB 89 58 ...u..V....D...X
006EF6C0 08 C7 40 04 50 B4 A1 00 C7 00 01 00 00 00 C7 40 ..@.P..........@
006EF6D0 0C FF FF FF FF C7 40 10 00 00 00 00 C6 44 18 14 ......@......D..
006EF6E0 00 75 1D 89 44 24 10 8D 44 24 10 50 E8 9F D1 FF .u..D$..D$.P....
006EF6F0 FF 8B 44 24 14 83 C4 04 A3 3C C6 A6 00 83 00 01 ..D$.....<......
006EF700 8B D8 85 DB 89 44 24 10 75 0A 5F 5E 5D 5B 83 C4 .....D$.u._^][..
006EF710 0C C2 08 00 8B 74 24 14 03 FE 83 C3 14 85 ED 89 .....t$.........
006EF720 7C 24 14 7E 6D 8B 4C 24 24 8B 54 24 20 6A 00 51 |$.~m.L$$.T$ j.Q
006EF730 8B C7 52 2B C6 56 BA 01 00 00 00 8B C8 83 ED 01 ..R+.V..........
006EF740 E8 6B BE FF FF 83 F8 FF 74 48 03 C6 8B F8 2B FE .k......tH....+.
006EF750 83 FF 10 89 44 24 18 72 0D 57 56 53 E8 CF 58 FA ....D$.r.WVS..X.
006EF760 FF 83 C4 0C EB 17 85 FF 76 13 8B C3 2B F3 8B CF ........v...+...
006EF770 8A 14 06 88 10 83 C0 01 83 E9 01 75 F3 8B 44 24 ...........u..D$
006EF780 24 8B 4C 24 18 03 DF 85 ED 8B 7C 24 14 8D 34 01 $.L$......|$..4.
006EF790 7F 93 2B FE 83 FF 10 72 19 57 56 53 E8 8F 58 FA ..+....r.WVS..X.
006EF7A0 FF 8B 44 24 1C 83 C4 0C 5F 5E 5D 5B 83 C4 0C C2 ..D$...._^][....
006EF7B0 08 00 85 FF 76 0F 2B F3 8A 14 33 88 13 83 C3 01 ....v.+...3.....
006EF7C0 83 EF 01 75 F3 8B 44 24 10 5F 5E 5D 5B 83 C4 0C ...u..D$._^][...
006EF7D0 C2 08 00 CC CC CC CC CC CC CC CC CC CC CC CC CC ................
006EF7E0 83 EC 0C 53 55 56 57 8B F9 8B 77 08 8B D8 0F BE ...SUVW...w.....
006EF7F0 44 24 20 56 50 8D 6F 14 55 FF 15 FC 46 8A 00 83 D$ VP.o.U...F...
006EF800 C4 0C 85 C0 89 44 24 18 75 2F 81 7F 04 50 B4 A1 .....D$.u/...P..
006EF810 00 75 0F 83 07 01 8B C7 5F 5E 5D 5B 83 C4 0C C2 .u......_^][....
006EF820 08 00 8B 47 08 50 55 E8 84 D1 FF FF 83 C4 08 5F ...G.PU........_
006EF830 5E 5D 5B 83 C4 0C C2 08 00 85 F6 75 09 A1 3C C6 ^][........u..<.
006EF840 A6 00 85 C0 75 58 8D 4E 18 51 E8 11 40 03 00 83 ....uX.N.Q..@...
006EF850 C4 04 85 C0 75 07 E8 B5 19 FF FF EB 44 85 F6 89 ....u.......D...
006EF860 70 08 C7 40 04 50 B4 A1 00 C7 00 01 00 00 00 C7 p..@.P..........
006EF870 40 0C FF FF FF FF C7 40 10 00 00 00 00 C6 44 30 @......@......D0
006EF880 14 00 75 1D 8D 54 24 10 52 89 44 24 14 E8 FE CF ..u..T$.R.D$....
006EF890 FF FF 8B 44 24 14 83 C4 04 A3 3C C6 A6 00 83 00 ...D$.....<.....
006EF8A0 01 8B F8 85 FF 89 44 24 10 75 0A 5F 5E 5D 5B 83 ......D$.u._^][.
006EF8B0 C4 0C C2 08 00 83 C7 14 83 FE 10 72 0D 56 55 57 ...........r.VUW
006EF8C0 E8 6B 57 FA FF 83 C4 0C EB 1D 85 F6 76 19 8B CD .kW.........v...
006EF8D0 8B C7 2B CF 89 74 24 14 8A 14 01 88 10 83 C0 01 ..+..t$.........
006EF8E0 83 6C 24 14 01 75 F1 8A 4C 24 24 8B C7 2B C5 03 .l$..u..L$$..+..
006EF8F0 44 24 18 83 EB 01 88 08 83 C0 01 03 F7 85 DB 7E D$.............~
006EF900 29 0F BE 4C 24 20 8B D6 2B D0 52 51 50 FF 15 FC )..L$ ..+.RQP...
006EF910 46 8A 00 83 C4 0C 85 C0 74 10 8A 4C 24 24 88 08 F.......t..L$$..
006EF920 83 EB 01 83 C0 01 85 DB 7F D7 8B 44 24 10 5F 5E ...........D$._^
006EF930 5D 5B 83 C4 0C C2 08 00 CC CC CC CC CC CC CC CC ][..............
006EF940 83 EC 08 53 55 56 8B F0 8B 44 24 18 8B 6E 08 6A ...SUV...D$..n.j
006EF950 00 57 50 8D 5E 14 53 BA 01 00 00 00 8B C5 8B CD .WP.^.S.........
006EF960 E8 4B BC FF FF 83 F8 FF 89 44 24 10 75 2A 81 7E .K.......D$.u*.~
006EF970 04 50 B4 A1 00 75 0E 83 06 01 8B C6 5E 5D 5B 83 .P...u......^][.
006EF980 C4 08 C2 0C 00 55 53 E8 24 D0 FF FF 83 C4 08 5E .....US.$......^
006EF990 5D 5B 83 C4 08 C2 0C 00 85 ED 75 09 A1 3C C6 A6 ][........u..<..
006EF9A0 00 85 C0 75 58 8D 4D 18 51 E8 B2 3E 03 00 83 C4 ...uX.M.Q..>....
006EF9B0 04 85 C0 75 07 E8 56 18 FF FF EB 44 85 ED 89 68 ...u..V....D...h
006EF9C0 08 C7 40 04 50 B4 A1 00 C7 00 01 00 00 00 C7 40 ..@.P..........@
006EF9D0 0C FF FF FF FF C7 40 10 00 00 00 00 C6 44 28 14 ......@......D(.
006EF9E0 00 75 1D 8D 54 24 0C 52 89 44 24 10 E8 9F CE FF .u..T$.R.D$.....
006EF9F0 FF 8B 44 24 10 83 C4 04 A3 3C C6 A6 00 83 00 01 ..D$.....<......
006EFA00 85 C0 89 44 24 0C 75 09 5E 5D 5B 83 C4 08 C2 0C ...D$.u.^][.....
006EFA10 00 83 C0 14 83 FD 10 72 0D 55 53 50 E8 0F 56 FA .......r.USP..V.
006EFA20 FF 83 C4 0C EB 17 85 ED 76 13 8B CB 2B C8 8B F5 ........v...+...
006EFA30 8A 14 01 88 10 83 C0 01 83 EE 01 75 F3 8B 74 24 ...........u..t$
006EFA40 0C 8B 44 24 10 83 C6 14 03 F0 83 FF 10 72 11 8B ..D$.........r..
006EFA50 4C 24 1C 57 51 56 E8 D5 55 FA FF 83 C4 0C EB 1D L$.WQV..U.......
006EFA60 85 FF 76 19 8B 4C 24 1C 8B C6 2B CE 8B D7 8B FF ..v..L$...+.....
006EFA70 8A 1C 01 88 18 83 C0 01 83 EA 01 75 F3 8B 44 24 ...........u..D$
006EFA80 0C 8B 5C 24 20 83 C0 14 03 C5 83 EB 01 03 F7 85 ..\$ ...........
006EFA90 DB 89 44 24 10 7E 65 EB 07 8D A4 24 00 00 00 00 ..D$.~e....$....
006EFAA0 8B 54 24 18 8B 44 24 10 6A 00 57 52 2B C6 56 BA .T$..D$.j.WR+.V.
006EFAB0 01 00 00 00 8B C8 E8 F5 BA FF FF 83 F8 FF 74 3C ..............t<
006EFAC0 03 F0 83 FF 10 72 11 8B 44 24 1C 57 50 56 E8 5D .....r..D$.WPV.]
006EFAD0 55 FA FF 83 C4 0C EB 1B 85 FF 76 17 8B 4C 24 1C U.........v..L$.
006EFAE0 8B C6 2B CE 8B EF 8A 14 01 88 10 83 C0 01 83 ED ..+.............
006EFAF0 01 75 F3 83 EB 01 03 F7 85 DB 7F A4 8B 44 24 0C .u...........D$.
006EFB00 5E 5D 5B 83 C4 08 C2 0C 00 CC CC CC CC CC CC CC ^][.............
006EFB10 83 EC 10 53 56 57 8B F1 8B 4C 24 20 8B 5E 08 50 ...SVW...L$ .^.P
006EFB20 8D 7E 14 51 8B CB 8B C7 E8 33 BA FF FF 85 C0 89 .~.Q.....3......
006EFB30 44 24 0C 75 2D 81 7E 04 50 B4 A1 00 75 0E 83 06 D$.u-.~.P...u...
006EFB40 01 5F 8B C6 5E 5B 83 C4 10 C2 0C 00 8B 56 08 52 ._..^[.......V.R
006EFB50 57 E8 5A CE FF FF 83 C4 08 5F 5E 5B 83 C4 10 C2 W.Z......_^[....
006EFB60 0C 00 55 8B 6C 24 2C 8D 4D FF 8B F1 0F AF F0 8B ..U.l$,.M.......
006EFB70 C6 99 F7 F9 3B 44 24 10 74 1F A1 98 85 A1 00 68 ....;D$.t......h
006EFB80 D4 4D 8D 00 50 E8 F6 13 FF FF 83 C4 08 5D 5F 5E .M..P........]_^
006EFB90 33 C0 5B 83 C4 10 C2 0C 00 03 F3 79 20 8B 0D 98 3.[........y ...
006EFBA0 85 A1 00 68 D4 4D 8D 00 51 E8 D2 13 FF FF 83 C4 ...h.M..Q.......
006EFBB0 08 5D 5F 5E 33 C0 5B 83 C4 10 C2 0C 00 56 6A 00 .]_^3.[......Vj.
006EFBC0 E8 EB CD FF FF 8B D0 83 C4 08 85 D2 89 54 24 1C .............T$.
006EFBD0 74 DF 03 DF 83 7C 24 10 00 8D 72 14 89 5C 24 18 t....|$...r..\$.
006EFBE0 0F 8E 00 01 00 00 EB 08 8D A4 24 00 00 00 00 90 ..........$.....
006EFBF0 0F BE 44 24 24 83 6C 24 10 01 8B D3 2B D7 52 50 ..D$$.l$....+.RP
006EFC00 57 FF 15 FC 46 8A 00 8B D0 83 C4 0C 85 D2 89 54 W...F..........T
006EFC10 24 14 0F 84 CA 00 00 00 3B D7 75 46 83 FD 10 72 $.......;.uF...r
006EFC20 19 8B 44 24 28 55 50 56 E8 03 54 FA FF 83 C4 0C ..D$(UPV..T.....
006EFC30 03 F5 83 C7 01 E9 9D 00 00 00 85 ED 76 1D 8B 4C ............v..L
006EFC40 24 28 8B C6 2B CE 8A 14 01 88 10 83 C0 01 83 ED $(..+...........
006EFC50 01 75 F3 8B 6C 24 2C 8B 5C 24 18 03 F5 83 C7 01 .u..l$,.\$......
006EFC60 EB 75 8B DA 2B DF 83 FB 10 72 0D 53 57 56 E8 BD .u..+....r.SWV..
006EFC70 53 FA FF 83 C4 0C EB 1B 85 DB 76 1B 8B C6 2B FE S.........v...+.
006EFC80 8B EB 8A 0C 07 88 08 83 C0 01 83 ED 01 75 F3 8B .............u..
006EFC90 6C 24 2C 8B 54 24 14 03 F3 83 FD 10 72 15 8B 54 l$,.T$......r..T
006EFCA0 24 28 55 52 56 E8 86 53 FA FF 8B 54 24 20 83 C4 $(URV..S...T$ ..
006EFCB0 0C EB 1B 85 ED 76 17 8B 4C 24 28 8B C6 2B CE 8B .....v..L$(..+..
006EFCC0 FD 8A 1C 01 88 18 83 C0 01 83 EF 01 75 F3 8B 5C ............u..\
006EFCD0 24 18 03 F5 8D 7A 01 83 7C 24 10 00 0F 8F 0E FF $....z..|$......
006EFCE0 FF FF 8B 54 24 1C 2B DF 8B CB 83 F9 10 72 1B 51 ...T$.+......r.Q
006EFCF0 57 56 E8 39 53 FA FF 8B 54 24 28 83 C4 0C 5D 5F WV.9S...T$(...]_
006EFD00 5E 8B C2 5B 83 C4 10 C2 0C 00 85 C9 76 11 8B C6 ^..[........v...
006EFD10 2B FE 8A 1C 38 88 18 83 C0 01 83 E9 01 75 F3 5D +...8........u.]
006EFD20 5F 5E 8B C2 5B 83 C4 10 C2 0C 00 CC CC CC CC CC _^..[...........
006EFD30 83 EC 10 53 8B 5C 24 1C 55 56 57 50 8B F9 8B 4C ...S.\$.UVWP...L
006EFD40 24 28 8B 6F 08 6A 01 6A 00 51 8D 77 14 56 8B C5 $(.o.j.j.Q.w.V..
006EFD50 8B CD E8 89 BA FF FF 8B D8 85 DB 75 2C 81 7F 04 ...........u,...
006EFD60 50 B4 A1 00 75 0F 83 07 01 8B C7 5F 5E 5D 5B 83 P...u......_^][.
006EFD70 C4 10 C2 10 00 55 56 E8 34 CC FF FF 83 C4 08 5F .....UV.4......_
006EFD80 5E 5D 5B 83 C4 10 C2 10 00 8B 7C 24 30 2B 7C 24 ^][.......|$0+|$
006EFD90 28 8B CF 0F AF CB 8B C1 99 F7 FF 3B C3 74 20 8B (..........;.t .
006EFDA0 15 98 85 A1 00 68 D4 4D 8D 00 52 E8 D0 11 FF FF .....h.M..R.....
006EFDB0 83 C4 08 5F 5E 5D 33 C0 5B 83 C4 10 C2 10 00 03 ..._^]3.[.......
006EFDC0 CD 79 1F A1 98 85 A1 00 68 D4 4D 8D 00 50 E8 AD .y......h.M..P..
006EFDD0 11 FF FF 83 C4 08 5F 5E 5D 33 C0 5B 83 C4 10 C2 ......_^]3.[....
006EFDE0 10 00 51 6A 00 E8 C6 CB FF FF 83 C4 08 85 C0 89 ..Qj............
006EFDF0 44 24 18 74 BE 03 EE 85 DB 8D 78 14 89 6C 24 14 D$.t......x..l$.
006EFE00 0F 8E 18 01 00 00 8B 4C 24 28 8B 54 24 24 6A 00 .......L$(.T$$j.
006EFE10 51 8B C5 52 2B C6 83 EB 01 56 BA 01 00 00 00 8B Q..R+....V......
006EFE20 C8 89 5C 24 2C E8 86 B7 FF FF 83 F8 FF 0F 84 E7 ..\$,...........
006EFE30 00 00 00 8D 2C 30 3B EE 89 6C 24 10 75 4E 8B 6C ....,0;..l$.uN.l
006EFE40 24 30 83 FD 10 72 1A 8B 44 24 2C 55 50 57 E8 DD $0...r..D$,UPW..
006EFE50 51 FA FF 83 C4 0C 03 FD 03 74 24 28 E9 AD 00 00 Q........t$(....
006EFE60 00 85 ED 76 1C 8B 4C 24 2C 8B C7 2B CF 8D 49 00 ...v..L$,..+..I.
006EFE70 8A 14 01 88 10 83 C0 01 83 ED 01 75 F3 8B 6C 24 ...........u..l$
006EFE80 30 03 FD 03 74 24 28 E9 82 00 00 00 8B DD 2B DE 0...t$(.......+.
006EFE90 83 FB 10 72 0D 53 56 57 E8 93 51 FA FF 83 C4 0C ...r.SVW..Q.....
006EFEA0 EB 1F 85 DB 76 1B 8B C7 2B F7 8B EB 8D 64 24 00 ....v...+....d$.
006EFEB0 8A 0C 06 88 08 83 C0 01 83 ED 01 75 F3 8B 6C 24 ...........u..l$
006EFEC0 10 8B 74 24 30 03 FB 83 FE 10 72 11 8B 54 24 2C ..t$0.....r..T$,
006EFED0 56 52 57 E8 58 51 FA FF 83 C4 0C EB 24 85 F6 76 VRW.XQ......$..v
006EFEE0 20 8B 4C 24 2C 8B C7 2B CF 8B EE EB 03 8D 49 00  .L$,..+......I.
006EFEF0 8A 14 01 88 10 83 C0 01 83 ED 01 75 F3 8B 6C 24 ...........u..l$
006EFF00 10 8B 44 24 28 8B 5C 24 1C 03 FE 8D 34 28 85 DB ..D$(.\$....4(..
006EFF10 8B 6C 24 14 0F 8F EC FE FF FF 8B 44 24 18 2B EE .l$........D$.+.
006EFF20 83 FD 10 72 19 55 56 57 E8 03 51 FA FF 8B 44 24 ...r.UVW..Q...D$
006EFF30 24 83 C4 0C 5F 5E 5D 5B 83 C4 10 C2 10 00 85 ED $..._^][........
006EFF40 76 0F 2B F7 8A 0C 37 88 0F 83 C7 01 83 ED 01 75 v.+...7........u
006EFF50 F3 5F 5E 5D 5B 83 C4 10 C2 10 00 CC CC CC CC CC ._^][...........
006EFF60 85 C0 55 8B 6C 24 0C 57 8B 7C 24 0C 7D 07 B8 FF ..U.l$.W.|$.}...
006EFF70 FF FF 7F EB 10 0F 84 DD 00 00 00 83 7A 08 00 0F ............z...
006EFF80 84 D3 00 00 00 85 FF 75 15 85 C9 0F 84 9F 00 00 .......u........
006EFF90 00 51 55 52 E8 F7 F2 FF FF 5F 5D C2 08 00 83 7A .QUR....._]....z
006EFFA0 08 00 75 0C 8B C2 E8 C5 F2 FF FF 5F 5D C2 08 00 ..u........_]...
006EFFB0 85 C9 75 27 83 FF 01 75 12 0F B6 0E 5F 5D 89 4C ..u'...u...._].L
006EFFC0 24 08 89 54 24 04 E9 C5 F4 FF FF 57 8B C8 56 8B $..T$......W..V.
006EFFD0 C2 E8 5A F6 FF FF 5F 5D C2 08 00 3B F9 75 2C 83 ..Z..._]...;.u,.
006EFFE0 FF 01 75 18 0F B6 4D 00 5F 5D 89 4C 24 08 0F B6 ..u...M._].L$...
006EFFF0 0E 89 4C 24 04 8B CA E9 E4 F7 FF FF 50 55 56 8B ..L$........PUV.
006F0000 C2 E8 3A F9 FF FF 5F 5D C2 08 00 83 FF 01 51 55 ..:..._]......QU
006F0010 75 10 0F B6 0E 51 8B CA E8 F3 FA FF FF 5F 5D C2 u....Q......._].
006F0020 08 00 57 56 8B CA E8 05 FD FF FF 5F 5D C2 08 00 ..WV......._]...
006F0030 81 7A 04 50 B4 A1 00 75 0A 83 02 01 5F 8B C2 5D .z.P...u...._..]
006F0040 C2 08 00 8B 42 08 50 83 C2 14 52 E8 60 C9 FF FF ....B.P...R.`...
006F0050 83 C4 08 5F 5D C2 08 00 81 7A 04 50 B4 A1 00 74 ..._]....z.P...t
006F0060 D8 8B 4A 08 51 83 C2 14 52 E8 42 C9 FF FF 83 C4 ..J.Q...R.B.....
006F0070 08 5F 5D C2 08 00 CC CC CC CC CC CC CC CC CC CC ._].............
006F0080 83 EC 1C 8D 44 24 08 50 8B 44 24 28 8D 4C 24 08 ....D$.P.D$(.L$.
006F0090 51 8D 54 24 08 52 68 F0 4D 8D 00 50 C7 44 24 1C Q.T$.Rh.M..P.D$.
006F00A0 FF FF FF FF E8 07 7C FF FF 83 C4 14 85 C0 75 04 ......|.......u.
006F00B0 83 C4 1C C3 8B 04 24 81 78 04 50 B4 A1 00 74 18 ......$.x.P...t.
006F00C0 8B 48 04 68 50 B4 A1 00 51 E8 A2 55 FE FF 83 C4 .H.hP...Q..U....
006F00D0 08 85 C0 8B 04 24 74 0E 8D 50 14 89 54 24 18 8B .....$t..P..T$..
006F00E0 48 08 89 4C 24 10 56 BE 20 3B A2 00 39 70 04 0F H..L$.V. ;..9p..
006F00F0 84 E5 00 00 00 8B 50 04 56 52 E8 71 55 FE FF 83 ......P.VR.qU...
006F0100 C4 08 85 C0 0F 85 CC 00 00 00 8B 54 24 04 8D 44 ...........T$..D
006F0110 24 14 50 8D 4C 24 20 51 52 E8 62 17 01 00 83 C4 $.P.L$ QR.b.....
006F0120 0C 85 C0 75 57 8B 44 24 08 81 78 04 50 B4 A1 00 ...uW.D$..x.P...
006F0130 74 72 8B 40 04 68 50 B4 A1 00 50 E8 30 55 FE FF tr.@.hP...P.0U..
006F0140 83 C4 08 85 C0 8B 44 24 08 75 59 39 70 04 74 37 ......D$.uY9p.t7
006F0150 8B 48 04 56 51 E8 16 55 FE FF 83 C4 08 85 C0 75 .H.VQ..U.......u
006F0160 22 8B 4C 24 08 8D 54 24 18 52 8D 44 24 14 50 51 ".L$..T$.R.D$.PQ
006F0170 E8 0B 17 01 00 83 C4 0C 85 C0 74 36 33 C0 5E 83 ..........t63.^.
006F0180 C4 1C C3 8B 44 24 08 8B 54 24 0C 8B 4C 24 24 52 ....D$..T$..L$$R
006F0190 50 8B 44 24 0C 50 51 E8 A4 17 03 00 83 C4 10 5E P.D$.PQ........^
006F01A0 83 C4 1C C3 8D 50 14 89 54 24 10 8B 40 08 89 44 .....P..T$..@..D
006F01B0 24 18 8B 4C 24 10 8B 54 24 14 8B 44 24 0C 8B 74 $..L$..T$..D$..t
006F01C0 24 1C 51 8B 4C 24 1C 52 8B 54 24 2C E8 8F FD FF $.Q.L$.R.T$,....
006F01D0 FF 5E 83 C4 1C C3 8B 44 24 04 8B 4C 24 0C 8B 54 .^.....D$..L$..T
006F01E0 24 08 51 52 50 8B 44 24 30 50 E8 51 17 03 00 83 $.QRP.D$0P.Q....
006F01F0 C4 10 5E 83 C4 1C C3 CC CC CC CC CC CC CC CC CC ..^.............
006F0200 83 EC 0C 8B 4C 24 14 8D 04 24 50 68 18 4E 8D 00 ....L$...$Ph.N..
006F0210 51 C7 44 24 0C 08 00 00 00 E8 92 7A FF FF 83 C4 Q.D$.......z....
006F0220 0C 85 C0 75 04 83 C4 0C C3 8B 44 24 10 8B 50 08 ...u......D$..P.
006F0230 53 55 56 8D 70 14 57 8D 54 02 14 8B FE 33 DB 33 SUV.p.W.T....3.3
006F0240 C9 33 ED 3B FA 89 54 24 18 73 48 EB 03 8D 49 00 .3.;..T$.sH...I.
006F0250 8A 07 3C 09 75 1E 83 7C 24 10 00 7E 2D 8B C1 99 ..<.u..|$..~-...
006F0260 F7 7C 24 10 8B 44 24 10 2B C2 03 C8 3B D9 7F 47 .|$..D$.+...;..G
006F0270 8B D9 EB 16 83 C1 01 3C 0A 74 04 3C 0D 75 0B 03 .......<.t.<.u..
006F0280 E9 B9 00 00 00 00 8B D9 78 4B 83 C7 01 3B 7C 24 ........xK...;|$
006F0290 18 72 BD 8D 3C 29 85 FF 7D 59 A1 98 85 A1 00 68 .r..<)..}Y.....h
006F02A0 00 4E 8D 00 50 E8 D6 0C FF FF 83 C4 08 5F 5E 5D .N..P........_^]
006F02B0 33 C0 5B 83 C4 0C C3 8B 0D 98 85 A1 00 68 00 4E 3.[..........h.N
006F02C0 8D 00 51 E8 B8 0C FF FF 83 C4 08 5F 5E 5D 33 C0 ..Q........_^]3.
006F02D0 5B 83 C4 0C C3 8B 15 98 85 A1 00 68 00 4E 8D 00 [..........h.N..
006F02E0 52 E8 9A 0C FF FF 83 C4 08 5F 5E 5D 33 C0 5B 83 R........_^]3.[.
006F02F0 C4 0C C3 75 09 A1 3C C6 A6 00 85 C0 75 58 8D 4F ...u..<.....uX.O
006F0300 18 51 E8 59 35 03 00 83 C4 04 85 C0 75 07 E8 FD .Q.Y5.......u...
006F0310 0E FF FF EB 44 85 FF 89 78 08 C7 40 04 50 B4 A1 ....D...x..@.P..
006F0320 00 C7 00 01 00 00 00 C7 40 0C FF FF FF FF C7 40 ........@......@
006F0330 10 00 00 00 00 C6 44 38 14 00 75 1D 8D 54 24 14 ......D8..u..T$.
006F0340 52 89 44 24 18 E8 46 C5 FF FF 8B 44 24 18 83 C4 R.D$..F....D$...
006F0350 04 A3 3C C6 A6 00 83 00 01 85 C0 89 44 24 14 0F ..<.........D$..
006F0360 84 48 FF FF FF 8B EE 33 DB 3B 6C 24 18 8D 78 14 .H.....3.;l$..x.
006F0370 73 4E 8A 45 00 3C 09 75 25 8B 74 24 10 85 F6 7E sN.E.<.u%.t$...~
006F0380 32 8B C3 99 F7 FE 2B F2 03 DE 85 F6 74 25 56 6A 2.....+.....t%Vj
006F0390 20 57 E8 89 4C FA FF 83 C4 0C 03 FE EB 15 88 07  W..L...........
006F03A0 8A 45 00 83 C3 01 83 C7 01 3C 0A 74 04 3C 0D 75 .E.......<.t.<.u
006F03B0 02 33 DB 83 C5 01 3B 6C 24 18 72 B6 8B 44 24 14 .3....;l$.r..D$.
006F03C0 5F 5E 5D 5B 83 C4 0C C3 CC CC CC CC CC CC CC CC _^][............
006F03D0 55 8B 6C 24 08 85 ED 7D 02 33 ED 8B 44 24 0C 85 U.l$...}.3..D$..
006F03E0 C0 7D 0C C7 44 24 0C 00 00 00 00 8B 44 24 0C 85 .}..D$......D$..
006F03F0 ED 75 16 85 C0 75 12 81 7B 04 50 B4 A1 00 75 09 .u...u..{.P...u.
006F0400 83 03 01 8B C3 5D C2 0C 00 56 8B 73 08 03 F5 03 .....]...V.s....
006F0410 F0 57 75 0F 8B 3D 3C C6 A6 00 85 FF 74 05 83 07 .Wu..=<.....t...
006F0420 01 EB 5D 8D 46 18 50 E8 34 34 03 00 83 C4 04 85 ..].F.P.44......
006F0430 C0 75 07 E8 D8 0D FF FF EB 44 85 F6 89 70 08 C7 .u.......D...p..
006F0440 40 04 50 B4 A1 00 C7 00 01 00 00 00 C7 40 0C FF @.P..........@..
006F0450 FF FF FF C7 40 10 00 00 00 00 C6 44 30 14 00 75 ....@......D0..u
006F0460 1D 8D 4C 24 10 51 89 44 24 14 E8 21 C4 FF FF 8B ..L$.Q.D$..!....
006F0470 44 24 14 83 C4 04 83 00 01 A3 3C C6 A6 00 8B F8 D$........<.....
006F0480 85 FF 74 6A 85 ED 74 13 0F BE 54 24 18 55 52 8D ..tj..t...T$.UR.
006F0490 47 14 50 E8 88 4B FA FF 83 C4 0C 8B 4B 08 83 F9 G.P..K......K...
006F04A0 10 8D 44 2F 14 8D 53 14 72 0D 51 52 50 E8 7E 4B ..D/..S.r.QRP.~K
006F04B0 FA FF 83 C4 0C EB 16 85 C9 76 12 2B D0 8B F1 90 .........v.+....
006F04C0 8A 0C 02 88 08 83 C0 01 83 EE 01 75 F3 8B 44 24 ...........u..D$
006F04D0 14 85 C0 74 19 0F BE 54 24 18 50 8B 43 08 03 C7 ...t...T$.P.C...
006F04E0 52 8D 4C 28 14 51 E8 35 4B FA FF 83 C4 0C 8B C7 R.L(.Q.5K.......
006F04F0 5F 5E 5D C2 0C 00 CC CC CC CC CC CC CC CC CC CC _^].............
006F0500 83 EC 08 8B 54 24 10 8D 04 24 50 8D 4C 24 08 51 ....T$...$P.L$.Q
006F0510 68 28 4E 8D 00 52 C6 44 24 10 20 E8 90 77 FF FF h(N..R.D$. ..w..
006F0520 83 C4 10 85 C0 75 04 83 C4 08 C3 8B 44 24 0C 8B .....u......D$..
006F0530 50 08 8B 4C 24 04 3B D1 7C 10 81 78 04 50 B4 A1 P..L$.;.|..x.P..
006F0540 00 75 07 83 00 01 83 C4 08 C3 53 56 8B 74 24 08 .u........SV.t$.
006F0550 56 2B CA 51 6A 00 8B D8 E8 73 FE FF FF 5E 5B 83 V+.Qj....s...^[.
006F0560 C4 08 C3 CC CC CC CC CC CC CC CC CC CC CC CC CC ................
006F0570 83 EC 08 8B 54 24 10 8D 04 24 50 8D 4C 24 08 51 ....T$...$P.L$.Q
006F0580 68 34 4E 8D 00 52 C6 44 24 10 20 E8 20 77 FF FF h4N..R.D$. . w..
006F0590 83 C4 10 85 C0 75 04 83 C4 08 C3 8B 44 24 0C 8B .....u......D$..
006F05A0 50 08 8B 4C 24 04 3B D1 7C 10 81 78 04 50 B4 A1 P..L$.;.|..x.P..
006F05B0 00 75 07 83 00 01 83 C4 08 C3 53 56 8B 74 24 08 .u........SV.t$.
006F05C0 56 6A 00 2B CA 51 8B D8 E8 03 FE FF FF 5E 5B 83 Vj.+.Q.......^[.
006F05D0 C4 08 C3 CC CC CC CC CC CC CC CC CC CC CC CC CC ................
006F05E0 83 EC 08 8B 54 24 10 8D 04 24 50 8D 4C 24 08 51 ....T$...$P.L$.Q
006F05F0 68 40 4E 8D 00 52 C6 44 24 10 20 E8 B0 76 FF FF h@N..R.D$. ..v..
006F0600 83 C4 10 85 C0 75 04 83 C4 08 C3 8B 44 24 04 53 .....u......D$.S
006F0610 8B 5C 24 10 8B 53 08 3B D0 7C 13 81 7B 04 50 B4 .\$..S.;.|..{.P.
006F0620 A1 00 75 0A 83 03 01 8B C3 5B 83 C4 08 C3 8B C8 ..u......[......
006F0630 56 2B CA 8B F1 23 F0 8B C1 99 2B C2 D1 F8 83 E6 V+...#....+.....
006F0640 01 03 F0 8B 44 24 08 50 2B CE 51 56 E8 7F FD FF ....D$.P+.QV....
006F0650 FF 5E 5B 83 C4 08 C3 CC CC CC CC CC CC CC CC CC .^[.............
006F0660 51 8B 4C 24 0C 8D 04 24 50 68 4C 4E 8D 00 51 E8 Q.L$...$PhLN..Q.
006F0670 3C 76 FF FF 83 C4 0C 85 C0 75 02 59 C3 8B 44 24 <v.......u.Y..D$
006F0680 08 8B 50 08 8B 0C 24 3B D1 7C 1D 81 78 04 50 B4 ..P...$;.|..x.P.
006F0690 A1 00 75 05 83 00 01 59 C3 52 83 C0 14 50 E8 0D ..u....Y.R...P..
006F06A0 C3 FF FF 83 C4 08 59 C3 53 56 6A 30 2B CA 8B F1 ......Y.SVj0+...
006F06B0 6A 00 56 8B D8 E8 16 FD FF FF 85 C0 75 04 5E 5B j.V.........u.^[
006F06C0 59 C3 8A 4C 30 14 80 F9 2B 74 05 80 F9 2D 75 08 Y..L0...+t...-u.
006F06D0 88 48 14 C6 44 30 14 30 5E 5B 59 C3 CC CC CC CC .H..D0.0^[Y.....
006F06E0 83 EC 08 8B 4C 24 10 56 8D 44 24 08 50 68 54 4E ....L$.V.D$.PhTN
006F06F0 8D 00 33 F6 51 89 74 24 14 E8 B2 75 FF FF 83 C4 ..3.Q.t$...u....
006F0700 0C 85 C0 75 05 5E 83 C4 08 C3 53 55 8B 6C 24 18 ...u.^....SU.l$.
006F0710 8B 5D 08 57 56 E8 36 1F 00 00 83 C4 04 3B C6 89 .].WV.6......;..
006F0720 44 24 10 0F 84 BA 00 00 00 33 C9 3B F3 0F 8D B2 D$.......3.;....
006F0730 00 00 00 8A 44 2E 14 3C 0A 74 0B 3C 0D 74 07 83 ....D..<.t.<.t..
006F0740 C6 01 3B F3 7C ED 3B F3 8B C6 7D 26 80 7C 2E 14 ..;.|.;...}&.|..
006F0750 0D 75 13 8D 56 01 3B D3 7D 0C 80 7C 2E 15 0A 75 .u..V.;.}..|...u
006F0760 05 83 C6 02 EB 03 83 C6 01 83 7C 24 14 00 74 02 ..........|$..t.
006F0770 8B C6 2B C1 50 8D 44 29 14 50 E8 31 C2 FF FF 8B ..+.P.D).P.1....
006F0780 F8 83 C4 08 85 FF 74 46 8B 4C 24 10 57 51 E8 7D ......tF.L$.WQ.}
006F0790 22 00 00 83 C4 08 85 C0 75 23 83 07 FF 75 0C 8B ".......u#...u..
006F07A0 57 04 8B 42 18 57 FF D0 83 C4 04 3B F3 8B CE 7C W..B.W.....;...|
006F07B0 82 8B 44 24 10 5F 5D 5B 5E 83 C4 08 C3 83 07 FF ..D$._][^.......
006F07C0 75 0C 8B 4F 04 8B 51 18 57 FF D2 83 C4 04 8B 44 u..O..Q.W......D
006F07D0 24 10 83 00 FF 75 0C 8B 48 04 8B 51 18 50 FF D2 $....u..H..Q.P..
006F07E0 83 C4 04 33 C0 5F 5D 5B 5E 83 C4 08 C3 CC CC CC ...3._][^.......
006F07F0 51 8B 44 24 08 3D 50 B4 A1 00 8B 4C 24 10 8B 54 Q.D$.=P....L$..T
006F0800 24 0C C7 04 24 00 00 00 00 74 0D 51 52 50 E8 4D $...$....t.QRP.M
006F0810 00 00 00 83 C4 0C 59 C3 8D 04 24 50 68 08 B2 A1 ......Y...$Ph...
006F0820 00 68 64 4E 8D 00 51 52 E8 63 73 FF FF 83 C4 14 .hdN..QR.cs.....
006F0830 85 C0 75 02 59 C3 8B 04 24 85 C0 75 0F 68 8F 69 ..u.Y...$..u.h.i
006F0840 8A 00 E8 79 C2 FF FF 83 C4 04 59 C3 50 E8 1E D7 ...y......Y.P...
006F0850 FE FF 83 C4 04 59 C3 CC CC CC CC CC CC CC CC CC .....Y..........
006F0860 8B 44 24 0C 8B 4C 24 08 55 50 51 68 50 B4 A1 00 .D$..L$.UPQhP...
006F0870 E8 7B FF FF FF 8B E8 83 C4 0C 85 ED 75 02 5D C3 .{..........u.].
006F0880 8B 44 24 08 8B 90 98 00 00 00 56 8B 75 08 57 56 .D$.......V.u.WV
006F0890 50 FF D2 8B F8 83 C4 08 85 FF 74 3E 8D 4E 01 83 P.........t>.N..
006F08A0 F9 10 8D 47 14 8D 55 14 72 0D 51 52 50 E8 7E 47 ...G..U.r.QRP.~G
006F08B0 FA FF 83 C4 0C EB 16 85 C9 76 12 2B D0 8B F1 90 .........v.+....
006F08C0 8A 0C 02 88 08 83 C0 01 83 EE 01 75 F3 8B 55 0C ...........u..U.
006F08D0 89 57 0C C7 47 10 00 00 00 00 83 45 00 FF 75 0C .W..G......E..u.
006F08E0 8B 45 04 8B 48 18 55 FF D1 83 C4 04 8B C7 5F 5E .E..H.U......._^
006F08F0 5D C3 CC CC CC CC CC CC CC CC CC CC CC CC CC CC ]...............
006F0900 8B 44 24 10 83 EC 10 55 83 C0 A8 33 ED 83 F8 20 .D$....U...3... 
006F0910 57 77 55 0F B6 80 44 0B 6F 00 FF 24 85 34 0B 6F WwU...D.o..$.4.o
006F0920 00 8B 44 24 1C 8B 48 04 8B 51 44 50 FF D2 8B F8 ..D$..H..QDP....
006F0930 89 7C 24 0C EB 2B 8B 44 24 1C 8B 48 04 8B 51 30 .|$..+.D$..H..Q0
006F0940 50 8B 42 54 EB 13 8B 44 24 1C 8B 48 04 8B 51 30 P.BT...D$..H..Q0
006F0950 50 8B 42 58 BD 02 00 00 00 FF D0 8B F8 89 44 24 P.BX..........D$
006F0960 0C 83 C4 04 85 FF 75 08 5F 33 C0 5D 83 C4 10 C3 ......u._3.]....
006F0970 56 57 E8 D9 C2 FF FF 8B F0 83 C4 04 85 F6 75 1A VW............u.
006F0980 83 07 FF 75 0C 8B 4F 04 8B 51 18 57 FF D2 83 C4 ...u..O..Q.W....
006F0990 04 5E 5F 33 C0 5D 83 C4 10 C3 83 3F 01 74 1B 68 .^_3.].....?.t.h
006F09A0 AD 10 00 00 68 7C 48 8D 00 E8 12 14 FF FF 83 C4 ....h|H.........
006F09B0 08 5E 5F 33 C0 5D 83 C4 10 C3 57 E8 40 C2 FF FF .^_3.]....W.@...
006F09C0 83 C4 04 3D FF FF FF 7F 7E 1C A1 2C 7E A1 00 68 ...=....~..,~..h
006F09D0 6C 4E 8D 00 50 E8 A6 05 FF FF 83 C4 08 5E 5F 33 lN..P........^_3
006F09E0 C0 5D 83 C4 10 C3 80 7C 30 FF 4C 8B D0 75 07 8D .].....|0.L..u..
006F09F0 50 FF C6 04 32 00 33 C9 80 3E 2D 53 0F 94 C1 8B P...2.3..>-S....
006F0A00 DA 03 E9 2B DD F6 44 24 28 08 75 26 8B 44 24 30 ...+..D$(.u&.D$0
006F0A10 83 F8 58 74 0A 83 F8 6F 74 58 83 F8 78 75 13 B8 ..Xt...otX..xu..
006F0A20 02 00 00 00 83 ED 02 03 F0 2B D0 85 C9 74 03 C6 .........+...t..
006F0A30 06 2D 8B 44 24 2C 3B C3 0F 8E BB 00 00 00 03 C5 .-.D$,;.........
006F0A40 50 6A 00 89 44 24 24 E8 64 BF FF FF 83 C4 08 85 Pj..D$$.d.......
006F0A50 C0 89 44 24 14 75 29 83 07 FF 75 0C 8B 4F 04 8B ..D$.u)...u..O..
006F0A60 51 18 57 FF D2 83 C4 04 5B 5E 5F 33 C0 5D 83 C4 Q.W.....[^_3.]..
006F0A70 10 C3 83 FB 01 7E BB B8 01 00 00 00 2B D8 EB A7 .....~......+...
006F0A80 85 ED 8D 78 14 89 7C 24 18 7E 14 EB 03 8D 49 00 ...x..|$.~....I.
006F0A90 8A 0E 88 0F 83 C7 01 83 C6 01 83 ED 01 75 F1 8B .............u..
006F0AA0 6C 24 2C 2B EB 85 ED 7E 12 55 6A 30 57 E8 6E 45 l$,+...~.Uj0W.nE
006F0AB0 FA FF 8B 44 24 20 83 C4 0C 03 FD 85 DB 7E 10 90 ...D$ .......~..
006F0AC0 8A 16 88 17 83 C7 01 83 C6 01 83 EB 01 75 F1 8B .............u..
006F0AD0 4C 24 10 C6 07 00 83 01 FF 75 10 8B 41 04 51 8B L$.......u..A.Q.
006F0AE0 48 18 FF D1 8B 44 24 18 83 C4 04 8B 74 24 18 8B H....D$.....t$..
006F0AF0 54 24 1C 89 44 24 10 8B F8 83 7C 24 30 58 75 1D T$..D$....|$0Xu.
006F0B00 33 C9 85 D2 7E 17 8A 04 31 3C 61 7C 09 3C 78 7F 3...~...1<a|.<x.
006F0B10 05 2C 20 88 04 31 83 C1 01 3B CA 7C E9 8B 44 24 ., ..1...;.|..D$
006F0B20 34 8B 4C 24 38 5B 89 30 5E 8B C7 5F 89 11 5D 83 4.L$8[.0^.._..].
006F0B30 C4 10 C3 90 46 09 6F 00 21 09 6F 00 36 09 6F 00 ....F.o.!.o.6.o.
006F0B40 68 09 6F 00 00 03 03 03 03 03 03 03 03 03 03 03 h.o.............
006F0B50 01 03 03 03 03 03 03 03 03 03 03 02 03 03 03 03 ................
006F0B60 03 01 03 03 00 CC CC CC CC CC CC CC CC CC CC CC ................
006F0B70 81 EC E0 00 00 00 A1 88 41 A1 00 33 C4 89 84 24 ........A..3...$
006F0B80 DC 00 00 00 8B 84 24 E4 00 00 00 56 8B B4 24 EC ......$....V..$.
006F0B90 00 00 00 57 33 FF 3B C7 89 44 24 54 89 74 24 0C ...W3.;..D$T.t$.
006F0BA0 89 7C 24 40 89 7C 24 50 0F 84 F2 0D 00 00 8B 40 .|$@.|$P.......@
006F0BB0 04 3D 50 B4 A1 00 74 16 68 50 B4 A1 00 50 E8 AD .=P...t.hP...P..
006F0BC0 4A FE FF 83 C4 08 85 C0 0F 84 D2 0D 00 00 3B F7 J.............;.
006F0BD0 0F 84 CA 0D 00 00 8B C6 89 44 24 68 8B 44 24 54 .........D$h.D$T
006F0BE0 8B 70 08 53 89 74 24 0C 83 C6 64 55 8D 58 14 8B .p.S.t$...dU.X..
006F0BF0 EE 89 5C 24 64 89 74 24 1C 89 6C 24 50 75 09 A1 ..\$d.t$..l$Pu..
006F0C00 3C C6 A6 00 85 C0 75 54 8D 4E 18 51 E8 4F 2C 03 <.....uT.N.Q.O,.
006F0C10 00 83 C4 04 85 C0 75 07 E8 F3 05 FF FF EB 40 85 ......u.......@.
006F0C20 F6 89 70 08 C7 40 04 50 B4 A1 00 C7 00 01 00 00 ..p..@.P........
006F0C30 00 C7 40 0C FF FF FF FF 89 78 10 C6 44 30 14 00 ..@......x..D0..
006F0C40 75 1D 8D 54 24 44 52 89 44 24 48 E8 40 BC FF FF u..T$DR.D$H.@...
006F0C50 8B 44 24 48 83 C4 04 A3 3C C6 A6 00 83 00 01 85 .D$H....<.......
006F0C60 C0 89 44 24 34 0F 84 F9 0C 00 00 50 E8 DF BF FF ..D$4......P....
006F0C70 FF 89 44 24 1C 8B 44 24 18 8B 40 04 83 C4 04 3D ..D$..D$..@....=
006F0C80 88 65 A1 00 74 24 68 88 65 A1 00 50 E8 DF 49 FE .e..t$h.e..P..I.
006F0C90 FF 83 C4 08 85 C0 75 12 C7 44 24 4C FF FF FF FF ......u..D$L....
006F0CA0 C7 44 24 3C FE FF FF FF EB 0F 8B 4C 24 14 8B 51 .D$<.......L$..Q
006F0CB0 08 89 54 24 4C 89 7C 24 3C 8B 44 24 14 8B 40 04 ..T$L.|$<.D$..@.
006F0CC0 39 78 38 74 41 3D 88 65 A1 00 74 3A 68 88 65 A1 9x8tA=.e..t:h.e.
006F0CD0 00 50 E8 99 49 FE FF 83 C4 08 85 C0 75 28 8B 4C .P..I.......u(.L
006F0CE0 24 14 8B 41 04 3D 00 B3 A1 00 74 1A 68 00 B3 A1 $..A.=....t.h...
006F0CF0 00 50 E8 79 49 FE FF 83 C4 08 85 C0 75 08 8B 7C .P.yI.......u..|
006F0D00 24 14 89 7C 24 58 83 6C 24 10 01 0F 88 00 0C 00 $..|$X.l$.......
006F0D10 00 80 3B 25 74 5C 83 EE 01 89 74 24 1C 79 38 8B ..;%t\....t$.y8.
006F0D20 74 24 10 83 C6 64 03 EE 8D 54 24 34 55 52 89 6C t$...d...T$4UR.l
006F0D30 24 58 E8 B9 B7 FF FF 83 C4 08 85 C0 0F 8C 22 0C $X............".
006F0D40 00 00 8B 44 24 34 2B C6 8D 4C 28 14 83 EE 01 89 ...D$4+..L(.....
006F0D50 4C 24 18 89 74 24 1C 8B 44 24 18 8A 13 88 10 83 L$..t$..D$......
006F0D60 C0 01 83 C3 01 89 44 24 18 89 5C 24 2C E9 0A 09 ......D$..\$,...
006F0D70 00 00 83 C8 FF 33 ED 89 5C 24 60 83 C3 01 33 C9 .....3..\$`...3.
006F0D80 80 3B 28 89 44 24 38 89 44 24 30 8B 44 24 3C 89 .;(.D$8.D$0.D$<.
006F0D90 4C 24 20 89 6C 24 28 89 6C 24 24 89 44 24 68 89 L$ .l$(.l$$.D$h.
006F0DA0 5C 24 2C 0F 85 BF 00 00 00 3B FD B9 01 00 00 00 \$,......;......
006F0DB0 0F 84 11 09 00 00 8B F1 03 DE 29 74 24 10 8B D3 ..........)t$...
006F0DC0 29 74 24 10 0F 88 0D 09 00 00 8A 03 3C 29 75 04 )t$.........<)u.
006F0DD0 2B CE EB 06 3C 28 75 02 03 CE 03 DE 85 C9 89 5C +...<(u........\
006F0DE0 24 2C 7F DC 8B CB 2B CA 2B CE 51 52 E8 BF BB FF $,....+.+.QR....
006F0DF0 FF 8B F0 83 C4 08 85 F6 0F 84 35 0B 00 00 83 7C ..........5....|
006F0E00 24 48 00 74 1D 8B 44 24 14 83 00 FF 75 0C 8B 50 $H.t..D$....u..P
006F0E10 04 50 8B 42 18 FF D0 83 C4 04 C7 44 24 48 00 00 .P.B.......D$H..
006F0E20 00 00 56 57 E8 F7 33 01 00 83 C4 08 83 06 FF 89 ..VW..3.........
006F0E30 44 24 14 75 0C 8B 4E 04 8B 51 18 56 FF D2 83 C4 D$.u..N..Q.V....
006F0E40 04 83 7C 24 14 00 0F 84 E7 0A 00 00 8B 4C 24 20 ..|$.........L$ 
006F0E50 C7 44 24 48 01 00 00 00 C7 44 24 4C FF FF FF FF .D$H.....D$L....
006F0E60 C7 44 24 3C FE FF FF FF 8B 54 24 10 83 EA 01 89 .D$<.....T$.....
006F0E70 54 24 10 0F 88 4B 01 00 00 8D A4 24 00 00 00 00 T$...K.....$....
006F0E80 0F BE 2B 8D 45 E0 83 C3 01 83 F8 10 77 2A 0F B6 ..+.E.......w*..
006F0E90 80 E4 19 6F 00 FF 24 85 CC 19 6F 00 83 C9 01 EB ...o..$...o.....
006F0EA0 12 83 C9 02 EB 0D 83 C9 04 EB 08 83 C9 08 EB 03 ................
006F0EB0 83 C9 10 83 EA 01 79 C8 83 FD 2A 89 54 24 10 89 ......y...*.T$..
006F0EC0 4C 24 20 89 5C 24 2C 0F 85 F3 00 00 00 8B 4C 24 L$ .\$,.......L$
006F0ED0 3C 8B 54 24 4C 3B CA 8B C1 0F 8D BD 07 00 00 83 <.T$L;..........
006F0EE0 C1 01 85 D2 89 4C 24 3C 7D 0A 8B 44 24 14 89 44 .....L$<}..D$..D
006F0EF0 24 28 EB 12 8B 4C 24 14 50 51 E8 61 EF FE FF 83 $(...L$.PQ.a....
006F0F00 C4 08 89 44 24 28 85 C0 0F 84 25 0A 00 00 8B 40 ...D$(....%....@
006F0F10 04 3D E8 E7 A1 00 74 16 68 E8 E7 A1 00 50 E8 4D .=....t.h....P.M
006F0F20 47 FE FF 83 C4 08 85 C0 0F 84 B9 07 00 00 8B 54 G..............T
006F0F30 24 28 52 E8 68 42 01 00 83 C4 04 85 C0 89 44 24 $(R.hB........D$
006F0F40 38 7D 0B 83 4C 24 20 01 F7 D8 89 44 24 38 83 6C 8}..L$ ....D$8.l
006F0F50 24 10 01 0F 88 98 01 00 00 0F BE 2B 83 C3 01 89 $..........+....
006F0F60 5C 24 2C 8B 3D 00 47 8A 00 83 FD 2E 0F 85 8F 01 \$,.=.G.........
006F0F70 00 00 33 F6 83 6C 24 10 01 89 74 24 30 0F 88 15 ..3..l$...t$0...
006F0F80 01 00 00 0F BE 2B 83 C3 01 83 FD 2A 89 5C 24 2C .....+.....*.\$,
006F0F90 0F 85 FE 00 00 00 8B 4C 24 3C 8B 54 24 4C 3B CA .......L$<.T$L;.
006F0FA0 8B C1 0F 8D 04 07 00 00 83 C1 01 85 D2 89 4C 24 ..............L$
006F0FB0 3C 7D 79 8B 7C 24 14 89 7C 24 28 E9 80 00 00 00 <}y.|$..|$(.....
006F0FC0 85 ED 7C 9F 8B 3D 00 47 8A 00 55 FF D7 83 C4 04 ..|..=.G..U.....
006F0FD0 85 C0 74 95 83 6C 24 10 01 8D 75 D0 89 74 24 38 ..t..l$...u..t$8
006F0FE0 78 87 0F B6 2B 83 C3 01 55 89 5C 24 30 FF D7 83 x...+...U.\$0...
006F0FF0 C4 04 85 C0 0F 84 6F FF FF FF 8D 0C B6 03 C9 B8 ......o.........
006F1000 67 66 66 66 F7 E9 C1 FA 02 8B C2 C1 E8 1F 03 C2 gfff............
006F1010 3B C6 0F 85 E0 06 00 00 83 6C 24 10 01 8D 74 29 ;........l$...t)
006F1020 D0 89 74 24 38 79 BB E9 3D FF FF FF 8B 4C 24 14 ..t$8y..=....L$.
006F1030 50 51 E8 29 EE FE FF 83 C4 08 8B F8 89 44 24 28 PQ.).........D$(
006F1040 85 FF 0F 84 EB 08 00 00 8B 47 04 3D E8 E7 A1 00 .........G.=....
006F1050 74 16 68 E8 E7 A1 00 50 E8 13 46 FE FF 83 C4 08 t.h....P..F.....
006F1060 85 C0 0F 84 A0 06 00 00 57 E8 32 41 01 00 8B F0 ........W.2A....
006F1070 83 C4 04 85 F6 89 44 24 30 7D 06 33 F6 89 74 24 ......D$0}.3..t$
006F1080 30 83 6C 24 10 01 78 69 0F BE 2B 83 C3 01 89 5C 0.l$..xi..+....\
006F1090 24 2C EB 75 85 ED 7C 6D 55 FF D7 83 C4 04 85 C0 $,.u..|mU.......
006F10A0 74 63 83 6C 24 10 01 8D 75 D0 89 74 24 30 78 41 tc.l$...u..t$0xA
006F10B0 0F B6 2B 83 C3 01 55 89 5C 24 30 FF D7 83 C4 04 ..+...U.\$0.....
006F10C0 85 C0 74 41 8D 0C B6 03 C9 B8 67 66 66 66 F7 E9 ..tA......gfff..
006F10D0 C1 FA 02 8B C2 C1 E8 1F 03 C2 3B C6 0F 85 30 06 ..........;...0.
006F10E0 00 00 83 6C 24 10 01 8D 74 29 D0 89 74 24 30 79 ...l$...t)..t$0y
006F10F0 BF A1 2C 7E A1 00 68 90 4F 8D 00 50 E9 2A 08 00 ..,~..h.O..P.*..
006F1100 00 8B 74 24 30 8B 7C 24 28 83 7C 24 10 00 7C E1 ..t$0.|$(.|$..|.
006F1110 83 FD 68 74 0A 83 FD 6C 74 05 83 FD 4C 75 11 83 ..ht...lt...Lu..
006F1120 6C 24 10 01 78 CB 0F BE 2B 83 C3 01 89 5C 24 2C l$..x...+....\$,
006F1130 83 FD 25 74 43 8B 4C 24 3C 8B 54 24 4C 3B CA 8B ..%tC.L$<.T$L;..
006F1140 C1 0F 8D 6F 05 00 00 83 C1 01 85 D2 89 4C 24 3C ...o.........L$<
006F1150 7D 0A 8B 7C 24 14 89 7C 24 28 EB 14 8B 4C 24 14 }..|$..|$(...L$.
006F1160 50 51 E8 F9 EC FE FF 83 C4 08 8B F8 89 44 24 28 PQ...........D$(
006F1170 85 FF 0F 84 BB 07 00 00 8D 45 DB 83 F8 53 C7 44 .........E...S.D
006F1180 24 54 00 00 00 00 C7 44 24 44 20 00 00 00 0F 87 $T.....D$D .....
006F1190 1C 07 00 00 0F B6 90 14 1A 6F 00 FF 24 95 F8 19 .........o..$...
006F11A0 6F 00 BF 8C 4F 8D 00 BE 01 00 00 00 E9 C3 02 00 o...O...........
006F11B0 00 8B 47 04 3D 20 3B A2 00 74 5A 68 20 3B A2 00 ..G.= ;..tZh ;..
006F11C0 50 E8 AA 44 FE FF 83 C4 08 85 C0 75 48 57 E8 DD P..D.......uHW..
006F11D0 CC FE FF 8B F0 83 C4 04 85 F6 89 74 24 24 0F 84 ...........t$$..
006F11E0 D0 00 00 00 8B 46 04 3D 20 3B A2 00 74 16 68 20 .....F.= ;..t.h 
006F11F0 3B A2 00 50 E8 77 44 FE FF 83 C4 08 85 C0 0F 84 ;..P.wD.........
006F1200 B0 00 00 00 83 06 FF 75 0C 8B 4E 04 8B 51 18 56 .......u..N..Q.V
006F1210 FF D2 83 C4 04 83 7C 24 48 00 74 1D 8B 44 24 14 ......|$H.t..D$.
006F1220 83 00 FF 75 0C 8B 48 04 8B 51 18 50 FF D2 83 C4 ...u..H..Q.P....
006F1230 04 C7 44 24 48 00 00 00 00 8B 5C 24 70 8B 43 04 ..D$H.....\$p.C.
006F1240 3D 88 65 A1 00 74 16 68 88 65 A1 00 50 E8 1E 44 =.e..t.h.e..P..D
006F1250 FE FF 83 C4 08 85 C0 0F 84 89 05 00 00 8B 7C 24 ..............|$
006F1260 68 85 FF 0F 8E 7D 05 00 00 8B 73 08 2B F7 56 E8 h....}....s.+.V.
006F1270 AC EA FE FF 83 C4 04 85 C0 0F 84 B4 06 00 00 83 ................
006F1280 EE 01 78 21 8D 0C 3E 8D 6C B0 0C 8D 54 8B 0C 90 ..x!..>.l...T...
006F1290 8B 0A 83 01 01 89 4D 00 83 EE 01 83 EA 04 83 ED ......M.........
006F12A0 04 85 F6 7D EB 8B D8 89 44 24 14 E9 3D 05 00 00 ...}....D$..=...
006F12B0 8B 74 24 24 83 FD 72 75 0F 57 E8 F1 CA FE FF 8B .t$$..ru.W......
006F12C0 F0 83 C4 04 89 74 24 24 85 F6 0F 84 63 06 00 00 .....t$$....c...
006F12D0 8B 46 04 3D 50 B4 A1 00 74 16 68 50 B4 A1 00 50 .F.=P...t.hP...P
006F12E0 E8 8B 43 FE FF 83 C4 08 85 C0 0F 84 33 04 00 00 ..C.........3...
006F12F0 8B 44 24 24 8B 70 08 8D 78 14 8B 44 24 30 85 C0 .D$$.p..x..D$0..
006F1300 89 7C 24 40 0F 8C 6E 01 00 00 3B F0 0F 8E 66 01 .|$@..n...;...f.
006F1310 00 00 8B F0 E9 5F 01 00 00 83 FD 69 75 05 BD 64 ....._.....iu..d
006F1320 00 00 00 8B 47 04 3D 00 F4 A1 00 74 40 68 00 F4 ....G.=....t@h..
006F1330 A1 00 50 E8 38 43 FE FF 83 C4 08 85 C0 75 2E 8B ..P.8C.......u..
006F1340 44 24 28 8B 4C 24 30 8B 54 24 20 50 51 8D 7C 24 D$(.L$0.T$ PQ.|$
006F1350 7C 52 6A 78 8B CD 8B DF 89 7C 24 50 E8 7F B3 FF |Rjx.....|$P....
006F1360 FF 8B F0 85 F6 0F 8C C8 05 00 00 EB 31 8B 54 24 ............1.T$
006F1370 20 8D 44 24 6C 50 8D 4C 24 44 51 55 56 52 57 E8  .D$lP.L$DQUVRW.
006F1380 7C F5 FF FF 8B B4 24 84 00 00 00 83 C4 18 85 C0 |.....$.........
006F1390 89 44 24 24 0F 84 99 05 00 00 8B 7C 24 40 F6 44 .D$$.......|$@.D
006F13A0 24 20 10 74 08 C7 44 24 44 30 00 00 00 8A 07 3C $ .t..D$D0.....<
006F13B0 2D 0F 84 B0 00 00 00 3C 2B 0F 84 A8 00 00 00 8A -......<+.......
006F13C0 44 24 20 A8 02 0F 84 8A 00 00 00 C7 44 24 54 2B D$ .........D$T+
006F13D0 00 00 00 E9 A0 00 00 00 83 FD 46 75 05 BD 66 00 ..........Fu..f.
006F13E0 00 00 8B 44 24 28 8B 5C 24 20 8B 54 24 30 50 8D ...D$(.\$ .T$0P.
006F13F0 7C 24 78 53 6A 78 8B CD 8B F7 89 7C 24 4C E8 9D |$xSjx.....|$L..
006F1400 B1 FF FF 8B F0 85 F6 0F 8C 26 05 00 00 F6 C3 10 .........&......
006F1410 EB 91 8B 47 04 3D 20 3B A2 00 0F 84 F5 FD FF FF ...G.= ;........
006F1420 68 20 3B A2 00 50 E8 45 42 FE FF 83 C4 08 85 C0 h ;..P.EB.......
006F1430 0F 85 DF FD FF FF 8B 74 24 28 8D 4C 24 74 8B F9 .......t$(.L$t..
006F1440 89 4C 24 40 E8 E7 B3 FF FF 8B F0 85 F6 0F 8C E0 .L$@............
006F1450 04 00 00 EB 23 0F BE C0 83 E0 04 03 C0 03 C0 03 ....#...........
006F1460 C0 89 44 24 54 EB 11 0F BE D0 83 C7 01 89 54 24 ..D$T.........T$
006F1470 54 83 EE 01 89 7C 24 40 8B 5C 24 38 3B DE 7D 06 T....|$@.\$8;.}.
006F1480 8B DE 89 5C 24 38 8B 4C 24 1C 33 C0 39 44 24 54 ...\$8.L$.3.9D$T
006F1490 8B D1 0F 95 C0 2B D0 3B D3 7D 50 8B 54 24 50 8B .....+.;.}P.T$P.
006F14A0 44 24 10 8D 44 03 64 2B D1 03 D0 89 44 24 1C 89 D$..D.d+....D$..
006F14B0 54 24 50 0F 88 97 02 00 00 8B CA 51 8D 54 24 38 T$P........Q.T$8
006F14C0 52 E8 2A B0 FF FF 83 C4 08 85 C0 0F 8C CB 02 00 R.*.............
006F14D0 00 8B 44 24 34 2B 44 24 1C 8B 4C 24 50 8D 44 08 ..D$4+D$..L$P.D.
006F14E0 14 8B 4C 24 1C 89 44 24 18 EB 04 8B 44 24 18 83 ..L$..D$....D$..
006F14F0 7C 24 54 00 74 26 83 7C 24 44 20 74 0D 8A 54 24 |$T.t&.|$D t..T$
006F1500 54 88 10 83 C0 01 89 44 24 18 83 E9 01 3B DE 89 T......D$....;..
006F1510 4C 24 1C 7E 07 83 EB 01 89 5C 24 38 8B 54 24 20 L$.~.....\$8.T$ 
006F1520 83 E2 08 89 54 24 30 74 49 83 FD 78 74 05 83 FD ....T$0tI..xt...
006F1530 58 75 3F 83 7C 24 44 20 74 1F 0F B6 17 88 10 0F Xu?.|$D t.......
006F1540 B6 57 01 83 C7 01 83 C0 01 88 10 83 C0 01 83 C7 .W..............
006F1550 01 89 44 24 18 89 7C 24 40 83 E9 02 83 EB 02 89 ..D$..|$@.......
006F1560 4C 24 1C 89 5C 24 38 79 06 33 DB 89 5C 24 38 83 L$..\$8y.3..\$8.
006F1570 EE 02 3B DE 7E 29 F6 44 24 20 01 75 22 8D 49 00 ..;.~).D$ .u".I.
006F1580 8A 54 24 44 88 10 83 EB 01 83 E9 01 83 C0 01 3B .T$D...........;
006F1590 DE 7F ED 89 5C 24 38 89 44 24 18 89 4C 24 1C 83 ....\$8.D$..L$..
006F15A0 7C 24 44 20 75 3F 8B 4C 24 54 85 C9 74 09 88 08 |$D u?.L$T..t...
006F15B0 83 C0 01 89 44 24 18 83 7C 24 30 00 74 27 83 FD ....D$..|$0.t'..
006F15C0 78 74 05 83 FD 58 75 1D 8A 0F 88 08 8A 57 01 83 xt...Xu......W..
006F15D0 C7 01 83 C0 01 88 10 83 C0 01 83 C7 01 89 44 24 ..............D$
006F15E0 18 89 7C 24 40 83 FE 10 72 0D 56 57 50 E8 3E 3A ..|$@...r.VWP.>:
006F15F0 FA FF 83 C4 0C EB 1B 85 F6 76 17 8B 44 24 18 8B .........v..D$..
006F1600 CF 2B C8 8B FE 8A 14 01 88 10 83 C0 01 83 EF 01 .+..............
006F1610 75 F3 8B 44 24 38 01 74 24 18 29 74 24 1C 83 E8 u..D$8.t$.)t$...
006F1620 01 3B C6 7C 21 8B 7C 24 18 2B C6 83 C0 01 8B F0 .;.|!.|$.+......
006F1630 56 6A 20 57 E8 E7 39 FA FF 29 74 24 28 83 C4 0C Vj W..9..)t$(...
006F1640 03 FE 89 7C 24 18 83 7C 24 58 00 74 13 8B 44 24 ...|$..|$X.t..D$
006F1650 4C 39 44 24 3C 7D 09 83 FD 25 0F 85 4D 01 00 00 L9D$<}...%..M...
006F1660 83 7C 24 24 00 74 15 8B 44 24 24 83 00 FF 75 0C .|$$.t..D$$...u.
006F1670 8B 48 04 8B 51 18 50 FF D2 83 C4 04 83 6C 24 10 .H..Q.P......l$.
006F1680 01 8B 7C 24 58 8B 6C 24 50 8B 74 24 1C 0F 88 7E ..|$X.l$P.t$...~
006F1690 02 00 00 8B 5C 24 2C E9 75 F6 FF FF A1 7C 6B A1 ....\$,.u....|k.
006F16A0 00 68 C8 4A 8D 00 50 E9 7F 02 00 00 68 C8 4A 8D .h.J..P.....h.J.
006F16B0 00 E9 6E 02 00 00 8B 15 7C 6B A1 00 68 C8 4A 8D ..n.....|k..h.J.
006F16C0 00 52 E9 64 02 00 00 A1 7C 6B A1 00 68 70 4F 8D .R.d....|k..hpO.
006F16D0 00 50 E9 54 02 00 00 8B 0D 2C 7E A1 00 68 58 4F .P.T.....,~..hXO
006F16E0 8D 00 E9 43 02 00 00 8B 15 7C 6B A1 00 68 4C 4F ...C.....|k..hLO
006F16F0 8D 00 52 E9 33 02 00 00 A1 2C 7E A1 00 68 3C 4F ..R.3....,~..h<O
006F1700 8D 00 50 E9 23 02 00 00 68 4C 4F 8D 00 E9 12 02 ..P.#...hLO.....
006F1710 00 00 8B 15 2C 7E A1 00 68 2C 4F 8D 00 52 E9 08 ....,~..h,O..R..
006F1720 02 00 00 A1 7C 6B A1 00 68 08 4F 8D 00 50 E8 4D ....|k..h.O..P.M
006F1730 F8 FE FF 83 C4 08 83 06 FF 0F 85 F4 01 00 00 8B ................
006F1740 4E 04 8B 51 18 56 FF D2 83 C4 04 E9 E3 01 00 00 N..Q.V..........
006F1750 8B 44 24 34 83 00 FF 75 0C 8B 48 04 8B 51 18 50 .D$4...u..H..Q.P
006F1760 FF D2 83 C4 04 8B 44 24 24 85 C0 74 11 83 00 FF ......D$$..t....
006F1770 75 0C 8B 48 04 8B 51 18 50 FF D2 83 C4 04 E8 8D u..H..Q.P.......
006F1780 FA FE FF 5D 5B 5F 5E 8B 8C 24 DC 00 00 00 33 CC ...][_^..$....3.
006F1790 E8 F9 33 FA FF 81 C4 E0 00 00 00 C3 8B 44 24 24 ..3..........D$$
006F17A0 85 C0 0F 84 BC 01 00 00 E9 A6 01 00 00 A1 7C 6B ..............|k
006F17B0 A1 00 68 D0 4E 8D 00 50 E8 C3 F7 FE FF 8B 44 24 ..h.N..P......D$
006F17C0 2C 83 C4 08 85 C0 0F 84 67 01 00 00 83 00 FF 0F ,.......g.......
006F17D0 85 5E 01 00 00 8B 48 04 8B 51 18 50 FF D2 83 C4 .^....H..Q.P....
006F17E0 04 E9 4D 01 00 00 83 03 01 89 5C 24 14 8B 44 24 ..M.......\$..D$
006F17F0 18 2B 44 24 34 8D 54 24 34 83 E8 14 50 52 C7 44 .+D$4.T$4...PR.D
006F1800 24 50 01 00 00 00 E8 E5 AC FF FF 83 C4 08 85 C0 $P..............
006F1810 0F 85 1D 01 00 00 8B 44 24 5C 8B 4C 24 60 8B D0 .......D$\.L$`..
006F1820 8B 40 08 6A 00 2B D1 8D 44 02 14 6A 00 50 51 E8 .@.j.+..D..j.PQ.
006F1830 7C E6 02 00 8B F0 83 C4 10 85 F6 0F 84 F2 00 00 |...............
006F1840 00 53 56 E8 58 0D 03 00 83 C4 08 83 06 FF 8B F8 .SV.X...........
006F1850 75 0C 8B 4E 04 8B 51 18 56 FF D2 83 C4 04 85 FF u..N..Q.V.......
006F1860 0F 84 CD 00 00 00 8B 74 24 34 57 56 E8 1F FA 02 .......t$4WV....
006F1870 00 83 C4 08 83 06 FF 8B E8 75 0C 8B 46 04 8B 48 .........u..F..H
006F1880 18 56 FF D1 83 C4 04 83 07 FF 75 0C 8B 57 04 8B .V........u..W..
006F1890 42 18 57 FF D0 83 C4 04 83 03 FF 75 0C 8B 4B 04 B.W........u..K.
006F18A0 8B 51 18 53 FF D2 83 C4 04 8B C5 E9 D3 FE FF FF .Q.S............
006F18B0 8B 74 24 5C 8B 46 04 3D 50 B4 A1 00 74 31 68 50 .t$\.F.=P...t1hP
006F18C0 B4 A1 00 50 E8 A7 3D FE FF 83 C4 08 85 C0 75 1F ...P..=.......u.
006F18D0 8D 44 24 64 50 8D 4C 24 64 51 56 E8 40 8B FF FF .D$dP.L$dQV.@...
006F18E0 83 C4 0C F7 D8 1B C0 F7 D0 23 44 24 60 EB 04 8B .........#D$`...
006F18F0 44 24 64 8B 15 2C 7E A1 00 2B D8 83 EB 01 53 55 D$d..,~..+....SU
006F1900 55 68 98 4E 8D 00 52 E8 C4 FC FE FF 83 C4 14 EB Uh.N..R.........
006F1910 22 8B 44 24 4C 39 44 24 3C 7D 50 85 FF 75 4C 68 ".D$L9D$<}P..uLh
006F1920 D0 4E 8D 00 8B 0D 7C 6B A1 00 51 E8 50 F6 FE FF .N....|k..Q.P...
006F1930 83 C4 08 8B 44 24 34 83 00 FF 75 0C 8B 50 04 50 ....D$4...u..P.P
006F1940 8B 42 18 FF D0 83 C4 04 83 7C 24 48 00 74 15 8B .B.......|$H.t..
006F1950 44 24 14 83 00 FF 75 0C 8B 48 04 8B 51 18 50 FF D$....u..H..Q.P.
006F1960 D2 83 C4 04 33 C0 E9 18 FE FF FF 83 7C 24 48 00 ....3.......|$H.
006F1970 74 15 8B 44 24 14 83 00 FF 75 0C 8B 48 04 8B 51 t..D$....u..H..Q
006F1980 18 50 FF D2 83 C4 04 2B EE 8D 44 24 34 55 50 E8 .P.....+..D$4UP.
006F1990 5C AB FF FF 8B 44 24 3C 83 C4 08 E9 E3 FD FF FF \....D$<........
006F19A0 68 71 11 00 00 68 7C 48 8D 00 E8 11 04 FF FF 8B hq...h|H........
006F19B0 8C 24 EC 00 00 00 83 C4 08 5F 5E 33 CC 33 C0 E8 .$......._^3.3..
006F19C0 CA 31 FA FF 81 C4 E0 00 00 00 C3 90 A6 0E 6F 00 .1............o.
006F19D0 AB 0E 6F 00 A1 0E 6F 00 9C 0E 6F 00 B0 0E 6F 00 ..o...o...o...o.
006F19E0 B8 0E 6F 00 00 05 05 01 05 05 05 05 05 05 05 02 ..o.............
006F19F0 05 03 05 05 04 8D 49 00 A2 11 6F 00 D8 13 6F 00 ......I...o...o.
006F1A00 19 13 6F 00 12 14 6F 00 B0 12 6F 00 B1 11 6F 00 ..o...o...o...o.
006F1A10 B0 18 6F 00 00 06 06 06 06 06 06 06 06 06 06 06 ..o.............
006F1A20 06 06 06 06 06 06 06 06 06 06 06 06 06 06 06 06 ................
006F1A30 06 06 06 06 01 01 01 06 06 06 06 06 06 06 06 06 ................
006F1A40 06 06 06 06 06 06 06 02 06 06 06 06 06 06 06 06 ................
006F1A50 06 06 03 02 01 01 01 06 02 06 06 06 06 06 02 06 ................
006F1A60 06 04 05 06 02 06 06 02 CC CC CC CC CC CC CC CC ................
