;;; Segment .text (00401000)

;; fn006D5670: 006D5670
;;   Called from:
;;     006565A8 (in fn00656570)
;;     006565C9 (in fn00656570)
;;     006DDE2A (in fn006DDDB0)
;;     006DDE6C (in fn006DDDB0)
;;     006DDF09 (in fn006DDEB0)
;;     006DDF25 (in fn006DDEB0)
;;     006DDF97 (in fn006DDF70)
;;     006DE101 (in fn006DE0F0)
;;     006DE34E (in fn006DE330)
;;     006DE36A (in fn006DE330)
;;     006DE44F (in fn006DE430)
;;     006DE471 (in fn006DE430)
;;     006DFE35 (in fn006DFE20)
;;     006DFE75 (in fn006DFE60)
;;     006E0FFE (in fn006E0FD0)
;;     006E1020 (in fn006E0FD0)
;;     006E1054 (in fn006E0FD0)
;;     006E1068 (in fn006E0FD0)
;;     006E108B (in fn006E0FD0)
;;     006E109E (in fn006E0FD0)
;;     006E17EE (in fn006E1780)
;;     006E1801 (in fn006E1780)
;;     006E181D (in fn006E1780)
;;     006E1C12 (in fn006E1BD0)
;;     006E1C43 (in fn006E1BD0)
;;     006E1C5B (in fn006E1BD0)
;;     006E1CA7 (in fn006E1BD0)
;;     006E57AC (in fn006E5710)
;;     006E5970 (in fn006E5960)
;;     006E5AE5 (in fn006E5AD0)
;;     006E5F5E (in fn006E5C60)
;;     006E5F7A (in fn006E5C60)
;;     006E6030 (in fn006E5C60)
;;     006E604C (in fn006E5C60)
;;     006E61A7 (in fn006E5C60)
;;     006E6231 (in fn006E5C60)
;;     006E6251 (in fn006E5C60)
;;     006E6386 (in fn006E5C60)
;;     006E63A2 (in fn006E5C60)
;;     006E647E (in fn006E5C60)
;;     006E649E (in fn006E5C60)
;;     006E65D8 (in fn006E5C60)
;;     006E65F4 (in fn006E5C60)
;;     006E671E (in fn006E5C60)
;;     006E67CC (in fn006E5C60)
;;     006E6A33 (in fn006E5C60)
;;     006E6AB2 (in fn006E5C60)
;;     006E6AEF (in fn006E5C60)
;;     006E6B2D (in fn006E5C60)
;;     006E6B63 (in fn006E5C60)
;;     006E78E4 (in fn006E7660)
;;     006E7DAF (in fn006E7D90)
;;     006E8187 (in fn006E8060)
;;     006E819B (in fn006E8060)
;;     006E8372 (in fn006E8060)
;;     006E8CBD (in fn006E8D90)
;;     006E8D22 (in fn006E8D90)
;;     006E9FB5 (in fn006E9FA0)
;;     006EA455 (in fn006EA420)
;;     006EA471 (in fn006EA420)
;;     006EA9E4 (in fn006EA9D0)
;;     006EAA00 (in fn006EA9D0)
;;     006EC464 (in fn006EC440)
;;     006EC509 (in fn006EC4F0)
;;     006EC8AC (in fn006EC890)
;;     006ECC16 (in fn006ECC00)
;;     006ECC66 (in fn006ECC50)
;;     006F1C02 (in fn006F1AA0)
;;     006F2765 (in fn006F2750)
;;     006F27A5 (in fn006F2790)
;;     006F2A25 (in fn006F2A10)
;;     006F3278 (in fn006F31C0)
;;     006F32A4 (in fn006F31C0)
;;     006F34C5 (in fn006F34B0)
;;     006F3864 (in fn006F3930)
;;     006F38D4 (in fn006F3930)
;;     006F4F19 (in fn006F4F00)
;;     006F5E13 (in fn006F5DD0)
;;     006F5E7B (in fn006F5DD0)
;;     006F5F54 (in fn006F5DD0)
;;     006F5FE3 (in fn006F5DD0)
;;     006F6009 (in fn006F5DD0)
;;     006F60E6 (in fn006F5DD0)
;;     006F610C (in fn006F5DD0)
;;     006F61C0 (in fn006F5DD0)
;;     006F622A (in fn006F5DD0)
;;     006F632C (in fn006F62D0)
;;     006F63E5 (in fn006F63A0)
;;     006F6EBB (in fn006F6EA0)
;;     006F6F4F (in fn006F6EA0)
;;     006F7133 (in fn006F7100)
;;     006F7953 (in fn006F7890)
;;     006F7A02 (in fn006F7890)
;;     006F7BE3 (in fn006F7890)
;;     006F7C1C (in fn006F7890)
;;     006F7C55 (in fn006F7890)
;;     006F7CCE (in fn006F7890)
;;     006F7CEA (in fn006F7890)
;;     006F8CD0 (in fn006F8C70)
;;     006F91F9 (in fn006F9120)
;;     006FBCD8 (in fn006FBCC0)
;;     006FBDA5 (in fn006FBD90)
;;     006FBE75 (in fn006FBE60)
;;     006FBF48 (in fn006FBF30)
;;     006FC065 (in fn006FC050)
;;     006FC0F5 (in fn006FC0E0)
;;     006FCCAF (in fn006FCC90)
;;     006FCCE1 (in fn006FCC90)
;;     006FCF39 (in fn006FCF20)
;;     006FDE79 (in fn006FDE60)
;;     006FE688 (in fn006FE400)
;;     006FE7C5 (in fn006FE400)
;;     006FF3FC (in fn006FF3E0)
;;     006FF44D (in fn006FF3E0)
;;     00701BAC (in fn00701B50)
;;     00701DA2 (in fn00701D30)
;;     00702B31 (in fn00702AF0)
;;     00702B55 (in fn00702AF0)
;;     00702BAA (in fn00702AF0)
;;     00702BC6 (in fn00702AF0)
;;     00703797 (in fn00703780)
;;     00703BC1 (in fn00703B60)
;;     00703C1A (in fn00703BF0)
;;     00703D6C (in fn00703D00)
;;     00703D8C (in fn00703D00)
;;     00703E6B (in fn00703D00)
;;     00703EBE (in fn00703D00)
;;     00703ECC (in fn00703D00)
;;     00703F95 (in fn00703F10)
;;     00704BEE (in fn00704BA0)
;;     007051BD (in fn007051A0)
;;     0070520C (in fn007051A0)
;;     00705228 (in fn007051A0)
;;     007052F1 (in fn007052C0)
;;     0070530D (in fn007052C0)
;;     0070535D (in fn00705340)
;;     0070537E (in fn00705340)
;;     007053D3 (in fn00705340)
;;     007053EF (in fn00705340)
;;     007070CA (in fn00707020)
;;     0070716F (in fn00707020)
;;     00707187 (in fn00707020)
;;     007071AF (in fn00707020)
;;     007076AA (in fn00707680)
;;     007076E9 (in fn00707680)
;;     00707C03 (in fn00707BD0)
;;     00707C61 (in fn00707BD0)
;;     00707D89 (in fn00707D70)
;;     00707E38 (in fn00707E00)
;;     00707E54 (in fn00707E00)
;;     00707E9C (in fn00707E00)
;;     00707EB8 (in fn00707E00)
;;     00707FA5 (in fn00707F70)
;;     00707FC1 (in fn00707F70)
;;     00708009 (in fn00707F70)
;;     00708025 (in fn00707F70)
;;     007082F7 (in fn00708210)
;;     00708C2A (in fn00708C10)
;;     00708C5E (in fn00708C10)
;;     00708CBB (in fn00708C10)
;;     00708D53 (in fn00708C10)
;;     00709EA6 (in fn00708DC0)
;;     00709EC2 (in fn00708DC0)
;;     0070A196 (in fn00708DC0)
;;     0070A1BD (in fn00708DC0)
;;     0070A1D1 (in fn00708DC0)
;;     0070A1ED (in fn00708DC0)
;;     0070AB9F (in fn00708DC0)
;;     0070B866 (in fn0070B600)
;;     0070BCE3 (in fn0070BCC0)
;;     0070BDED (in fn0070BCC0)
;;     0070BE09 (in fn0070BCC0)
;;     0070BE2C (in fn0070BCC0)
;;     0070BE67 (in fn0070BCC0)
;;     0070BF23 (in fn0070BCC0)
;;     0070BF49 (in fn0070BCC0)
;;     0070C727 (in fn0070C700)
;;     0071090D (in fn007108F0)
;;     0071099B (in fn007108F0)
;;     007109ED (in fn007109D0)
;;     00710B99 (in fn00710B80)
;;     00710BEA (in fn00710B80)
;;     0071151D (in fn007114E0)
;;     00711541 (in fn007114E0)
;;     0071158C (in fn007114E0)
;;     007115A8 (in fn007114E0)
;;     00711719 (in fn00711700)
;;     00715E24 (in fn00715DF0)
;;     00717245 (in fn00717230)
;;     00717295 (in fn00717280)
;;     007172D5 (in fn00717280)
;;     007173F8 (in fn007173A0)
;;     007174A8 (in fn007173A0)
;;     0071793D (in fn00717900)
;;     00717DA0 (in fn00717CB0)
;;     00718B65 (in fn00718B50)
;;     00719F94 (in fn00719F20)
;;     0071A565 (in fn0071A550)
;;     0071A7E5 (in fn0071A7D0)
;;     0071AAF5 (in fn0071AAE0)
;;     0071FB38 (in fn0071FB20)
;;     0071FC0A (in fn0071FB20)
;;     0071FFB2 (in fn0071FEB0)
;;     007200AD (in fn00720070)
;;     007200CD (in fn00720070)
;;     007203FC (in fn007203E0)
;;     007212AC (in fn00721290)
;;     00725080 (in fn00725010)
;;     0072509C (in fn00725010)
;;     00725197 (in fn00725150)
;;     00725236 (in fn007251F0)
;;     0072617E (in fn00726150)
;;     007276FB (in fn007276E0)
;;     0072F8D4 (in fn0072F830)
;;     0072F93B (in fn0072F830)
;;     0072FC09 (in fn0072FBB0)
;;     0072FC79 (in fn0072FC60)
;;     0072FCA9 (in fn0072FC90)
;;     00731A44 (in fn00731A20)
;;     00731A80 (in fn00731A20)
;;     00731B48 (in fn00731B10)
;;     00731B8B (in fn00731B10)
;;     00731C7D (in fn00731B10)
;;     00731CD0 (in fn00731B10)
;;     00731D6A (in fn00731D30)
;;     00731DCD (in fn00731D30)
;;     00731FB7 (in fn00731F90)
;;     00733265 (in fn00733250)
;;     007332A5 (in fn00733290)
;;     007332D5 (in fn007332C0)
;;     00734BF4 (in fn00734BB0)
;;     00734C20 (in fn00734BB0)
;;     00734C4C (in fn00734BB0)
;;     00734C78 (in fn00734BB0)
;;     00734CA4 (in fn00734BB0)
;;     00734CD0 (in fn00734BB0)
;;     00734CFC (in fn00734BB0)
;;     00734D28 (in fn00734BB0)
;;     00734DA4 (in fn00734BB0)
;;     00735A6A (in fn00735890)
;;     00735A8E (in fn00735890)
;;     00735AB2 (in fn00735890)
;;     00735AD6 (in fn00735890)
;;     00735AFA (in fn00735890)
;;     00735B1E (in fn00735890)
;;     00735B42 (in fn00735890)
;;     00735B66 (in fn00735890)
;;     00735B8A (in fn00735890)
;;     00735BB9 (in fn00735890)
;;     00735BD2 (in fn00735890)
;;     00735D79 (in fn00735890)
;;     007389D5 (in fn007389B0)
;;     007389EE (in fn007389B0)
;;     0073B021 (in fn0073AFB0)
;;     0073B03D (in fn0073AFB0)
;;     0073B419 (in fn0073B3D0)
;;     0073B518 (in fn0073B4E0)
;;     0073D6D6 (in fn0073D660)
;;     0073D6F2 (in fn0073D660)
;;     0074E297 (in fn0074E280)
;;     0074EC93 (in fn0074EB10)
;;     0074EDE6 (in fn0074ED80)
;;     0074EF00 (in fn0074EE90)
;;     00753AA5 (in fn00753A60)
;;     00753ACD (in fn00753A60)
fn006D5670 proc
	mov	eax,[esp+4h]
	test	dword ptr [eax+54h],100h
	jnz	6D5696h

l006D567D:
	mov	ecx,[esp+8h]
	cmp	ecx,eax
	jz	6D5690h

l006D5685:
	cmp	ecx,0A15498h
	jz	6D5690h

l006D568D:
	xor	eax,eax
	ret

l006D5690:
	mov	eax,1h
	ret

l006D5696:
	mov	ecx,[eax+0ACh]
	test	ecx,ecx
	jz	6D56CAh

l006D56A0:
	mov	edx,[ecx+8h]
	xor	eax,eax
	test	edx,edx
	push	esi
	jle	6D56BFh

l006D56AA:
	mov	esi,[esp+0Ch]
	add	ecx,0Ch

l006D56B1:
	cmp	[ecx],esi
	jz	6D56C3h

l006D56B5:
	add	eax,1h
	add	ecx,4h
	cmp	eax,edx
	jl	6D56B1h

l006D56BF:
	xor	eax,eax
	pop	esi
	ret

l006D56C3:
	mov	eax,1h
	pop	esi
	ret

l006D56CA:
	mov	ecx,[esp+8h]
	mov	edi,edi

l006D56D0:
	cmp	eax,ecx
	jz	6D5690h

l006D56D4:
	mov	eax,[eax+80h]
	test	eax,eax
	jnz	6D56D0h

l006D56DE:
	cmp	ecx,0A15498h
	setz	al
	ret
006D56E8                         CC CC CC CC CC CC CC CC         ........
006D56F0 55 8B 6C 24 08 56 8B 74 24 10 56 55 E8 DF F8 02 U.l$.V.t$.VU....
006D5700 00 83 C4 08 85 C0 7D 06 5E 83 C8 FF 5D C3 75 0E ......}.^...].u.
006D5710 56 55 E8 F9 D2 01 00 83 C4 08 85 C0 7C EA 8B 46 VU..........|..F
006D5720 08 53 8B 58 08 33 F6 85 DB 57 7E 1E 8D 78 0C 90 .S.X.3...W~..x..
006D5730 8B 07 50 55 E8 B7 FF FF FF 83 C4 08 85 C0 7C 11 ..PU..........|.
006D5740 83 C6 01 83 C7 04 3B F3 7C E6 5F 5B 5E 33 C0 5D ......;.|._[^3.]
006D5750 C3 5F 5B 5E 83 C8 FF 5D C3 CC CC CC CC CC CC CC ._[^...]........
006D5760 8B 4A 08 53 56 33 C0 85 C9 57 7E 2B 8B 5A 0C 90 .J.SV3...W~+.Z..
006D5770 8B 3B 8D 70 01 8B C6 3B C1 7D 13 8D 53 04 8B FF .;.p...;.}..S...
006D5780 39 3A 74 19 83 C0 01 83 C2 04 3B C1 7C F2 8B C6 9:t.......;.|...
006D5790 83 C3 04 3B C1 7C D9 5F 5E 33 C0 5B C3 68 18 A8 ...;.|._^3.[.h..
006D57A0 8C 00 57 E8 B8 9F 00 00 8B F0 83 C4 08 85 F6 75 ..W............u
006D57B0 14 E8 AA B9 00 00 57 E8 F4 85 00 00 8B F0 83 C4 ......W.........
006D57C0 04 85 F6 74 2B 8B 7E 04 81 FF 50 B4 A1 00 74 58 ...t+.~...P...tX
006D57D0 68 50 B4 A1 00 57 E8 95 FE FF FF 83 C4 08 85 C0 hP...W..........
006D57E0 75 46 83 06 FF 75 09 8B 47 18 56 FF D0 83 C4 04 uF...u..G.V.....
006D57F0 33 F6 B8 38 0E 8D 00 8B 0D 7C 6B A1 00 50 68 20 3..8.....|k..Ph 
006D5800 0E 8D 00 51 E8 C7 BD 00 00 83 C4 0C 85 F6 74 11 ...Q..........t.
006D5810 83 06 FF 75 0C 8B 56 04 8B 42 18 56 FF D0 83 C4 ...u..V..B.V....
006D5820 04 5F 5E 83 C8 FF 5B C3 8D 46 14 EB CA CC CC CC ._^...[..F......
006D5830 81 EC FC 03 00 00 A1 88 41 A1 00 33 C4 89 84 24 ........A..3...$
006D5840 F8 03 00 00 53 55 8B AC 24 08 04 00 00 56 8B F1 ....SU..$....V..
006D5850 E8 6B 84 02 00 8B D8 85 DB 0F 84 9D 01 00 00 57 .k.............W
006D5860 8B 7E 08 33 C0 85 FF 89 44 24 10 7E 3E 8D 49 00 .~.3....D$.~>.I.
006D5870 8B 4E 0C 8B 0C 81 8B 54 85 00 3B 51 08 7D 21 8B .N.....T..;Q.}!.
006D5880 41 0C 8B 14 90 68 B8 63 A1 00 52 53 E8 FF 64 02 A....h.c..RS..d.
006D5890 00 83 C4 0C 85 C0 0F 8C 78 01 00 00 8B 44 24 10 ........x....D$.
006D58A0 83 C0 01 3B C7 89 44 24 10 7C C5 53 E8 6F 76 02 ...;..D$.|.S.ov.
006D58B0 00 68 40 0E 8D 00 89 44 24 20 8D 44 24 28 68 E8 .h@....D$ .D$(h.
006D58C0 03 00 00 50 E8 17 F7 04 00 8D 4C 24 2C 51 8D 54 ...P......L$,Q.T
006D58D0 24 28 8B F8 52 8D 44 24 28 50 53 C7 44 24 30 00 $(..R.D$(PS.D$0.
006D58E0 00 00 00 E8 68 67 02 00 83 C4 20 85 C0 0F 84 E3 ....hg.... .....
006D58F0 00 00 00 81 FF E8 03 00 00 0F 83 D7 00 00 00 8B ................
006D5900 44 24 14 68 18 A8 8C 00 50 8B E8 E8 50 9E 00 00 D$.h....P...P...
006D5910 8B F0 83 C4 08 85 F6 75 14 E8 42 B8 00 00 55 E8 .......u..B...U.
006D5920 8C 84 00 00 8B F0 83 C4 04 85 F6 74 33 8B 6E 04 ...........t3.n.
006D5930 81 FD 50 B4 A1 00 0F 84 E8 00 00 00 68 50 B4 A1 ..P.........hP..
006D5940 00 55 E8 29 FD FF FF 83 C4 08 85 C0 0F 85 D2 00 .U.)............
006D5950 00 00 83 06 FF 75 09 8B 4D 18 56 FF D1 83 C4 04 .....u..M.V.....
006D5960 33 F6 B8 38 0E 8D 00 50 BA E8 03 00 00 68 3C 0E 3..8...P.....h<.
006D5970 8D 00 2B D7 52 8D 44 3C 2C 50 E8 61 F6 04 00 83 ..+.R.D<,P.a....
006D5980 C4 10 03 F8 85 F6 74 11 83 06 FF 75 0C 8B 4E 04 ......t....u..N.
006D5990 8B 51 18 56 FF D2 83 C4 04 83 6C 24 18 01 74 16 .Q.V......l$..t.
006D59A0 8D 47 01 3D E8 03 00 00 73 0C C6 44 3C 20 2C 8B .G.=....s..D< ,.
006D59B0 F8 C6 44 3C 20 00 8D 44 24 1C 50 8D 4C 24 18 51 ..D< ..D$.P.L$.Q
006D59C0 8D 54 24 18 52 53 E8 85 66 02 00 83 C4 10 85 C0 .T$.RS..f.......
006D59D0 0F 85 1D FF FF FF 8B 0D 7C 6B A1 00 8D 44 24 20 ........|k...D$ 
006D59E0 50 51 E8 99 B5 00 00 83 C4 08 83 03 FF 75 0C 8B PQ...........u..
006D59F0 53 04 8B 42 18 53 FF D0 83 C4 04 5F 8B 8C 24 04 S..B.S....._..$.
006D5A00 04 00 00 5E 5D 5B 33 CC E8 81 F1 FB FF 81 C4 FC ...^][3.........
006D5A10 03 00 00 C3 83 03 FF 75 E2 8B 4B 04 8B 51 18 53 .......u..K..Q.S
006D5A20 FF D2 EB D4 8D 46 14 E9 3B FF FF FF CC CC CC CC .....F..;.......
006D5A30 83 EC 14 8B 44 24 1C 55 56 8B 70 08 8D 04 B5 00 ....D$.UV.p.....
006D5A40 00 00 00 85 C0 89 74 24 08 75 05 B8 01 00 00 00 ......t$.u......
006D5A50 50 FF 15 BC 45 8A 00 8B E8 83 C4 04 85 ED 89 6C P...E..........l
006D5A60 24 14 75 09 5E 83 C8 FF 5D 83 C4 14 C3 85 F6 57 $.u.^...]......W
006D5A70 7E 08 8B CE 33 C0 8B FD F3 AB 53 EB 03 8D 49 00 ~...3.....S...I.
006D5A80 33 F6 89 74 24 18 8B 44 24 10 3B F0 89 74 24 20 3..t$..D$.;..t$ 
006D5A90 0F 8D E2 00 00 00 8B 4C 24 2C 8B 41 0C 8B 0C B0 .......L$,.A....
006D5AA0 8B 54 B5 00 3B 51 08 7C 0A 83 44 24 18 01 83 C6 .T..;Q.|..D$....
006D5AB0 01 EB D3 8B 49 0C 8B 14 91 8B F8 33 DB 89 54 24 ....I......3..T$
006D5AC0 14 8B F5 2B FD 3B 5C 24 10 7D 43 8B 14 37 8B 06 ...+.;\$.}C..7..
006D5AD0 8B 4A 08 83 C0 01 3B C1 7D 1C 8B 52 0C 8D 14 82 .J....;.}..R....
006D5AE0 8B 6C 24 14 39 2A 74 16 83 C0 01 83 C2 04 3B C1 .l$.9*t.......;.
006D5AF0 7C EE 8B 6C 24 1C 83 C3 01 83 C6 04 EB C7 8B 74 |..l$..........t
006D5B00 24 20 8B 6C 24 1C 83 C6 01 E9 78 FF FF FF 8B 44 $ .l$.....x....D
006D5B10 24 14 8B 4C 24 28 50 51 E8 F3 CE 01 00 83 C4 08 $..L$(PQ........
006D5B20 85 C0 7C 40 33 C0 39 44 24 10 0F 8E 50 FF FF FF ..|@3.9D$...P...
006D5B30 8B 54 24 2C 8B 4A 0C 8B 14 81 8B 4C 85 00 3B 4A .T$,.J.....L..;J
006D5B40 08 7D 13 8B 52 0C 8B 74 24 14 39 34 8A 75 07 83 .}..R..t$.94.u..
006D5B50 C1 01 89 4C 85 00 83 C0 01 3B 44 24 10 7C D1 E9 ...L.....;D$.|..
006D5B60 1C FF FF FF 55 E8 A6 91 00 00 83 C4 04 5B 5F 5E ....U........[_^
006D5B70 83 C8 FF 5D 83 C4 14 C3 39 44 24 18 55 75 13 FF ...]....9D$.Uu..
006D5B80 15 D4 45 8A 00 83 C4 04 5B 5F 5E 33 C0 5D 83 C4 ..E.....[_^3.]..
006D5B90 14 C3 8B 4C 24 30 E8 95 FC FF FF 55 FF 15 D4 45 ...L$0.....U...E
006D5BA0 8A 00 83 C4 08 5B 5F 5E 83 C8 FF 5D 83 C4 14 C3 .....[_^...]....
006D5BB0 83 EC 0C 56 8B 74 24 14 83 BE 84 00 00 00 00 75 ...V.t$........u
006D5BC0 14 56 E8 F9 49 00 00 83 C4 04 85 C0 7D 07 33 C0 .V..I.......}.3.
006D5BD0 5E 83 C4 0C C3 53 8B 9E A8 00 00 00 55 8B 6B 08 ^....S......U.k.
006D5BE0 8D 45 01 50 89 5C 24 18 89 6C 24 14 E8 5F CA 01 .E.P.\$..l$.._..
006D5BF0 00 8B F0 83 C4 04 85 F6 75 07 5D 5B 5E 83 C4 0C ........u.][^...
006D5C00 C3 57 33 FF 85 ED 7E 78 83 C3 0C 89 5C 24 10 90 .W3...~x....\$..
006D5C10 8B 4C 24 10 8B 19 8B 43 04 3D 80 53 A1 00 74 37 .L$....C.=.S..t7
006D5C20 68 80 53 A1 00 50 E8 45 FA FF FF 83 C4 08 85 C0 h.S..P.E........
006D5C30 75 25 50 E8 18 CA 01 00 8B E8 83 C4 04 85 ED 74 u%P............t
006D5C40 7F 53 55 E8 A8 FA FF FF 83 C4 08 85 C0 75 5F 8B .SU..........u_.
006D5C50 C5 8B 6C 24 14 EB 0F 8B 93 AC 00 00 00 52 E8 5D ..l$.........R.]
006D5C60 D9 02 00 83 C4 04 85 C0 74 56 8B 4E 0C 83 44 24 ........tV.N..D$
006D5C70 10 04 89 04 B9 83 C7 01 3B FD 7C 94 8B 5C 24 18 ........;.|..\$.
006D5C80 53 E8 3A D9 02 00 8B F8 83 C4 04 85 FF 75 50 83 S.:..........uP.
006D5C90 06 FF 0F 85 ED 00 00 00 8B 46 04 8B 48 18 56 FF .........F..H.V.
006D5CA0 D1 83 C4 04 5F 5D 5B 33 C0 5E 83 C4 0C C3 83 45 ...._][3.^.....E
006D5CB0 00 FF 75 0C 8B 55 04 8B 42 18 55 FF D0 83 C4 04 ..u..U..B.U.....
006D5CC0 83 06 FF 0F 85 BC 00 00 00 8B 4E 04 8B 51 18 56 ..........N..Q.V
006D5CD0 FF D2 83 C4 04 5F 5D 5B 33 C0 5E 83 C4 0C C3 8B ....._][3.^.....
006D5CE0 D7 E8 7A FA FF FF 85 C0 7D 30 83 06 FF 75 0C 8B ..z.....}0...u..
006D5CF0 56 04 8B 42 18 56 FF D0 83 C4 04 83 07 FF 0F 85 V..B.V..........
006D5D00 81 00 00 00 8B 4F 04 8B 51 18 57 FF D2 83 C4 04 .....O..Q.W.....
006D5D10 5F 5D 5B 33 C0 5E 83 C4 0C C3 8B 4C 24 20 8B 46 _][3.^.....L$ .F
006D5D20 0C 51 68 84 0E 8D 00 89 3C A8 E8 D1 44 01 00 8B .Qh.....<...D...
006D5D30 F8 83 C4 08 85 FF 75 1B 83 06 FF 75 48 8B 56 04 ......u....uH.V.
006D5D40 8B 42 18 56 FF D0 83 C4 04 5F 5D 5B 33 C0 5E 83 .B.V....._][3.^.
006D5D50 C4 0C C3 56 57 E8 D6 FC FF FF 83 C4 08 83 06 FF ...VW...........
006D5D60 8B D8 75 0C 8B 4E 04 8B 51 18 56 FF D2 83 C4 04 ..u..N..Q.V.....
006D5D70 85 DB 7D 1B 83 07 FF 75 0C 8B 47 04 8B 48 18 57 ..}....u..G..H.W
006D5D80 FF D1 83 C4 04 5F 5D 5B 33 C0 5E 83 C4 0C C3 8B ....._][3.^.....
006D5D90 C7 5F 5D 5B 5E 83 C4 0C C3 CC CC CC CC CC CC CC ._][^...........
006D5DA0 E9 0B FE FF FF CC CC CC CC CC CC CC CC CC CC CC ................
006D5DB0 8B 48 14 85 C9 8B 50 10 57 8B 7E 10 75 54 39 4E .H....P.W.~.uT9N
006D5DC0 14 75 4F 8B 48 68 85 C9 74 19 83 7E 68 00 75 13 .uO.Hh..t..~h.u.
006D5DD0 83 C1 04 3B CA 75 0C F7 40 54 00 02 00 00 74 03 ...;.u..@T....t.
006D5DE0 83 EA 04 8B 88 90 00 00 00 85 C9 74 1C 83 BE 90 ...........t....
006D5DF0 00 00 00 00 75 13 83 C1 04 3B CA 75 0C F7 40 54 ....u....;.u..@T
006D5E00 00 02 00 00 74 03 83 EA 04 33 C0 3B D7 0F 95 C0 ....t....3.;....
006D5E10 5F C3 3B D7 75 09 3B 4E 14 75 04 33 C0 5F C3 B8 _.;.u.;N.u.3._..
006D5E20 01 00 00 00 5F C3 CC CC CC CC CC CC CC CC CC CC ...._...........
006D5E30 56 57 8B 7C 24 0C 8B 87 80 00 00 00 85 C0 74 0D VW.|$.........t.
006D5E40 50 E8 EA FF FF FF 83 C4 04 8B F0 EB 05 BE 98 54 P..............T
006D5E50 A1 00 8B C7 E8 57 FF FF FF 85 C0 8B C7 75 02 8B .....W.......u..
006D5E60 C6 5F 5E C3 CC CC CC CC CC CC CC CC CC CC CC CC ._^.............
006D5E70 8B 4C 24 04 8B 41 04 8B 40 68 85 C0 75 17 8B 0D .L$..A..@h..u...
006D5E80 F0 78 A1 00 68 C4 0E 8D 00 51 E8 F1 B0 00 00 83 .x..h....Q......
006D5E90 C4 08 33 C0 C3 8B 04 08 85 C0 75 05 B8 B8 63 A1 ..3.......u...c.
006D5EA0 00 83 00 01 C3 CC CC CC CC CC CC CC CC CC CC CC ................
006D5EB0 56 57 8B F8 8B 77 04 81 FE 50 B4 A1 00 74 2F 68 VW...w...P...t/h
006D5EC0 50 B4 A1 00 56 E8 A6 F7 FF FF 83 C4 08 85 C0 75 P...V..........u
006D5ED0 1D 8B 46 0C 8B 0D 7C 6B A1 00 50 68 04 0F 8D 00 ..F...|k..Ph....
006D5EE0 51 E8 EA B6 00 00 83 C4 0C 5F 33 C0 5E C3 8D 77 Q........_3.^..w
006D5EF0 14 8B 7F 08 85 FF 75 05 BF 01 00 00 00 53 33 DB ......u......S3.
006D5F00 85 FF 55 7E 37 8B 2D C8 46 8A 00 EB 03 8D 49 00 ..U~7.-.F.....I.
006D5F10 85 DB 75 08 0F B6 16 52 FF D5 EB 0A 0F B6 06 50 ..u....R.......P
006D5F20 FF 15 C4 46 8A 00 83 C4 04 85 C0 75 05 80 3E 5F ...F.......u..>_
006D5F30 75 14 83 C3 01 83 C6 01 3B DF 7C D4 5D 5B 5F B8 u.......;.|.][_.
006D5F40 01 00 00 00 5E C3 8B 0D 7C 6B A1 00 68 E4 0E 8D ....^...|k..h...
006D5F50 00 51 E8 29 B0 00 00 83 C4 08 5D 5B 5F 33 C0 5E .Q.)......][_3.^
006D5F60 C3 CC CC CC CC CC CC CC CC CC CC CC CC CC CC CC ................
006D5F70 51 53 55 56 57 33 FF 33 ED 39 7C 24 1C 0F 8E C3 QSUVW3.3.9|$....
006D5F80 00 00 00 8B 4C 24 18 B8 F4 FF FF FF 2B C1 8D 59 ....L$......+..Y
006D5F90 0C 89 44 24 10 8B 33 81 7E 04 20 3B A2 00 74 15 ..D$..3.~. ;..t.
006D5FA0 8B 46 04 68 20 3B A2 00 50 E8 C2 F6 FF FF 83 C4 .F.h ;..P.......
006D5FB0 08 85 C0 74 44 85 FF 75 13 8B 4C 24 18 51 E8 FD ...tD..u..L$.Q..
006D5FC0 D5 02 00 8B F8 83 C4 04 85 FF 74 72 6A 00 56 E8 ..........trj.V.
006D5FD0 7C 9C 04 00 83 C4 08 85 C0 74 52 83 00 01 8B 57 |........tR....W
006D5FE0 0C 03 54 24 10 89 04 1A 83 06 FF 75 0C 8B 46 04 ..T$.......u..F.
006D5FF0 8B 48 18 56 FF D1 83 C4 04 83 C5 01 83 C3 04 3B .H.V...........;
006D6000 6C 24 1C 7C 90 85 FF 74 3D 57 E8 F1 EE 01 00 83 l$.|...t=W......
006D6010 C4 04 83 07 FF 8B F0 75 31 8B 4F 04 8B 51 18 57 .......u1.O..Q.W
006D6020 FF D2 83 C4 04 5F 8B C6 5E 5D 5B 59 C3 83 07 FF ....._..^][Y....
006D6030 75 0C 8B 57 04 8B 42 18 57 FF D0 83 C4 04 5F 5E u..W..B.W....._^
006D6040 5D 33 C0 5B 59 C3 8B 74 24 18 5F 8B C6 5E 5D 5B ]3.[Y..t$._..^][
006D6050 59 C3 CC CC CC CC CC CC CC CC CC CC CC CC CC CC Y...............

;; fn006D6060: 006D6060
;;   Called from:
;;     006D9EF2 (in fn006D9ED0)
fn006D6060 proc
	mov	eax,[esp+4h]
	mov	eax,[eax+0ACh]
	test	eax,eax
	jnz	6D606Fh

l006D606E:
	ret

l006D606F:
	push	ebx
	mov	ebx,[eax+8h]
	push	ebp
	push	esi
	xor	esi,esi
	test	ebx,ebx
	push	edi
	jle	6D60B1h

l006D607C:
	mov	ebp,[esp+18h]
	lea	edi,[eax+0Ch]

l006D6083:
	mov	eax,[edi]
	cmp	dword ptr [eax+4h],0A1E968h
	jnz	6D6093h

l006D608E:
	mov	eax,[eax+0Ch]
	jmp	6D6099h

l006D6093:
	mov	eax,[eax+84h]

l006D6099:
	push	ebp
	push	eax
	call	6FBCC0h
	add	esp,8h
	test	eax,eax
	jnz	6D60B3h

l006D60A7:
	add	esi,1h
	add	edi,4h
	cmp	esi,ebx
	jl	6D6083h

l006D60B1:
	xor	eax,eax

l006D60B3:
	pop	edi
	pop	esi
	pop	ebp
	pop	ebx
	ret
006D60B8                         CC CC CC CC CC CC CC CC         ........
006D60C0 56 8B 74 24 08 8B 46 F4 8B 4E F0 C7 46 F8 FE FF V.t$..F..N..F...
006D60D0 FF FF 89 08 8B 56 F0 8B 46 F4 89 42 04 56 C7 46 .....V..F..B.V.F
006D60E0 F0 00 00 00 00 E8 A6 54 02 00 83 C4 04 83 BE 80 .......T........
006D60F0 00 00 00 00 74 22 8B 86 80 00 00 00 83 00 FF 8B ....t"..........
006D6100 8E 80 00 00 00 83 39 00 75 0E 8B C1 8B 50 04 50 ......9.u....P.P
006D6110 8B 42 18 FF D0 83 C4 04 83 BE 84 00 00 00 00 74 .B.............t
006D6120 22 8B 86 84 00 00 00 83 00 FF 8B 8E 84 00 00 00 "...............
006D6130 83 39 00 75 0E 8B C1 8B 50 04 50 8B 42 18 FF D0 .9.u....P.P.B...
006D6140 83 C4 04 83 BE A8 00 00 00 00 74 22 8B 86 A8 00 ..........t"....
006D6150 00 00 83 00 FF 8B 8E A8 00 00 00 83 39 00 75 0E ............9.u.
006D6160 8B C1 8B 50 04 50 8B 42 18 FF D0 83 C4 04 83 BE ...P.P.B........
006D6170 AC 00 00 00 00 74 22 8B 86 AC 00 00 00 83 00 FF .....t".........
006D6180 8B 8E AC 00 00 00 83 39 00 75 0E 8B C1 8B 50 04 .......9.u....P.
006D6190 50 8B 42 18 FF D0 83 C4 04 83 BE B0 00 00 00 00 P.B.............
006D61A0 74 22 8B 86 B0 00 00 00 83 00 FF 8B 8E B0 00 00 t"..............
006D61B0 00 83 39 00 75 0E 8B C1 8B 50 04 50 8B 42 18 FF ..9.u....P.P.B..
006D61C0 D0 83 C4 04 83 BE B4 00 00 00 00 74 22 8B 86 B4 ...........t"...
006D61D0 00 00 00 83 00 FF 8B 8E B4 00 00 00 83 39 00 75 .............9.u
006D61E0 0E 8B C1 8B 50 04 50 8B 42 18 FF D0 83 C4 04 8B ....P.P.B.......
006D61F0 4E 58 51 E8 C8 D7 04 00 83 C4 04 83 BE A0 01 00 NXQ.............
006D6200 00 00 74 22 8B 86 A0 01 00 00 83 00 FF 8B 96 A0 ..t"............
006D6210 01 00 00 83 3A 00 75 0E 8B C2 8B 48 04 8B 51 18 ....:.u....H..Q.
006D6220 50 FF D2 83 C4 04 83 BE A4 01 00 00 00 74 20 8B P............t .
006D6230 86 A4 01 00 00 83 00 FF 8B 86 A4 01 00 00 83 38 ...............8
006D6240 00 75 0C 8B 48 04 8B 51 18 50 FF D2 83 C4 04 8B .u..H..Q.P......
006D6250 46 04 8B 88 A0 00 00 00 56 FF D1 83 C4 04 5E C3 F.......V.....^.
006D6260 55 6A 00 E8 E8 C3 01 00 8B E8 83 C4 04 85 ED 75 Uj.............u
006D6270 02 5D C3 8B 44 24 08 57 8B B8 B4 00 00 00 85 FF .]..D$.W........
006D6280 75 05 5F 8B C5 5D C3 53 8B 5F 08 56 33 F6 85 DB u._..].S._.V3...
006D6290 7E 25 8B 4F 0C 8B 14 B1 8B 42 08 3D B8 63 A1 00 ~%.O.....B.=.c..
006D62A0 74 0E 50 55 E8 67 C7 01 00 83 C4 08 85 C0 7C 0E t.PU.g........|.
006D62B0 83 C6 01 3B F3 7C DB 5E 5B 5F 8B C5 5D C3 83 45 ...;.|.^[_..]..E
006D62C0 00 FF 75 0C 8B 45 04 8B 48 18 55 FF D1 83 C4 04 ..u..E..H.U.....
006D62D0 5E 5B 5F 33 C0 5D C3 CC CC CC CC CC CC CC CC CC ^[_3.]..........
006D62E0 53 8B 5C 24 08 8B 83 84 00 00 00 85 C0 56 8B 74 S.\$.........V.t
006D62F0 24 14 57 8B 7C 24 14 74 0B 56 50 FF D7 83 C4 08 $.W.|$.t.VP.....
006D6300 85 C0 75 56 8B 83 B0 00 00 00 85 C0 74 0B 56 50 ..uV........t.VP
006D6310 FF D7 83 C4 08 85 C0 75 41 8B 83 AC 00 00 00 85 .......uA.......
006D6320 C0 74 0B 56 50 FF D7 83 C4 08 85 C0 75 2C 8B 83 .t.VP.......u,..
006D6330 A8 00 00 00 85 C0 74 0B 56 50 FF D7 83 C4 08 85 ......t.VP......
006D6340 C0 75 17 8B 83 80 00 00 00 85 C0 74 0B 56 50 FF .u.........t.VP.
006D6350 D7 83 C4 08 85 C0 75 02 33 C0 5F 5E 5B C3 CC CC ......u.3._^[...
006D6360 8B 4C 24 04 8B 81 AC 00 00 00 85 C0 74 1B C7 81 .L$.........t...
006D6370 AC 00 00 00 00 00 00 00 83 00 FF 75 0C 8B 48 04 ...........u..H.
006D6380 8B 51 18 50 FF D2 83 C4 04 33 C0 C3 CC CC CC CC .Q.P.....3......
006D6390 8B 44 24 04 8B 40 54 25 00 02 00 00 C3 CC CC CC .D$..@T%........
006D63A0 56 57 8B 7C 24 0C 81 BF 94 00 00 00 D0 60 53 00 VW.|$........`S.
006D63B0 75 54 8B 44 24 10 83 78 08 00 75 31 8B 74 24 14 uT.D$..x..u1.t$.
006D63C0 85 F6 74 42 8B 46 04 3D B8 D1 A1 00 74 12 68 B8 ..tB.F.=....t.h.
006D63D0 D1 A1 00 50 E8 97 F2 FF FF 83 C4 08 85 C0 74 26 ...P..........t&
006D63E0 56 E8 3A 6B 02 00 83 C4 04 85 C0 74 19 8B 0D 7C V.:k.......t...|
006D63F0 6B A1 00 68 34 0F 8D 00 51 E8 82 AB 00 00 83 C4 k..h4...Q.......
006D6400 08 5F 33 C0 5E C3 8B 97 98 00 00 00 6A 00 57 FF ._3.^.......j.W.
006D6410 D2 83 C4 08 5F 5E C3 CC CC CC CC CC CC CC CC CC ...._^..........
006D6420 E9 AB 7E 00 00 CC CC CC CC CC CC CC CC CC CC CC ..~.............
006D6430 8B 4C 24 04 8B 41 04 83 00 01 8B 41 04 C3 CC CC .L$..A.....A....
006D6440 3B C8 74 3F 85 C9 74 38 85 C0 74 34 8B 51 10 3B ;.t?..t8..t4.Q.;
006D6450 50 10 75 2C 8B 51 14 3B 50 14 75 24 8B 91 90 00 P.u,.Q.;P.u$....
006D6460 00 00 3B 90 90 00 00 00 75 16 8B 51 68 3B 50 68 ..;.....u..Qh;Ph
006D6470 75 0E 8B 49 54 33 48 54 F7 C1 00 40 00 00 74 03 u..IT3HT...@..t.
006D6480 33 C0 C3 B8 01 00 00 00 C3 CC CC CC CC CC CC CC 3...............
006D6490 56 8B B7 80 00 00 00 3B B3 80 00 00 00 75 4E 8B V......;.....uN.
006D64A0 C6 8B CF E8 98 FF FF FF 85 C0 74 14 8B C6 8B CB ..........t.....
006D64B0 E8 8B FF FF FF 85 C0 74 07 B8 01 00 00 00 5E C3 .......t......^.
006D64C0 8B 46 10 39 87 90 00 00 00 75 0B 39 83 90 00 00 .F.9.....u.9....
006D64D0 00 75 03 83 C0 04 39 47 68 75 08 39 43 68 75 03 .u....9Ghu.9Chu.
006D64E0 83 C0 04 3B 47 10 75 05 3B 43 10 74 CC 33 C0 5E ...;G.u.;C.t.3.^
006D64F0 C3 CC CC CC CC CC CC CC CC CC CC CC CC CC CC CC ................
006D6500 8B 46 18 55 8B 6C 24 08 3B 45 18 0F 85 F1 00 00 .F.U.l$.;E......
006D6510 00 8B 8E A0 00 00 00 3B 8D A0 00 00 00 0F 85 DF .......;........
006D6520 00 00 00 53 57 8B FE 8B DD 8D A4 24 00 00 00 00 ...SW......$....
006D6530 8B 87 80 00 00 00 3B F8 74 38 85 C0 74 38 8B 57 ......;.t8..t8.W
006D6540 10 3B 50 10 75 30 8B 4F 14 3B 48 14 75 28 8B 97 .;P.u0.O.;H.u(..
006D6550 90 00 00 00 3B 90 90 00 00 00 75 1A 8B 4F 68 3B ....;.....u..Oh;
006D6560 48 68 75 12 8B 50 54 33 57 54 F7 C2 00 40 00 00 Hhu..PT3WT...@..
006D6570 75 04 8B F8 EB BA 8B 83 80 00 00 00 3B D8 74 38 u...........;.t8
006D6580 85 C0 74 38 8B 4B 10 3B 48 10 75 30 8B 53 14 3B ..t8.K.;H.u0.S.;
006D6590 50 14 75 28 8B 8B 90 00 00 00 3B 88 90 00 00 00 P.u(......;.....
006D65A0 75 1A 8B 53 68 3B 50 68 75 12 8B 48 54 33 4B 54 u..Sh;Phu..HT3KT
006D65B0 F7 C1 00 40 00 00 75 04 8B D8 EB BA 3B FB 74 39 ...@..u.....;.t9
006D65C0 8B 97 80 00 00 00 3B D0 75 09 E8 C1 FE FF FF 85 ......;.u.......
006D65D0 C0 75 26 8B 45 0C 8B 4E 0C 8B 54 24 14 50 A1 7C .u&.E..N..T$.P.|
006D65E0 6B A1 00 51 52 68 8C 0F 8D 00 50 E8 E0 AF 00 00 k..QRh....P.....
006D65F0 83 C4 14 5F 5B 33 C0 5D C3 5F 5B B8 01 00 00 00 ..._[3.]._[.....
006D6600 5D C3 8B 4D 0C 8B 56 0C 8B 44 24 0C 51 8B 0D 7C ]..M..V..D$.Q..|
006D6610 6B A1 00 52 50 68 58 0F 8D 00 51 E8 B0 AF 00 00 k..RPhX...Q.....
006D6620 83 C4 14 33 C0 5D C3 CC CC CC CC CC CC CC CC CC ...3.]..........
006D6630 55 8B 6C 24 08 56 8B 75 04 57 8B 7C 24 14 85 FF U.l$.V.u.W.|$...
006D6640 75 1A A1 7C 6B A1 00 68 28 10 8D 00 50 E8 2E A9 u..|k..h(...P...
006D6650 00 00 83 C4 08 5F 5E 83 C8 FF 5D C3 53 8B 5F 04 ....._^...].S._.
006D6660 81 FB 80 53 A1 00 74 32 68 80 53 A1 00 53 E8 FD ...S..t2h.S..S..
006D6670 EF FF FF 83 C4 08 85 C0 75 20 8B 4B 0C 8B 15 7C ........u .K...|
006D6680 6B A1 00 51 68 EC 0F 8D 00 52 E8 41 AF 00 00 83 k..Qh....R.A....
006D6690 C4 0C 5B 5F 5E 83 C8 FF 5D C3 B8 00 02 00 00 85 ..[_^...].......
006D66A0 47 54 74 35 85 46 54 74 30 68 9C 29 8B 00 57 E8 GTt5.FTt0h.)..W.
006D66B0 4C FE FF FF 83 C4 08 85 C0 74 32 83 07 01 89 7D L........t2....}
006D66C0 04 83 06 FF 75 0C 8B 46 04 8B 48 18 56 FF D1 83 ....u..F..H.V...
006D66D0 C4 04 5B 5F 5E 33 C0 5D C3 8B 15 7C 6B A1 00 68 ..[_^3.]...|k..h
006D66E0 C0 0F 8D 00 52 E8 E6 AE 00 00 83 C4 08 5B 5F 5E ....R........[_^
006D66F0 83 C8 FF 5D C3 CC CC CC CC CC CC CC CC CC CC CC ...]............
006D6700 A1 64 C4 A6 00 85 C0 75 17 68 4C 10 8D 00 E8 5D .d.....u.hL....]
006D6710 B3 01 00 83 C4 04 85 C0 A3 64 C4 A6 00 75 01 C3 .........d...u..
006D6720 50 E8 FA 29 02 00 83 C4 04 C3 CC CC CC CC CC CC P..)............
006D6730 57 8B F8 8B 47 04 3D 80 53 A1 00 74 20 68 80 53 W...G.=.S..t h.S
006D6740 A1 00 50 E8 28 EF FF FF 83 C4 08 85 C0 75 0E 83 ..P.(........u..
006D6750 05 B8 63 A1 00 01 B8 B8 63 A1 00 5F C3 8B 87 84 ..c.....c.._....
006D6760 00 00 00 56 68 98 10 8D 00 50 E8 41 71 02 00 8B ...Vh....P.Aq...
006D6770 F0 83 C4 08 85 F6 74 24 8B 46 04 3D F0 BA A1 00 ......t$.F.=....
006D6780 74 12 68 F0 BA A1 00 50 E8 E3 EE FF FF 83 C4 08 t.h....P........
006D6790 85 C0 74 08 83 06 01 8B C6 5E 5F C3 A1 64 C4 A6 ..t......^_..d..
006D67A0 00 85 C0 75 16 68 4C 10 8D 00 E8 C1 B2 01 00 83 ...u.hL.........
006D67B0 C4 04 85 C0 A3 64 C4 A6 00 74 0F 50 E8 5F 29 02 .....d...t.P._).
006D67C0 00 8B F0 83 C4 04 85 F6 75 05 5E 33 C0 5F C3 57 ........u.^3._.W
006D67D0 68 18 8A 8A 00 68 8C 10 8D 00 56 E8 00 D1 02 00 h....h....V.....
006D67E0 83 C4 10 83 06 FF 8B F8 75 0C 8B 46 04 8B 48 18 ........u..F..H.
006D67F0 56 FF D1 83 C4 04 85 FF 74 4B 81 FF B8 63 A1 00 V.......tK...c..
006D6800 74 43 8B 47 04 3D F0 BA A1 00 74 39 68 F0 BA A1 tC.G.=....t9h...
006D6810 00 50 E8 59 EE FF FF 83 C4 08 85 C0 75 27 8B 15 .P.Y........u'..
006D6820 7C 6B A1 00 68 58 10 8D 00 52 E8 51 A7 00 00 83 |k..hX...R.Q....
006D6830 C4 08 83 07 FF 75 0C 8B 47 04 8B 48 18 57 FF D1 .....u..G..H.W..
006D6840 83 C4 04 33 FF 5E 8B C7 5F C3 CC CC CC CC CC CC ...3.^.._.......
006D6850 83 EC 30 53 55 8B 6C 24 3C 33 DB 57 68 9C 29 8B ..0SU.l$<3.Wh.).
006D6860 00 55 89 5C 24 34 89 5C 24 14 89 5C 24 18 89 5C .U.\$4.\$..\$..\
006D6870 24 24 89 5C 24 28 89 5C 24 2C 89 5C 24 38 89 5C $$.\$(.\$,.\$8.\
006D6880 24 3C 89 5C 24 40 E8 D5 8E 00 00 8B F8 83 C4 08 $<.\$@..........
006D6890 3B FB 89 7C 24 18 75 09 5F 5D 33 C0 5B 83 C4 30 ;..|$.u._]3.[..0
006D68A0 C3 56 68 FC 10 8D 00 55 E8 B3 8E 00 00 8B F0 83 .Vh....U........
006D68B0 C4 08 3B F3 74 62 53 56 E8 33 CE 02 00 83 C4 08 ..;.tbSV.3......
006D68C0 83 06 FF 8B D8 89 5C 24 18 75 0C 8B 46 04 8B 48 ......\$.u..F..H
006D68D0 18 56 FF D1 83 C4 04 85 DB 0F 84 BC 02 00 00 8B .V..............
006D68E0 73 04 81 FE 88 65 A1 00 74 40 68 88 65 A1 00 56 s....e..t@h.e..V
006D68F0 E8 7B ED FF FF 83 C4 08 85 C0 75 2E 8B 56 0C A1 .{........u..V..
006D6900 7C 6B A1 00 52 68 C8 10 8D 00 50 E8 C0 AC 00 00 |k..Rh....P.....
006D6910 83 C4 0C E9 83 02 00 00 E8 43 A8 00 00 53 E8 FD .........C...S..
006D6920 93 00 00 83 C4 04 89 44 24 18 33 DB 39 5C 24 18 .......D$.3.9\$.
006D6930 0F 84 65 02 00 00 68 B8 B8 8C 00 55 E8 1F 8E 00 ..e...h....U....
006D6940 00 8B F0 83 C4 08 3B F3 74 2E 53 56 E8 9F CD 02 ......;.t.SV....
006D6950 00 83 C4 08 83 06 FF 8B D8 89 5C 24 10 75 0C 8B ..........\$.u..
006D6960 4E 04 8B 51 18 56 FF D2 83 C4 04 85 DB 0F 84 28 N..Q.V.........(
006D6970 02 00 00 E9 02 01 00 00 E8 E3 A7 00 00 68 7C C1 .............h|.
006D6980 8A 00 55 E8 D8 8D 00 00 83 C4 08 3B C3 89 44 24 ..U........;..D$
006D6990 10 75 14 E8 C8 A7 00 00 83 05 B8 63 A1 00 01 C7 .u.........c....
006D69A0 44 24 10 B8 63 A1 00 8B C7 E8 82 FD FF FF 3B C3 D$..c.........;.
006D69B0 89 44 24 14 0F 84 E1 01 00 00 3D B8 63 A1 00 0F .D$.......=.c...
006D69C0 84 B5 00 00 00 E8 F6 72 02 00 3B C3 89 44 24 20 .......r..;..D$ 
006D69D0 0F 84 C5 01 00 00 8B 44 24 14 83 78 08 00 89 5C .......D$..x...\
006D69E0 24 2C 0F 8E 92 00 00 00 EB 06 8D 9B 00 00 00 00 $,..............
006D69F0 8B 4C 24 14 8B 51 0C 8B 3C 9A 57 55 E8 2F 79 00 .L$..Q..<.WU./y.
006D6A00 00 8B F0 83 C4 08 85 F6 75 07 E8 51 A7 00 00 EB ........u..Q....
006D6A10 2F 8B 44 24 20 56 57 50 E8 73 53 02 00 83 C4 0C /.D$ VWP.sS.....
006D6A20 83 06 FF 8B F8 75 0C 8B 4E 04 8B 51 18 56 FF D2 .....u..N..Q.V..
006D6A30 83 C4 04 85 FF 0F 85 5C 01 00 00 83 44 24 2C 01 .......\....D$,.
006D6A40 8B 44 24 14 83 C3 01 3B 58 08 7C A4 83 7C 24 2C .D$....;X.|..|$,
006D6A50 00 74 23 8B 4C 24 20 8B 54 24 10 51 52 68 C0 10 .t#.L$ .T$.QRh..
006D6A60 8D 00 E8 99 37 01 00 83 C4 0C 85 C0 89 44 24 10 ....7........D$.
006D6A70 0F 84 21 01 00 00 8B 7C 24 1C 8B 45 04 3D F0 BA ..!....|$..E.=..
006D6A80 A1 00 74 23 68 F0 BA A1 00 50 E8 E1 EB FF FF 83 ..t#h....P......
006D6A90 C4 08 85 C0 75 11 83 05 B8 63 A1 00 01 C7 44 24 ....u....c....D$
006D6AA0 24 B8 63 A1 00 EB 15 55 E8 53 E0 02 00 83 C4 04 $.c....U.S......
006D6AB0 85 C0 89 44 24 24 0F 84 DF 00 00 00 8B 45 04 3D ...D$$.......E.=
006D6AC0 B8 D1 A1 00 74 23 68 B8 D1 A1 00 50 E8 9F EB FF ....t#h....P....
006D6AD0 FF 83 C4 08 85 C0 75 11 83 05 B8 63 A1 00 01 C7 ......u....c....
006D6AE0 44 24 28 B8 63 A1 00 EB 1F 68 8F 69 8A 00 68 B4 D$(.c....h.i..h.
006D6AF0 10 8D 00 55 E8 E7 CD 02 00 83 C4 0C 85 C0 89 44 ...U...........D
006D6B00 24 28 0F 84 93 00 00 00 E8 F3 FB FF FF 85 C0 89 $(..............
006D6B10 44 24 34 0F 84 82 00 00 00 68 A8 10 8D 00 50 E8 D$4......h....P.
006D6B20 3C 8C 00 00 83 C4 08 85 C0 89 44 24 38 74 6C 8B <.........D$8tl.
006D6B30 4C 24 18 8B 71 08 8D 56 01 52 E8 E1 91 00 00 83 L$..q..V.R......
006D6B40 C4 04 85 C0 89 44 24 30 74 51 85 F6 8B D8 89 7B .....D$0tQ.....{
006D6B50 0C 7E 1F 8B 4C 24 18 8D 53 10 83 C1 0C 8D 49 00 .~..L$..S.....I.
006D6B60 8B 01 83 00 01 89 02 83 C1 04 83 C2 04 83 EE 01 ................
006D6B70 75 EE 8B 44 24 28 8B 4C 24 24 8B 54 24 10 50 8B u..D$(.L$$.T$.P.
006D6B80 44 24 3C 51 52 53 50 6A 05 E8 F2 93 00 00 83 C4 D$<QRSPj........
006D6B90 18 89 44 24 3C EB 15 8B 7C 24 1C 83 07 FF 75 0C ..D$<...|$....u.
006D6BA0 8B 4F 04 8B 51 18 57 FF D2 83 C4 04 8B 44 24 18 .O..Q.W......D$.
006D6BB0 85 C0 5E 74 11 83 00 FF 75 0C 8B 48 04 8B 51 18 ..^t....u..H..Q.
006D6BC0 50 FF D2 83 C4 04 8B 44 24 2C 85 C0 74 11 83 00 P......D$,..t...
006D6BD0 FF 75 0C 8B 48 04 8B 51 18 50 FF D2 83 C4 04 8B .u..H..Q.P......
006D6BE0 44 24 1C 85 C0 74 11 83 00 FF 75 0C 8B 48 04 8B D$...t....u..H..
006D6BF0 51 18 50 FF D2 83 C4 04 8B 44 24 0C 85 C0 74 11 Q.P......D$...t.
006D6C00 83 00 FF 75 0C 8B 48 04 8B 51 18 50 FF D2 83 C4 ...u..H..Q.P....
006D6C10 04 8B 44 24 10 85 C0 74 11 83 00 FF 75 0C 8B 48 ..D$...t....u..H
006D6C20 04 8B 51 18 50 FF D2 83 C4 04 8B 44 24 20 85 C0 ..Q.P......D$ ..
006D6C30 74 11 83 00 FF 75 0C 8B 48 04 8B 51 18 50 FF D2 t....u..H..Q.P..
006D6C40 83 C4 04 8B 44 24 24 85 C0 74 11 83 00 FF 75 0C ....D$$..t....u.
006D6C50 8B 48 04 8B 51 18 50 FF D2 83 C4 04 8B 44 24 30 .H..Q.P......D$0
006D6C60 85 C0 74 11 83 00 FF 75 0C 8B 48 04 8B 51 18 50 ..t....u..H..Q.P
006D6C70 FF D2 83 C4 04 8B 44 24 34 85 C0 74 11 83 00 FF ......D$4..t....
006D6C80 75 0C 8B 48 04 8B 51 18 50 FF D2 83 C4 04 8B 44 u..H..Q.P......D
006D6C90 24 38 5F 5D 5B 83 C4 30 C3 CC CC CC CC CC CC CC $8_][..0........
006D6CA0 57 8B F8 83 FF 02 7C 0B 53 E8 A2 FB FF FF 83 C4 W.....|.S.......
006D6CB0 04 5F C3 A1 64 C4 A6 00 85 C0 56 75 16 68 4C 10 ._..d.....Vu.hL.
006D6CC0 8D 00 E8 A9 AD 01 00 83 C4 04 85 C0 A3 64 C4 A6 .............d..
006D6CD0 00 74 0F 50 E8 47 24 02 00 8B F0 83 C4 04 85 F6 .t.P.G$.........
006D6CE0 75 05 5E 33 C0 5F C3 57 53 68 08 CE 8C 00 68 0C u.^3._.WSh....h.
006D6CF0 11 8D 00 56 E8 87 35 01 00 83 C4 14 83 06 FF 8B ...V..5.........
006D6D00 F8 75 0C 8B 46 04 8B 48 18 56 FF D1 83 C4 04 5E .u..F..H.V.....^
006D6D10 8B C7 5F C3 CC CC CC CC CC CC CC CC CC CC CC CC .._.............
006D6D20 51 8B 4C 24 0C 8D 04 24 50 68 18 11 8D 00 51 C7 Q.L$...$Ph....Q.
006D6D30 44 24 0C 00 00 00 00 E8 44 0F 01 00 83 C4 0C 85 D$......D.......
006D6D40 C0 75 02 59 C3 8B 04 24 53 8B 5C 24 0C E8 4E FF .u.Y...$S.\$..N.
006D6D50 FF FF 5B 59 C3 CC CC CC CC CC CC CC CC CC CC CC ..[Y............
006D6D60 51 8B 4C 24 0C 8D 04 24 50 68 28 11 8D 00 51 C7 Q.L$...$Ph(...Q.
006D6D70 44 24 0C 00 00 00 00 E8 04 0F 01 00 83 C4 0C 85 D$..............
006D6D80 C0 75 02 59 C3 53 8B 5C 24 0C 55 56 57 68 24 0C .u.Y.S.\$.UVWh$.
006D6D90 8D 00 53 E8 C8 89 00 00 8B F0 83 C4 08 85 F6 75 ..S............u
006D6DA0 14 E8 BA A3 00 00 8B 44 24 10 E8 F1 FE FF FF 5F .......D$......_
006D6DB0 5E 5D 5B 59 C3 68 9C 29 8B 00 53 E8 A0 89 00 00 ^][Y.h.)..S.....
006D6DC0 8B F8 83 C4 08 85 FF 75 19 83 06 FF 75 4A 8B 56 .......u....uJ.V
006D6DD0 04 8B 42 18 56 FF D0 83 C4 04 5F 5E 5D 33 C0 5B ..B.V....._^]3.[
006D6DE0 59 C3 68 24 0C 8D 00 57 E8 73 89 00 00 83 C4 08 Y.h$...W.s......
006D6DF0 83 07 FF 8B E8 75 0C 8B 4F 04 8B 51 18 57 FF D2 .....u..O..Q.W..
006D6E00 83 C4 04 85 ED 75 19 83 06 FF 75 0C 8B 46 04 8B .....u....u..F..
006D6E10 48 18 56 FF D1 83 C4 04 5F 5E 5D 33 C0 5B 59 C3 H.V....._^]3.[Y.
006D6E20 8B 15 1C 55 A1 00 68 24 0C 8D 00 52 E8 7F 6A 02 ...U..h$...R..j.
006D6E30 00 33 C9 83 C4 08 3B E8 0F 95 C1 83 45 00 FF 8B .3....;.....E...
006D6E40 F9 75 0C 8B 55 04 8B 42 18 55 FF D0 83 C4 04 85 .u..U..B.U......
006D6E50 FF 74 26 6A 00 56 E8 95 C8 02 00 83 C4 08 83 06 .t&j.V..........
006D6E60 FF 8B F8 75 0C 8B 4E 04 8B 51 18 56 FF D2 83 C4 ...u..N..Q.V....
006D6E70 04 8B C7 5F 5E 5D 5B 59 C3 83 06 FF 75 0C 8B 46 ..._^][Y....u..F
006D6E80 04 8B 48 18 56 FF D1 83 C4 04 8B 44 24 10 E8 0D ..H.V......D$...
006D6E90 FE FF FF 5F 5E 5D 5B 59 C3 CC CC CC CC CC CC CC ..._^][Y........
006D6EA0 51 55 56 57 8B F8 8B 83 84 00 00 00 89 44 24 0C QUVW.........D$.
006D6EB0 8B 07 85 C0 0F 84 B4 00 00 00 8D 9B 00 00 00 00 ................
006D6EC0 8B 4C 24 0C 50 51 E8 E5 69 02 00 83 C4 08 85 C0 .L$.PQ..i.......
006D6ED0 74 0A F6 47 08 40 0F 84 84 00 00 00 8B 47 08 A8 t..G.@.......G..
006D6EE0 10 74 11 A8 20 0F 85 8A 00 00 00 57 53 E8 6E D5 .t.. ......WS.n.
006D6EF0 04 00 EB 3D A8 20 74 32 6A 00 6A 00 57 E8 9E 25 ...=. t2j.j.W..%
006D6F00 02 00 8B E8 83 C4 0C 85 ED 74 7E 55 E8 6F EE 04 .........t~U.o..
006D6F10 00 83 C4 04 83 45 00 FF 8B F0 75 1A 8B 55 04 8B .....E....u..U..
006D6F20 42 18 55 FF D0 83 C4 04 EB 0C 57 53 E8 CF D4 04 B.U.......WS....
006D6F30 00 8B F0 83 C4 08 85 F6 74 4F 8B 0F 8B 54 24 0C ........tO...T$.
006D6F40 56 51 52 E8 A8 69 02 00 83 C4 0C 85 C0 7C 3A 83 VQR..i.......|:.
006D6F50 06 FF 75 0C 8B 46 04 8B 48 18 56 FF D1 83 C4 04 ..u..F..H.V.....
006D6F60 8B 47 10 83 C7 10 85 C0 0F 85 52 FF FF FF 5F 5E .G........R..._^
006D6F70 33 C0 5D 59 C3 8B 15 2C 7E A1 00 68 3C 11 8D 00 3.]Y...,~..h<...
006D6F80 52 E8 FA 9F 00 00 83 C4 08 5F 5E 83 C8 FF 5D 59 R........_^...]Y
006D6F90 C3 CC CC CC CC CC CC CC CC CC CC CC CC CC CC CC ................
006D6FA0 53 55 8B 6C 24 0C 8B 9D 84 00 00 00 56 57 8B F8 SU.l$.......VW..
006D6FB0 8B 07 85 C0 74 4A 50 53 E8 F3 68 02 00 83 C4 08 ....tJPS..h.....
006D6FC0 85 C0 75 32 57 55 E8 F5 D4 04 00 8B F0 83 C4 08 ..u2WU..........
006D6FD0 85 F6 74 33 8B 07 56 50 53 E8 12 69 02 00 83 C4 ..t3..VPS..i....
006D6FE0 0C 85 C0 7C 22 83 06 FF 75 0C 8B 4E 04 8B 51 18 ...|"...u..N..Q.
006D6FF0 56 FF D2 83 C4 04 8B 47 14 83 C7 14 85 C0 75 B6 V......G......u.
006D7000 5F 5E 5D 33 C0 5B C3 5F 5E 5D 83 C8 FF 5B C3 CC _^]3.[._^]...[..
006D7010 53 55 8B 6C 24 0C 8B 9D 84 00 00 00 56 57 8B F8 SU.l$.......VW..
006D7020 8B 07 85 C0 74 4A 50 53 E8 83 68 02 00 83 C4 08 ....tJPS..h.....
006D7030 85 C0 75 32 57 55 E8 E5 D4 04 00 8B F0 83 C4 08 ..u2WU..........
006D7040 85 F6 74 33 8B 07 56 50 53 E8 A2 68 02 00 83 C4 ..t3..VPS..h....
006D7050 0C 85 C0 7C 22 83 06 FF 75 0C 8B 4E 04 8B 51 18 ...|"...u..N..Q.
006D7060 56 FF D2 83 C4 04 8B 47 14 83 C7 14 85 C0 75 B6 V......G......u.
006D7070 5F 5E 5D 33 C0 5B C3 5F 5E 5D 83 C8 FF 5B C3 CC _^]3.[._^]...[..
006D7080 83 78 50 00 56 75 18 83 79 50 00 74 12 83 60 54 .xP.Vu..yP.t..`T
006D7090 FE 8B 71 54 8B 50 54 83 E6 01 0B F2 89 70 54 55 ..qT.PT......pTU
006D70A0 8B 68 34 85 ED 57 75 17 39 69 34 74 12 83 60 54 .h4..Wu.9i4t..`T
006D70B0 FD 8B 71 54 8B 50 54 83 E6 02 0B F2 89 70 54 8B ..qT.PT......pT.
006D70C0 70 54 8B 51 54 33 D6 F6 C2 08 74 30 8B 78 30 85 pT.QT3....t0.x0.
006D70D0 FF 75 05 39 79 30 75 09 85 ED 75 20 39 69 34 74 .u.9y0u...u 9i4t
006D70E0 1B 8B D6 83 E2 F7 85 FF 89 50 54 75 0F 85 ED 75 .........PTu...u
006D70F0 0B 8B 71 54 83 E6 08 0B F2 89 70 54 83 78 30 00 ..qT......pT.x0.
006D7100 75 18 83 79 30 00 74 12 83 60 54 EF 8B 71 54 8B u..y0.t..`T..qT.
006D7110 50 54 83 E6 10 0B F2 89 70 54 8B 50 10 85 D2 8B PT......pT.P....
006D7120 FA 75 03 8B 79 10 8B 50 54 F7 C2 00 40 00 00 75 .u..y..PT...@..u
006D7130 2F F7 41 54 00 40 00 00 74 26 F6 C2 20 74 21 83 /.AT.@..t&.. t!.
006D7140 78 5C 00 75 1B 83 78 60 00 75 15 81 CA 00 40 00 x\.u..x`.u....@.
006D7150 00 89 50 54 8B 51 5C 89 50 5C 8B 51 60 89 50 60 ..PT.Q\.P\.Q`.P`
006D7160 8B 70 54 8B D6 23 51 54 F7 C2 00 01 00 00 74 25 .pT..#QT......t%
006D7170 81 F9 98 54 A1 00 75 08 F7 C6 00 02 00 00 74 15 ...T..u.......t.
006D7180 83 B8 9C 00 00 00 00 75 0C 8B 91 9C 00 00 00 89 .......u........
006D7190 90 9C 00 00 00 83 78 14 00 89 78 10 5F 5D 75 06 ......x...x._]u.
006D71A0 8B 51 14 89 50 14 8B D6 23 51 54 F6 C2 40 74 0C .Q..P...#QT..@t.
006D71B0 83 78 68 00 75 06 8B 51 68 89 50 68 23 71 54 F7 .xh.u..Qh.Ph#qT.
006D71C0 C6 00 01 00 00 5E 74 15 83 B8 90 00 00 00 00 75 .....^t........u
006D71D0 0C 8B 89 90 00 00 00 89 88 90 00 00 00 C3 CC CC ................
006D71E0 53 55 8B 6C 24 0C 56 8B 77 30 85 F6 0F 84 A4 05 SU.l$.V.w0......
006D71F0 00 00 8B 55 30 85 D2 0F 84 99 05 00 00 8B 8D 80 ...U0...........
006D7200 00 00 00 83 79 30 00 75 02 33 C9 83 3E 00 75 13 ....y0.u.3..>.u.
006D7210 8B 02 85 C0 74 0D 85 C9 74 07 8B 59 30 3B 03 74 ....t...t..Y0;.t
006D7220 02 89 06 8B 57 30 83 7A 04 00 75 19 8B 45 30 8B ....W0.z..u..E0.
006D7230 40 04 85 C0 74 0F 85 C9 74 08 8B 71 30 3B 46 04 @...t...t..q0;F.
006D7240 74 03 89 42 04 8B 57 30 83 7A 08 00 75 19 8B 45 t..B..W0.z..u..E
006D7250 30 8B 40 08 85 C0 74 0F 85 C9 74 08 8B 71 30 3B 0.@...t...t..q0;
006D7260 46 08 74 03 89 42 08 8B 57 30 83 7A 0C 00 75 19 F.t..B..W0.z..u.
006D7270 8B 45 30 8B 40 0C 85 C0 74 0F 85 C9 74 08 8B 71 .E0.@...t...t..q
006D7280 30 3B 46 0C 74 03 89 42 0C 8B 57 30 83 7A 10 00 0;F.t..B..W0.z..
006D7290 75 19 8B 45 30 8B 40 10 85 C0 74 0F 85 C9 74 08 u..E0.@...t...t.
006D72A0 8B 71 30 3B 46 10 74 03 89 42 10 8B 57 30 83 7A .q0;F.t..B..W0.z
006D72B0 14 00 75 19 8B 45 30 8B 40 14 85 C0 74 0F 85 C9 ..u..E0.@...t...
006D72C0 74 08 8B 71 30 3B 46 14 74 03 89 42 14 8B 57 30 t..q0;F.t..B..W0
006D72D0 83 7A 18 00 75 19 8B 45 30 8B 40 18 85 C0 74 0F .z..u..E0.@...t.
006D72E0 85 C9 74 08 8B 71 30 3B 46 18 74 03 89 42 18 8B ..t..q0;F.t..B..
006D72F0 57 30 83 7A 1C 00 75 19 8B 45 30 8B 40 1C 85 C0 W0.z..u..E0.@...
006D7300 74 0F 85 C9 74 08 8B 71 30 3B 46 1C 74 03 89 42 t...t..q0;F.t..B
006D7310 1C 8B 57 30 83 7A 20 00 75 19 8B 45 30 8B 40 20 ..W0.z .u..E0.@ 
006D7320 85 C0 74 0F 85 C9 74 08 8B 71 30 3B 46 20 74 03 ..t...t..q0;F t.
006D7330 89 42 20 8B 57 30 83 7A 24 00 75 19 8B 45 30 8B .B .W0.z$.u..E0.
006D7340 40 24 85 C0 74 0F 85 C9 74 08 8B 71 30 3B 46 24 @$..t...t..q0;F$
006D7350 74 03 89 42 24 8B 57 30 83 7A 28 00 75 19 8B 45 t..B$.W0.z(.u..E
006D7360 30 8B 40 28 85 C0 74 0F 85 C9 74 08 8B 71 30 3B 0.@(..t...t..q0;
006D7370 46 28 74 03 89 42 28 8B 57 30 83 7A 2C 00 75 19 F(t..B(.W0.z,.u.
006D7380 8B 45 30 8B 40 2C 85 C0 74 0F 85 C9 74 08 8B 71 .E0.@,..t...t..q
006D7390 30 3B 46 2C 74 03 89 42 2C 8B 57 30 83 7A 30 00 0;F,t..B,.W0.z0.
006D73A0 75 19 8B 45 30 8B 40 30 85 C0 74 0F 85 C9 74 08 u..E0.@0..t...t.
006D73B0 8B 71 30 3B 46 30 74 03 89 42 30 8B 57 30 83 7A .q0;F0t..B0.W0.z
006D73C0 34 00 75 19 8B 45 30 8B 40 34 85 C0 74 0F 85 C9 4.u..E0.@4..t...
006D73D0 74 08 8B 71 30 3B 46 34 74 03 89 42 34 8B 57 30 t..q0;F4t..B4.W0
006D73E0 83 7A 38 00 75 19 8B 45 30 8B 40 38 85 C0 74 0F .z8.u..E0.@8..t.
006D73F0 85 C9 74 08 8B 71 30 3B 46 38 74 03 89 42 38 8B ..t..q0;F8t..B8.
006D7400 57 30 83 7A 3C 00 75 19 8B 45 30 8B 40 3C 85 C0 W0.z<.u..E0.@<..
006D7410 74 0F 85 C9 74 08 8B 71 30 3B 46 3C 74 03 89 42 t...t..q0;F<t..B
006D7420 3C 8B 57 30 83 7A 40 00 75 19 8B 45 30 8B 40 40 <.W0.z@.u..E0.@@
006D7430 85 C0 74 0F 85 C9 74 08 8B 71 30 3B 46 40 74 03 ..t...t..q0;F@t.
006D7440 89 42 40 8B 57 30 83 7A 44 00 75 19 8B 45 30 8B .B@.W0.zD.u..E0.
006D7450 40 44 85 C0 74 0F 85 C9 74 08 8B 71 30 3B 46 44 @D..t...t..q0;FD
006D7460 74 03 89 42 44 8B 57 30 83 7A 48 00 75 19 8B 45 t..BD.W0.zH.u..E
006D7470 30 8B 40 48 85 C0 74 0F 85 C9 74 08 8B 71 30 3B 0.@H..t...t..q0;
006D7480 46 48 74 03 89 42 48 8B 57 30 83 7A 4C 00 75 19 FHt..BH.W0.zL.u.
006D7490 8B 45 30 8B 40 4C 85 C0 74 0F 85 C9 74 08 8B 71 .E0.@L..t...t..q
006D74A0 30 3B 46 4C 74 03 89 42 4C 8B 57 30 83 7A 50 00 0;FLt..BL.W0.zP.
006D74B0 75 19 8B 45 30 8B 40 50 85 C0 74 0F 85 C9 74 08 u..E0.@P..t...t.
006D74C0 8B 71 30 3B 46 50 74 03 89 42 50 8B 57 30 83 7A .q0;FPt..BP.W0.z
006D74D0 54 00 75 19 8B 45 30 8B 40 54 85 C0 74 0F 85 C9 T.u..E0.@T..t...
006D74E0 74 08 8B 71 30 3B 46 54 74 03 89 42 54 8B 57 30 t..q0;FTt..BT.W0
006D74F0 83 7A 58 00 75 19 8B 45 30 8B 40 58 85 C0 74 0F .zX.u..E0.@X..t.
006D7500 85 C9 74 08 8B 71 30 3B 46 58 74 03 89 42 58 8B ..t..q0;FXt..BX.
006D7510 57 30 83 7A 5C 00 75 19 8B 45 30 8B 40 5C 85 C0 W0.z\.u..E0.@\..
006D7520 74 0F 85 C9 74 08 8B 71 30 3B 46 5C 74 03 89 42 t...t..q0;F\t..B
006D7530 5C 8B 57 30 83 7A 60 00 75 19 8B 45 30 8B 40 60 \.W0.z`.u..E0.@`
006D7540 85 C0 74 0F 85 C9 74 08 8B 71 30 3B 46 60 74 03 ..t...t..q0;F`t.
006D7550 89 42 60 8B 57 30 83 7A 64 00 75 19 8B 45 30 8B .B`.W0.zd.u..E0.
006D7560 40 64 85 C0 74 0F 85 C9 74 08 8B 71 30 3B 46 64 @d..t...t..q0;Fd
006D7570 74 03 89 42 64 8B 57 30 83 7A 68 00 75 19 8B 45 t..Bd.W0.zh.u..E
006D7580 30 8B 40 68 85 C0 74 0F 85 C9 74 08 8B 71 30 3B 0.@h..t...t..q0;
006D7590 46 68 74 03 89 42 68 8B 57 30 83 7A 6C 00 75 19 Fht..Bh.W0.zl.u.
006D75A0 8B 45 30 8B 40 6C 85 C0 74 0F 85 C9 74 08 8B 71 .E0.@l..t...t..q
006D75B0 30 3B 46 6C 74 03 89 42 6C 8B 57 30 83 7A 70 00 0;Flt..Bl.W0.zp.
006D75C0 75 19 8B 45 30 8B 40 70 85 C0 74 0F 85 C9 74 08 u..E0.@p..t...t.
006D75D0 8B 71 30 3B 46 70 74 03 89 42 70 8B 57 30 83 7A .q0;Fpt..Bp.W0.z
006D75E0 74 00 75 19 8B 45 30 8B 40 74 85 C0 74 0F 85 C9 t.u..E0.@t..t...
006D75F0 74 08 8B 71 30 3B 46 74 74 03 89 42 74 8B 57 30 t..q0;Ftt..Bt.W0
006D7600 83 7A 78 00 75 19 8B 45 30 8B 40 78 85 C0 74 0F .zx.u..E0.@x..t.
006D7610 85 C9 74 08 8B 71 30 3B 46 78 74 03 89 42 78 8B ..t..q0;Fxt..Bx.
006D7620 57 30 83 7A 7C 00 75 19 8B 45 30 8B 40 7C 85 C0 W0.z|.u..E0.@|..
006D7630 74 0F 85 C9 74 08 8B 71 30 3B 46 7C 74 03 89 42 t...t..q0;F|t..B
006D7640 7C 8B 57 30 83 BA 80 00 00 00 00 75 22 8B 45 30 |.W0.......u".E0
006D7650 8B 80 80 00 00 00 85 C0 74 15 85 C9 74 0B 8B 71 ........t...t..q
006D7660 30 3B 86 80 00 00 00 74 06 89 82 80 00 00 00 8B 0;.....t........
006D7670 57 30 83 BA 84 00 00 00 00 75 22 8B 45 30 8B 80 W0.......u".E0..
006D7680 84 00 00 00 85 C0 74 15 85 C9 74 0B 8B 71 30 3B ......t...t..q0;
006D7690 86 84 00 00 00 74 06 89 82 84 00 00 00 F6 45 54 .....t........ET
006D76A0 10 0F 84 B8 00 00 00 8B 57 30 83 BA 8C 00 00 00 ........W0......
006D76B0 00 75 22 8B 45 30 8B 80 8C 00 00 00 85 C0 74 15 .u".E0........t.
006D76C0 85 C9 74 0B 8B 71 30 3B 86 8C 00 00 00 74 06 89 ..t..q0;.....t..
006D76D0 82 8C 00 00 00 8B 57 30 83 BA 88 00 00 00 00 75 ......W0.......u
006D76E0 22 8B 45 30 8B 80 88 00 00 00 85 C0 74 15 85 C9 ".E0........t...
006D76F0 74 0B 8B 71 30 3B 86 88 00 00 00 74 06 89 82 88 t..q0;.....t....
006D7700 00 00 00 8B 57 30 83 BA 94 00 00 00 00 75 22 8B ....W0.......u".
006D7710 45 30 8B 80 94 00 00 00 85 C0 74 15 85 C9 74 0B E0........t...t.
006D7720 8B 71 30 3B 86 94 00 00 00 74 06 89 82 94 00 00 .q0;.....t......
006D7730 00 8B 57 30 83 BA 90 00 00 00 00 75 22 8B 45 30 ..W0.......u".E0
006D7740 8B 80 90 00 00 00 85 C0 74 15 85 C9 74 0B 8B 71 ........t...t..q
006D7750 30 3B 86 90 00 00 00 74 06 89 82 90 00 00 00 F7 0;.....t........
006D7760 45 54 00 00 02 00 74 2E 8B 57 30 83 BA 98 00 00 ET....t..W0.....
006D7770 00 00 75 22 8B 45 30 8B 80 98 00 00 00 85 C0 74 ..u".E0........t
006D7780 15 85 C9 74 0B 8B 49 30 3B 81 98 00 00 00 74 06 ...t..I0;.....t.
006D7790 89 82 98 00 00 00 8B 77 34 85 F6 0F 84 65 01 00 .......w4....e..
006D77A0 00 8B 55 34 85 D2 0F 84 5A 01 00 00 8B 85 80 00 ..U4....Z.......
006D77B0 00 00 83 78 34 00 75 02 33 C0 83 3E 00 75 15 8B ...x4.u.3..>.u..
006D77C0 0A 85 C9 74 0F 85 C0 74 07 8B 58 34 3B 0B 74 04 ...t...t..X4;.t.
006D77D0 8B D1 89 16 8B 57 34 83 7A 04 00 75 19 8B 4D 34 .....W4.z..u..M4
006D77E0 8B 49 04 85 C9 74 0F 85 C0 74 08 8B 70 34 3B 4E .I...t...t..p4;N
006D77F0 04 74 03 89 4A 04 8B 57 34 83 7A 08 00 75 19 8B .t..J..W4.z..u..
006D7800 4D 34 8B 49 08 85 C9 74 0F 85 C0 74 08 8B 70 34 M4.I...t...t..p4
006D7810 3B 4E 08 74 03 89 4A 08 8B 57 34 83 7A 0C 00 75 ;N.t..J..W4.z..u
006D7820 19 8B 4D 34 8B 49 0C 85 C9 74 0F 85 C0 74 08 8B ..M4.I...t...t..
006D7830 70 34 3B 4E 0C 74 03 89 4A 0C 8B 57 34 83 7A 10 p4;N.t..J..W4.z.
006D7840 00 75 19 8B 4D 34 8B 49 10 85 C9 74 0F 85 C0 74 .u..M4.I...t...t
006D7850 08 8B 70 34 3B 4E 10 74 03 89 4A 10 8B 57 34 83 ..p4;N.t..J..W4.
006D7860 7A 14 00 75 19 8B 4D 34 8B 49 14 85 C9 74 0F 85 z..u..M4.I...t..
006D7870 C0 74 08 8B 70 34 3B 4E 14 74 03 89 4A 14 8B 57 .t..p4;N.t..J..W
006D7880 34 83 7A 18 00 75 19 8B 4D 34 8B 49 18 85 C9 74 4.z..u..M4.I...t
006D7890 0F 85 C0 74 08 8B 70 34 3B 4E 18 74 03 89 4A 18 ...t..p4;N.t..J.
006D78A0 8B 57 34 83 7A 1C 00 75 19 8B 4D 34 8B 49 1C 85 .W4.z..u..M4.I..
006D78B0 C9 74 0F 85 C0 74 08 8B 70 34 3B 4E 1C 74 03 89 .t...t..p4;N.t..
006D78C0 4A 1C 8B 57 34 83 7A 20 00 75 19 8B 4D 34 8B 49 J..W4.z .u..M4.I
006D78D0 20 85 C9 74 0F 85 C0 74 08 8B 70 34 3B 4E 20 74  ..t...t..p4;N t
006D78E0 03 89 4A 20 8B 57 34 83 7A 24 00 75 19 8B 4D 34 ..J .W4.z$.u..M4
006D78F0 8B 49 24 85 C9 74 0F 85 C0 74 08 8B 40 34 3B 48 .I$..t...t..@4;H
006D7900 24 74 03 89 4A 24 8B 77 38 85 F6 74 71 8B 55 38 $t..J$.w8..tq.U8
006D7910 85 D2 74 6A 8B 85 80 00 00 00 83 78 38 00 75 02 ..tj.......x8.u.
006D7920 33 C0 83 3E 00 75 13 8B 0A 85 C9 74 0D 85 C0 74 3..>.u.....t...t
006D7930 07 8B 58 38 3B 0B 74 02 89 0E 8B 57 38 83 7A 04 ..X8;.t....W8.z.
006D7940 00 75 19 8B 4D 38 8B 49 04 85 C9 74 0F 85 C0 74 .u..M8.I...t...t
006D7950 08 8B 70 38 3B 4E 04 74 03 89 4A 04 8B 57 38 83 ..p8;N.t..J..W8.
006D7960 7A 08 00 75 19 8B 4D 38 8B 49 08 85 C9 74 0F 85 z..u..M8.I...t..
006D7970 C0 74 08 8B 40 38 3B 48 08 74 03 89 4A 08 8B 77 .t..@8;H.t..J..w
006D7980 50 85 F6 0F 84 97 00 00 00 8B 55 50 85 D2 0F 84 P.........UP....
006D7990 8C 00 00 00 8B 85 80 00 00 00 83 78 50 00 75 02 ...........xP.u.
006D79A0 33 C0 83 3E 00 75 13 8B 0A 85 C9 74 0D 85 C0 74 3..>.u.....t...t
006D79B0 07 8B 58 50 3B 0B 74 02 89 0E 8B 57 50 83 7A 04 ..XP;.t....WP.z.
006D79C0 00 75 19 8B 4D 50 8B 49 04 85 C9 74 0F 85 C0 74 .u..MP.I...t...t
006D79D0 08 8B 70 50 3B 4E 04 74 03 89 4A 04 8B 57 50 83 ..pP;N.t..J..WP.
006D79E0 7A 08 00 75 19 8B 4D 50 8B 49 08 85 C9 74 0F 85 z..u..MP.I...t..
006D79F0 C0 74 08 8B 70 50 3B 4E 08 74 03 89 4A 08 8B 57 .t..pP;N.t..J..W
006D7A00 50 83 7A 0C 00 75 19 8B 4D 50 8B 49 0C 85 C9 74 P.z..u..MP.I...t
006D7A10 0F 85 C0 74 08 8B 40 50 3B 48 0C 74 03 89 4A 0C ...t..@P;H.t..J.
006D7A20 83 7F 18 00 8B 95 80 00 00 00 75 13 8B 45 18 85 ..........u..E..
006D7A30 C0 74 0C 85 D2 74 05 3B 42 18 74 03 89 47 18 83 .t...t.;B.t..G..
006D7A40 7F 1C 00 75 13 8B 45 1C 85 C0 74 0C 85 D2 74 05 ...u..E...t...t.
006D7A50 3B 42 1C 74 03 89 47 1C 83 7F 20 00 75 12 83 7F ;B.t..G... .u...
006D7A60 48 00 75 0C 8B 4D 20 89 4F 20 8B 45 48 89 47 48 H.u..M .O .EH.GH
006D7A70 83 7F 24 00 75 12 83 7F 4C 00 75 0C 8B 4D 24 89 ..$.u...L.u..M$.
006D7A80 4F 24 8B 45 4C 89 47 4C 83 7F 2C 00 75 13 8B 45 O$.EL.GL..,.u..E
006D7A90 2C 85 C0 74 0C 85 D2 74 05 3B 42 2C 74 03 89 47 ,..t...t.;B,t..G
006D7AA0 2C 83 7F 40 00 75 13 8B 45 40 85 C0 74 0C 85 D2 ,..@.u..E@..t...
006D7AB0 74 05 3B 42 40 74 03 89 47 40 83 7F 44 00 75 13 t.;B@t..G@..D.u.
006D7AC0 8B 45 44 85 C0 74 0C 85 D2 74 05 3B 42 44 74 03 .ED..t...t.;BDt.
006D7AD0 89 47 44 8B 47 54 8B C8 23 4D 54 F6 C1 20 74 26 .GD.GT..#MT.. t&
006D7AE0 83 7F 28 00 75 39 83 7F 64 00 75 33 83 7F 3C 00 ..(.u9..d.u3..<.
006D7AF0 75 2D 8B 4D 28 89 4F 28 8B 4D 64 89 4F 64 8B 4D u-.M(.O(.Md.Od.M
006D7B00 3C 89 4F 3C EB 19 83 7F 28 00 75 13 8B 4D 28 85 <.O<....(.u..M(.
006D7B10 C9 74 0C 85 D2 74 05 3B 4A 28 74 03 89 4F 28 8B .t...t.;J(t..O(.
006D7B20 C8 23 4D 54 84 C9 79 32 83 7F 6C 00 75 13 8B 4D .#MT..y2..l.u..M
006D7B30 6C 85 C9 74 0C 85 D2 74 05 3B 4A 6C 74 03 89 4F l..t...t.;Jlt..O
006D7B40 6C 83 7F 70 00 75 13 8B 4D 70 85 C9 74 0C 85 D2 l..p.u..Mp..t...
006D7B50 74 05 3B 4A 70 74 03 89 4F 70 8B C8 23 4D 54 F7 t.;Jpt..Op..#MT.
006D7B60 C1 00 01 00 00 0F 84 3C 01 00 00 83 BF 88 00 00 .......<........
006D7B70 00 00 75 1C 8B 8D 88 00 00 00 85 C9 74 12 85 D2 ..u.........t...
006D7B80 74 08 3B 8A 88 00 00 00 74 06 89 8F 88 00 00 00 t.;.....t.......
006D7B90 83 BF 8C 00 00 00 00 75 1C 8B 8D 8C 00 00 00 85 .......u........
006D7BA0 C9 74 12 85 D2 74 08 3B 8A 8C 00 00 00 74 06 89 .t...t.;.....t..
006D7BB0 8F 8C 00 00 00 83 BF 90 00 00 00 00 75 1C 8B 8D ............u...
006D7BC0 90 00 00 00 85 C9 74 12 85 D2 74 08 3B 8A 90 00 ......t...t.;...
006D7BD0 00 00 74 06 89 8F 90 00 00 00 83 BF 94 00 00 00 ..t.............
006D7BE0 00 75 1C 8B 8D 94 00 00 00 85 C9 74 12 85 D2 74 .u.........t...t
006D7BF0 08 3B 8A 94 00 00 00 74 06 89 8F 94 00 00 00 83 .;.....t........
006D7C00 BF 98 00 00 00 00 75 1C 8B 8D 98 00 00 00 85 C9 ......u.........
006D7C10 74 12 85 D2 74 08 3B 8A 98 00 00 00 74 06 89 8F t...t.;.....t...
006D7C20 98 00 00 00 83 BF A4 00 00 00 00 75 1C 8B 8D A4 ...........u....
006D7C30 00 00 00 85 C9 74 12 85 D2 74 08 3B 8A A4 00 00 .....t...t.;....
006D7C40 00 74 06 89 8F A4 00 00 00 8B 4D 54 25 00 40 00 .t........MT%.@.
006D7C50 00 81 E1 00 40 00 00 3B C1 75 29 83 BF A0 00 00 ....@..;.u).....
006D7C60 00 00 75 43 8B 85 A0 00 00 00 85 C0 74 39 85 D2 ..uC........t9..
006D7C70 74 08 3B 82 A0 00 00 00 74 2D 5E 5D 89 87 A0 00 t.;.....t-^]....
006D7C80 00 00 5B C3 85 C0 74 1F 83 BF A0 00 00 00 00 75 ..[...t........u
006D7C90 16 81 BD A0 00 00 00 C0 39 72 00 75 0A C7 87 A0 ........9r.u....
006D7CA0 00 00 00 D0 EF 6F 00 5E 5D 5B C3 CC CC CC CC CC .....o.^][......
006D7CB0 56 57 8B F8 8B B7 B4 00 00 00 85 F6 75 1B 56 E8 VW..........u.V.
006D7CC0 8C A9 01 00 8B F0 83 C4 04 85 F6 89 B7 B4 00 00 ................
006D7CD0 00 75 06 5F 83 C8 FF 5E C3 8B 44 24 0C 53 6A 00 .u._...^..D$.Sj.
006D7CE0 50 E8 7A 36 02 00 8B F8 8B 46 08 83 C4 08 83 E8 P.z6.....F......
006D7CF0 01 78 1E 8B 4E 0C 8D 0C 81 BA B8 63 A1 00 8B FF .x..N......c....
006D7D00 8B 19 39 53 08 74 2D 83 E8 01 83 E9 04 85 C0 7D ..9S.t-........}
006D7D10 EF 57 56 E8 F8 AC 01 00 83 C4 08 83 07 FF 8B F0 .WV.............
006D7D20 75 0C 8B 57 04 8B 42 18 57 FF D0 83 C4 04 5B 5F u..W..B.W.....[_
006D7D30 8B C6 5E C3 57 50 56 E8 D4 AA 01 00 83 C4 0C 5B ..^.WPV........[
006D7D40 5F 5E C3 CC CC CC CC CC CC CC CC CC CC CC CC CC _^..............
006D7D50 8B 90 B4 00 00 00 85 D2 74 34 8B 42 08 83 E8 01 ........t4.B....
006D7D60 78 2C 8B 4A 0C 8D 0C 81 57 8D A4 24 00 00 00 00 x,.J....W..$....
006D7D70 8B 39 39 77 08 74 0C 83 E8 01 83 E9 04 85 C0 7D .99w.t.........}
006D7D80 EF 5F C3 50 52 E8 06 B6 02 00 83 C4 08 5F C3 CC ._.PR........_..
006D7D90 8B 44 24 08 81 78 04 88 65 A1 00 74 16 A1 20 87 .D$..x..e..t.. .
006D7DA0 A1 00 68 84 11 8D 00 50 E8 D3 91 00 00 83 C4 08 ..h....P........
006D7DB0 33 C0 C3 8B 40 08 85 C0 74 1A 8B 0D 7C 6B A1 00 3...@...t...|k..
006D7DC0 50 6A 00 68 64 11 8D 00 51 E8 02 98 00 00 83 C4 Pj.hd...Q.......
006D7DD0 10 33 C0 C3 8B 54 24 04 56 52 FF 54 24 14 8B F0 .3...T$.VR.T$...
006D7DE0 83 C4 04 83 FE FF 75 0D E8 D3 91 00 00 85 C0 74 ......u........t
006D7DF0 04 33 C0 5E C3 56 E8 65 D5 00 00 83 C4 04 5E C3 .3.^.V.e......^.
006D7E00 8B 4C 24 08 81 79 04 88 65 A1 00 74 16 A1 20 87 .L$..y..e..t.. .
006D7E10 A1 00 68 84 11 8D 00 50 E8 63 91 00 00 83 C4 08 ..h....P.c......
006D7E20 33 C0 C3 8B 41 08 83 F8 01 74 1A 8B 0D 7C 6B A1 3...A....t...|k.
006D7E30 00 50 6A 01 68 64 11 8D 00 51 E8 91 97 00 00 83 .Pj.hd...Q......
006D7E40 C4 10 33 C0 C3 8B 49 0C 8B 54 24 04 51 52 FF 54 ..3...I..T$.QR.T
006D7E50 24 14 83 C4 08 C3 CC CC CC CC CC CC CC CC CC CC $...............
006D7E60 8B 4C 24 08 81 79 04 88 65 A1 00 74 16 A1 20 87 .L$..y..e..t.. .
006D7E70 A1 00 68 84 11 8D 00 50 E8 03 91 00 00 83 C4 08 ..h....P........
006D7E80 33 C0 C3 8B 41 08 83 F8 01 74 1A 8B 0D 7C 6B A1 3...A....t...|k.
006D7E90 00 50 6A 01 68 64 11 8D 00 51 E8 31 97 00 00 83 .Pj.hd...Q.1....
006D7EA0 C4 10 33 C0 C3 56 8B 71 0C 57 8B 7C 24 0C 8B 47 ..3..V.q.W.|$..G
006D7EB0 04 F6 40 54 10 75 20 8B 56 04 50 52 E8 AF D7 FF ..@T.u .V.PR....
006D7EC0 FF 83 C4 08 85 C0 75 0F 83 05 80 64 A1 00 01 5F ......u....d..._
006D7ED0 B8 80 64 A1 00 5E C3 56 57 FF 54 24 1C 83 C4 08 ..d..^.VW.T$....
006D7EE0 5F 5E C3 CC CC CC CC CC CC CC CC CC CC CC CC CC _^..............
006D7EF0 8B 4C 24 08 81 79 04 88 65 A1 00 74 16 A1 20 87 .L$..y..e..t.. .
006D7F00 A1 00 68 84 11 8D 00 50 E8 73 90 00 00 83 C4 08 ..h....P.s......
006D7F10 33 C0 C3 8B 41 08 83 F8 01 74 1A 8B 0D 7C 6B A1 3...A....t...|k.
006D7F20 00 50 6A 01 68 64 11 8D 00 51 E8 A1 96 00 00 83 .Pj.hd...Q......
006D7F30 C4 10 33 C0 C3 56 8B 71 0C 57 8B 7C 24 0C 8B 47 ..3..V.q.W.|$..G
006D7F40 04 F6 40 54 10 75 20 8B 56 04 50 52 E8 1F D7 FF ..@T.u .V.PR....
006D7F50 FF 83 C4 08 85 C0 75 0F 83 05 80 64 A1 00 01 5F ......u....d..._
006D7F60 B8 80 64 A1 00 5E C3 57 56 FF 54 24 1C 83 C4 08 ..d..^.WV.T$....
006D7F70 5F 5E C3 CC CC CC CC CC CC CC CC CC CC CC CC CC _^..............
006D7F80 8B 4C 24 08 81 79 04 88 65 A1 00 74 16 A1 20 87 .L$..y..e..t.. .
006D7F90 A1 00 68 84 11 8D 00 50 E8 E3 8F 00 00 83 C4 08 ..h....P........
006D7FA0 33 C0 C3 8B 41 08 83 F8 01 74 1A 8B 0D 7C 6B A1 3...A....t...|k.
006D7FB0 00 50 6A 01 68 64 11 8D 00 51 E8 11 96 00 00 83 .Pj.hd...Q......
006D7FC0 C4 10 33 C0 C3 8B 51 0C 8D 44 24 08 50 8D 4C 24 ..3...Q..D$.P.L$
006D7FD0 08 51 89 54 24 10 FF 54 24 14 83 C4 08 85 C0 7C .Q.T$..T$......|
006D7FE0 E1 7E 0D 83 05 80 64 A1 00 01 B8 80 64 A1 00 C3 .~....d.....d...
006D7FF0 6A 02 E8 29 7D 00 00 83 C4 04 85 C0 75 3B 8B 44 j..)}.......u;.D
006D8000 24 04 83 00 FF 8B 44 24 04 83 38 00 75 0C 8B 50 $.....D$..8.u..P
006D8010 04 50 8B 42 18 FF D0 83 C4 04 8B 44 24 08 83 00 .P.B.......D$...
006D8020 FF 8B 44 24 08 83 38 00 75 0C 8B 48 04 8B 51 18 ..D$..8.u..H..Q.
006D8030 50 FF D2 83 C4 04 33 C0 C3 8B 4C 24 04 89 48 0C P.....3...L$..H.
006D8040 8B 54 24 08 89 50 10 C3 CC CC CC CC CC CC CC CC .T$..P..........
006D8050 83 EC 08 8B 54 24 10 8D 04 24 50 8D 4C 24 08 51 ....T$...$P.L$.Q
006D8060 6A 02 6A 01 68 8F 69 8A 00 52 C7 44 24 18 B8 63 j.j.h.i..R.D$..c
006D8070 A1 00 E8 59 DA 00 00 83 C4 18 85 C0 75 04 83 C4 ...Y........u...
006D8080 08 C3 8B 04 24 8B 4C 24 04 8B 54 24 0C 50 51 52 ....$.L$..T$.PQR
006D8090 FF 54 24 20 83 C4 0C 83 C4 08 C3 CC CC CC CC CC .T$ ............
006D80A0 83 EC 08 8B 54 24 10 8D 04 24 50 8D 4C 24 08 51 ....T$...$P.L$.Q
006D80B0 6A 02 6A 01 68 8F 69 8A 00 52 C7 44 24 18 B8 63 j.j.h.i..R.D$..c
006D80C0 A1 00 E8 09 DA 00 00 83 C4 18 85 C0 75 04 83 C4 ............u...
006D80D0 08 C3 8B 04 24 8B 4C 24 0C 8B 54 24 04 50 51 52 ....$.L$..T$.PQR
006D80E0 FF 54 24 20 83 C4 0C 83 C4 08 C3 CC CC CC CC CC .T$ ............
006D80F0 8B 44 24 08 81 78 04 88 65 A1 00 74 16 A1 20 87 .D$..x..e..t.. .
006D8100 A1 00 68 84 11 8D 00 50 E8 73 8E 00 00 83 C4 08 ..h....P.s......
006D8110 33 C0 C3 8B 40 08 85 C0 74 1A 8B 0D 7C 6B A1 00 3...@...t...|k..
006D8120 50 6A 00 68 64 11 8D 00 51 E8 A2 94 00 00 83 C4 Pj.hd...Q.......
006D8130 10 33 C0 C3 8B 54 24 04 52 FF 54 24 10 83 C4 04 .3...T$.R.T$....
006D8140 C3 CC CC CC CC CC CC CC CC CC CC CC CC CC CC CC ................
006D8150 51 8B 4C 24 0C 8D 04 24 50 6A 01 6A 01 68 8F 69 Q.L$...$Pj.j.h.i
006D8160 8A 00 51 E8 68 D9 00 00 83 C4 14 85 C0 75 02 59 ..Q.h........u.Y
006D8170 C3 8B 15 98 85 A1 00 8B 04 24 56 52 50 E8 AE AA .........$VRP...
006D8180 02 00 8B F0 83 C4 08 83 FE FF 75 0E E8 2F 8E 00 ..........u../..
006D8190 00 85 C0 74 05 33 C0 5E 59 C3 8B 4C 24 0C 56 51 ...t.3.^Y..L$.VQ
006D81A0 FF 54 24 1C 83 C4 08 5E 59 C3 CC CC CC CC CC CC .T$....^Y.......
006D81B0 A1 98 85 A1 00 56 50 51 E8 73 AA 02 00 8B F0 83 .....VPQ.s......
006D81C0 C4 08 83 FE FF 75 0E E8 F4 8D 00 00 85 C0 74 09 .....u........t.
006D81D0 83 C8 FF 5E C3 85 F6 7D 1C 8B 57 04 8B 42 34 85 ...^...}..W..B4.
006D81E0 C0 74 12 8B 00 85 C0 74 0C 57 FF D0 83 C4 04 85 .t.....t.W......
006D81F0 C0 7C DD 03 F0 8B C6 5E C3 CC CC CC CC CC CC CC .|.....^........
006D8200 8B 44 24 08 8B 48 08 83 F9 01 75 2F 8B 48 0C 56 .D$..H....u/.H.V
006D8210 57 8B 7C 24 0C E8 96 FF FF FF 8B F0 83 FE FF 75 W.|$...........u
006D8220 0E E8 9A 8D 00 00 85 C0 74 05 5F 33 C0 5E C3 56 ........t._3.^.V
006D8230 57 FF 54 24 1C 83 C4 08 5F 5E C3 81 78 04 88 65 W.T$...._^..x..e
006D8240 A1 00 74 16 A1 20 87 A1 00 68 84 11 8D 00 50 E8 ..t.. ...h....P.
006D8250 2C 8D 00 00 83 C4 08 33 C0 C3 51 8B 0D 7C 6B A1 ,......3..Q..|k.
006D8260 00 6A 01 68 64 11 8D 00 51 E8 62 93 00 00 83 C4 .j.hd...Q.b.....
006D8270 10 33 C0 C3 CC CC CC CC CC CC CC CC CC CC CC CC .3..............
006D8280 8B 54 24 08 83 EC 08 8D 04 24 50 8D 4C 24 08 51 .T$......$P.L$.Q
006D8290 68 B8 11 8D 00 52 E8 E5 F9 00 00 83 C4 10 85 C0 h....R..........
006D82A0 75 04 83 C4 08 C3 8B 04 24 8B 4C 24 04 8B 54 24 u.......$.L$..T$
006D82B0 0C 50 51 52 FF 54 24 20 83 C4 0C 83 C4 08 C3 CC .PQR.T$ ........
006D82C0 8B 54 24 08 83 EC 08 8D 44 24 04 50 8D 4C 24 04 .T$.....D$.P.L$.
006D82D0 51 6A 02 6A 02 68 8F 69 8A 00 52 E8 F0 D7 00 00 Qj.j.h.i..R.....
006D82E0 83 C4 18 85 C0 75 04 83 C4 08 C3 8B 0C 24 56 57 .....u.......$VW
006D82F0 8B 7C 24 14 E8 B7 FE FF FF 8B F0 83 FE FF 75 09 .|$...........u.
006D8300 E8 BB 8C 00 00 85 C0 75 1C 8B 44 24 0C 50 56 57 .......u..D$.PVW
006D8310 FF 54 24 28 83 C4 0C 83 F8 FF 75 11 E8 9F 8C 00 .T$(......u.....
006D8320 00 85 C0 74 08 5F 33 C0 5E 83 C4 08 C3 83 05 B8 ...t._3.^.......
006D8330 63 A1 00 01 5F B8 B8 63 A1 00 5E 83 C4 08 C3 CC c..._..c..^.....
006D8340 8B 44 24 08 81 78 04 88 65 A1 00 74 16 A1 20 87 .D$..x..e..t.. .
006D8350 A1 00 68 84 11 8D 00 50 E8 23 8C 00 00 83 C4 08 ..h....P.#......
006D8360 33 C0 C3 8B 48 08 83 F9 01 74 1A 51 8B 0D 7C 6B 3...H....t.Q..|k
006D8370 A1 00 6A 01 68 64 11 8D 00 51 E8 51 92 00 00 83 ..j.hd...Q.Q....
006D8380 C4 10 33 C0 C3 8B 48 0C 56 57 8B 7C 24 0C E8 1D ..3...H.VW.|$...
006D8390 FE FF FF 8B F0 83 FE FF 75 09 E8 21 8C 00 00 85 ........u..!....
006D83A0 C0 75 19 6A 00 56 57 FF 54 24 20 83 C4 0C 83 F8 .u.j.VW.T$ .....
006D83B0 FF 75 0E E8 08 8C 00 00 85 C0 74 05 5F 33 C0 5E .u........t._3.^
006D83C0 C3 83 05 B8 63 A1 00 01 5F B8 B8 63 A1 00 5E C3 ....c..._..c..^.
006D83D0 83 EC 0C 8D 04 24 50 8B 44 24 18 8D 4C 24 08 51 .....$P.D$..L$.Q
006D83E0 8D 54 24 10 52 68 BC 11 8D 00 50 E8 90 F8 00 00 .T$.Rh....P.....
006D83F0 83 C4 14 85 C0 75 06 33 C0 83 C4 0C C3 8B 0C 24 .....u.3.......$
006D8400 8B 54 24 04 8B 44 24 08 51 8B 4C 24 14 52 50 51 .T$..D$.Q.L$.RPQ
006D8410 FF 54 24 28 83 C4 10 83 F8 FF 75 09 E8 9F 8B 00 .T$(......u.....
006D8420 00 85 C0 75 D2 83 05 B8 63 A1 00 01 B8 B8 63 A1 ...u....c.....c.
006D8430 00 83 C4 0C C3 CC CC CC CC CC CC CC CC CC CC CC ................
006D8440 8B 54 24 08 83 EC 08 8D 04 24 50 8D 4C 24 08 51 .T$......$P.L$.Q
006D8450 68 B8 11 8D 00 52 E8 25 F8 00 00 83 C4 10 85 C0 h....R.%........
006D8460 75 06 33 C0 83 C4 08 C3 8B 04 24 8B 4C 24 04 8B u.3.......$.L$..
006D8470 54 24 0C 6A 00 50 51 52 FF 54 24 24 83 C4 10 83 T$.j.PQR.T$$....
006D8480 F8 FF 75 09 E8 37 8B 00 00 85 C0 75 D5 83 05 B8 ..u..7.....u....
006D8490 63 A1 00 01 B8 B8 63 A1 00 83 C4 08 C3 CC CC CC c.....c.........
006D84A0 8B 4C 24 08 81 79 04 88 65 A1 00 74 16 A1 20 87 .L$..y..e..t.. .
006D84B0 A1 00 68 84 11 8D 00 50 E8 C3 8A 00 00 83 C4 08 ..h....P........
006D84C0 33 C0 C3 8B 41 08 83 F8 01 74 1A 8B 0D 7C 6B A1 3...A....t...|k.
006D84D0 00 50 6A 01 68 64 11 8D 00 51 E8 F1 90 00 00 83 .Pj.hd...Q......
006D84E0 C4 10 33 C0 C3 8B 49 0C 8B 54 24 04 56 51 52 FF ..3...I..T$.VQR.
006D84F0 54 24 18 8B F0 83 C4 08 83 FE FF 75 0D E8 BE 8A T$.........u....
006D8500 00 00 85 C0 74 04 33 C0 5E C3 56 E8 50 CE 00 00 ....t.3.^.V.P...
006D8510 83 C4 04 5E C3 CC CC CC CC CC CC CC CC CC CC CC ...^............
006D8520 8B 54 24 08 83 EC 08 8D 04 24 50 8D 4C 24 08 51 .T$......$P.L$.Q
006D8530 6A 02 6A 02 68 8F 69 8A 00 52 E8 91 D5 00 00 83 j.j.h.i..R......
006D8540 C4 18 85 C0 75 06 33 C0 83 C4 08 C3 8B 04 24 8B ....u.3.......$.
006D8550 4C 24 04 8B 54 24 0C 50 51 52 FF 54 24 20 83 C4 L$..T$.PQR.T$ ..
006D8560 0C 83 F8 FF 75 09 E8 55 8A 00 00 85 C0 75 D7 83 ....u..U.....u..
006D8570 05 B8 63 A1 00 01 B8 B8 63 A1 00 83 C4 08 C3 CC ..c.....c.......
006D8580 8B 4C 24 08 81 79 04 88 65 A1 00 74 16 A1 20 87 .L$..y..e..t.. .
006D8590 A1 00 68 84 11 8D 00 50 E8 E3 89 00 00 83 C4 08 ..h....P........
006D85A0 33 C0 C3 8B 41 08 83 F8 01 74 1A 8B 0D 7C 6B A1 3...A....t...|k.
006D85B0 00 50 6A 01 68 64 11 8D 00 51 E8 11 90 00 00 83 .Pj.hd...Q......
006D85C0 C4 10 33 C0 C3 8B 49 0C 8B 54 24 04 6A 00 51 52 ..3...I..T$.j.QR
006D85D0 FF 54 24 18 83 C4 0C 83 F8 FF 75 09 E8 DF 89 00 .T$.......u.....
006D85E0 00 85 C0 75 DD 83 05 B8 63 A1 00 01 B8 B8 63 A1 ...u....c.....c.
006D85F0 00 C3 CC CC CC CC CC CC CC CC CC CC CC CC CC CC ................
006D8600 8B 44 24 08 81 78 04 88 65 A1 00 74 16 A1 20 87 .D$..x..e..t.. .
006D8610 A1 00 68 84 11 8D 00 50 E8 63 89 00 00 83 C4 08 ..h....P.c......
006D8620 33 C0 C3 8B 48 08 83 F9 01 74 1A 51 8B 0D 7C 6B 3...H....t.Q..|k
006D8630 A1 00 6A 01 68 64 11 8D 00 51 E8 91 8F 00 00 83 ..j.hd...Q......
006D8640 C4 10 33 C0 C3 53 8B 5C 24 08 55 8B 6C 24 14 56 ..3..S.\$.U.l$.V
006D8650 57 8B 78 0C 8B 77 04 39 6E 28 74 38 8B 53 04 52 W.x..w.9n(t8.S.R
006D8660 56 E8 0A D0 FF FF 83 C4 08 85 C0 75 27 8B 43 04 V..........u'.C.
006D8670 8B 4E 0C 8B 40 0C 8B 15 7C 6B A1 00 51 50 50 68 .N..@...|k..QPPh
006D8680 C0 11 8D 00 52 E8 46 8F 00 00 83 C4 14 5F 5E 5D ....R.F......_^]
006D8690 33 C0 5B C3 57 53 FF D5 83 C4 08 8B F0 E8 1E 89 3.[.WS..........
006D86A0 00 00 85 C0 75 E7 56 E8 F4 C9 02 00 83 C4 04 5F ....u.V........_
006D86B0 5E 5D 5B C3 CC CC CC CC CC CC CC CC CC CC CC CC ^][.............
006D86C0 8B 40 04 85 C0 74 18 B9 00 02 00 00 8D 64 24 00 .@...t.......d$.
006D86D0 85 48 54 74 10 8B 80 80 00 00 00 85 C0 75 F1 B8 .HTt.........u..
006D86E0 01 00 00 00 C3 8B 48 4C 3B 4C 24 04 74 F1 8B 50 ......HL;L$.t..P
006D86F0 0C 8B 44 24 08 8B 0D 7C 6B A1 00 52 50 68 F4 11 ..D$...|k..RPh..
006D8700 8D 00 51 E8 C8 8E 00 00 83 C4 10 33 C0 C3 CC CC ..Q........3....
006D8710 8B 54 24 08 83 EC 08 8D 04 24 50 8D 4C 24 08 51 .T$......$P.L$.Q
006D8720 6A 02 6A 02 68 8F 69 8A 00 52 E8 A1 D3 00 00 83 j.j.h.i..R......
006D8730 C4 18 85 C0 75 04 83 C4 08 C3 56 8B 74 24 18 57 ....u.....V.t$.W
006D8740 8B 7C 24 14 68 F8 FF 8C 00 56 8B C7 E8 6F FF FF .|$.h....V...o..
006D8750 FF 83 C4 08 85 C0 74 14 8B 44 24 08 8B 4C 24 0C ......t..D$..L$.
006D8760 50 51 57 FF D6 83 C4 0C 85 C0 7D 08 5F 33 C0 5E PQW.......}._3.^
006D8770 83 C4 08 C3 83 05 B8 63 A1 00 01 5F B8 B8 63 A1 .......c..._..c.
006D8780 00 5E 83 C4 08 C3 CC CC CC CC CC CC CC CC CC CC .^..............
006D8790 8B 4C 24 08 81 79 04 88 65 A1 00 74 16 A1 20 87 .L$..y..e..t.. .
006D87A0 A1 00 68 84 11 8D 00 50 E8 D3 87 00 00 83 C4 08 ..h....P........
006D87B0 33 C0 C3 8B 41 08 83 F8 01 74 1A 8B 0D 7C 6B A1 3...A....t...|k.
006D87C0 00 50 6A 01 68 64 11 8D 00 51 E8 01 8E 00 00 83 .Pj.hd...Q......
006D87D0 C4 10 33 C0 C3 53 8B 5C 24 08 56 8B 71 0C 57 8B ..3..S.\$.V.q.W.
006D87E0 7C 24 18 68 B8 FF 8C 00 57 8B C3 E8 D0 FE FF FF |$.h....W.......
006D87F0 83 C4 08 85 C0 74 0D 6A 00 56 53 FF D7 83 C4 0C .....t.j.VS.....
006D8800 85 C0 7D 06 5F 5E 33 C0 5B C3 83 05 B8 63 A1 00 ..}._^3.[....c..
006D8810 01 5F 5E B8 B8 63 A1 00 5B C3 CC CC CC CC CC CC ._^..c..[.......
006D8820 8B 44 24 08 81 78 04 88 65 A1 00 74 16 A1 20 87 .D$..x..e..t.. .
006D8830 A1 00 68 84 11 8D 00 50 E8 43 87 00 00 83 C4 08 ..h....P.C......
006D8840 33 C0 C3 8B 40 08 85 C0 74 1A 8B 0D 7C 6B A1 00 3...@...t...|k..
006D8850 50 6A 00 68 64 11 8D 00 51 E8 72 8D 00 00 83 C4 Pj.hd...Q.r.....
006D8860 10 33 C0 C3 8B 54 24 04 56 52 FF 54 24 14 8B F0 .3...T$.VR.T$...
006D8870 83 C4 04 83 FE FF 75 0D E8 43 87 00 00 85 C0 74 ......u..C.....t
006D8880 04 33 C0 5E C3 56 E8 15 C8 02 00 83 C4 04 5E C3 .3.^.V........^.
006D8890 8B 44 24 10 8B 4C 24 08 8B 54 24 04 50 51 52 FF .D$..L$..T$.PQR.
006D88A0 54 24 18 83 C4 0C C3 CC CC CC CC CC CC CC CC CC T$..............
006D88B0 81 78 04 88 65 A1 00 74 16 A1 20 87 A1 00 68 84 .x..e..t.. ...h.
006D88C0 11 8D 00 50 E8 B7 86 00 00 83 C4 08 33 C0 C3 8B ...P........3...
006D88D0 48 08 83 F9 01 74 1A 51 8B 0D 7C 6B A1 00 6A 01 H....t.Q..|k..j.
006D88E0 68 64 11 8D 00 51 E8 E5 8C 00 00 83 C4 10 33 C0 hd...Q........3.
006D88F0 C3 8B 54 24 0C 8B 40 0C 52 50 8B 44 24 0C 50 FF ..T$..@.RP.D$.P.
006D8900 54 24 14 83 C4 0C C3 CC CC CC CC CC CC CC CC CC T$..............
006D8910 8B 44 24 0C 8B 4C 24 04 6A 00 50 8B 44 24 10 51 .D$..L$.j.P.D$.Q
006D8920 E8 8B FF FF FF 83 C4 0C C3 CC CC CC CC CC CC CC ................
006D8930 8B 44 24 0C 8B 4C 24 04 6A 01 50 8B 44 24 10 51 .D$..L$.j.P.D$.Q
006D8940 E8 6B FF FF FF 83 C4 0C C3 CC CC CC CC CC CC CC .k..............
006D8950 8B 44 24 0C 8B 4C 24 04 6A 02 50 8B 44 24 10 51 .D$..L$.j.P.D$.Q
006D8960 E8 4B FF FF FF 83 C4 0C C3 CC CC CC CC CC CC CC .K..............
006D8970 8B 44 24 0C 8B 4C 24 04 6A 03 50 8B 44 24 10 51 .D$..L$.j.P.D$.Q
006D8980 E8 2B FF FF FF 83 C4 0C C3 CC CC CC CC CC CC CC .+..............
006D8990 8B 44 24 0C 8B 4C 24 04 6A 04 50 8B 44 24 10 51 .D$..L$.j.P.D$.Q
006D89A0 E8 0B FF FF FF 83 C4 0C C3 CC CC CC CC CC CC CC ................
006D89B0 8B 44 24 0C 8B 4C 24 04 6A 05 50 8B 44 24 10 51 .D$..L$.j.P.D$.Q
006D89C0 E8 EB FE FF FF 83 C4 0C C3 CC CC CC CC CC CC CC ................
006D89D0 8B 44 24 08 81 78 04 88 65 A1 00 74 16 A1 20 87 .D$..x..e..t.. .
006D89E0 A1 00 68 84 11 8D 00 50 E8 93 85 00 00 83 C4 08 ..h....P........
006D89F0 33 C0 C3 8B 40 08 85 C0 74 1A 8B 0D 7C 6B A1 00 3...@...t...|k..
006D8A00 50 6A 00 68 64 11 8D 00 51 E8 C2 8B 00 00 83 C4 Pj.hd...Q.......
006D8A10 10 33 C0 C3 8B 54 24 04 56 52 FF 54 24 14 8B F0 .3...T$.VR.T$...
006D8A20 83 C4 04 85 F6 75 17 E8 94 85 00 00 85 C0 75 0E .....u........u.
006D8A30 A1 00 6D A1 00 50 E8 D5 84 00 00 83 C4 04 8B C6 ..m..P..........
006D8A40 5E C3 CC CC CC CC CC CC CC CC CC CC CC CC CC CC ^...............
006D8A50 83 EC 08 8B 54 24 10 8D 04 24 50 8D 4C 24 08 51 ....T$...$P.L$.Q
006D8A60 6A 02 6A 01 68 8F 69 8A 00 52 C7 44 24 18 00 00 j.j.h.i..R.D$...
006D8A70 00 00 E8 59 D0 00 00 83 C4 18 85 C0 74 3E 8B 4C ...Y........t>.L
006D8A80 24 04 81 F9 B8 63 A1 00 75 06 33 C9 89 4C 24 04 $....c..u.3..L$.
006D8A90 8B 04 24 3D B8 63 A1 00 75 07 33 C0 89 04 24 EB ..$=.c..u.3...$.
006D8AA0 04 85 C0 75 1D 85 C9 75 19 A1 7C 6B A1 00 68 18 ...u...u..|k..h.
006D8AB0 12 8D 00 50 E8 C7 84 00 00 83 C4 08 33 C0 83 C4 ...P........3...
006D8AC0 08 C3 50 51 8B 4C 24 14 51 FF 54 24 20 83 C4 0C ..PQ.L$.Q.T$ ...
006D8AD0 83 C4 08 C3 CC CC CC CC CC CC CC CC CC CC CC CC ................
006D8AE0 8B 54 24 08 83 EC 08 8D 04 24 50 8D 4C 24 08 51 .T$......$P.L$.Q
006D8AF0 6A 02 6A 02 68 8F 69 8A 00 52 E8 D1 CF 00 00 83 j.j.h.i..R......
006D8B00 C4 18 85 C0 75 06 33 C0 83 C4 08 C3 8B 04 24 8B ....u.3.......$.
006D8B10 4C 24 04 8B 54 24 0C 50 51 52 FF 54 24 20 83 C4 L$..T$.PQR.T$ ..
006D8B20 0C 85 C0 7C E1 83 05 B8 63 A1 00 01 B8 B8 63 A1 ...|....c.....c.
006D8B30 00 83 C4 08 C3 CC CC CC CC CC CC CC CC CC CC CC ................
006D8B40 8B 4C 24 08 81 79 04 88 65 A1 00 74 16 A1 20 87 .L$..y..e..t.. .
006D8B50 A1 00 68 84 11 8D 00 50 E8 23 84 00 00 83 C4 08 ..h....P.#......
006D8B60 33 C0 C3 8B 41 08 83 F8 01 74 1A 8B 0D 7C 6B A1 3...A....t...|k.
006D8B70 00 50 6A 01 68 64 11 8D 00 51 E8 51 8A 00 00 83 .Pj.hd...Q.Q....
006D8B80 C4 10 33 C0 C3 8B 49 0C 8B 54 24 04 6A 00 51 52 ..3...I..T$.j.QR
006D8B90 FF 54 24 18 83 C4 0C 85 C0 7C E7 83 05 B8 63 A1 .T$......|....c.
006D8BA0 00 01 B8 B8 63 A1 00 C3 CC CC CC CC CC CC CC CC ....c...........
006D8BB0 8B 44 24 10 8B 4C 24 08 8B 54 24 04 50 51 52 FF .D$..L$..T$.PQR.
006D8BC0 54 24 18 83 C4 0C 85 C0 7D 03 33 C0 C3 83 05 B8 T$......}.3.....
006D8BD0 63 A1 00 01 B8 B8 63 A1 00 C3 CC CC CC CC CC CC c.....c.........
006D8BE0 53 8B 5C 24 08 85 DB 55 74 1C 8B 43 04 3D 80 53 S.\$...Ut..C.=.S
006D8BF0 A1 00 74 1F 68 80 53 A1 00 50 E8 71 CA FF FF 83 ..t.h.S..P.q....
006D8C00 C4 08 85 C0 75 0D 68 E4 12 8D 00 E8 E0 FA 00 00 ....u.h.........
006D8C10 83 C4 04 8B 6C 24 10 8B 45 04 3D 88 65 A1 00 74 ....l$..E.=.e..t
006D8C20 12 68 88 65 A1 00 50 E8 44 CA FF FF 83 C4 08 85 .h.e..P.D.......
006D8C30 C0 74 06 83 7D 08 01 7D 1D 8B 43 0C 8B 0D 7C 6B .t..}..}..C...|k
006D8C40 A1 00 50 68 C0 12 8D 00 51 E8 82 89 00 00 83 C4 ..Ph....Q.......
006D8C50 0C 5D 33 C0 5B C3 56 57 8B 7D 0C 8B 77 04 81 FE .]3.[.VW.}..w...
006D8C60 80 53 A1 00 74 35 68 80 53 A1 00 56 E8 FF C9 FF .S..t5h.S..V....
006D8C70 FF 83 C4 08 85 C0 75 23 8B 56 0C 8B 43 0C 8B 0D ......u#.V..C...
006D8C80 7C 6B A1 00 52 50 68 94 12 8D 00 51 E8 3F 89 00 |k..RPh....Q.?..
006D8C90 00 83 C4 10 5F 5E 5D 33 C0 5B C3 53 57 E8 CE C9 ...._^]3.[.SW...
006D8CA0 FF FF 83 C4 08 85 C0 75 25 8B 43 0C 8B 7F 0C 8B .......u%.C.....
006D8CB0 15 7C 6B A1 00 50 57 57 50 68 68 12 8D 00 52 E8 .|k..PWWPhh...R.
006D8CC0 0C 89 00 00 83 C4 18 5F 5E 5D 33 C0 5B C3 8B C7 ......._^]3.[...
006D8CD0 B9 00 02 00 00 85 48 54 74 4B 8B 80 80 00 00 00 ......HTtK......
006D8CE0 85 C0 75 F1 8B 45 08 50 6A 01 55 E8 20 77 00 00 ..u..E.Pj.U. w..
006D8CF0 8B F0 83 C4 0C 85 F6 74 5A 8B 54 24 1C 8B 83 9C .......tZ.T$....
006D8D00 00 00 00 52 56 57 FF D0 83 C4 0C 83 06 FF 8B F8 ...RVW..........
006D8D10 75 0C 8B 4E 04 8B 51 18 56 FF D2 83 C4 04 8B C7 u..N..Q.V.......
006D8D20 5F 5E 5D 5B C3 8B 88 9C 00 00 00 3B 8B 9C 00 00 _^][.......;....
006D8D30 00 74 B1 8B 40 0C 8B 57 0C 8B 0D 7C 6B A1 00 50 .t..@..W...|k..P
006D8D40 8B 43 0C 52 50 68 38 12 8D 00 51 E8 80 88 00 00 .C.RPh8...Q.....
006D8D50 83 C4 14 5F 5E 5D 33 C0 5B C3 CC CC CC CC CC CC ..._^]3.[.......
006D8D60 8B 87 84 00 00 00 68 00 0C 8D 00 50 E8 3F 4B 02 ......h....P.?K.
006D8D70 00 83 C4 08 85 C0 74 03 33 C0 C3 56 6A 00 57 68 ......t.3..Vj.Wh
006D8D80 58 55 A1 00 E8 17 07 02 00 8B F0 83 C4 0C 85 F6 XU..............
006D8D90 74 2A 8B 8F 84 00 00 00 56 68 00 0C 8D 00 51 E8 t*......Vh....Q.
006D8DA0 4C 4B 02 00 83 C4 0C 85 C0 74 16 83 06 FF 75 0C LK.......t....u.
006D8DB0 8B 56 04 8B 42 18 56 FF D0 83 C4 04 83 C8 FF 5E .V..B.V........^
006D8DC0 C3 83 06 FF 75 0C 8B 4E 04 8B 51 18 56 FF D2 83 ....u..N..Q.V...
006D8DD0 C4 04 33 C0 5E C3 CC CC CC CC CC CC CC CC CC CC ..3.^...........
006D8DE0 56 8B F1 8B 48 04 57 56 51 E8 72 69 00 00 8B F8 V...H.WVQ.ri....
006D8DF0 83 C4 08 85 FF 75 0A E8 64 83 00 00 5F 33 C0 5E .....u..d..._3.^
006D8E00 C3 8B 54 24 0C 8B 42 04 56 50 E8 51 69 00 00 8B ..T$..B.VP.Qi...
006D8E10 F0 83 C4 08 85 F6 75 1E E8 43 83 00 00 83 07 FF ......u..C......
006D8E20 75 0C 8B 4F 04 8B 51 18 57 FF D2 83 C4 04 5F B8 u..O..Q.W....._.
006D8E30 01 00 00 00 5E C3 53 6A 03 57 56 E8 60 67 00 00 ....^.Sj.WV.`g..
006D8E40 83 C4 0C 83 06 FF 8B D8 75 0C 8B 46 04 8B 48 18 ........u..F..H.
006D8E50 56 FF D1 83 C4 04 83 07 FF 75 0C 8B 57 04 8B 42 V........u..W..B
006D8E60 18 57 FF D0 83 C4 04 85 DB 7D 0B E8 F0 82 00 00 .W.......}......
006D8E70 5B 5F 33 C0 5E C3 8B C3 5B 5F 5E C3 CC CC CC CC [_3.^...[_^.....
006D8E80 A1 78 C4 A6 00 85 C0 75 17 68 00 0B 8D 00 E8 DD .x.....u.h......
006D8E90 8B 01 00 83 C4 04 85 C0 A3 78 C4 A6 00 75 01 C3 .........x...u..
006D8EA0 53 56 57 8B 7C 24 10 50 8B 47 04 50 E8 AF D1 FF SVW.|$.P.G.P....
006D8EB0 FF 8B F0 83 C4 08 85 F6 0F 84 87 00 00 00 8B 4E ...............N
006D8EC0 04 8B 81 88 00 00 00 85 C0 75 05 83 06 01 EB 15 .........u......
006D8ED0 8B 57 04 52 57 56 FF D0 8B F0 83 C4 0C 85 F6 0F .W.RWV..........
006D8EE0 84 A1 00 00 00 8B 44 24 14 50 E8 31 C2 02 00 8B ......D$.P.1....
006D8EF0 D8 83 C4 04 85 DB 74 79 6A 01 E8 21 6E 00 00 8B ......tyj..!n...
006D8F00 F8 83 C4 04 85 FF 74 58 6A 00 57 56 89 5F 0C E8 ......tXj.WV._..
006D8F10 FC A7 02 00 83 C4 0C 83 07 FF 8B D8 75 0C 8B 4F ............u..O
006D8F20 04 8B 51 18 57 FF D2 83 C4 04 85 F6 74 11 83 06 ..Q.W.......t...
006D8F30 FF 75 0C 8B 46 04 8B 48 18 56 FF D1 83 C4 04 5F .u..F..H.V....._
006D8F40 5E 8B C3 5B C3 8B 15 78 C4 A6 00 A1 F0 78 A1 00 ^..[...x.....x..
006D8F50 52 50 E8 39 7F 00 00 83 C4 08 5F 5E 33 C0 5B C3 RP.9......_^3.[.
006D8F60 83 03 FF 75 0C 8B 4B 04 8B 51 18 53 FF D2 83 C4 ...u..K..Q.S....
006D8F70 04 85 F6 74 11 83 06 FF 75 0C 8B 46 04 8B 48 18 ...t....u..F..H.
006D8F80 56 FF D1 83 C4 04 5F 5E 33 C0 5B C3 CC CC CC CC V....._^3.[.....
006D8F90 A1 B0 C4 A6 00 85 C0 56 57 8B 7C 24 0C 8B 77 04 .......VW.|$..w.
006D8FA0 75 19 68 94 FE 8C 00 E8 C4 8A 01 00 83 C4 04 85 u.h.............
006D8FB0 C0 A3 B0 C4 A6 00 75 03 5F 5E C3 50 56 E8 9E D0 ......u._^.PV...
006D8FC0 FF FF 83 C4 08 85 C0 75 1A 81 BE 88 00 00 00 90 .......u........
006D8FD0 8F 6D 00 75 06 89 86 88 00 00 00 83 07 01 8B C7 .m.u............
006D8FE0 5F 5E C3 8B 54 24 10 85 D2 75 05 BA B8 63 A1 00 _^..T$...u...c..
006D8FF0 8B 4C 24 14 85 C9 75 05 B9 B8 63 A1 00 6A 00 51 .L$...u...c..j.Q
006D9000 52 57 50 E8 E8 AA 02 00 83 C4 14 5F 5E C3 CC CC RWP........_^...
006D9010 51 A1 24 C3 A6 00 85 C0 75 18 68 00 0C 8D 00 E8 Q.$.....u.h.....
006D9020 4C 8A 01 00 83 C4 04 85 C0 A3 24 C3 A6 00 75 02 L.........$...u.
006D9030 59 C3 53 8B 5C 24 0C 50 53 E8 F2 52 00 00 83 C4 Y.S.\$.PS..R....
006D9040 08 85 C0 89 44 24 04 75 03 5B 59 C3 55 8B 6C 24 ....D$.u.[Y.U.l$
006D9050 14 56 57 8B 7D 08 8D 47 01 50 E8 C1 6C 00 00 8B .VW.}..G.P..l...
006D9060 F0 83 C4 04 85 F6 75 06 5F 5E 5D 5B 59 C3 83 03 ......u._^][Y...
006D9070 01 85 FF 89 5E 0C 7E 1A 8D 56 10 8D 4D 0C 8B FF ....^.~..V..M...
006D9080 8B 01 83 00 01 89 02 83 C1 04 83 C2 04 83 EF 01 ................
006D9090 75 EE 8B 4C 24 20 8B 7C 24 10 51 56 57 E8 6E A6 u..L$ .|$.QVW.n.
006D90A0 02 00 83 C4 0C 83 06 FF 8B D8 75 0C 8B 56 04 8B ..........u..V..
006D90B0 42 18 56 FF D0 83 C4 04 83 07 FF 75 0C 8B 4F 04 B.V........u..O.
006D90C0 8B 51 18 57 FF D2 83 C4 04 5F 5E 5D 8B C3 5B 59 .Q.W....._^]..[Y
006D90D0 C3 CC CC CC CC CC CC CC CC CC CC CC CC CC CC CC ................
006D90E0 56 8B F0 39 35 8C C3 A6 00 74 33 8B 0D A8 55 A1 V..95....t3...U.
006D90F0 00 85 C9 89 35 8C C3 A6 00 BA 54 C3 A6 00 B8 90 ....5.....T.....
006D9100 55 A1 00 74 13 3B CE 75 05 89 02 83 C2 04 8B 48 U..t.;.u.......H
006D9110 34 83 C0 1C 85 C9 75 ED C7 02 00 00 00 00 8B 0D 4.....u.........
006D9120 54 C3 A6 00 33 C0 85 C9 BE 54 C3 A6 00 74 60 90 T...3....T...t`.
006D9130 8B 49 04 81 F9 68 01 00 00 72 0B 8B 57 34 81 E9 .I...h...r..W4..
006D9140 68 01 00 00 EB 28 81 F9 5C 01 00 00 72 0B 8B 57 h....(..\...r..W
006D9150 38 81 E9 5C 01 00 00 EB 15 81 F9 C0 00 00 00 72 8..\...........r
006D9160 0B 8B 57 30 81 E9 C0 00 00 00 EB 02 8B D7 85 D2 ..W0............
006D9170 74 0F 03 D1 74 0B 83 3A 00 74 06 85 C0 75 0E 8B t...t..:.t...u..
006D9180 C2 8B 4E 04 83 C6 04 85 C9 75 A5 5E C3 33 C0 5E ..N......u.^.3.^
006D9190 C3 CC CC CC CC CC CC CC CC CC CC CC CC CC CC CC ................
006D91A0 83 EC 10 53 8B D8 33 C9 55 8B 6B 04 81 FD 68 01 ...S..3.U.k...h.
006D91B0 00 00 89 4C 24 14 89 4C 24 0C 89 4C 24 10 8B C5 ...L$..L$..L$...
006D91C0 72 0F 8B 44 24 1C 8B 50 34 8D 85 98 FE FF FF EB r..D$..P4.......
006D91D0 32 81 FD 5C 01 00 00 72 0F 8B 44 24 1C 8B 50 38 2..\...r..D$..P8
006D91E0 8D 85 A4 FE FF FF EB 1B 81 FD C0 00 00 00 72 0F ..............r.
006D91F0 8B 44 24 1C 8B 50 30 8D 85 40 FF FF FF EB 04 8B .D$..P0..@......
006D9200 54 24 1C 3B D1 89 54 24 08 74 06 01 44 24 08 75 T$.;..T$.t..D$.u
006D9210 10 83 C3 1C 39 6B 04 74 F8 5D 8B C3 5B 83 C4 10 ....9k.t.]..[...
006D9220 C3 56 57 8B 43 18 8B 7C 24 24 50 57 E8 2F CE FF .VW.C..|$$PW./..
006D9230 FF 8B F0 83 C4 08 85 F6 0F 84 9B 00 00 00 8B 46 ...............F
006D9240 04 3D C8 40 A2 00 75 4D 8B 43 18 E8 90 FE FF FF .=.@..uM.C......
006D9250 85 C0 74 06 3B 44 24 10 75 07 8B 4B 08 89 4C 24 ..t.;D$.u..K..L$
006D9260 1C 8B 56 10 8B 42 0C 3B 43 0C 75 6D 8B 4E 08 51 ..V..B.;C.um.N.Q
006D9270 8B D7 52 E8 F8 C3 FF FF 83 C4 08 85 C0 74 5A 8B ..R..........tZ.
006D9280 44 24 14 85 C0 74 05 3B 46 14 75 45 8B 46 14 89 D$...t.;F.uE.F..
006D9290 44 24 14 EB 44 3D 98 C6 A1 00 75 2E 8B 4E 08 81 D$..D=....u..N..
006D92A0 79 04 E0 8B 6D 00 75 22 8B 33 BF 00 0C 8D 00 B9 y...m.u".3......
006D92B0 08 00 00 00 33 D2 F3 A6 75 10 8B 44 24 24 8B 88 ....3...u..D$$..
006D92C0 9C 00 00 00 89 4C 24 14 EB 0F 8B 53 08 89 54 24 .....L$....S..T$
006D92D0 1C C7 44 24 18 01 00 00 00 83 C3 1C 39 6B 04 0F ..D$........9k..
006D92E0 84 3E FF FF FF 8B 44 24 14 85 C0 5F 5E 74 15 83 .>....D$..._^t..
006D92F0 7C 24 10 00 75 0E 8B 4C 24 08 89 01 5D 8B C3 5B |$..u..L$...]..[
006D9300 83 C4 10 C3 8B 44 24 08 8B 54 24 14 89 10 5D 8B .....D$..T$...].
006D9310 C3 5B 83 C4 10 C3 CC CC CC CC CC CC CC CC CC CC .[..............
006D9320 56 8B 74 24 0C 8B 06 85 C0 74 19 57 8B 7C 24 0C V.t$.....t.W.|$.
006D9330 57 E8 6A FE FF FF 8B 46 04 83 C6 04 83 C4 04 85 W.j....F........
006D9340 C0 75 ED 5F 33 C0 5E C3 CC CC CC CC CC CC CC CC .u._3.^.........
006D9350 8B 4C 24 04 8B 41 04 8B 54 24 08 2B 42 04 75 0C .L$..A..T$.+B.u.
006D9360 3B CA 76 06 B8 01 00 00 00 C3 1B C0 C3 CC CC CC ;.v.............
006D9370 83 3D B8 C4 A6 00 00 75 70 83 3D 90 55 A1 00 00 .=.....up.=.U...
006D9380 56 BE 90 55 A1 00 74 27 8B 06 50 E8 E0 86 01 00 V..U..t'..P.....
006D9390 83 C4 04 85 C0 89 46 18 75 0D 68 0C 13 8D 00 E8 ......F.u.h.....
006D93A0 4C F3 00 00 83 C4 04 83 C6 1C 83 3E 00 75 D9 81 L..........>.u..
006D93B0 EE 90 55 A1 00 B8 93 24 49 92 F7 EE 03 D6 C1 FA ..U....$I.......
006D93C0 04 8B CA 68 50 93 6D 00 C1 E9 1F 6A 1C 03 CA 51 ...hP.m....j...Q
006D93D0 68 90 55 A1 00 FF 15 C0 46 8A 00 83 C4 10 C7 05 h.U.....F.......
006D93E0 B8 C4 A6 00 01 00 00 00 5E C3 CC CC CC CC CC CC ........^.......
006D93F0 51 8B 44 24 08 8B 80 B4 00 00 00 85 C0 89 44 24 Q.D$..........D$
006D9400 08 75 02 59 C3 8B 48 08 53 55 56 33 DB 85 C9 57 .u.Y..H.SUV3...W
006D9410 89 4C 24 10 0F 8E 81 00 00 00 8B 6C 24 24 8B FF .L$........l$$..
006D9420 8B 50 0C 8B 14 9A 8B 72 08 81 FE B8 63 A1 00 74 .P.....r....c..t
006D9430 63 8B BE 84 00 00 00 85 FF 74 2E 8B 47 04 3D B8 c........t..G.=.
006D9440 D1 A1 00 74 12 68 B8 D1 A1 00 50 E8 20 C2 FF FF ...t.h....P. ...
006D9450 83 C4 08 85 C0 74 12 8B 44 24 1C 50 57 E8 5E 28 .....t..D$.PW.^(
006D9460 02 00 83 C4 08 85 C0 75 23 8B 7C 24 20 55 56 FF .......u#.|$ UV.
006D9470 D7 83 C4 08 85 C0 7C 2B 8B 4C 24 1C 55 57 51 56 ......|+.L$.UWQV
006D9480 E8 6B FF FF FF 83 C4 10 85 C0 7C 17 8B 44 24 18 .k........|..D$.
006D9490 8B 4C 24 10 83 C3 01 3B D9 7C 85 5F 5E 5D 33 C0 .L$....;.|._^]3.
006D94A0 5B 59 C3 5F 5E 5D 83 C8 FF 5B 59 C3 CC CC CC CC [Y._^]...[Y.....
006D94B0 53 55 56 57 8B F8 8B AF 84 00 00 00 E8 AF FE FF SUVW............
006D94C0 FF 83 3D 90 55 A1 00 00 0F 84 A9 00 00 00 BB A8 ..=.U...........
006D94D0 55 A1 00 83 7B F4 00 0F 84 8D 00 00 00 8B 43 EC U...{.........C.
006D94E0 3D 68 01 00 00 72 0A 8B 77 34 2D 68 01 00 00 EB =h...r..w4-h....
006D94F0 24 3D 5C 01 00 00 72 0A 8B 77 38 2D 5C 01 00 00 $=\...r..w8-\...
006D9500 EB 13 3D C0 00 00 00 72 0A 8B 77 30 2D C0 00 00 ..=....r..w0-...
006D9510 00 EB 02 8B F7 85 F6 74 51 03 F0 74 4D 83 3E 00 .......tQ..tM.>.
006D9520 74 48 8B 03 50 55 E8 95 27 02 00 83 C4 08 85 C0 tH..PU..'.......
006D9530 75 38 8B 0E 51 8D 53 E8 52 57 E8 41 B0 04 00 8B u8..Q.S.RW.A....
006D9540 F0 83 C4 0C 85 F6 74 48 8B 03 56 50 55 E8 3E 28 ......tH..VPU.>(
006D9550 02 00 83 C4 0C 85 C0 7C 37 83 06 FF 75 0C 8B 4E .......|7...u..N
006D9560 04 8B 51 18 56 FF D2 83 C4 04 83 C3 1C 83 7B E8 ..Q.V.........{.
006D9570 00 0F 85 5C FF FF FF 83 BF 9C 00 00 00 00 74 09 ...\..........t.
006D9580 E8 DB F7 FF FF 85 C0 7C 07 5F 5E 5D 33 C0 5B C3 .......|._^]3.[.
006D9590 5F 5E 5D 83 C8 FF 5B C3 CC CC CC CC CC CC CC CC _^]...[.........
006D95A0 56 8B 74 24 08 8B 46 F4 8B 4E F0 C7 46 F8 FE FF V.t$..F..N..F...
006D95B0 FF FF 89 08 8B 56 F0 8B 46 F4 89 42 04 C7 46 F0 .....V..F..B..F.
006D95C0 00 00 00 00 83 7E 0C 00 74 1C 8B 46 0C 83 00 FF .....~..t..F....
006D95D0 8B 4E 0C 83 39 00 75 0E 8B C1 8B 50 04 50 8B 42 .N..9.u....P.P.B
006D95E0 18 FF D0 83 C4 04 83 7E 08 00 74 1C 8B 46 08 83 .......~..t..F..
006D95F0 00 FF 8B 4E 08 83 39 00 75 0E 8B C1 8B 50 04 50 ...N..9.u....P.P
006D9600 8B 42 18 FF D0 83 C4 04 83 7E 10 00 74 1C 8B 46 .B.......~..t..F
006D9610 10 83 00 FF 8B 4E 10 83 39 00 75 0E 8B C1 8B 50 .....N..9.u....P
006D9620 04 50 8B 42 18 FF D0 83 C4 04 8B 4E 04 8B 91 A0 .P.B.......N....
006D9630 00 00 00 56 FF D2 83 C4 04 5E C3 CC CC CC CC CC ...V.....^......
006D9640 8B 44 24 04 8B 48 10 85 C9 8B 40 08 74 21 85 C0 .D$..H....@.t!..
006D9650 74 05 8B 40 0C EB 05 B8 24 7D 8A 00 8B 49 0C 51 t..@....$}...I.Q
006D9660 50 68 50 13 8D 00 E8 05 8A 01 00 83 C4 0C C3 85 PhP.............
006D9670 C0 74 12 8B 40 0C 50 68 34 13 8D 00 E8 EF 89 01 .t..@.Ph4.......
006D9680 00 83 C4 08 C3 B8 24 7D 8A 00 50 68 34 13 8D 00 ......$}..Ph4...
006D9690 E8 DB 89 01 00 83 C4 08 C3 CC CC CC CC CC CC CC ................
006D96A0 83 EC 08 53 8B 5C 24 10 55 8B 6B 10 33 C0 85 ED ...S.\$.U.k.3...
006D96B0 0F 94 C0 56 57 89 6C 24 14 85 C0 0F 85 D9 00 00 ...VW.l$........
006D96C0 00 8B 74 24 20 8B 46 04 3D 50 B4 A1 00 74 12 68 ..t$ .F.=P...t.h
006D96D0 50 B4 A1 00 50 E8 96 BF FF FF 83 C4 08 85 C0 74 P...P..........t
006D96E0 1D 83 7E 08 09 75 17 83 C6 14 BF 9C 29 8B 00 B9 ..~..u......)...
006D96F0 0A 00 00 00 33 C0 F3 A6 0F 84 9C 00 00 00 8B 95 ....3...........
006D9700 AC 00 00 00 85 D2 75 04 33 ED EB 03 8B 6A 08 33 ......u.3....j.3
006D9710 FF 85 ED 7E 19 8B 4B 08 8D 42 0C EB 03 8D 49 00 ...~..K..B....I.
006D9720 3B 08 74 0A 83 C7 01 83 C0 04 3B FD 7C F2 83 C7 ;.t.......;.|...
006D9730 01 3B FD 7D 65 8D 4C BA 0C 89 4C 24 10 8D 49 00 .;.}e.L...L$..I.
006D9740 8B 54 24 10 8B 1A 8B 73 04 81 FE 80 53 A1 00 74 .T$....s....S..t
006D9750 1F 68 80 53 A1 00 56 E8 14 BF FF FF 83 C4 08 85 .h.S..V.........
006D9760 C0 75 0D 81 FE 68 E9 A1 00 75 1F 8B 5B 0C EB 06 .u...h...u..[...
006D9770 8B 9B 84 00 00 00 8B 44 24 20 50 53 E8 3F 25 02 .......D$ PS.?%.
006D9780 00 8B F0 83 C4 08 85 F6 75 26 83 44 24 10 04 83 ........u&.D$...
006D9790 C7 01 3B FD 7C AA 8B 5C 24 1C 8B 4C 24 20 51 53 ..;.|..\$..L$ QS
006D97A0 E8 6B 4E 00 00 83 C4 08 5F 5E 5D 5B 83 C4 08 C3 .kN....._^][....
006D97B0 83 06 01 8B 4E 04 8B 91 88 00 00 00 85 D2 74 33 ....N.........t3
006D97C0 8B 7C 24 1C 8B 4F 0C 8B C1 2B 47 10 F7 D8 1B C0 .|$..O...+G.....
006D97D0 23 C1 8B 4C 24 14 51 50 56 FF D2 83 C4 0C 83 06 #..L$.QPV.......
006D97E0 FF 8B F8 75 0C 8B 56 04 8B 42 18 56 FF D0 83 C4 ...u..V..B.V....
006D97F0 04 8B F7 5F 8B C6 5E 5D 5B 83 C4 08 C3 CC CC CC ..._..^][.......
006D9800 55 8B 6C 24 08 56 8B 77 04 81 FE 80 53 A1 00 74 U.l$.V.w....S..t
006D9810 12 68 80 53 A1 00 56 E8 54 BE FF FF 83 C4 08 85 .h.S..V.T.......
006D9820 C0 74 16 55 57 E8 46 BE FF FF 83 C4 08 85 C0 74 .t.UW.F........t
006D9830 08 83 07 01 5E 8B C7 5D C3 55 56 E8 30 BE FF FF ....^..].UV.0...
006D9840 83 C4 08 85 C0 74 09 83 06 01 8B 47 04 5E 5D C3 .....t.....G.^].
006D9850 A1 BC C4 A6 00 85 C0 75 19 68 9C 29 8B 00 E8 5D .......u.h.)...]
006D9860 32 01 00 83 C4 04 85 C0 A3 BC C4 A6 00 75 03 5E 2............u.^
006D9870 5D C3 53 50 57 E8 B6 4A 00 00 8B F0 83 C4 08 85 ].SPW..J........
006D9880 F6 74 36 8B 5E 04 81 FB 80 53 A1 00 74 12 68 80 .t6.^....S..t.h.
006D9890 53 A1 00 53 E8 D7 BD FF FF 83 C4 08 85 C0 74 20 S..S..........t 
006D98A0 3B 77 04 74 1B 55 56 E8 C4 BD FF FF 83 C4 08 85 ;w.t.UV.........
006D98B0 C0 74 0D 5B 8B C6 5E 5D C3 E8 A2 78 00 00 EB 0E .t.[..^]...x....
006D98C0 83 06 FF 75 09 8B 43 18 56 FF D0 83 C4 04 8B 0D ...u..C.V.......
006D98D0 7C 6B A1 00 68 74 13 8D 00 51 E8 A1 76 00 00 83 |k..ht...Q..v...
006D98E0 C4 08 5B 5E 33 C0 5D C3 CC CC CC CC CC CC CC CC ..[^3.].........
006D98F0 56 8B 74 24 08 57 8B 7C 24 10 85 FF 74 73 81 FF V.t$.W.|$...ts..
006D9900 B8 63 A1 00 74 6B 83 7E 0C 00 75 65 8B 46 04 3D .c..tk.~..ue.F.=
006D9910 08 62 A1 00 74 13 8B 4E 08 6A 00 57 51 50 E8 CD .b..t..N.j.WQP..
006D9920 A1 02 00 83 C4 10 5F 5E C3 8B 56 08 53 52 E8 CD ......_^..V.SR..
006D9930 FE FF FF 8B D8 83 C4 04 85 DB 74 16 6A 00 6A 00 ..........t.j.j.
006D9940 68 08 62 A1 00 FF 15 A4 62 A1 00 83 C4 0C 85 C0 h.b.....b.......
006D9950 75 06 5B 5F 33 C0 5E C3 8B 4E 08 83 01 01 83 07 u.[_3.^..N......
006D9960 01 8B 4E 08 89 58 10 5B 89 78 0C 5F 89 48 08 5E ..N..X.[.x._.H.^
006D9970 C3 83 06 01 5F 8B C6 5E C3 CC CC CC CC CC CC CC ...._..^........
006D9980 83 EC 08 8B 44 24 14 56 50 68 24 FD 8C 00 C7 44 ....D$.VPh$....D
006D9990 24 0C 00 00 00 00 33 F6 E8 63 C2 00 00 83 C4 08 $.....3..c......
006D99A0 85 C0 75 08 83 C8 FF 5E 83 C4 08 C3 8B 44 24 14 ..u....^.....D$.
006D99B0 8D 4C 24 04 51 8D 54 24 0C 52 68 80 53 A1 00 68 .L$.Q.T$.Rh.S..h
006D99C0 B4 13 8D 00 50 E8 B6 E2 00 00 83 C4 14 85 C0 74 ....P..........t
006D99D0 D3 57 8B 7C 24 08 81 FF B8 63 A1 00 75 06 89 74 .W.|$....c..u..t
006D99E0 24 08 EB 27 85 FF 74 23 8B 4C 24 0C 51 E8 0E FE $..'..t#.L$.Q...
006D99F0 FF FF 8B F0 83 C4 04 85 F6 75 09 5F 83 C8 FF 5E .........u._...^
006D9A00 83 C4 08 C3 8B 44 24 08 83 00 01 8B 44 24 0C 83 .....D$.....D$..
006D9A10 00 01 8B 44 24 14 8B 54 24 0C 8B 4C 24 08 89 70 ...D$..T$..L$..p
006D9A20 10 5F 89 50 08 89 48 0C 33 C0 5E 83 C4 08 C3 CC ._.P..H.3.^.....
006D9A30 57 8B 7C 24 08 F7 47 54 00 02 00 00 74 11 8B 87 W.|$..GT....t...
006D9A40 A0 01 00 00 83 00 01 8B 87 A0 01 00 00 5F C3 8B ............._..
006D9A50 87 84 00 00 00 85 C0 56 74 38 68 18 A8 8C 00 50 .......Vt8h....P
006D9A60 E8 4B 3E 02 00 8B F0 83 C4 08 85 F6 74 24 8B 46 .K>.........t$.F
006D9A70 04 3D 50 B4 A1 00 74 12 68 50 B4 A1 00 50 E8 ED .=P...t.hP...P..
006D9A80 BB FF FF 83 C4 08 85 C0 74 08 83 06 01 8B C6 5E ........t......^
006D9A90 5F C3 E8 C9 76 00 00 8B 47 0C 6A 2E 50 FF 15 08 _...v...G.j.P...
006D9AA0 46 8A 00 83 C4 08 85 C0 75 0F 8B 47 0C 50 E8 0D F.......u..G.P..
006D9AB0 30 01 00 83 C4 04 5E 5F C3 83 C0 01 50 E8 FE 2F 0.....^_....P../
006D9AC0 01 00 83 C4 04 5E 5F C3 CC CC CC CC CC CC CC CC .....^_.........
006D9AD0 53 8B 5C 24 08 F7 43 54 00 02 00 00 75 1D 8B 43 S.\$..CT....u..C
006D9AE0 0C 8B 0D 7C 6B A1 00 50 68 34 14 8D 00 51 E8 DD ...|k..Ph4...Q..
006D9AF0 7A 00 00 83 C4 0C 83 C8 FF 5B C3 56 8B 74 24 10 z........[.V.t$.
006D9B00 85 F6 75 1D 8B 53 0C A1 7C 6B A1 00 52 68 18 14 ..u..S..|k..Rh..
006D9B10 8D 00 50 E8 B8 7A 00 00 83 C4 0C 5E 83 C8 FF 5B ..P..z.....^...[
006D9B20 C3 57 8B 7E 04 81 FF 50 B4 A1 00 74 34 68 50 B4 .W.~...P...t4hP.
006D9B30 A1 00 57 E8 38 BB FF FF 83 C4 08 85 C0 75 22 8B ..W.8........u".
006D9B40 4F 0C 8B 53 0C A1 7C 6B A1 00 51 52 68 E8 13 8D O..S..|k..QRh...
006D9B50 00 50 E8 79 7A 00 00 83 C4 10 5F 5E 83 C8 FF 5B .P.yz....._^...[
006D9B60 C3 8D 7E 14 8B C7 8D 50 01 8D A4 24 00 00 00 00 ..~....P...$....
006D9B70 8A 08 83 C0 01 84 C9 75 F7 2B C2 3B 46 08 74 1B .......u.+.;F.t.
006D9B80 8B 0D 2C 7E A1 00 68 C0 13 8D 00 51 E8 3F 7A 00 ..,~..h....Q.?z.
006D9B90 00 83 C4 08 5F 5E 83 C8 FF 5B C3 83 06 01 8B 83 ...._^...[......
006D9BA0 A0 01 00 00 83 00 FF 8B 83 A0 01 00 00 83 38 00 ..............8.
006D9BB0 75 0C 8B 50 04 50 8B 42 18 FF D0 83 C4 04 89 7B u..P.P.B.......{
006D9BC0 0C 5F 89 B3 A0 01 00 00 5E 33 C0 5B C3 CC CC CC ._......^3.[....
006D9BD0 57 8B 7C 24 08 F7 47 54 00 02 00 00 8B 87 84 00 W.|$..GT........
006D9BE0 00 00 74 2F 68 98 85 8C 00 50 E8 C1 3C 02 00 83 ..t/h....P..<...
006D9BF0 C4 08 85 C0 75 18 8B 0D F0 78 A1 00 68 98 85 8C ....u....x..h...
006D9C00 00 51 E8 C9 79 00 00 83 C4 08 33 C0 5F C3 83 00 .Q..y.....3._...
006D9C10 01 5F C3 85 C0 56 74 38 68 98 85 8C 00 50 E8 8D ._...Vt8h....P..
006D9C20 3C 02 00 8B F0 83 C4 08 85 F6 74 24 8B 46 04 3D <.........t$.F.=
006D9C30 50 B4 A1 00 74 12 68 50 B4 A1 00 50 E8 2F BA FF P...t.hP...P./..
006D9C40 FF 83 C4 08 85 C0 74 08 83 06 01 8B C6 5E 5F C3 ......t......^_.
006D9C50 E8 0B 75 00 00 8B 57 0C 6A 2E 52 FF 15 08 46 8A ..u...W.j.R...F.
006D9C60 00 83 C4 08 85 C0 74 14 8B 4F 0C 5E 2B C1 5F 89 ......t..O.^+._.
006D9C70 44 24 08 89 4C 24 04 E9 34 2D 01 00 68 4C 14 8D D$..L$..4-..hL..
006D9C80 00 E8 3A 2E 01 00 83 C4 04 5E 5F C3 CC CC CC CC ..:......^_.....
006D9C90 51 53 55 56 57 8B 7C 24 18 6A 00 57 E8 2F FF FF QSUVW.|$.j.W./..
006D9CA0 FF 8B D8 83 C4 08 85 DB 75 07 E8 B1 74 00 00 EB ........u...t...
006D9CB0 2D 8B 73 04 81 FE 50 B4 A1 00 74 22 68 50 B4 A1 -.s...P...t"hP..
006D9CC0 00 56 E8 A9 B9 FF FF 83 C4 08 85 C0 75 10 83 03 .V..........u...
006D9CD0 FF 75 09 8B 46 18 53 FF D0 83 C4 04 33 DB 6A 00 .u..F.S.....3.j.
006D9CE0 57 E8 4A FD FF FF 8B E8 83 C4 08 85 ED 75 06 5F W.J..........u._
006D9CF0 5E 5D 5B 59 C3 F7 47 54 00 02 00 00 C7 44 24 10 ^][Y..GT.....D$.
006D9D00 74 14 8D 00 75 08 C7 44 24 10 D8 10 8B 00 85 DB t...u..D$.......
006D9D10 74 32 8D 43 14 BF 4C 14 8D 00 8B F0 B9 0C 00 00 t2.C..L.........
006D9D20 00 33 D2 F3 A6 74 19 8B 54 24 10 8D 4D 14 51 50 .3...t..T$..M.QP
006D9D30 52 68 64 14 8D 00 E8 35 83 01 00 83 C4 10 EB 1A Rhd....5........
006D9D40 8B 7C 24 18 8B 47 0C 8B 4C 24 10 50 51 68 58 14 .|$..G..L$.PQhX.
006D9D50 8D 00 E8 19 83 01 00 83 C4 0C 85 DB 8B F0 74 11 ..............t.
006D9D60 83 03 FF 75 0C 8B 53 04 8B 42 18 53 FF D0 83 C4 ...u..S..B.S....
006D9D70 04 83 45 00 FF 75 0C 8B 4D 04 8B 51 18 55 FF D2 ..E..u..M..Q.U..
006D9D80 83 C4 04 5F 8B C6 5E 5D 5B 59 C3 CC CC CC CC CC ..._..^][Y......
006D9D90 55 8B 6C 24 08 8B 85 9C 00 00 00 85 C0 75 1C 8B U.l$.........u..
006D9DA0 45 0C 8B 0D 7C 6B A1 00 50 68 7C 14 8D 00 51 E8 E...|k..Ph|...Q.
006D9DB0 1C 78 00 00 83 C4 0C 33 C0 5D C3 53 8B 5C 24 14 .x.....3.].S.\$.
006D9DC0 56 57 8B 7C 24 18 53 57 55 FF D0 8B F0 83 C4 0C VW.|$.SWU.......
006D9DD0 85 F6 0F 84 9E 00 00 00 81 FD 80 53 A1 00 75 4F ...........S..uO
006D9DE0 8B 47 04 3D 88 65 A1 00 74 12 68 88 65 A1 00 50 .G.=.e..t.h.e..P
006D9DF0 E8 7B B8 FF FF 83 C4 08 85 C0 74 33 83 7F 08 01 .{........t3....
006D9E00 75 2D 85 DB 74 70 8B 43 04 3D B8 D1 A1 00 74 12 u-..tp.C.=....t.
006D9E10 68 B8 D1 A1 00 50 E8 55 B8 FF FF 83 C4 08 85 C0 h....P.U........
006D9E20 74 0D 53 E8 F8 30 02 00 83 C4 04 85 C0 74 47 8B t.S..0.......tG.
006D9E30 7E 04 55 57 E8 37 B8 FF FF 83 C4 08 85 C0 74 36 ~.UW.7........t6
006D9E40 F7 47 54 00 01 00 00 74 2D 8B 87 94 00 00 00 85 .GT....t-.......
006D9E50 C0 74 23 8B 54 24 18 53 52 56 FF D0 83 C4 0C 85 .t#.T$.SRV......
006D9E60 C0 7D 13 83 06 FF 75 0C 8B 46 04 8B 48 18 56 FF .}....u..F..H.V.
006D9E70 D1 83 C4 04 33 F6 5F 8B C6 5E 5B 5D C3 CC CC CC ....3._..^[]....
006D9E80 83 3E 00 75 10 50 E8 E5 7B 01 00 83 C4 04 85 C0 .>.u.P..{.......
006D9E90 89 06 75 01 C3 8B 0E 8B 57 04 51 52 E8 BF C1 FF ..u.....W.QR....
006D9EA0 FF 83 C4 08 85 C0 74 1C 8B 48 04 8B 89 88 00 00 ......t..H......
006D9EB0 00 85 C9 75 04 83 00 01 C3 8B 57 04 52 57 50 FF ...u......W.RWP.
006D9EC0 D1 83 C4 0C C3 CC CC CC CC CC CC CC CC CC CC CC ................

;; fn006D9ED0: 006D9ED0
;;   Called from:
;;     006DC1BD (in fn006DC1B0)
fn006D9ED0 proc
	cmp	dword ptr [edi],0h
	push	esi
	mov	esi,ecx
	jnz	6D9EEBh

l006D9ED8:
	push	eax
	call	6F1A70h
	add	esp,4h
	test	eax,eax
	mov	[edi],eax
	jnz	6D9EEBh

l006D9EE7:
	xor	esi,esi
	jmp	6D9F21h

l006D9EEB:
	mov	ecx,[edi]
	mov	edx,[esi+4h]
	push	ecx
	push	edx
	call	6D6060h
	add	esp,8h
	test	eax,eax
	jz	6D9F1Bh

l006D9EFE:
	mov	ecx,[eax+4h]
	mov	ecx,[ecx+88h]
	test	ecx,ecx
	jnz	6D9F10h

l006D9F0B:
	add	dword ptr [eax],1h
	jmp	6D9F1Bh

l006D9F10:
	mov	edx,[esi+4h]
	push	edx
	push	esi
	push	eax
	call	ecx
	add	esp,0Ch

l006D9F1B:
	test	eax,eax
	mov	esi,eax
	jnz	6D9F3Ch

l006D9F21:
	call	6E0FC0h
	test	eax,eax
	jnz	6D9F3Ch

l006D9F2A:
	mov	eax,[edi]
	mov	ecx,[0A178F0h]
	push	eax
	push	ecx
	call	6E0E90h
	add	esp,8h

l006D9F3C:
	mov	eax,esi
	pop	esi
	ret
006D9F40 53 56 57 8B F9 83 3F 00 8B DA 75 0F 50 E8 1E 7B SVW...?...u.P..{
006D9F50 01 00 83 C4 04 85 C0 89 07 74 38 8B 0F 8B 53 04 .........t8...S.
006D9F60 51 52 E8 F9 C0 FF FF 8B F0 83 C4 08 85 F6 74 23 QR............t#
006D9F70 8B 46 04 8B 80 88 00 00 00 85 C0 75 05 83 06 01 .F.........u....
006D9F80 EB 0D 8B 4B 04 51 53 56 FF D0 83 C4 0C 8B F0 85 ...K.QSV........
006D9F90 F6 75 20 E8 28 70 00 00 85 C0 75 11 8B 17 A1 F0 .u .(p....u.....
006D9FA0 78 A1 00 52 50 E8 E6 6E 00 00 83 C4 08 5F 5E 33 x..RP..n....._^3
006D9FB0 C0 5B C3 8B 44 24 10 85 C0 74 15 80 38 00 74 10 .[..D$...t..8.t.
006D9FC0 8D 4C 24 14 51 50 E8 75 02 01 00 83 C4 08 EB 0A .L$.QP.u........
006D9FD0 6A 00 E8 49 5D 00 00 83 C4 04 8B F8 85 FF 74 CD j..I].........t.
006D9FE0 6A 00 57 56 E8 27 97 02 00 83 C4 0C 83 07 FF 8B j.WV.'..........
006D9FF0 D8 75 0C 8B 57 04 8B 42 18 57 FF D0 83 C4 04 83 .u..W..B.W......
006DA000 06 FF 75 0C 8B 4E 04 8B 51 18 56 FF D2 83 C4 04 ..u..N..Q.V.....
006DA010 5F 5E 8B C3 5B C3 CC CC CC CC CC CC CC CC CC CC _^..[...........
006DA020 56 8B F1 83 3E 00 57 8B FA 75 0F 50 E8 3F 7A 01 V...>.W..u.P.?z.
006DA030 00 83 C4 04 85 C0 89 06 74 38 8B 0E 8B 57 04 51 ........t8...W.Q
006DA040 52 E8 1A C0 FF FF 8B F0 83 C4 08 85 F6 74 23 8B R............t#.
006DA050 46 04 8B 80 88 00 00 00 85 C0 75 05 83 06 01 EB F.........u.....
006DA060 0D 8B 4F 04 51 57 56 FF D0 83 C4 0C 8B F0 85 F6 ..O.QWV.........
006DA070 75 1D E8 49 6F 00 00 85 C0 75 0F 83 05 80 64 A1 u..Io....u....d.
006DA080 00 01 5F B8 80 64 A1 00 5E C3 5F 33 C0 5E C3 8B .._..d..^._3.^..
006DA090 44 24 0C 85 C0 74 15 80 38 00 74 10 8D 54 24 10 D$...t..8.t..T$.
006DA0A0 52 50 E8 99 01 01 00 83 C4 08 EB 0A 6A 00 E8 6D RP..........j..m
006DA0B0 5C 00 00 83 C4 04 8B F8 85 FF 74 CE 53 6A 00 57 \.........t.Sj.W
006DA0C0 56 E8 4A 96 02 00 83 C4 0C 83 07 FF 8B D8 75 0C V.J...........u.
006DA0D0 8B 47 04 8B 48 18 57 FF D1 83 C4 04 83 06 FF 75 .G..H.W........u
006DA0E0 0C 8B 56 04 8B 42 18 56 FF D0 83 C4 04 8B C3 5B ..V..B.V.......[
006DA0F0 5F 5E C3 CC CC CC CC CC CC CC CC CC CC CC CC CC _^..............
006DA100 51 55 8B 6C 24 0C 81 7D 04 80 53 A1 00 56 57 C7 QU.l$..}..S..VW.
006DA110 44 24 0C 00 00 00 00 75 0A 55 E8 91 BA FF FF 8B D$.....u.U......
006DA120 F8 EB 42 BF 9C C3 A6 00 B8 D4 0C 8D 00 8B CD C7 ..B.............
006DA130 44 24 0C 01 00 00 00 E8 94 FD FF FF 8B F0 85 F6 D$..............
006DA140 75 08 5F 5E 83 C8 FF 5D 59 C3 6A 00 56 E8 9E 95 u._^...]Y.j.V...
006DA150 02 00 83 C4 08 83 06 FF 8B F8 75 0C 8B 46 04 8B ..........u..F..
006DA160 48 18 56 FF D1 83 C4 04 85 FF 74 D6 53 57 E8 2D H.V.......t.SW.-
006DA170 AA 02 00 83 C4 04 83 07 FF 8B D8 75 0C 8B 57 04 ...........u..W.
006DA180 8B 42 18 57 FF D0 83 C4 04 85 DB 0F 84 D9 00 00 .B.W............
006DA190 00 83 7C 24 10 00 74 66 55 E8 92 BC FF FF 89 44 ..|$..tfU......D
006DA1A0 24 14 8B 43 08 83 C4 04 33 FF 85 C0 7E 50 8D 6B $..C....3...~P.k
006DA1B0 0C 8B 75 00 8B 46 04 3D 68 E9 A1 00 74 31 3D 80 ..u..F.=h...t1=.
006DA1C0 53 A1 00 74 12 68 80 53 A1 00 50 E8 A0 B4 FF FF S..t.h.S..P.....
006DA1D0 83 C4 08 85 C0 74 35 56 E8 53 BC FF FF 8B 4C 24 .....t5V.S....L$
006DA1E0 14 50 51 E8 88 B4 FF FF 83 C4 0C 85 C0 74 52 83 .PQ..........tR.
006DA1F0 C7 01 83 C5 04 3B 7B 08 7C B7 8B 6C 24 18 89 9D .....;{.|..l$...
006DA200 AC 00 00 00 5B 5F 5E 33 C0 5D 59 C3 8B 56 04 8B ....[_^3.]Y..V..
006DA210 42 0C 8B 0D 7C 6B A1 00 50 68 D8 14 8D 00 51 E8 B...|k..Ph....Q.
006DA220 AC 73 00 00 83 C4 0C 83 03 FF 75 3E 8B 53 04 8B .s........u>.S..
006DA230 42 18 53 FF D0 83 C4 04 5B 5F 5E 83 C8 FF 5D 59 B.S.....[_^...]Y
006DA240 C3 8B 4E 0C 8B 15 7C 6B A1 00 51 68 A0 14 8D 00 ..N...|k..Qh....
006DA250 52 E8 7A 73 00 00 83 C4 0C 83 03 FF 75 0C 8B 43 R.zs........u..C
006DA260 04 8B 48 18 53 FF D1 83 C4 04 5B 5F 5E 83 C8 FF ..H.S.....[_^...
006DA270 5D 59 C3 CC CC CC CC CC CC CC CC CC CC CC CC CC ]Y..............
006DA280 56 57 8B 7C 24 0C 8B 77 04 8B 86 80 00 00 00 85 VW.|$..w........
006DA290 C0 74 27 B9 00 02 00 00 EB 06 8D 9B 00 00 00 00 .t'.............
006DA2A0 83 BE 90 00 00 00 00 74 05 85 4E 54 74 37 8B F0 .......t..NTt7..
006DA2B0 8B 86 80 00 00 00 85 C0 75 E6 57 E8 F0 42 00 00 ........u.W..B..
006DA2C0 8B F0 83 C4 04 85 F6 0F 85 89 00 00 00 A1 F0 78 ...............x
006DA2D0 A1 00 68 00 15 8D 00 50 E8 A3 6C 00 00 83 C4 08 ..h....P..l.....
006DA2E0 5F 33 C0 5E C3 A1 44 C3 A6 00 85 C0 75 16 68 7C _3.^..D.....u.h|
006DA2F0 C1 8A 00 E8 78 77 01 00 83 C4 04 85 C0 A3 44 C3 ....xw........D.
006DA300 A6 00 74 1A 50 56 E8 55 BD FF FF 83 C4 08 85 C0 ..t.PV.U........
006DA310 74 0C 8B 48 04 83 B9 8C 00 00 00 00 75 20 8B 47 t..H........u .G
006DA320 04 8B 48 0C 8B 15 7C 6B A1 00 51 68 88 0E 8D 00 ..H...|k..Qh....
006DA330 52 E8 9A 72 00 00 83 C4 0C 5F 33 C0 5E C3 8B 89 R..r....._3.^...
006DA340 88 00 00 00 85 C9 74 D6 8B 57 04 52 57 50 FF D1 ......t..W.RWP..
006DA350 83 C4 0C 5F 5E C3 8B 06 85 C0 75 0B E8 5F 39 02 ..._^.....u.._9.
006DA360 00 85 C0 89 06 74 03 83 00 01 5F 5E C3 CC CC CC .....t...._^....
006DA370 56 57 8B 7C 24 0C 8B 77 04 8B 86 80 00 00 00 85 VW.|$..w........
006DA380 C0 74 27 B9 00 02 00 00 EB 06 8D 9B 00 00 00 00 .t'.............
006DA390 83 BE 90 00 00 00 00 74 05 85 4E 54 74 38 8B F0 .......t..NTt8..
006DA3A0 8B 86 80 00 00 00 85 C0 75 E6 57 E8 00 42 00 00 ........u.W..B..
006DA3B0 8B F8 83 C4 04 85 FF 0F 85 83 00 00 00 A1 F0 78 ...............x
006DA3C0 A1 00 68 00 15 8D 00 50 E8 B3 6B 00 00 83 C4 08 ..h....P..k.....
006DA3D0 5F 83 C8 FF 5E C3 A1 44 C3 A6 00 85 C0 75 16 68 _...^..D.....u.h
006DA3E0 7C C1 8A 00 E8 87 76 01 00 83 C4 04 85 C0 A3 44 |.....v........D
006DA3F0 C3 A6 00 74 1B 50 56 E8 64 BC FF FF 83 C4 08 85 ...t.PV.d.......
006DA400 C0 74 0D 8B 48 04 8B 89 8C 00 00 00 85 C9 75 21 .t..H.........u!
006DA410 8B 57 04 8B 42 0C 8B 0D 7C 6B A1 00 50 68 88 0E .W..B...|k..Ph..
006DA420 8D 00 51 E8 A8 71 00 00 83 C4 0C 5F 83 C8 FF 5E ..Q..q....._...^
006DA430 C3 8B 54 24 10 52 57 50 FF D1 83 C4 0C 5F 5E C3 ..T$.RWP....._^.
006DA440 8B 74 24 10 85 F6 53 74 3C 8B 5E 04 81 FB B8 D1 .t$...St<.^.....
006DA450 A1 00 74 31 68 B8 D1 A1 00 53 E8 11 B2 FF FF 83 ..t1h....S......
006DA460 C4 08 85 C0 75 1F 8B 4B 0C 8B 15 7C 6B A1 00 51 ....u..K...|k..Q
006DA470 68 1C 15 8D 00 52 E8 55 71 00 00 83 C4 0C 5B 5F h....R.Uq.....[_
006DA480 83 C8 FF 5E C3 85 F6 8B 07 74 03 83 06 01 85 C0 ...^.....t......
006DA490 89 37 74 11 83 00 FF 75 0C 8B 48 04 8B 51 18 50 .7t....u..H..Q.P
006DA4A0 FF D2 83 C4 04 5B 5F 33 C0 5E C3 CC CC CC CC CC .....[_3.^......
006DA4B0 51 8B 44 24 08 53 55 56 57 8B 78 04 6A 00 57 89 Q.D$.SUVW.x.j.W.
006DA4C0 7C 24 18 E8 08 F7 FF FF 8B D8 83 C4 08 85 DB 75 |$.............u
006DA4D0 07 E8 8A 6C 00 00 EB 2D 8B 73 04 81 FE 50 B4 A1 ...l...-.s...P..
006DA4E0 00 74 22 68 50 B4 A1 00 56 E8 82 B1 FF FF 83 C4 .t"hP...V.......
006DA4F0 08 85 C0 75 10 83 03 FF 75 09 8B 4E 18 53 FF D1 ...u....u..N.S..
006DA500 83 C4 04 33 DB 6A 00 57 E8 23 F5 FF FF 8B E8 83 ...3.j.W.#......
006DA510 C4 08 85 ED 75 06 5F 5E 5D 5B 59 C3 85 DB 74 32 ....u._^][Y...t2
006DA520 8D 43 14 BF 4C 14 8D 00 8B F0 B9 0C 00 00 00 33 .C..L..........3
006DA530 D2 F3 A6 74 19 8B 4C 24 18 51 8D 55 14 52 50 68 ...t..L$.Q.U.RPh
006DA540 68 15 8D 00 E8 27 7B 01 00 83 C4 10 EB 1A 8B 7C h....'{........|
006DA550 24 10 8B 44 24 18 8B 4F 0C 50 51 68 54 15 8D 00 $..D$..O.PQhT...
006DA560 E8 0B 7B 01 00 83 C4 0C 85 DB 8B F0 74 11 83 03 ..{.........t...
006DA570 FF 75 0C 8B 53 04 8B 42 18 53 FF D0 83 C4 04 83 .u..S..B.S......
006DA580 45 00 FF 75 0C 8B 4D 04 8B 51 18 55 FF D2 83 C4 E..u..M..Q.U....
006DA590 04 5F 8B C6 5E 5D 5B 59 C3 CC CC CC CC CC CC CC ._..^][Y........
006DA5A0 8B 4C 24 04 8B 41 04 8B 40 2C 85 C0 75 05 B8 B0 .L$..A..@,..u...
006DA5B0 A4 6D 00 89 4C 24 04 FF E0 CC CC CC CC CC CC CC .m..L$..........
006DA5C0 57 8B 7C 24 08 8B 47 54 A9 00 10 00 00 74 04 33 W.|$..GT.....t.3
006DA5D0 C0 5F C3 53 55 56 8B B7 80 00 00 00 0D 00 20 00 ._.SUV........ .
006DA5E0 00 85 F6 89 47 54 75 1E 81 FF 98 54 A1 00 74 30 ....GTu....T..t0
006DA5F0 C7 87 80 00 00 00 98 54 A1 00 83 05 98 54 A1 00 .......T.....T..
006DA600 01 BE 98 54 A1 00 83 BE 84 00 00 00 00 75 11 56 ...T.........u.V
006DA610 E8 AB FF FF FF 83 C4 04 85 C0 0F 8C 59 01 00 00 ............Y...
006DA620 83 7F 04 00 75 0A 85 F6 74 06 8B 46 04 89 47 04 ....u...t..F..G.
006DA630 83 BF A8 00 00 00 00 75 28 85 F6 75 0B 56 E8 DD .......u(..u.V..
006DA640 56 00 00 83 C4 04 EB 0B 56 6A 01 E8 30 59 00 00 V.......Vj..0Y..
006DA650 83 C4 08 85 C0 0F 84 1E 01 00 00 89 87 A8 00 00 ................
006DA660 00 83 BF 84 00 00 00 00 75 13 E8 51 36 02 00 85 ........u..Q6...
006DA670 C0 0F 84 02 01 00 00 89 87 84 00 00 00 8B C7 E8 ................
006DA680 2C EE FF FF 85 C0 0F 8C ED 00 00 00 8B 47 74 85 ,............Gt.
006DA690 C0 74 0F 8B DF E8 06 C8 FF FF 85 C0 0F 8C D7 00 .t..............
006DA6A0 00 00 8B 47 78 85 C0 74 11 57 E8 F1 C8 FF FF 83 ...Gx..t.W......
006DA6B0 C4 04 85 C0 0F 8C BF 00 00 00 8B 47 7C 85 C0 74 ...........G|..t
006DA6C0 11 57 E8 49 C9 FF FF 83 C4 04 85 C0 0F 8C A7 00 .W.I............
006DA6D0 00 00 57 E8 28 FA FF FF 83 C4 04 85 C0 0F 8C 96 ..W.(...........
006DA6E0 00 00 00 8B 8F 80 00 00 00 85 C9 74 07 8B C7 E8 ...........t....
006DA6F0 8C C9 FF FF 8B 87 AC 00 00 00 8B 48 08 83 F9 01 ...........H....
006DA700 7E 3D 8D 58 10 8D 69 FF EB 06 8D 9B 00 00 00 00 ~=.X..i.........
006DA710 8B 33 8B 46 04 3D 80 53 A1 00 74 12 68 80 53 A1 .3.F.=.S..t.h.S.
006DA720 00 50 E8 49 AF FF FF 83 C4 08 85 C0 74 09 56 E8 .P.I........t.V.
006DA730 AC CA FF FF 83 C4 04 83 C3 04 83 ED 01 75 D1 8B .............u..
006DA740 47 54 A9 00 40 00 00 74 3F A9 00 04 00 00 74 38 GT..@..t?.....t8
006DA750 8B 87 A0 00 00 00 85 C0 74 07 3D C0 39 72 00 75 ........t.=.9r.u
006DA760 27 8B 4F 0C 8B 15 7C 6B A1 00 51 68 80 15 8D 00 '.O...|k..Qh....
006DA770 52 E8 5A 6E 00 00 83 C4 0C 81 67 54 FF DF FF FF R.Zn......gT....
006DA780 5E 5D 5B 83 C8 FF 5F C3 8B 87 84 00 00 00 68 58 ^][..._.......hX
006DA790 0D 8D 00 50 E8 17 31 02 00 83 C4 08 85 C0 75 57 ...P..1.......uW
006DA7A0 8B 47 58 85 C0 74 37 50 E8 13 23 01 00 8B F0 83 .GX..t7P..#.....
006DA7B0 C4 04 85 F6 74 C3 8B 8F 84 00 00 00 56 68 58 0D ....t.......VhX.
006DA7C0 8D 00 51 E8 28 31 02 00 83 C4 0C 83 06 FF 75 27 ..Q.(1........u'
006DA7D0 8B 56 04 8B 42 18 56 FF D0 83 C4 04 EB 19 8B 8F .V..B.V.........
006DA7E0 84 00 00 00 68 B8 63 A1 00 68 58 0D 8D 00 51 E8 ....h.c..hX...Q.
006DA7F0 FC 30 02 00 83 C4 0C 8B 87 80 00 00 00 85 C0 74 .0.............t
006DA800 30 83 7F 30 00 75 06 8B 50 30 89 57 30 83 7F 34 0..0.u..P0.W0..4
006DA810 00 75 06 8B 48 34 89 4F 34 83 7F 38 00 75 06 8B .u..H4.O4..8.u..
006DA820 50 38 89 57 38 83 7F 50 00 75 06 8B 40 50 89 47 P8.W8..P.u..@P.G
006DA830 50 8B 87 A8 00 00 00 8B 48 08 33 DB 85 C9 89 4C P.......H.3....L
006DA840 24 14 7E 4A 8D 68 0C EB 07 8D A4 24 00 00 00 00 $.~J.h.....$....
006DA850 8B 75 00 8B 46 04 3D 80 53 A1 00 74 12 68 80 53 .u..F.=.S..t.h.S
006DA860 A1 00 50 E8 08 AE FF FF 83 C4 08 85 C0 74 13 57 ..P..........t.W
006DA870 8B C6 E8 39 D4 FF FF 83 C4 04 85 C0 0F 8C F7 FE ...9............
006DA880 FF FF 83 C3 01 83 C5 04 3B 5C 24 14 7C C2 8B 4F ........;\$.|..O
006DA890 54 5E 81 E1 FF DF FF FF 5D 81 C9 00 10 00 00 5B T^......]......[
006DA8A0 89 4F 54 33 C0 5F C3 CC CC CC CC CC CC CC CC CC .OT3._..........
006DA8B0 8B 54 24 04 56 68 3C E8 8C 00 B9 70 C4 A6 00 B8 .T$.Vh<....p....
006DA8C0 88 0B 8D 00 E8 77 F6 FF FF 8B F0 83 C4 04 85 F6 .....w..........
006DA8D0 75 05 83 C8 FF 5E C3 57 56 E8 E2 A9 02 00 83 C4 u....^.WV.......
006DA8E0 04 83 06 FF 8B F8 75 0C 8B 46 04 8B 48 18 56 FF ......u..F..H.V.
006DA8F0 D1 83 C4 04 85 FF 7D 23 E8 C3 66 00 00 85 C0 75 ......}#..f....u
006DA900 14 8B 15 2C 7E A1 00 68 D8 15 8D 00 52 E8 6E 66 ...,~..h....R.nf
006DA910 00 00 83 C4 08 5F 83 C8 FF 5E C3 8B C7 5F 5E C3 ....._...^..._^.
006DA920 8B 44 24 0C 8B 4C 24 08 8B 54 24 04 50 51 68 F8 .D$..L$..T$.PQh.
006DA930 15 8D 00 B9 50 C3 A6 00 B8 D4 0A 8D 00 E8 FE F5 ....P...........
006DA940 FF FF 83 C4 0C C3 CC CC CC CC CC CC CC CC CC CC ................
006DA950 8B 44 24 0C 85 C0 8B 54 24 04 75 1E 8B 44 24 08 .D$....T$.u..D$.
006DA960 50 68 08 16 8D 00 B9 E8 C3 A6 00 B8 30 0A 8D 00 Ph..........0...
006DA970 E8 CB F5 FF FF 83 C4 08 EB 1D 8B 4C 24 08 50 51 ...........L$.PQ
006DA980 68 00 16 8D 00 B9 DC C3 A6 00 B8 5C 0A 8D 00 E8 h..........\....
006DA990 AC F5 FF FF 83 C4 0C 85 C0 75 04 83 C8 FF C3 83 .........u......
006DA9A0 00 FF 75 0C 8B 50 04 50 8B 42 18 FF D0 83 C4 04 ..u..P.P.B......
006DA9B0 33 C0 C3 CC CC CC CC CC CC CC CC CC CC CC CC CC 3...............
006DA9C0 8B 44 24 10 85 C0 75 27 8B 44 24 0C 8B 4C 24 08 .D$...u'.D$..L$.
006DA9D0 8B 54 24 04 50 51 68 F8 15 8D 00 B9 F8 C3 A6 00 .T$.PQh.........
006DA9E0 B8 80 09 8D 00 E8 56 F5 FF FF 83 C4 0C EB 26 8B ......V.......&.
006DA9F0 54 24 0C 50 8B 44 24 0C 52 8B 54 24 0C 50 68 0C T$.P.D$.R.T$.Ph.
006DAA00 16 8D 00 B9 BC C3 A6 00 B8 00 0A 8D 00 E8 2E F5 ................
006DAA10 FF FF 83 C4 10 85 C0 75 04 83 C8 FF C3 83 00 FF .......u........
006DAA20 75 0C 8B 48 04 8B 51 18 50 FF D2 83 C4 04 33 C0 u..H..Q.P.....3.
006DAA30 C3 CC CC CC CC CC CC CC CC CC CC CC CC CC CC CC ................
006DAA40 A1 10 C4 A6 00 55 56 83 CD FF 85 C0 57 8B 7C 24 .....UV.....W.|$
006DAA50 10 75 1A 68 FC 08 8D 00 E8 13 70 01 00 83 C4 04 .u.h......p.....
006DAA60 85 C0 A3 10 C4 A6 00 0F 84 AB 00 00 00 50 8B 47 .............P.G
006DAA70 04 50 E8 E9 B5 FF FF 8B F0 83 C4 08 85 F6 0F 84 .P..............
006DAA80 94 00 00 00 8B 4E 04 8B 81 88 00 00 00 85 C0 75 .....N.........u
006DAA90 05 83 06 01 EB 0D 8B 57 04 52 57 56 FF D0 83 C4 .......W.RWV....
006DAAA0 0C 8B F0 85 F6 74 71 8B 44 24 14 53 50 6A 01 E8 .....tq.D$.SPj..
006DAAB0 CC 54 00 00 8B F8 83 C4 08 85 FF 75 04 33 DB EB .T.........u.3..
006DAAC0 1F 6A 00 57 56 E8 46 8C 02 00 83 C4 0C 83 07 FF .j.WV.F.........
006DAAD0 8B D8 75 0C 8B 4F 04 8B 51 18 57 FF D2 83 C4 04 ..u..O..Q.W.....
006DAAE0 83 06 FF 75 0C 8B 46 04 8B 48 18 56 FF D1 83 C4 ...u..F..H.V....
006DAAF0 04 85 DB 74 46 53 E8 95 3F 00 00 83 C4 04 83 03 ...tFS..?.......
006DAB00 FF 8B F0 75 0C 8B 53 04 8B 42 18 53 FF D0 83 C4 ...u..S..B.S....
006DAB10 04 5B 5F 8B C6 5E 5D C3 E8 A3 64 00 00 85 C0 75 .[_..^]...d....u
006DAB20 14 8B 4C 24 14 6A 03 51 57 E8 12 A3 02 00 83 C4 ..L$.j.QW.......
006DAB30 0C 5F 5E 5D C3 5F 5E 8B C5 5D C3 5B 5F 5E 8B C5 ._^]._^..].[_^..
006DAB40 5D C3 CC CC CC CC CC CC CC CC CC CC CC CC CC CC ]...............
006DAB50 8B 44 24 08 8B 54 24 04 50 68 4C BE 8A 00 B9 18 .D$..T$.PhL.....
006DAB60 C4 A6 00 B8 00 0B 8D 00 E8 D3 F3 FF FF 83 C4 08 ................
006DAB70 C3 CC CC CC CC CC CC CC CC CC CC CC CC CC CC CC ................
006DAB80 8B 44 24 0C 85 C0 8B 54 24 04 75 1E 8B 44 24 08 .D$....T$.u..D$.
006DAB90 50 68 4C BE 8A 00 B9 2C C3 A6 00 B8 30 0A 8D 00 PhL....,....0...
006DABA0 E8 9B F3 FF FF 83 C4 08 EB 1D 8B 4C 24 08 50 51 ...........L$.PQ
006DABB0 68 14 16 8D 00 B9 B4 C3 A6 00 B8 5C 0A 8D 00 E8 h..........\....
006DABC0 7C F3 FF FF 83 C4 0C 85 C0 75 04 83 C8 FF C3 83 |........u......
006DABD0 00 FF 75 0C 8B 50 04 50 8B 42 18 FF D0 83 C4 04 ..u..P.P.B......
006DABE0 33 C0 C3 CC CC CC CC CC CC CC CC CC CC CC CC CC 3...............
006DABF0 53 56 8B 74 24 0C 8B 4E 04 57 8B 7C 24 14 8B 57 SV.t$..N.W.|$..W
006DAC00 04 3B CA 74 16 8B 42 30 85 C0 74 0F 81 38 F0 AB .;.t..B0..t..8..
006DAC10 6D 00 75 07 BB 01 00 00 00 EB 02 33 DB 8B 41 30 m.u........3..A0
006DAC20 85 C0 0F 84 A0 00 00 00 81 38 F0 AB 6D 00 0F 85 .........8..m...
006DAC30 94 00 00 00 85 DB 74 56 51 52 E8 31 AA FF FF 83 ......tVQR.1....
006DAC40 C4 08 85 C0 74 48 56 B9 88 08 8D 00 8B C7 E8 8D ....tHV.........
006DAC50 E1 FF FF 83 C4 04 85 C0 74 34 56 68 4C BE 8A 00 ........t4VhL...
006DAC60 B9 A8 C3 A6 00 B8 88 08 8D 00 8B D7 E8 AF F3 FF ................
006DAC70 FF 83 C4 08 3D 80 64 A1 00 75 7B 83 00 FF 75 0C ....=.d..u{...u.
006DAC80 8B 48 04 8B 51 18 50 FF D2 83 C4 04 33 DB 57 68 .H..Q.P.....3.Wh
006DAC90 4C BE 8A 00 B9 F4 C3 A6 00 B8 68 0B 8D 00 8B D6 L.........h.....
006DACA0 E8 7B F3 FF FF 83 C4 08 3D 80 64 A1 00 75 47 8B .{......=.d..uG.
006DACB0 4F 04 3B 4E 04 74 3F 83 00 FF 75 0C 8B 50 04 50 O.;N.t?...u..P.P
006DACC0 8B 42 18 FF D0 83 C4 04 85 DB 74 1E 56 68 4C BE .B........t.VhL.
006DACD0 8A 00 B9 A8 C3 A6 00 B8 88 08 8D 00 8B D7 E8 3D ...............=
006DACE0 F3 FF FF 83 C4 08 5F 5E 5B C3 83 05 80 64 A1 00 ......_^[....d..
006DACF0 01 B8 80 64 A1 00 5F 5E 5B C3 CC CC CC CC CC CC ...d.._^[.......
006DAD00 53 56 8B 74 24 0C 8B 4E 04 57 8B 7C 24 14 8B 57 SV.t$..N.W.|$..W
006DAD10 04 3B CA 74 17 8B 42 30 85 C0 74 10 81 78 04 00 .;.t..B0..t..x..
006DAD20 AD 6D 00 75 07 BB 01 00 00 00 EB 02 33 DB 8B 41 .m.u........3..A
006DAD30 30 85 C0 0F 84 A1 00 00 00 81 78 04 00 AD 6D 00 0.........x...m.
006DAD40 0F 85 94 00 00 00 85 DB 74 56 51 52 E8 1F A9 FF ........tVQR....
006DAD50 FF 83 C4 08 85 C0 74 48 56 B9 44 08 8D 00 8B C7 ......tHV.D.....
006DAD60 E8 7B E0 FF FF 83 C4 04 85 C0 74 34 56 68 4C BE .{........t4VhL.
006DAD70 8A 00 B9 C0 C3 A6 00 B8 44 08 8D 00 8B D7 E8 9D ........D.......
006DAD80 F2 FF FF 83 C4 08 3D 80 64 A1 00 75 7B 83 00 FF ......=.d..u{...
006DAD90 75 0C 8B 48 04 8B 51 18 50 FF D2 83 C4 04 33 DB u..H..Q.P.....3.
006DADA0 57 68 4C BE 8A 00 B9 4C C3 A6 00 B8 68 08 8D 00 WhL....L....h...
006DADB0 8B D6 E8 69 F2 FF FF 83 C4 08 3D 80 64 A1 00 75 ...i......=.d..u
006DADC0 47 8B 4F 04 3B 4E 04 74 3F 83 00 FF 75 0C 8B 50 G.O.;N.t?...u..P
006DADD0 04 50 8B 42 18 FF D0 83 C4 04 85 DB 74 1E 56 68 .P.B........t.Vh
006DADE0 4C BE 8A 00 B9 C0 C3 A6 00 B8 44 08 8D 00 8B D7 L.........D.....
006DADF0 E8 2B F2 FF FF 83 C4 08 5F 5E 5B C3 83 05 80 64 .+......_^[....d
006DAE00 A1 00 01 B8 80 64 A1 00 5F 5E 5B C3 CC CC CC CC .....d.._^[.....
006DAE10 53 56 8B 74 24 0C 8B 4E 04 57 8B 7C 24 14 8B 57 SV.t$..N.W.|$..W
006DAE20 04 3B CA 74 17 8B 42 30 85 C0 74 10 81 78 08 10 .;.t..B0..t..x..
006DAE30 AE 6D 00 75 07 BB 01 00 00 00 EB 02 33 DB 8B 41 .m.u........3..A
006DAE40 30 85 C0 0F 84 A1 00 00 00 81 78 08 10 AE 6D 00 0.........x...m.
006DAE50 0F 85 94 00 00 00 85 DB 74 56 51 52 E8 0F A8 FF ........tVQR....
006DAE60 FF 83 C4 08 85 C0 74 48 56 B9 24 0B 8D 00 8B C7 ......tHV.$.....
006DAE70 E8 6B DF FF FF 83 C4 04 85 C0 74 34 56 68 4C BE .k........t4VhL.
006DAE80 8A 00 B9 5C C4 A6 00 B8 24 0B 8D 00 8B D7 E8 8D ...\....$.......
006DAE90 F1 FF FF 83 C4 08 3D 80 64 A1 00 75 7B 83 00 FF ......=.d..u{...
006DAEA0 75 0C 8B 48 04 8B 51 18 50 FF D2 83 C4 04 33 DB u..H..Q.P.....3.
006DAEB0 57 68 4C BE 8A 00 B9 A4 C3 A6 00 B8 48 0B 8D 00 WhL.........H...
006DAEC0 8B D6 E8 59 F1 FF FF 83 C4 08 3D 80 64 A1 00 75 ...Y......=.d..u
006DAED0 47 8B 4F 04 3B 4E 04 74 3F 83 00 FF 75 0C 8B 50 G.O.;N.t?...u..P
006DAEE0 04 50 8B 42 18 FF D0 83 C4 04 85 DB 74 1E 56 68 .P.B........t.Vh
006DAEF0 4C BE 8A 00 B9 5C C4 A6 00 B8 24 0B 8D 00 8B D7 L....\....$.....
006DAF00 E8 1B F1 FF FF 83 C4 08 5F 5E 5B C3 83 05 80 64 ........_^[....d
006DAF10 A1 00 01 B8 80 64 A1 00 5F 5E 5B C3 CC CC CC CC .....d.._^[.....
006DAF20 53 56 8B 74 24 0C 8B 4E 04 57 8B 7C 24 14 8B 57 SV.t$..N.W.|$..W
006DAF30 04 3B CA 74 17 8B 42 30 85 C0 74 10 81 78 0C 20 .;.t..B0..t..x. 
006DAF40 AF 6D 00 75 07 BB 01 00 00 00 EB 02 33 DB 8B 41 .m.u........3..A
006DAF50 30 85 C0 0F 84 A1 00 00 00 81 78 0C 20 AF 6D 00 0.........x. .m.
006DAF60 0F 85 94 00 00 00 85 DB 74 56 51 52 E8 FF A6 FF ........tVQR....
006DAF70 FF 83 C4 08 85 C0 74 48 56 B9 D0 07 8D 00 8B C7 ......tHV.......
006DAF80 E8 5B DE FF FF 83 C4 04 85 C0 74 34 56 68 4C BE .[........t4VhL.
006DAF90 8A 00 B9 D4 C3 A6 00 B8 D0 07 8D 00 8B D7 E8 7D ...............}
006DAFA0 F0 FF FF 83 C4 08 3D 80 64 A1 00 75 7B 83 00 FF ......=.d..u{...
006DAFB0 75 0C 8B 48 04 8B 51 18 50 FF D2 83 C4 04 33 DB u..H..Q.P.....3.
006DAFC0 57 68 4C BE 8A 00 B9 7C C4 A6 00 B8 F4 07 8D 00 WhL....|........
006DAFD0 8B D6 E8 49 F0 FF FF 83 C4 08 3D 80 64 A1 00 75 ...I......=.d..u
006DAFE0 47 8B 4F 04 3B 4E 04 74 3F 83 00 FF 75 0C 8B 50 G.O.;N.t?...u..P
006DAFF0 04 50 8B 42 18 FF D0 83 C4 04 85 DB 74 1E 56 68 .P.B........t.Vh
006DB000 4C BE 8A 00 B9 D4 C3 A6 00 B8 D0 07 8D 00 8B D7 L...............
006DB010 E8 0B F0 FF FF 83 C4 08 5F 5E 5B C3 83 05 80 64 ........_^[....d
006DB020 A1 00 01 B8 80 64 A1 00 5F 5E 5B C3 CC CC CC CC .....d.._^[.....
006DB030 53 56 8B 74 24 0C 8B 4E 04 57 8B 7C 24 14 8B 57 SV.t$..N.W.|$..W
006DB040 04 3B CA 74 17 8B 42 30 85 C0 74 10 81 78 10 30 .;.t..B0..t..x.0
006DB050 B0 6D 00 75 07 BB 01 00 00 00 EB 02 33 DB 8B 41 .m.u........3..A
006DB060 30 85 C0 0F 84 A1 00 00 00 81 78 10 30 B0 6D 00 0.........x.0.m.
006DB070 0F 85 94 00 00 00 85 DB 74 56 51 52 E8 EF A5 FF ........tVQR....
006DB080 FF 83 C4 08 85 C0 74 48 56 B9 8C 07 8D 00 8B C7 ......tHV.......
006DB090 E8 4B DD FF FF 83 C4 04 85 C0 74 34 56 68 4C BE .K........t4VhL.
006DB0A0 8A 00 B9 F0 C3 A6 00 B8 8C 07 8D 00 8B D7 E8 6D ...............m
006DB0B0 EF FF FF 83 C4 08 3D 80 64 A1 00 75 7B 83 00 FF ......=.d..u{...
006DB0C0 75 0C 8B 48 04 8B 51 18 50 FF D2 83 C4 04 33 DB u..H..Q.P.....3.
006DB0D0 57 68 4C BE 8A 00 B9 28 C4 A6 00 B8 B0 07 8D 00 WhL....(........
006DB0E0 8B D6 E8 39 EF FF FF 83 C4 08 3D 80 64 A1 00 75 ...9......=.d..u
006DB0F0 47 8B 4F 04 3B 4E 04 74 3F 83 00 FF 75 0C 8B 50 G.O.;N.t?...u..P
006DB100 04 50 8B 42 18 FF D0 83 C4 04 85 DB 74 1E 56 68 .P.B........t.Vh
006DB110 4C BE 8A 00 B9 F0 C3 A6 00 B8 8C 07 8D 00 8B D7 L...............
006DB120 E8 FB EE FF FF 83 C4 08 5F 5E 5B C3 83 05 80 64 ........_^[....d
006DB130 A1 00 01 B8 80 64 A1 00 5F 5E 5B C3 CC CC CC CC .....d.._^[.....
006DB140 53 56 8B 74 24 0C 8B 4E 04 57 8B 7C 24 14 8B 57 SV.t$..N.W.|$..W
006DB150 04 3B CA 74 17 8B 42 30 85 C0 74 10 81 78 14 40 .;.t..B0..t..x.@
006DB160 B1 6D 00 75 07 BB 01 00 00 00 EB 02 33 DB 8B 41 .m.u........3..A
006DB170 30 85 C0 0F 84 A1 00 00 00 81 78 14 40 B1 6D 00 0.........x.@.m.
006DB180 0F 85 94 00 00 00 85 DB 74 56 51 52 E8 DF A4 FF ........tVQR....
006DB190 FF 83 C4 08 85 C0 74 48 56 B9 38 07 8D 00 8B C7 ......tHV.8.....
006DB1A0 E8 3B DC FF FF 83 C4 04 85 C0 74 34 56 68 4C BE .;........t4VhL.
006DB1B0 8A 00 B9 54 C4 A6 00 B8 38 07 8D 00 8B D7 E8 5D ...T....8......]
006DB1C0 EE FF FF 83 C4 08 3D 80 64 A1 00 75 7B 83 00 FF ......=.d..u{...
006DB1D0 75 0C 8B 48 04 8B 51 18 50 FF D2 83 C4 04 33 DB u..H..Q.P.....3.
006DB1E0 57 68 4C BE 8A 00 B9 D8 C3 A6 00 B8 68 07 8D 00 WhL.........h...
006DB1F0 8B D6 E8 29 EE FF FF 83 C4 08 3D 80 64 A1 00 75 ...)......=.d..u
006DB200 47 8B 4F 04 3B 4E 04 74 3F 83 00 FF 75 0C 8B 50 G.O.;N.t?...u..P
006DB210 04 50 8B 42 18 FF D0 83 C4 04 85 DB 74 1E 56 68 .P.B........t.Vh
006DB220 4C BE 8A 00 B9 54 C4 A6 00 B8 38 07 8D 00 8B D7 L....T....8.....
006DB230 E8 EB ED FF FF 83 C4 08 5F 5E 5B C3 83 05 80 64 ........_^[....d
006DB240 A1 00 01 B8 80 64 A1 00 5F 5E 5B C3 CC CC CC CC .....d.._^[.....
006DB250 8B 4F 04 8B 56 04 3B CA 53 74 17 8B 42 30 85 C0 .O..V.;.St..B0..
006DB260 74 10 81 78 18 50 B3 6D 00 75 07 BB 01 00 00 00 t..x.P.m.u......
006DB270 EB 02 33 DB 8B 41 30 85 C0 0F 84 A1 00 00 00 81 ..3..A0.........
006DB280 78 18 50 B3 6D 00 0F 85 94 00 00 00 85 DB 74 56 x.P.m.........tV
006DB290 51 52 E8 D9 A3 FF FF 83 C4 08 85 C0 74 48 57 B9 QR..........tHW.
006DB2A0 D8 06 8D 00 8B C6 E8 35 DB FF FF 83 C4 04 85 C0 .......5........
006DB2B0 74 34 57 68 4C BE 8A 00 B9 EC C3 A6 00 B8 D8 06 t4WhL...........
006DB2C0 8D 00 8B D6 E8 57 ED FF FF 83 C4 08 3D 80 64 A1 .....W......=.d.
006DB2D0 00 75 79 83 00 FF 75 0C 8B 48 04 8B 51 18 50 FF .uy...u..H..Q.P.
006DB2E0 D2 83 C4 04 33 DB 56 68 4C BE 8A 00 B9 14 C4 A6 ....3.VhL.......
006DB2F0 00 B8 0C 07 8D 00 8B D7 E8 23 ED FF FF 83 C4 08 .........#......
006DB300 3D 80 64 A1 00 75 45 8B 4E 04 3B 4F 04 74 3D 83 =.d..uE.N.;O.t=.
006DB310 00 FF 75 0C 8B 50 04 50 8B 42 18 FF D0 83 C4 04 ..u..P.P.B......
006DB320 85 DB 74 1C 57 68 4C BE 8A 00 B9 EC C3 A6 00 B8 ..t.WhL.........
006DB330 D8 06 8D 00 8B D6 E8 E5 EC FF FF 83 C4 08 5B C3 ..............[.
006DB340 83 05 80 64 A1 00 01 B8 80 64 A1 00 5B C3 CC CC ...d.....d..[...
006DB350 8B 4C 24 0C 81 F9 B8 63 A1 00 75 12 56 8B 74 24 .L$....c..u.V.t$
006DB360 0C 57 8B 7C 24 0C E8 E5 FE FF FF 5F 5E C3 8B 54 .W.|$......_^..T
006DB370 24 04 8B 42 04 8B 40 30 85 C0 74 24 81 78 18 50 $..B..@0..t$.x.P
006DB380 B3 6D 00 75 1B 89 4C 24 0C C7 44 24 04 14 16 8D .m.u..L$..D$....
006DB390 00 B9 CC C3 A6 00 B8 0C 07 8D 00 E9 A0 EB FF FF ................
006DB3A0 83 05 80 64 A1 00 01 B8 80 64 A1 00 C3 CC CC CC ...d.....d......
006DB3B0 8B 54 24 04 68 3C E8 8C 00 B9 98 C3 A6 00 B8 A8 .T$.h<..........
006DB3C0 06 8D 00 E8 78 EB FF FF 83 C4 04 C3 CC CC CC CC ....x...........
006DB3D0 8B 54 24 04 68 3C E8 8C 00 B9 80 C4 A6 00 B8 8C .T$.h<..........
006DB3E0 06 8D 00 E8 58 EB FF FF 83 C4 04 C3 CC CC CC CC ....X...........
006DB3F0 8B 54 24 04 68 3C E8 8C 00 B9 20 C4 A6 00 B8 70 .T$.h<.... ....p
006DB400 06 8D 00 E8 38 EB FF FF 83 C4 04 C3 CC CC CC CC ....8...........
006DB410 A1 60 C4 A6 00 53 55 56 83 CD FF 85 C0 57 8B 7C .`...SUV.....W.|
006DB420 24 14 75 16 68 4C 06 8D 00 E8 42 66 01 00 83 C4 $.u.hL....Bf....
006DB430 04 85 C0 A3 60 C4 A6 00 74 34 50 8B 47 04 50 E8 ....`...t4P.G.P.
006DB440 1C AC FF FF 83 C4 08 85 C0 74 1D 8B 48 04 8B 89 .........t..H...
006DB450 88 00 00 00 85 C9 75 05 83 00 01 EB 0B 8B 57 04 ......u.......W.
006DB460 52 57 50 FF D1 83 C4 0C 85 C0 8B D8 75 3A E8 4D RWP.........u:.M
006DB470 5B 00 00 85 C0 74 08 5F 5E 5D 83 C8 FF 5B C3 BE [....t._^]...[..
006DB480 34 C4 A6 00 B8 88 0B 8D 00 E8 F2 E9 FF FF 8B D8 4...............
006DB490 85 DB 75 14 E8 27 5B 00 00 F7 D8 5F 1B C0 5E 83 ..u..'[...._..^.
006DB4A0 E0 FE 5D 83 C0 01 5B C3 6A 00 E8 71 48 00 00 8B ..]...[.j..qH...
006DB4B0 F0 83 C4 04 85 F6 74 6C 6A 00 56 53 E8 4F 82 02 ......tlj.VS.O..
006DB4C0 00 83 C4 0C 83 06 FF 8B F8 75 0C 8B 46 04 8B 48 .........u..F..H
006DB4D0 18 56 FF D1 83 C4 04 85 FF 74 49 8B 47 04 3D E8 .V.......tI.G.=.
006DB4E0 E7 A1 00 74 23 3D 18 91 A1 00 74 1C 8B 50 0C A1 ...t#=....t..P..
006DB4F0 7C 6B A1 00 52 68 1C 16 8D 00 50 E8 D0 60 00 00 |k..Rh....P..`..
006DB500 83 C4 0C 83 CD FF EB 0B 57 E8 82 35 00 00 83 C4 ........W..5....
006DB510 04 8B E8 83 07 FF 75 0C 8B 4F 04 8B 51 18 57 FF ......u..O..Q.W.
006DB520 D2 83 C4 04 83 03 FF 75 0C 8B 43 04 8B 48 18 53 .......u..C..H.S
006DB530 FF D1 83 C4 04 5F 5E 8B C5 5D 5B C3 CC CC CC CC ....._^..][.....
006DB540 8B 54 24 04 68 3C E8 8C 00 B9 1C C4 A6 00 B8 B8 .T$.h<..........
006DB550 03 8D 00 E8 E8 E9 FF FF 83 C4 04 C3 CC CC CC CC ................
006DB560 8B 54 24 04 68 3C E8 8C 00 B9 E0 C3 A6 00 B8 24 .T$.h<.........$
006DB570 06 8D 00 E8 C8 E9 FF FF 83 C4 04 C3 CC CC CC CC ................
006DB580 53 56 8B 74 24 0C 8B 4E 04 57 8B 7C 24 14 8B 57 SV.t$..N.W.|$..W
006DB590 04 3B CA 74 17 8B 42 30 85 C0 74 10 81 78 30 80 .;.t..B0..t..x0.
006DB5A0 B5 6D 00 75 07 BB 01 00 00 00 EB 02 33 DB 8B 41 .m.u........3..A
006DB5B0 30 85 C0 0F 84 A1 00 00 00 81 78 30 80 B5 6D 00 0.........x0..m.
006DB5C0 0F 85 94 00 00 00 85 DB 74 56 51 52 E8 9F A0 FF ........tVQR....
006DB5D0 FF 83 C4 08 85 C0 74 48 56 B9 D8 05 8D 00 8B C7 ......tHV.......
006DB5E0 E8 FB D7 FF FF 83 C4 04 85 C0 74 34 56 68 4C BE ..........t4VhL.
006DB5F0 8A 00 B9 90 C3 A6 00 B8 D8 05 8D 00 8B D7 E8 1D ................
006DB600 EA FF FF 83 C4 08 3D 80 64 A1 00 75 7B 83 00 FF ......=.d..u{...
006DB610 75 0C 8B 48 04 8B 51 18 50 FF D2 83 C4 04 33 DB u..H..Q.P.....3.
006DB620 57 68 4C BE 8A 00 B9 30 C4 A6 00 B8 00 06 8D 00 WhL....0........
006DB630 8B D6 E8 E9 E9 FF FF 83 C4 08 3D 80 64 A1 00 75 ..........=.d..u
006DB640 47 8B 4F 04 3B 4E 04 74 3F 83 00 FF 75 0C 8B 50 G.O.;N.t?...u..P
006DB650 04 50 8B 42 18 FF D0 83 C4 04 85 DB 74 1E 56 68 .P.B........t.Vh
006DB660 4C BE 8A 00 B9 90 C3 A6 00 B8 D8 05 8D 00 8B D7 L...............
006DB670 E8 AB E9 FF FF 83 C4 08 5F 5E 5B C3 83 05 80 64 ........_^[....d
006DB680 A1 00 01 B8 80 64 A1 00 5F 5E 5B C3 CC CC CC CC .....d.._^[.....
006DB690 53 56 8B 74 24 0C 8B 4E 04 57 8B 7C 24 14 8B 57 SV.t$..N.W.|$..W
006DB6A0 04 3B CA 74 17 8B 42 30 85 C0 74 10 81 78 34 90 .;.t..B0..t..x4.
006DB6B0 B6 6D 00 75 07 BB 01 00 00 00 EB 02 33 DB 8B 41 .m.u........3..A
006DB6C0 30 85 C0 0F 84 A1 00 00 00 81 78 34 90 B6 6D 00 0.........x4..m.
006DB6D0 0F 85 94 00 00 00 85 DB 74 56 51 52 E8 8F 9F FF ........tVQR....
006DB6E0 FF 83 C4 08 85 C0 74 48 56 B9 88 05 8D 00 8B C7 ......tHV.......
006DB6F0 E8 EB D6 FF FF 83 C4 04 85 C0 74 34 56 68 4C BE ..........t4VhL.
006DB700 8A 00 B9 08 C4 A6 00 B8 88 05 8D 00 8B D7 E8 0D ................
006DB710 E9 FF FF 83 C4 08 3D 80 64 A1 00 75 7B 83 00 FF ......=.d..u{...
006DB720 75 0C 8B 48 04 8B 51 18 50 FF D2 83 C4 04 33 DB u..H..Q.P.....3.
006DB730 57 68 4C BE 8A 00 B9 C4 C3 A6 00 B8 B0 05 8D 00 WhL.............
006DB740 8B D6 E8 D9 E8 FF FF 83 C4 08 3D 80 64 A1 00 75 ..........=.d..u
006DB750 47 8B 4F 04 3B 4E 04 74 3F 83 00 FF 75 0C 8B 50 G.O.;N.t?...u..P
006DB760 04 50 8B 42 18 FF D0 83 C4 04 85 DB 74 1E 56 68 .P.B........t.Vh
006DB770 4C BE 8A 00 B9 08 C4 A6 00 B8 88 05 8D 00 8B D7 L...............
006DB780 E8 9B E8 FF FF 83 C4 08 5F 5E 5B C3 83 05 80 64 ........_^[....d
006DB790 A1 00 01 B8 80 64 A1 00 5F 5E 5B C3 CC CC CC CC .....d.._^[.....
006DB7A0 53 56 8B 74 24 0C 8B 4E 04 57 8B 7C 24 14 8B 57 SV.t$..N.W.|$..W
006DB7B0 04 3B CA 74 17 8B 42 30 85 C0 74 10 81 78 38 A0 .;.t..B0..t..x8.
006DB7C0 B7 6D 00 75 07 BB 01 00 00 00 EB 02 33 DB 8B 41 .m.u........3..A
006DB7D0 30 85 C0 0F 84 A1 00 00 00 81 78 38 A0 B7 6D 00 0.........x8..m.
006DB7E0 0F 85 94 00 00 00 85 DB 74 56 51 52 E8 7F 9E FF ........tVQR....
006DB7F0 FF 83 C4 08 85 C0 74 48 56 B9 40 05 8D 00 8B C7 ......tHV.@.....
006DB800 E8 DB D5 FF FF 83 C4 04 85 C0 74 34 56 68 4C BE ..........t4VhL.
006DB810 8A 00 B9 04 C4 A6 00 B8 40 05 8D 00 8B D7 E8 FD ........@.......
006DB820 E7 FF FF 83 C4 08 3D 80 64 A1 00 75 7B 83 00 FF ......=.d..u{...
006DB830 75 0C 8B 48 04 8B 51 18 50 FF D2 83 C4 04 33 DB u..H..Q.P.....3.
006DB840 57 68 4C BE 8A 00 B9 48 C3 A6 00 B8 64 05 8D 00 WhL....H....d...
006DB850 8B D6 E8 C9 E7 FF FF 83 C4 08 3D 80 64 A1 00 75 ..........=.d..u
006DB860 47 8B 4F 04 3B 4E 04 74 3F 83 00 FF 75 0C 8B 50 G.O.;N.t?...u..P
006DB870 04 50 8B 42 18 FF D0 83 C4 04 85 DB 74 1E 56 68 .P.B........t.Vh
006DB880 4C BE 8A 00 B9 04 C4 A6 00 B8 40 05 8D 00 8B D7 L.........@.....
006DB890 E8 8B E7 FF FF 83 C4 08 5F 5E 5B C3 83 05 80 64 ........_^[....d
006DB8A0 A1 00 01 B8 80 64 A1 00 5F 5E 5B C3 CC CC CC CC .....d.._^[.....
006DB8B0 53 56 8B 74 24 0C 8B 4E 04 57 8B 7C 24 14 8B 57 SV.t$..N.W.|$..W
006DB8C0 04 3B CA 74 17 8B 42 30 85 C0 74 10 81 78 3C B0 .;.t..B0..t..x<.
006DB8D0 B8 6D 00 75 07 BB 01 00 00 00 EB 02 33 DB 8B 41 .m.u........3..A
006DB8E0 30 85 C0 0F 84 A1 00 00 00 81 78 3C B0 B8 6D 00 0.........x<..m.
006DB8F0 0F 85 94 00 00 00 85 DB 74 56 51 52 E8 6F 9D FF ........tVQR.o..
006DB900 FF 83 C4 08 85 C0 74 48 56 B9 FC 04 8D 00 8B C7 ......tHV.......
006DB910 E8 CB D4 FF FF 83 C4 04 85 C0 74 34 56 68 4C BE ..........t4VhL.
006DB920 8A 00 B9 74 C4 A6 00 B8 FC 04 8D 00 8B D7 E8 ED ...t............
006DB930 E6 FF FF 83 C4 08 3D 80 64 A1 00 75 7B 83 00 FF ......=.d..u{...
006DB940 75 0C 8B 48 04 8B 51 18 50 FF D2 83 C4 04 33 DB u..H..Q.P.....3.
006DB950 57 68 4C BE 8A 00 B9 1C C3 A6 00 B8 20 05 8D 00 WhL......... ...
006DB960 8B D6 E8 B9 E6 FF FF 83 C4 08 3D 80 64 A1 00 75 ..........=.d..u
006DB970 47 8B 4F 04 3B 4E 04 74 3F 83 00 FF 75 0C 8B 50 G.O.;N.t?...u..P
006DB980 04 50 8B 42 18 FF D0 83 C4 04 85 DB 74 1E 56 68 .P.B........t.Vh
006DB990 4C BE 8A 00 B9 74 C4 A6 00 B8 FC 04 8D 00 8B D7 L....t..........
006DB9A0 E8 7B E6 FF FF 83 C4 08 5F 5E 5B C3 83 05 80 64 .{......_^[....d
006DB9B0 A1 00 01 B8 80 64 A1 00 5F 5E 5B C3 CC CC CC CC .....d.._^[.....
006DB9C0 53 56 8B 74 24 0C 8B 4E 04 57 8B 7C 24 14 8B 57 SV.t$..N.W.|$..W
006DB9D0 04 3B CA 74 17 8B 42 30 85 C0 74 10 81 78 40 C0 .;.t..B0..t..x@.
006DB9E0 B9 6D 00 75 07 BB 01 00 00 00 EB 02 33 DB 8B 41 .m.u........3..A
006DB9F0 30 85 C0 0F 84 A1 00 00 00 81 78 40 C0 B9 6D 00 0.........x@..m.
006DBA00 0F 85 94 00 00 00 85 DB 74 56 51 52 E8 5F 9C FF ........tVQR._..
006DBA10 FF 83 C4 08 85 C0 74 48 56 B9 BC 04 8D 00 8B C7 ......tHV.......
006DBA20 E8 BB D3 FF FF 83 C4 04 85 C0 74 34 56 68 4C BE ..........t4VhL.
006DBA30 8A 00 B9 0C C4 A6 00 B8 BC 04 8D 00 8B D7 E8 DD ................
006DBA40 E5 FF FF 83 C4 08 3D 80 64 A1 00 75 7B 83 00 FF ......=.d..u{...
006DBA50 75 0C 8B 48 04 8B 51 18 50 FF D2 83 C4 04 33 DB u..H..Q.P.....3.
006DBA60 57 68 4C BE 8A 00 B9 50 C4 A6 00 B8 DC 04 8D 00 WhL....P........
006DBA70 8B D6 E8 A9 E5 FF FF 83 C4 08 3D 80 64 A1 00 75 ..........=.d..u
006DBA80 47 8B 4F 04 3B 4E 04 74 3F 83 00 FF 75 0C 8B 50 G.O.;N.t?...u..P
006DBA90 04 50 8B 42 18 FF D0 83 C4 04 85 DB 74 1E 56 68 .P.B........t.Vh
006DBAA0 4C BE 8A 00 B9 0C C4 A6 00 B8 BC 04 8D 00 8B D7 L...............
006DBAB0 E8 6B E5 FF FF 83 C4 08 5F 5E 5B C3 83 05 80 64 .k......_^[....d
006DBAC0 A1 00 01 B8 80 64 A1 00 5F 5E 5B C3 CC CC CC CC .....d.._^[.....
006DBAD0 8B 44 24 08 53 8B 18 55 8B 6C 24 0C 56 57 8B 7D .D$.S..U.l$.VW.}
006DBAE0 00 8B 4F 04 8B 41 30 85 C0 74 46 81 78 44 D0 BA ..O..A0..tF.xD..
006DBAF0 6D 00 75 3D 53 68 4C BE 8A 00 B9 D0 C3 A6 00 B8 m.u=ShL.........
006DBB00 98 04 8D 00 8B D7 E8 15 E5 FF FF 8B F0 83 C4 08 ................
006DBB10 85 F6 0F 84 BA 00 00 00 81 FE 80 64 A1 00 75 6B ...........d..uk
006DBB20 83 06 FF 75 0C 8B 56 04 8B 42 18 56 FF D0 83 C4 ...u..V..B.V....
006DBB30 04 8B 4B 04 8B 41 30 85 C0 74 46 81 78 44 D0 BA ..K..A0..tF.xD..
006DBB40 6D 00 75 3D 57 68 4C BE 8A 00 B9 D0 C3 A6 00 B8 m.u=WhL.........
006DBB50 98 04 8D 00 8B D3 E8 C5 E4 FF FF 8B F0 83 C4 08 ................
006DBB60 85 F6 74 6E 81 FE 80 64 A1 00 0F 85 97 00 00 00 ..tn...d........
006DBB70 83 06 FF 75 0C 8B 56 04 8B 42 18 56 FF D0 83 C4 ...u..V..B.V....
006DBB80 04 5F 5E 5D B8 01 00 00 00 5B C3 8B 46 04 3D 88 ._^].....[..F.=.
006DBB90 65 A1 00 74 12 68 88 65 A1 00 50 E8 D0 9A FF FF e..t.h.e..P.....
006DBBA0 83 C4 08 85 C0 74 06 83 7E 08 02 74 2D 8B 0D 7C .....t..~..t-..|
006DBBB0 6B A1 00 68 50 16 8D 00 51 E8 C2 53 00 00 83 C4 k..hP...Q..S....
006DBBC0 08 83 06 FF 75 0C 8B 56 04 8B 42 18 56 FF D0 83 ....u..V..B.V...
006DBBD0 C4 04 5F 5E 5D 83 C8 FF 5B C3 8B 46 0C 8B 4C 24 .._^]...[..F..L$
006DBBE0 18 89 45 00 83 00 01 8B 46 10 89 01 83 00 01 83 ..E.....F.......
006DBBF0 06 FF 75 0C 8B 56 04 8B 42 18 56 FF D0 83 C4 04 ..u..V..B.V.....
006DBC00 5F 5E 5D 33 C0 5B C3 8B 46 04 3D 88 65 A1 00 74 _^]3.[..F.=.e..t
006DBC10 12 68 88 65 A1 00 50 E8 54 9A FF FF 83 C4 08 85 .h.e..P.T.......
006DBC20 C0 74 8A 83 7E 08 02 75 84 8B 46 10 8B 4C 24 18 .t..~..u..F..L$.
006DBC30 89 45 00 83 00 01 8B 46 0C 89 01 83 00 01 83 06 .E.....F........
006DBC40 FF 75 BD 8B 56 04 8B 42 18 56 FF D0 83 C4 04 5F .u..V..B.V....._
006DBC50 5E 5D 33 C0 5B C3 CC CC CC CC CC CC CC CC CC CC ^]3.[...........
006DBC60 8B 54 24 04 68 3C E8 8C 00 B9 6C C4 A6 00 B8 6C .T$.h<....l....l
006DBC70 04 8D 00 E8 C8 E2 FF FF 83 C4 04 C3 CC CC CC CC ................
006DBC80 8B 54 24 04 68 3C E8 8C 00 B9 AC C3 A6 00 B8 48 .T$.h<.........H
006DBC90 04 8D 00 E8 A8 E2 FF FF 83 C4 04 C3 CC CC CC CC ................
006DBCA0 8B 54 24 04 68 3C E8 8C 00 B9 80 C3 A6 00 B8 20 .T$.h<......... 
006DBCB0 04 8D 00 E8 88 E2 FF FF 83 C4 04 C3 CC CC CC CC ................
006DBCC0 8B 54 24 04 68 3C E8 8C 00 B9 18 C3 A6 00 B8 FC .T$.h<..........
006DBCD0 03 8D 00 E8 68 E2 FF FF 83 C4 04 C3 CC CC CC CC ....h...........
006DBCE0 8B 54 24 04 68 3C E8 8C 00 B9 E4 C3 A6 00 B8 DC .T$.h<..........
006DBCF0 03 8D 00 E8 48 E2 FF FF 83 C4 04 C3 CC CC CC CC ....H...........
006DBD00 8B 44 24 08 8B 54 24 04 50 68 4C BE 8A 00 B9 34 .D$..T$.PhL....4
006DBD10 C3 A6 00 B8 D0 08 8D 00 E8 23 E2 FF FF 83 C4 08 .........#......
006DBD20 C3 CC CC CC CC CC CC CC CC CC CC CC CC CC CC CC ................
006DBD30 8B 44 24 08 8B 54 24 04 50 68 4C BE 8A 00 B9 20 .D$..T$.PhL.... 
006DBD40 C3 A6 00 B8 68 03 8D 00 E8 F3 E1 FF FF 83 C4 08 ....h...........
006DBD50 C3 CC CC CC CC CC CC CC CC CC CC CC CC CC CC CC ................
006DBD60 8B 44 24 08 8B 54 24 04 50 68 4C BE 8A 00 B9 10 .D$..T$.PhL.....
006DBD70 C3 A6 00 B8 AC 08 8D 00 E8 C3 E1 FF FF 83 C4 08 ................
006DBD80 C3 CC CC CC CC CC CC CC CC CC CC CC CC CC CC CC ................
006DBD90 8B 44 24 08 8B 54 24 04 50 68 4C BE 8A 00 B9 A0 .D$..T$.PhL.....
006DBDA0 C4 A6 00 B8 2C 03 8D 00 E8 93 E1 FF FF 83 C4 08 ....,...........
006DBDB0 C3 CC CC CC CC CC CC CC CC CC CC CC CC CC CC CC ................
006DBDC0 8B 44 24 08 8B 54 24 04 50 68 4C BE 8A 00 B9 A0 .D$..T$.PhL.....
006DBDD0 C3 A6 00 B8 08 03 8D 00 E8 63 E1 FF FF 83 C4 08 .........c......
006DBDE0 C3 CC CC CC CC CC CC CC CC CC CC CC CC CC CC CC ................
006DBDF0 8B 44 24 08 8B 54 24 04 50 68 4C BE 8A 00 B9 48 .D$..T$.PhL....H
006DBE00 C4 A6 00 B8 E4 02 8D 00 E8 33 E1 FF FF 83 C4 08 .........3......
006DBE10 C3 CC CC CC CC CC CC CC CC CC CC CC CC CC CC CC ................
006DBE20 8B 44 24 08 8B 54 24 04 50 68 4C BE 8A 00 B9 38 .D$..T$.PhL....8
006DBE30 C4 A6 00 B8 C0 02 8D 00 E8 03 E1 FF FF 83 C4 08 ................
006DBE40 C3 CC CC CC CC CC CC CC CC CC CC CC CC CC CC CC ................
006DBE50 8B 44 24 08 8B 54 24 04 50 68 4C BE 8A 00 B9 84 .D$..T$.PhL.....
006DBE60 C3 A6 00 B8 98 02 8D 00 E8 D3 E0 FF FF 83 C4 08 ................
006DBE70 C3 CC CC CC CC CC CC CC CC CC CC CC CC CC CC CC ................
006DBE80 8B 44 24 08 8B 54 24 04 50 68 4C BE 8A 00 B9 40 .D$..T$.PhL....@
006DBE90 C3 A6 00 B8 70 02 8D 00 E8 A3 E0 FF FF 83 C4 08 ....p...........
006DBEA0 C3 CC CC CC CC CC CC CC CC CC CC CC CC CC CC CC ................
006DBEB0 8B 44 24 08 8B 54 24 04 50 68 4C BE 8A 00 B9 68 .D$..T$.PhL....h
006DBEC0 C4 A6 00 B8 4C 02 8D 00 E8 73 E0 FF FF 83 C4 08 ....L....s......
006DBED0 C3 CC CC CC CC CC CC CC CC CC CC CC CC CC CC CC ................
006DBEE0 8B 44 24 08 8B 54 24 04 50 68 4C BE 8A 00 B9 58 .D$..T$.PhL....X
006DBEF0 C4 A6 00 B8 2C 02 8D 00 E8 43 E0 FF FF 83 C4 08 ....,....C......
006DBF00 C3 CC CC CC CC CC CC CC CC CC CC CC CC CC CC CC ................
006DBF10 53 56 8B 74 24 0C 8B 4E 04 57 8B 7C 24 14 8B 57 SV.t$..N.W.|$..W
006DBF20 04 3B CA 74 1A 8B 42 30 85 C0 74 13 81 B8 88 00 .;.t..B0..t.....
006DBF30 00 00 10 BF 6D 00 75 07 BB 01 00 00 00 EB 02 33 ....m.u........3
006DBF40 DB 8B 41 30 85 C0 0F 84 A4 00 00 00 81 B8 88 00 ..A0............
006DBF50 00 00 10 BF 6D 00 0F 85 94 00 00 00 85 DB 74 56 ....m.........tV
006DBF60 51 52 E8 09 97 FF FF 83 C4 08 85 C0 74 48 56 B9 QR..........tHV.
006DBF70 D8 01 8D 00 8B C7 E8 65 CE FF FF 83 C4 04 85 C0 .......e........
006DBF80 74 34 56 68 4C BE 8A 00 B9 2C C4 A6 00 B8 D8 01 t4VhL....,......
006DBF90 8D 00 8B D7 E8 87 E0 FF FF 83 C4 08 3D 80 64 A1 ............=.d.
006DBFA0 00 75 7B 83 00 FF 75 0C 8B 48 04 8B 51 18 50 FF .u{...u..H..Q.P.
006DBFB0 D2 83 C4 04 33 DB 57 68 4C BE 8A 00 B9 88 C3 A6 ....3.WhL.......
006DBFC0 00 B8 04 02 8D 00 8B D6 E8 53 E0 FF FF 83 C4 08 .........S......
006DBFD0 3D 80 64 A1 00 75 47 8B 4F 04 3B 4E 04 74 3F 83 =.d..uG.O.;N.t?.
006DBFE0 00 FF 75 0C 8B 50 04 50 8B 42 18 FF D0 83 C4 04 ..u..P.P.B......
006DBFF0 85 DB 74 1E 56 68 4C BE 8A 00 B9 2C C4 A6 00 B8 ..t.VhL....,....
006DC000 D8 01 8D 00 8B D7 E8 15 E0 FF FF 83 C4 08 5F 5E .............._^
006DC010 5B C3 83 05 80 64 A1 00 01 B8 80 64 A1 00 5F 5E [....d.....d.._^
006DC020 5B C3 CC CC CC CC CC CC CC CC CC CC CC CC CC CC [...............
006DC030 53 56 8B 74 24 0C 8B 4E 04 57 8B 7C 24 14 8B 57 SV.t$..N.W.|$..W
006DC040 04 3B CA 74 1A 8B 42 30 85 C0 74 13 81 B8 8C 00 .;.t..B0..t.....
006DC050 00 00 30 C0 6D 00 75 07 BB 01 00 00 00 EB 02 33 ..0.m.u........3
006DC060 DB 8B 41 30 85 C0 0F 84 A4 00 00 00 81 B8 8C 00 ..A0............
006DC070 00 00 30 C0 6D 00 0F 85 94 00 00 00 85 DB 74 56 ..0.m.........tV
006DC080 51 52 E8 E9 95 FF FF 83 C4 08 85 C0 74 48 56 B9 QR..........tHV.
006DC090 80 01 8D 00 8B C7 E8 45 CD FF FF 83 C4 04 85 C0 .......E........
006DC0A0 74 34 56 68 4C BE 8A 00 B9 24 C4 A6 00 B8 80 01 t4VhL....$......
006DC0B0 8D 00 8B D7 E8 67 DF FF FF 83 C4 08 3D 80 64 A1 .....g......=.d.
006DC0C0 00 75 7B 83 00 FF 75 0C 8B 48 04 8B 51 18 50 FF .u{...u..H..Q.P.
006DC0D0 D2 83 C4 04 33 DB 57 68 4C BE 8A 00 B9 00 C4 A6 ....3.WhL.......
006DC0E0 00 B8 AC 01 8D 00 8B D6 E8 33 DF FF FF 83 C4 08 .........3......
006DC0F0 3D 80 64 A1 00 75 47 8B 4F 04 3B 4E 04 74 3F 83 =.d..uG.O.;N.t?.
006DC100 00 FF 75 0C 8B 50 04 50 8B 42 18 FF D0 83 C4 04 ..u..P.P.B......
006DC110 85 DB 74 1E 56 68 4C BE 8A 00 B9 24 C4 A6 00 B8 ..t.VhL....$....
006DC120 80 01 8D 00 8B D7 E8 F5 DE FF FF 83 C4 08 5F 5E .............._^
006DC130 5B C3 83 05 80 64 A1 00 01 B8 80 64 A1 00 5F 5E [....d.....d.._^
006DC140 5B C3 CC CC CC CC CC CC CC CC CC CC CC CC CC CC [...............
006DC150 8B 44 24 08 8B 54 24 04 50 68 4C BE 8A 00 B9 7C .D$..T$.PhL....|
006DC160 C3 A6 00 B8 54 01 8D 00 E8 D3 DD FF FF 83 C4 08 ....T...........
006DC170 C3 CC CC CC CC CC CC CC CC CC CC CC CC CC CC CC ................
006DC180 8B 44 24 08 8B 54 24 04 50 68 4C BE 8A 00 B9 30 .D$..T$.PhL....0
006DC190 C3 A6 00 B8 24 01 8D 00 E8 A3 DD FF FF 83 C4 08 ....$...........
006DC1A0 C3 CC CC CC CC CC CC CC CC CC CC CC CC CC CC CC ................

;; fn006DC1B0: 006DC1B0
;;   Called from:
;;     006DC2A9 (in fn006DC290)
;;     006DC2C5 (in fn006DC290)
fn006DC1B0 proc
	push	ebx
	push	esi
	push	edi
	mov	edi,0A6C30Ch
	mov	eax,8D00B8h
	call	6D9ED0h
	mov	ebx,eax
	test	ebx,ebx
	jnz	6DC1D6h

l006DC1C8:
	call	6E1160h
	pop	edi
	pop	esi
	mov	eax,2h
	pop	ebx
	ret

l006DC1D6:
	mov	eax,[esp+10h]
	push	eax
	push	1h
	call	6DFF80h
	mov	edi,eax
	add	esp,8h
	test	edi,edi
	jnz	6DC1EFh

l006DC1EB:
	xor	esi,esi
	jmp	6DC20Eh

l006DC1EF:
	push	0h
	push	edi
	push	ebx
	call	703710h
	add	esp,0Ch
	add	dword ptr [edi],0FFh
	mov	esi,eax
	jnz	6DC20Eh

l006DC202:
	mov	ecx,[edi+4h]
	mov	edx,[ecx+18h]
	push	edi
	call	edx
	add	esp,4h

l006DC20E:
	add	dword ptr [ebx],0FFh
	jnz	6DC21Fh

l006DC213:
	mov	eax,[ebx+4h]
	mov	ecx,[eax+18h]
	push	ebx
	call	ecx
	add	esp,4h

l006DC21F:
	cmp	esi,0A16480h
	jz	6DC274h

l006DC227:
	test	esi,esi
	jz	6DC255h

l006DC22B:
	push	esi
	call	7051A0h
	add	esp,4h
	add	dword ptr [esi],0FFh
	mov	edi,eax
	jnz	6DC247h

l006DC23B:
	mov	edx,[esi+4h]
	mov	eax,[edx+18h]
	push	esi
	call	eax
	add	esp,4h

l006DC247:
	cmp	edi,0FFh
	jnz	6DC25Eh

l006DC24C:
	call	6E0FC0h
	test	eax,eax
	jz	6DC262h

l006DC255:
	pop	edi
	pop	esi
	mov	eax,0FFFFFFFEh
	pop	ebx
	ret

l006DC25E:
	test	edi,edi
	jge	6DC269h

l006DC262:
	pop	edi
	pop	esi
	or	eax,0FFh
	pop	ebx
	ret

l006DC269:
	xor	eax,eax
	test	edi,edi
	pop	edi
	pop	esi
	setg	al
	pop	ebx
	ret

l006DC274:
	add	dword ptr [esi],0FFh
	jnz	6DC285h

l006DC279:
	mov	ecx,[esi+4h]
	mov	edx,[ecx+18h]
	push	esi
	call	edx
	add	esp,4h

l006DC285:
	pop	edi
	pop	esi
	mov	eax,2h
	pop	ebx
	ret
006DC28E                                           CC CC               ..

;; fn006DC290: 006DC290
;;   Called from:
;;     006DF360 (in fn006DF230)
fn006DC290 proc
	push	esi
	mov	esi,[esp+0Ch]
	push	edi
	mov	edi,[esp+0Ch]
	mov	eax,[edi+4h]
	cmp	dword ptr [eax+28h],6DC290h
	jnz	6DC2B6h

l006DC2A6:
	push	esi
	mov	ecx,edi
	call	6DC1B0h
	add	esp,4h
	cmp	eax,1h
	jle	6DC2EDh

l006DC2B6:
	mov	ecx,[esi+4h]
	cmp	dword ptr [ecx+28h],6DC290h
	jnz	6DC2DFh

l006DC2C2:
	push	edi
	mov	ecx,esi
	call	6DC1B0h
	add	esp,4h
	cmp	eax,0FFh
	jge	6DC2DAh

l006DC2D2:
	pop	edi
	mov	eax,0FFFFFFFEh
	pop	esi
	ret

l006DC2DA:
	cmp	eax,1h
	jle	6DC2EBh

l006DC2DF:
	cmp	esi,edi
	jbe	6DC2E9h

l006DC2E3:
	pop	edi
	or	eax,0FFh
	pop	esi
	ret

l006DC2E9:
	sbb	eax,eax

l006DC2EB:
	neg	eax

l006DC2ED:
	pop	edi
	pop	esi
	ret
006DC2F0 53 8B 5C 24 08 56 57 BF B8 C3 A6 00 B8 DC 00 8D S.\$.VW.........
006DC300 00 8B CB E8 C8 DB FF FF 8B F0 85 F6 74 26 6A 00 ............t&j.
006DC310 6A 00 56 E8 68 B3 02 00 83 C4 0C 83 06 FF 8B F8 j.V.h...........
006DC320 75 0C 8B 46 04 8B 48 18 56 FF D1 83 C4 04 8B C7 u..F..H.V.......
006DC330 5F 5E 5B C3 E8 27 4E 00 00 8B 53 04 8B 42 0C 53 _^[..'N...S..B.S
006DC340 50 68 54 15 8D 00 E8 25 5D 01 00 83 C4 0C 5F 5E PhT....%]....._^
006DC350 5B C3 CC CC CC CC CC CC CC CC CC CC CC CC CC CC [...............
006DC360 53 8B 5C 24 08 56 57 BF 40 C4 A6 00 B8 00 01 8D S.\$.VW.@.......
006DC370 00 8B CB E8 58 DB FF FF 8B F0 85 F6 74 26 6A 00 ....X.......t&j.
006DC380 6A 00 56 E8 F8 B2 02 00 83 C4 0C 83 06 FF 8B F8 j.V.............
006DC390 75 0C 8B 46 04 8B 48 18 56 FF D1 83 C4 04 8B C7 u..F..H.V.......
006DC3A0 5F 5E 5B C3 E8 B7 4D 00 00 53 E8 41 FF FF FF 83 _^[...M..S.A....
006DC3B0 C4 04 5F 5E 5B C3 CC CC CC CC CC CC CC CC CC CC .._^[...........
006DC3C0 53 8B 5C 24 08 56 57 BF 94 C3 A6 00 B8 90 00 8D S.\$.VW.........
006DC3D0 00 8B CB E8 F8 DA FF FF 8B F0 85 F6 74 6C 6A 00 ............tlj.
006DC3E0 6A 00 56 E8 98 B2 02 00 83 C4 0C 83 06 FF 8B F8 j.V.............
006DC3F0 75 0C 8B 46 04 8B 48 18 56 FF D1 83 C4 04 85 FF u..F..H.V.......
006DC400 0F 84 A7 00 00 00 8B 47 04 3D 00 F4 A1 00 74 1A .......G.=....t.
006DC410 68 00 F4 A1 00 50 E8 55 92 FF FF 83 C4 08 85 C0 h....P.U........
006DC420 75 08 57 E8 78 8D 02 00 EB 07 57 FF 15 3C F4 A1 u.W.x.....W..<..
006DC430 00 83 C4 04 83 07 FF 8B F0 0F 85 85 00 00 00 8B ................
006DC440 57 04 8B 42 18 57 FF D0 EB 77 E8 11 4D 00 00 BF W..B.W...w..M...
006DC450 C8 C3 A6 00 B8 A8 0B 8D 00 8B CB E8 70 DA FF FF ............p...
006DC460 8B F0 85 F6 75 1C E8 F5 4C 00 00 BF 3C C3 A6 00 ....u...L...<...
006DC470 B8 B8 00 8D 00 8B CB E8 54 DA FF FF 8B F0 85 F6 ........T.......
006DC480 74 32 8B 4B 04 8B 51 0C A1 7C 6B A1 00 52 68 74 t2.K..Q..|k..Rht
006DC490 16 8D 00 50 E8 37 51 00 00 83 C4 0C 83 06 FF 75 ...P.7Q........u
006DC4A0 0C 8B 4E 04 8B 51 18 56 FF D2 83 C4 04 5F 5E 83 ..N..Q.V....._^.
006DC4B0 C8 FF 5B C3 E8 A7 4C 00 00 53 E8 11 1E 00 00 8B ..[...L..S......
006DC4C0 F0 83 C4 04 83 FE FF 75 0E E8 F2 4A 00 00 85 C0 .......u...J....
006DC4D0 75 05 BE FE FF FF FF 5F 8B C6 5E 5B C3 CC CC CC u......_..^[....
006DC4E0 8B 4C 24 04 56 57 BF 44 C4 A6 00 B8 68 00 8D 00 .L$.VW.D....h...
006DC4F0 E8 DB D9 FF FF 8B F0 85 F6 74 43 A1 7C D6 A6 00 .........tC.|...
006DC500 83 40 0C 01 A1 AC E8 A1 00 8B 0D 7C D6 A6 00 83 .@.........|....
006DC510 E8 01 A3 AC E8 A1 00 39 41 0C 7E 27 68 90 16 8D .......9A.~'h...
006DC520 00 E8 9A A8 02 00 83 C4 04 85 C0 74 16 83 06 FF ...........t....
006DC530 75 0C 8B 56 04 8B 42 18 56 FF D0 83 C4 04 5F 33 u..V..B.V....._3
006DC540 C0 5E C3 8B 4C 24 14 8B 54 24 10 51 52 56 E8 BD .^..L$..T$.QRV..
006DC550 71 02 00 8B F8 A1 7C D6 A6 00 83 40 0C FF 83 C4 q.....|....@....
006DC560 0C 83 06 FF 75 0C 8B 46 04 8B 48 18 56 FF D1 83 ....u..F..H.V...
006DC570 C4 04 8B C7 5F 5E C3 CC CC CC CC CC CC CC CC CC ...._^..........
006DC580 8B 44 24 08 8B 54 24 04 50 68 4C BE 8A 00 B9 A4 .D$..T$.PhL.....
006DC590 C4 A6 00 B8 38 00 8D 00 E8 A3 D9 FF FF 83 C4 08 ....8...........
006DC5A0 C3 CC CC CC CC CC CC CC CC CC CC CC CC CC CC CC ................
006DC5B0 A1 AC C4 A6 00 85 C0 53 8B 5C 24 08 56 8B 73 04 .......S.\$.V.s.
006DC5C0 75 1B 68 04 00 8D 00 E8 A4 54 01 00 83 C4 04 85 u.h......T......
006DC5D0 C0 A3 AC C4 A6 00 75 05 5E 33 C0 5B C3 83 3D A8 ......u.^3.[..=.
006DC5E0 C4 A6 00 00 75 1B 68 38 00 8D 00 E8 80 54 01 00 ....u.h8.....T..
006DC5F0 83 C4 04 85 C0 A3 A8 C4 A6 00 74 DC A1 AC C4 A6 ..........t.....
006DC600 00 55 50 56 E8 57 9A FF FF 8B E8 83 C4 08 85 ED .UPV.W..........
006DC610 75 29 8B 44 24 14 50 68 4C BE 8A 00 B9 A4 C4 A6 u).D$.PhL.......
006DC620 00 B8 38 00 8D 00 8B D3 C7 46 48 80 C5 6D 00 E8 ..8......FH..m..
006DC630 0C D9 FF FF 83 C4 08 5D 5E 5B C3 8B 0D A8 C4 A6 .......]^[......
006DC640 00 57 51 56 E8 17 9A FF FF 83 C4 08 85 C0 74 25 .WQV..........t%
006DC650 81 78 04 C8 40 A2 00 75 09 81 78 14 10 E6 6D 00 .x..@..u..x...m.
006DC660 74 13 8B 7C 24 18 6A 00 57 53 50 E8 80 74 02 00 t..|$.j.WSP..t..
006DC670 83 C4 10 EB 0E 8B 7C 24 18 57 53 E8 90 1F 00 00 ......|$.WS.....
006DC680 83 C4 08 8B F0 85 F6 75 26 8B 15 F0 78 A1 00 52 .......u&...x..R
006DC690 E8 7B 4A 00 00 83 C4 04 85 C0 74 13 E8 BF 4A 00 .{J.......t...J.
006DC6A0 00 56 57 53 55 E8 46 74 02 00 83 C4 10 8B F0 5F .VWSU.Ft......._
006DC6B0 5D 8B C6 5E 5B C3 CC CC CC CC CC CC CC CC CC CC ]..^[...........
006DC6C0 8B 44 24 0C 85 C0 8B 54 24 04 75 1E 8B 44 24 08 .D$....T$.u..D$.
006DC6D0 50 68 4C BE 8A 00 B9 9C C4 A6 00 B8 B8 FF 8C 00 PhL.............
006DC6E0 E8 5B D8 FF FF 83 C4 08 EB 1D 8B 4C 24 08 50 51 .[.........L$.PQ
006DC6F0 68 14 16 8D 00 B9 4C C4 A6 00 B8 F8 FF 8C 00 E8 h.....L.........
006DC700 3C D8 FF FF 83 C4 0C 85 C0 75 04 83 C8 FF C3 83 <........u......
006DC710 00 FF 75 0C 8B 50 04 50 8B 42 18 FF D0 83 C4 04 ..u..P.P.B......
006DC720 33 C0 C3 CC CC CC CC CC CC CC CC CC CC CC CC CC 3...............
006DC730 57 8D 3C 85 84 C4 A6 00 8B 04 85 78 55 A1 00 E8 W.<........xU...
006DC740 8C D7 FF FF 8B F8 85 FF 75 13 E8 11 4A 00 00 83 ........u...J...
006DC750 05 80 64 A1 00 01 B8 80 64 A1 00 5F C3 8B 44 24 ..d.....d.._..D$
006DC760 08 53 56 50 6A 01 E8 15 38 00 00 8B F0 83 C4 08 .SVPj...8.......
006DC770 85 F6 75 04 33 DB EB 1F 6A 00 56 57 E8 8F 6F 02 ..u.3...j.VW..o.
006DC780 00 83 C4 0C 83 06 FF 8B D8 75 0C 8B 4E 04 8B 51 .........u..N..Q
006DC790 18 56 FF D2 83 C4 04 83 07 FF 75 0C 8B 47 04 8B .V........u..G..
006DC7A0 48 18 57 FF D1 83 C4 04 5E 8B C3 5B 5F C3 CC CC H.W.....^..[_...
006DC7B0 53 8B 5C 24 10 56 8B 74 24 0C 8B 46 04 81 78 64 S.\$.V.t$..F..xd
006DC7C0 B0 C7 6D 00 57 8B 7C 24 14 75 25 57 8B C3 8B CE ..m.W.|$.u%W....
006DC7D0 E8 5B FF FF FF 83 C4 04 3D 80 64 A1 00 75 53 83 .[......=.d..uS.
006DC7E0 00 FF 75 0C 8B 48 04 8B 51 18 50 FF D2 83 C4 04 ..u..H..Q.P.....
006DC7F0 8B 47 04 81 78 64 B0 C7 6D 00 75 2A 8B 04 9D C8 .G..xd..m.u*....
006DC800 62 A1 00 56 8B CF E8 25 FF FF FF 83 C4 04 3D 80 b..V...%......=.
006DC810 64 A1 00 75 1D 83 00 FF 75 0C 8B 48 04 8B 51 18 d..u....u..H..Q.
006DC820 50 FF D2 83 C4 04 83 05 80 64 A1 00 01 B8 80 64 P........d.....d
006DC830 A1 00 5F 5E 5B C3 CC CC CC CC CC CC CC CC CC CC .._^[...........
006DC840 53 56 8B 74 24 0C 57 BF 3C C4 A6 00 B8 F4 FE 8C SV.t$.W.<.......
006DC850 00 8B CE E8 78 D6 FF FF 8B D8 85 DB 74 48 6A 00 ....x.......tHj.
006DC860 E8 BB 34 00 00 8B F0 83 C4 04 85 F6 8B FE 74 1F ..4...........t.
006DC870 6A 00 56 53 E8 97 6E 02 00 83 C4 0C 83 07 FF 8B j.VS..n.........
006DC880 F0 75 0C 8B 47 04 8B 48 18 57 FF D1 83 C4 04 83 .u..G..H.W......
006DC890 03 FF 75 0C 8B 53 04 8B 42 18 53 FF D0 83 C4 04 ..u..S..B.S.....
006DC8A0 5F 8B C6 5E 5B C3 E8 B5 48 00 00 BF FC C3 A6 00 _..^[...H.......
006DC8B0 B8 00 0B 8D 00 8B CE E8 14 D6 FF FF 85 C0 75 20 ..............u 
006DC8C0 8B 4E 04 8B 51 0C A1 7C 6B A1 00 52 68 A0 16 8D .N..Q..|k..Rh...
006DC8D0 00 50 E8 F9 4C 00 00 83 C4 0C 5F 5E 33 C0 5B C3 .P..L....._^3.[.
006DC8E0 83 00 FF 75 0C 8B 48 04 8B 51 18 50 FF D2 83 C4 ...u..H..Q.P....
006DC8F0 04 56 E8 A9 94 04 00 83 C4 04 5F 5E 5B C3 CC CC .V........_^[...
006DC900 8B 54 24 04 68 3C E8 8C 00 B9 B0 C3 A6 00 B8 D0 .T$.h<..........
006DC910 FE 8C 00 E8 28 D6 FF FF 83 C4 04 C3 CC CC CC CC ....(...........
006DC920 8B 44 24 0C 85 C0 8B 54 24 04 75 1E 8B 44 24 08 .D$....T$.u..D$.
006DC930 50 68 4C BE 8A 00 B9 14 C3 A6 00 B8 40 FE 8C 00 PhL.........@...
006DC940 E8 FB D5 FF FF 83 C4 08 EB 1D 8B 4C 24 08 50 51 ...........L$.PQ
006DC950 68 14 16 8D 00 B9 28 C3 A6 00 B8 68 FE 8C 00 E8 h.....(....h....
006DC960 DC D5 FF FF 83 C4 0C 85 C0 75 04 83 C8 FF C3 83 .........u......
006DC970 00 FF 75 0C 8B 50 04 50 8B 42 18 FF D0 83 C4 04 ..u..P.P.B......
006DC980 33 C0 C3 CC CC CC CC CC CC CC CC CC CC CC CC CC 3...............
006DC990 8B 4C 24 04 57 BF 38 C3 A6 00 B8 3C 2D 8B 00 E8 .L$.W.8....<-...
006DC9A0 2C D5 FF FF 8B F8 85 FF 75 05 83 C8 FF 5F C3 8B ,.......u...._..
006DC9B0 44 24 10 8B 4C 24 0C 56 50 51 57 E8 50 6D 02 00 D$..L$.VPQW.Pm..
006DC9C0 83 C4 0C 83 07 FF 8B F0 75 0C 8B 57 04 8B 42 18 ........u..W..B.
006DC9D0 57 FF D0 83 C4 04 85 F6 74 33 81 FE B8 63 A1 00 W.......t3...c..
006DC9E0 74 31 8B 4E 04 8B 51 0C A1 7C 6B A1 00 52 68 C0 t1.N..Q..|k..Rh.
006DC9F0 16 8D 00 50 E8 D7 4B 00 00 83 C4 0C 83 06 FF 75 ...P..K........u
006DCA00 0C 8B 4E 04 8B 51 18 56 FF D2 83 C4 04 5E 83 C8 ..N..Q.V.....^..
006DCA10 FF 5F C3 83 06 FF 75 0C 8B 46 04 8B 48 18 56 FF ._....u..F..H.V.
006DCA20 D1 83 C4 04 5E 33 C0 5F C3 CC CC CC CC CC CC CC ....^3._........
006DCA30 83 EC 08 57 8B 7C 24 10 8D 44 24 10 50 8D 4C 24 ...W.|$..D$.P.L$
006DCA40 08 51 8D 54 24 10 52 C7 07 01 00 00 00 E8 DE 46 .Q.T$.R........F
006DCA50 00 00 A1 B4 C4 A6 00 83 C4 0C 85 C0 75 16 68 D8 ............u.h.
006DCA60 FD 8C 00 E8 08 50 01 00 83 C4 04 85 C0 A3 B4 C4 .....P..........
006DCA70 A6 00 74 73 56 50 8B 47 04 50 E8 E1 95 FF FF 8B ..tsVP.G.P......
006DCA80 F0 83 C4 08 85 F6 74 5E 8B 4E 04 8B 81 88 00 00 ......t^.N......
006DCA90 00 85 C0 75 05 83 06 01 EB 0D 8B 57 04 52 57 56 ...u.......W.RWV
006DCAA0 FF D0 83 C4 0C 8B F0 85 F6 74 3B 6A 00 6A 00 56 .........t;j.j.V
006DCAB0 E8 CB AB 02 00 83 C4 0C 85 C0 75 08 56 E8 BE 4C ..........u.V..L
006DCAC0 00 00 EB 0E 83 00 FF 75 0C 8B 48 04 8B 51 18 50 .......u..H..Q.P
006DCAD0 FF D2 83 C4 04 83 06 FF 75 0C 8B 46 04 8B 48 18 ........u..F..H.
006DCAE0 56 FF D1 83 C4 04 5E 8B 54 24 10 8B 44 24 04 8B V.....^.T$..D$..
006DCAF0 4C 24 08 52 50 51 E8 05 43 00 00 83 C4 0C 83 07 L$.RPQ..C.......
006DCB00 FF 8B 07 74 02 89 07 5F 83 C4 08 C3 CC CC CC CC ...t..._........
006DCB10 83 EC 28 E8 58 C8 FF FF 83 3D 90 55 A1 00 00 8D ..(.X....=.U....
006DCB20 0C 24 B8 90 55 A1 00 74 19 8D A4 24 00 00 00 00 .$..U..t...$....
006DCB30 39 58 18 75 05 89 01 83 C1 04 83 C0 1C 83 38 00 9X.u..........8.
006DCB40 75 EE C7 01 00 00 00 00 83 3C 24 00 8D 0C 24 74 u........<$...$t
006DCB50 2F 8B 01 3D 90 55 A1 00 8B 50 04 76 12 8D 49 00 /..=.U...P.v..I.
006DCB60 39 50 E8 75 0A 83 E8 1C 3D 90 55 A1 00 77 F1 89 9P.u....=.U..w..
006DCB70 01 83 C1 04 83 39 00 75 D8 8B 04 24 85 C0 75 06 .....9.u...$..u.
006DCB80 33 C0 83 C4 28 C3 56 8D 74 24 04 EB 03 8D 49 00 3...(.V.t$....I.
006DCB90 57 E8 0A C6 FF FF 8B 46 04 83 C6 04 83 C4 04 85 W......F........
006DCBA0 C0 75 ED 8D 44 24 04 50 68 20 93 6D 00 53 57 E8 .u..D$.Ph .m.SW.
006DCBB0 3C C8 FF FF 83 C4 10 5E 83 C4 28 C3 CC CC CC CC <......^..(.....
006DCBC0 51 8B 44 24 08 8B 80 B4 00 00 00 85 C0 89 44 24 Q.D$..........D$
006DCBD0 08 75 02 59 C3 8B 48 08 53 55 56 33 ED 85 C9 57 .u.Y..H.SUV3...W
006DCBE0 89 4C 24 10 0F 8E 91 00 00 00 8D 9B 00 00 00 00 .L$.............
006DCBF0 8B 50 0C 8B 14 AA 8B 7A 08 81 FF B8 63 A1 00 74 .P.....z....c..t
006DCC00 6F 8B B7 AC 00 00 00 57 E8 F3 D4 FF FF 83 C4 04 o......W........
006DCC10 85 C0 7C 6F 56 57 6A 02 E8 63 33 00 00 83 C4 0C ..|oVWj..c3.....
006DCC20 83 06 FF 8B D8 75 0C 8B 46 04 8B 48 18 56 FF D1 .....u..F..H.V..
006DCC30 83 C4 04 85 DB 74 52 8B 74 24 1C 53 56 E8 CE 5D .....tR.t$.SV..]
006DCC40 01 00 83 C4 08 85 C0 7C 40 83 03 FF 75 0C 8B 53 .......|@...u..S
006DCC50 04 8B 42 18 53 FF D0 83 C4 04 56 57 E8 5F FF FF ..B.S.....VW._..
006DCC60 FF 83 C4 08 85 C0 7C 21 8B 44 24 18 8B 4C 24 10 ......|!.D$..L$.
006DCC70 83 C5 01 3B E9 0F 8C 75 FF FF FF 5F 5E 5D 33 C0 ...;...u..._^]3.
006DCC80 5B 59 C3 89 B7 AC 00 00 00 5F 5E 5D 83 C8 FF 5B [Y......._^]...[
006DCC90 59 C3 CC CC CC CC CC CC CC CC CC CC CC CC CC CC Y...............
006DCCA0 83 EC 0C 8B 48 08 53 55 33 DB 56 33 ED 3B CB 57 ....H.SU3.V3.;.W
006DCCB0 89 4C 24 18 89 5C 24 10 0F 8E BF 00 00 00 83 C0 .L$..\$.........
006DCCC0 0C 89 44 24 14 8B 38 8B 47 04 3D 68 E9 A1 00 0F ..D$..8.G.=h....
006DCCD0 84 84 00 00 00 3D 80 53 A1 00 74 16 68 80 53 A1 .....=.S..t.h.S.
006DCCE0 00 50 E8 89 89 FF FF 83 C4 08 85 C0 0F 84 A9 00 .P..............
006DCCF0 00 00 83 BF 84 00 00 00 00 75 11 57 E8 BF D8 FF .........u.W....
006DCD00 FF 83 C4 04 85 C0 0F 8C A2 00 00 00 8B 87 80 00 ................
006DCD10 00 00 85 C0 74 0D 50 E8 14 91 FF FF 83 C4 04 8B ....t.P.........
006DCD20 F0 EB 05 BE 98 54 A1 00 8B C7 E8 81 90 FF FF 85 .....T..........
006DCD30 C0 74 02 8B F7 85 DB 74 1C 56 53 E8 30 89 FF FF .t.....t.VS.0...
006DCD40 83 C4 08 85 C0 75 12 53 56 E8 22 89 FF FF 83 C4 .....u.SV.".....
006DCD50 08 85 C0 74 63 8B EF 8B DE 8B 4C 24 10 8B 44 24 ...tc.....L$..D$
006DCD60 14 83 C1 01 83 C0 04 3B 4C 24 18 89 4C 24 10 89 .......;L$..L$..
006DCD70 44 24 14 0F 8C 4C FF FF FF 85 ED 75 14 8B 15 7C D$...L.....u...|
006DCD80 6B A1 00 68 30 17 8D 00 52 E8 F2 41 00 00 83 C4 k..h0...R..A....
006DCD90 08 5F 5E 8B C5 5D 5B 83 C4 0C C3 A1 7C 6B A1 00 ._^..][.....|k..
006DCDA0 68 1C 17 8D 00 50 E8 D5 41 00 00 83 C4 08 5F 5E h....P..A....._^
006DCDB0 5D 33 C0 5B 83 C4 0C C3 8B 0D 7C 6B A1 00 68 EC ]3.[......|k..h.
006DCDC0 16 8D 00 51 E8 B7 41 00 00 83 C4 08 5F 5E 5D 33 ...Q..A....._^]3
006DCDD0 C0 5B 83 C4 0C C3 CC CC CC CC CC CC CC CC CC CC .[..............
006DCDE0 83 EC 34 53 55 8B 6C 24 48 85 ED 56 8B 74 24 48 ..4SU.l$H..V.t$H
006DCDF0 8B 5E 08 57 75 04 33 C0 EB 09 55 E8 20 01 02 00 .^.Wu.3...U. ...
006DCE00 83 C4 04 8B 7C 24 48 81 7F 04 80 53 A1 00 75 1C ....|$H....S..u.
006DCE10 83 FB 01 75 17 85 C0 75 13 8B 46 0C 8B 48 04 01 ...u...u..F..H..
006DCE20 19 8B 40 04 5F 5E 5D 5B 83 C4 34 C3 03 C3 83 F8 ..@._^][..4.....
006DCE30 03 74 1D 68 E0 18 8D 00 A1 7C 6B A1 00 50 E8 3D .t.h.....|k..P.=
006DCE40 41 00 00 83 C4 08 5F 5E 5D 33 C0 5B 83 C4 34 C3 A....._^]3.[..4.
006DCE50 8D 4C 24 18 51 68 B8 D1 A1 00 8D 54 24 18 52 68 .L$.Qh.....T$.Rh
006DCE60 88 65 A1 00 8D 44 24 3C 50 68 F4 52 A1 00 68 D4 .e...D$<Ph.R..h.
006DCE70 18 8D 00 55 56 E8 86 AC 00 00 83 C4 24 85 C0 74 ...UV.......$..t
006DCE80 C5 8B 4C 24 10 8B 41 08 33 DB 85 C0 89 44 24 20 ..L$..A.3....D$ 
006DCE90 7E 7F 8B E9 83 C5 0C EB 07 8D A4 24 00 00 00 00 ~..........$....
006DCEA0 8B 55 00 8B 72 04 81 FE 68 E9 A1 00 74 1E 56 57 .U..r...h...t.VW
006DCEB0 E8 BB 87 FF FF 83 C4 08 85 C0 75 10 57 56 E8 AD ..........u.WV..
006DCEC0 87 FF FF 83 C4 08 85 C0 74 39 8B FE 83 C3 01 83 ........t9......
006DCED0 C5 04 3B 5C 24 20 7C C8 3B 7C 24 48 74 33 8B 87 ..;\$ |.;|$Ht3..
006DCEE0 9C 00 00 00 3D E0 CD 6D 00 74 22 8B 4C 24 50 8B ....=..m.t".L$P.
006DCEF0 54 24 4C 51 52 57 FF D0 83 C4 0C 5F 5E 5D 5B 83 T$LQRW....._^][.
006DCF00 C4 34 C3 68 58 18 8D 00 E9 2B FF FF FF 89 7C 24 .4.hX....+....|$
006DCF10 48 83 7C 24 20 00 75 27 68 98 54 A1 00 6A 01 E8 H.|$ .u'h.T..j..
006DCF20 5C 30 00 00 33 ED 83 C4 08 3B C5 89 44 24 10 0F \0..3....;..D$..
006DCF30 84 11 FF FF FF C7 44 24 20 01 00 00 00 EB 0D 8B ......D$ .......
006DCF40 44 24 10 83 00 01 8B 44 24 10 33 ED E8 4F FD FF D$.....D$.3..O..
006DCF50 FF 8B F8 3B FD 89 7C 24 30 75 29 8B 44 24 10 83 ...;..|$0u).D$..
006DCF60 00 FF 8B 44 24 10 39 28 0F 85 D8 FE FF FF 8B 48 ...D$.9(.......H
006DCF70 04 8B 51 18 50 FF D2 83 C4 04 5F 5E 5D 33 C0 5B ..Q.P....._^]3.[
006DCF80 83 C4 34 C3 F7 47 54 00 04 00 00 75 41 8B 47 0C ..4..GT....uA.G.
006DCF90 8B 0D 7C 6B A1 00 50 68 24 18 8D 00 51 E8 2E 46 ..|k..Ph$...Q..F
006DCFA0 00 00 83 C4 0C 8B 44 24 10 83 00 FF 8B 44 24 10 ......D$.....D$.
006DCFB0 39 28 0F 85 8E FE FF FF 8B 50 04 50 8B 42 18 FF 9(.......P.P.B..
006DCFC0 D0 83 C4 04 5F 5E 5D 33 C0 5B 83 C4 34 C3 8B 4C ...._^]3.[..4..L
006DCFD0 24 18 68 18 18 8D 00 51 E8 D3 08 02 00 8B F0 33 $.h....Q.......3
006DCFE0 C0 83 C4 08 39 AF 90 00 00 00 89 74 24 14 0F 94 ....9......t$...
006DCFF0 C0 39 6F 68 89 6C 24 1C 89 6C 24 50 89 6C 24 4C .9oh.l$..l$P.l$L
006DD000 89 44 24 24 75 0C 39 6F 14 75 07 B9 01 00 00 00 .D$$u.9o.u......
006DD010 EB 02 33 C9 3B F5 89 4C 24 28 75 21 3B C5 74 08 ..3.;..L$(u!;.t.
006DD020 C7 44 24 50 01 00 00 00 3B CD 0F 84 1A 03 00 00 .D$P....;.......
006DD030 C7 44 24 4C 01 00 00 00 E9 0D 03 00 00 8B 46 04 .D$L..........F.
006DD040 3D 50 B4 A1 00 74 1D 68 50 B4 A1 00 50 E8 1E 86 =P...t.hP...P...
006DD050 FF FF 83 C4 08 85 C0 75 0B 56 E8 41 7B 02 00 83 .......u.V.A{...
006DD060 C4 04 EB 0B 56 6A 01 E8 14 2F 00 00 83 C4 08 3B ....Vj.../.....;
006DD070 C5 89 44 24 14 0F 84 2A FF FF FF 8B 58 08 3B DD ..D$...*....X.;.
006DD080 89 5C 24 1C 7E 22 39 6F 14 74 1D 8B 4F 0C 8B 15 .\$.~"9o.t..O...
006DD090 7C 6B A1 00 51 68 E0 17 8D 00 52 E8 30 45 00 00 |k..Qh....R.0E..
006DD0A0 83 C4 0C E9 EA 01 00 00 53 50 E8 C1 8E FF FF 8B ........SP......
006DD0B0 F0 83 C4 08 3B F5 0F 84 D6 01 00 00 8B 44 24 14 ....;........D$.
006DD0C0 3B F0 74 17 83 00 FF 75 0C 8B 48 04 8B 51 18 50 ;.t....u..H..Q.P
006DD0D0 FF D2 83 C4 04 8B C6 89 44 24 14 33 ED 85 DB 0F ........D$.3....
006DD0E0 8E 8B 00 00 00 83 C0 0C 89 44 24 34 8D 64 24 00 .........D$4.d$.
006DD0F0 8B 44 24 34 8B 30 8B C6 E8 B3 8D FF FF 85 C0 0F .D$4.0..........
006DD100 84 8D 01 00 00 8D 46 14 BF 7C C1 8A 00 8B F0 B9 ......F..|......
006DD110 09 00 00 00 33 D2 F3 A6 75 1C 39 54 24 24 0F 84 ....3...u.9T$$..
006DD120 5A 01 00 00 39 54 24 50 0F 85 50 01 00 00 C7 44 Z...9T$P..P....D
006DD130 24 50 01 00 00 00 8B F0 BF 1C 0D 8D 00 B9 0C 00 $P..............
006DD140 00 00 33 C0 F3 A6 75 1C 39 44 24 28 0F 84 68 01 ..3...u.9D$(..h.
006DD150 00 00 39 44 24 4C 0F 85 5E 01 00 00 C7 44 24 4C ..9D$L..^....D$L
006DD160 01 00 00 00 83 44 24 34 04 83 C5 01 3B EB 7C 80 .....D$4....;.|.
006DD170 8B C3 2B 44 24 4C 2B 44 24 50 50 E8 A0 2B 00 00 ..+D$L+D$PP..+..
006DD180 83 C4 04 85 C0 89 44 24 40 0F 84 03 01 00 00 33 ......D$@......3
006DD190 C0 3B D8 89 44 24 34 89 44 24 3C 0F 8E 88 00 00 .;..D$4.D$<.....
006DD1A0 00 8B 4C 24 40 8B 6C 24 14 83 C1 0C 89 4C 24 38 ..L$@.l$.....L$8
006DD1B0 83 C5 0C 83 7C 24 50 00 8B 55 00 8D 42 14 74 16 ....|$P..U..B.t.
006DD1C0 33 DB 8B 5C 24 1C BF 7C C1 8A 00 8B F0 B9 09 00 3..\$..|........
006DD1D0 00 00 F3 A6 74 41 83 7C 24 4C 00 74 12 8B F0 BF ....tA.|$L.t....
006DD1E0 1C 0D 8D 00 B9 0C 00 00 00 33 C0 F3 A6 74 28 8B .........3...t(.
006DD1F0 4C 24 2C 52 51 E8 56 8F 04 00 83 C4 08 85 C0 0F L$,RQ.V.........
006DD200 84 8D 00 00 00 8B 4C 24 38 83 44 24 34 01 89 01 ......L$8.D$4...
006DD210 83 C1 04 89 4C 24 38 8B 44 24 3C 83 C0 01 83 C5 ....L$8.D$<.....
006DD220 04 3B C3 89 44 24 3C 7C 8A 8B 44 24 34 89 44 24 .;..D$<|..D$4.D$
006DD230 1C 8B 44 24 14 83 00 FF 75 0C 8B 48 04 8B 51 18 ..D$....u..H..Q.
006DD240 50 FF D2 83 C4 04 8B 6C 24 20 83 FD 01 8B 44 24 P......l$ ....D$
006DD250 40 89 44 24 14 7E 1E 83 7C 24 24 00 8B 5C 24 50 @.D$.~..|$$..\$P
006DD260 74 04 85 DB 74 62 83 7C 24 28 00 74 08 8B 74 24 t...tb.|$(.t..t$
006DD270 4C 85 F6 74 57 8B 7C 24 30 E9 CC 00 00 00 8B 0D L..tW.|$0.......
006DD280 7C 6B A1 00 68 B0 17 8D 00 51 E8 F1 3C 00 00 83 |k..h....Q..<...
006DD290 C4 08 8B 44 24 10 83 00 FF 8B 44 24 10 83 38 00 ...D$.....D$..8.
006DD2A0 75 0C 8B 50 04 50 8B 42 18 FF D0 83 C4 04 8B 44 u..P.P.B.......D
006DD2B0 24 14 83 00 FF E9 AE FC FF FF 8B 15 7C 6B A1 00 $...........|k..
006DD2C0 68 60 17 8D 00 52 EB C2 8B 74 24 4C 33 C9 85 ED h`...R...t$L3...
006DD2D0 7E A3 8B 54 24 10 8B 7C 24 30 83 C2 0C 8D 49 00 ~..T$..|$0....I.
006DD2E0 8B 02 3B C7 74 52 81 78 04 68 E9 A1 00 0F 84 9E ..;.tR.x.h......
006DD2F0 00 00 00 83 7C 24 24 00 74 11 85 DB 75 0D 39 98 ....|$$.t...u.9.
006DD300 90 00 00 00 74 05 BB 01 00 00 00 8B 6C 24 28 85 ....t.......l$(.
006DD310 ED 74 0E 85 F6 75 0A 39 70 68 74 05 BE 01 00 00 .t...u.9pht.....
006DD320 00 83 7C 24 24 00 74 04 85 DB 74 08 85 ED 74 12 ..|$$.t...t...t.
006DD330 85 F6 75 0E 8B 6C 24 20 83 C1 01 83 C2 04 3B CD ..u..l$ ......;.
006DD340 7C 9E 89 74 24 4C 89 5C 24 50 8B 4C 24 1C 8B 44 |..t$L.\$P.L$..D
006DD350 24 48 8B 90 98 00 00 00 51 50 FF D2 8B F0 83 C4 $H......QP......
006DD360 08 85 F6 75 5C 8B 44 24 14 85 C0 74 11 83 00 FF ...u\.D$...t....
006DD370 75 0C 8B 48 04 8B 51 18 50 FF D2 83 C4 04 8B 44 u..H..Q.P......D
006DD380 24 10 83 00 FF 8B 44 24 10 83 38 00 E9 D7 FB FF $.....D$..8.....
006DD390 FF 83 7C 24 24 00 89 74 24 4C 89 5C 24 50 74 0C ..|$$..t$L.\$Pt.
006DD3A0 85 DB 75 08 C7 44 24 50 01 00 00 00 83 7C 24 28 ..u..D$P.....|$(
006DD3B0 00 74 97 85 F6 75 93 C7 44 24 4C 01 00 00 00 EB .t...u..D$L.....
006DD3C0 89 8B 44 24 2C 83 00 01 8B 44 24 2C 8B 4C 24 14 ..D$,....D$,.L$.
006DD3D0 89 86 A0 01 00 00 89 8E A4 01 00 00 C7 46 54 EB .............FT.
006DD3E0 07 02 00 F7 47 54 00 40 00 00 74 07 C7 46 54 EB ....GT.@..t..FT.
006DD3F0 47 02 00 BB 10 00 00 00 84 5F 54 75 06 83 7F 30 G........_Tu...0
006DD400 00 75 03 09 5E 54 8D 96 C0 00 00 00 89 56 30 8D .u..^T.......V0.
006DD410 86 68 01 00 00 89 46 34 8D 8E 5C 01 00 00 89 4E .h....F4..\....N
006DD420 38 8D 96 90 01 00 00 89 56 50 8B 44 24 2C 83 C0 8.......VP.D$,..
006DD430 14 89 46 0C 8B 4C 24 10 89 8E A8 00 00 00 83 07 ..F..L$.........
006DD440 01 89 BE 80 00 00 00 8B 54 24 18 52 E8 0F 0A 02 ........T$.R....
006DD450 00 89 44 24 1C 89 86 84 00 00 00 8B 44 24 1C 83 ..D$........D$..
006DD460 C4 04 85 C0 75 1F 83 06 FF 0F 85 D7 F9 FF FF 8B ....u...........
006DD470 46 04 8B 48 18 56 FF D1 83 C4 04 5F 5E 5D 33 C0 F..H.V....._^]3.
006DD480 5B 83 C4 34 C3 68 98 85 8C 00 50 E8 20 04 02 00 [..4.h....P. ...
006DD490 83 C4 08 85 C0 75 36 E8 C4 B3 02 00 85 C0 74 2D .....u6.......t-
006DD4A0 68 18 A8 8C 00 50 E8 05 04 02 00 83 C4 08 85 C0 h....P..........
006DD4B0 74 1B 8B 54 24 18 50 68 98 85 8C 00 52 E8 2E 04 t..T$.Ph....R...
006DD4C0 02 00 83 C4 0C 85 C0 0F 8C 79 F9 FF FF 8B 44 24 .........y....D$
006DD4D0 18 68 58 0D 8D 00 50 E8 D4 03 02 00 8B E8 83 C4 .hX...P.........
006DD4E0 08 85 ED 74 66 8B 45 04 3D 50 B4 A1 00 74 12 68 ...tf.E.=P...t.h
006DD4F0 50 B4 A1 00 50 E8 76 81 FF FF 83 C4 08 85 C0 74 P...P.v........t
006DD500 4A 8B 45 08 8D 58 01 53 E8 53 63 04 00 8B F8 83 J.E..X.S.Sc.....
006DD510 C4 04 85 FF 75 1F 83 06 FF 0F 85 27 F9 FF FF 8B ....u......'....
006DD520 4E 04 8B 51 18 56 FF D2 83 C4 04 5F 5E 5D 33 C0 N..Q.V....._^]3.
006DD530 5B 83 C4 34 C3 53 83 C5 14 55 57 E8 F0 7A FB FF [..4.S...UW..z..
006DD540 83 C4 0C 89 7E 58 BB 10 00 00 00 8B 44 24 18 68 ....~X......D$.h
006DD550 00 0C 8D 00 50 E8 56 03 02 00 83 C4 08 85 C0 74 ....P.V........t
006DD560 3C 81 78 04 B8 49 A2 00 75 33 50 E8 10 88 04 00 <.x..I..u3P.....
006DD570 8B F8 83 C4 04 85 FF 74 9D 8B 44 24 18 57 68 00 .......t..D$.Wh.
006DD580 0C 8D 00 50 E8 67 03 02 00 83 C4 0C 83 07 FF 75 ...P.g.........u
006DD590 0C 8B 4F 04 8B 51 18 57 FF D2 83 C4 04 8B 46 04 ..O..Q.W......F.
006DD5A0 8B 40 10 8B 4C 24 30 8B 51 10 03 C6 83 7C 24 14 .@..L$0.Q....|$.
006DD5B0 00 74 31 83 7C 24 1C 00 7E 2A 8B 4C 24 14 8B 7C .t1.|$..~*.L$..|
006DD5C0 24 1C 83 C1 0C 8B 29 83 C5 14 89 50 08 89 28 89 $.....)....P..(.
006DD5D0 58 04 83 C2 04 83 C1 04 83 C0 14 83 EF 01 75 E5 X.............u.
006DD5E0 8B 4C 24 30 83 7C 24 50 00 74 1B 83 79 14 00 74 .L$0.|$P.t..y..t
006DD5F0 0C C7 86 90 00 00 00 FC FF FF FF EB 06 89 96 90 ................
006DD600 00 00 00 83 C2 04 83 7C 24 4C 00 74 06 89 56 68 .......|$L.t..Vh
006DD610 83 C2 04 89 56 10 8B 41 14 89 46 14 8B 46 04 8B ....V..A..F..F..
006DD620 40 10 03 C6 89 46 78 8B 46 68 85 C0 74 2C 83 BE @....Fx.Fh..t,..
006DD630 90 00 00 00 00 74 09 C7 46 7C 68 52 A1 00 EB 33 .....t..F|hR...3
006DD640 85 C0 74 16 83 BE 90 00 00 00 00 75 09 C7 46 7C ..t........u..F|
006DD650 CC 52 A1 00 EB 1D 85 C0 75 12 83 BE 90 00 00 00 .R......u.......
006DD660 00 74 09 C7 46 7C A4 52 A1 00 EB 07 C7 46 7C 00 .t..F|.R.....F|.
006DD670 00 00 00 83 BE 90 00 00 00 00 75 07 83 7C 24 1C ..........u..|$.
006DD680 00 7E 26 83 79 20 00 75 0D 83 79 48 00 75 07 C7 .~&.y .u..yH.u..
006DD690 46 48 10 E6 6D 00 83 79 24 00 75 0D 83 79 4C 00 FH..m..y$.u..yL.
006DD6A0 75 07 C7 46 4C 70 E8 6D 00 83 FA 08 C7 46 18 00 u..FLp.m.....F..
006DD6B0 54 6D 00 75 06 83 7E 14 00 74 07 81 4E 54 00 40 Tm.u..~..t..NT.@
006DD6C0 00 00 F7 46 54 00 40 00 00 C7 86 98 00 00 00 60 ...FT.@........`
006DD6D0 51 6D 00 74 1A C7 86 A0 00 00 00 D0 EF 6F 00 C7 Qm.t.........o..
006DD6E0 46 5C A0 52 6D 00 C7 46 60 B0 53 6D 00 EB 0A C7 F\.Rm..F`.Sm....
006DD6F0 86 A0 00 00 00 C0 39 72 00 56 E8 C1 CE FF FF 83 ......9r.V......
006DD700 C4 04 85 C0 0F 8C 0C FE FF FF E8 61 BC FF FF 83 ...........a....
006DD710 3D 90 55 A1 00 00 B8 90 55 A1 00 74 11 8D 49 00 =.U.....U..t..I.
006DD720 56 E8 7A BA FF FF 83 C4 04 83 38 00 75 F2 5F 8B V.z.......8.u._.
006DD730 C6 5E 5D 5B 83 C4 34 C3 CC CC CC CC CC CC CC CC .^][..4.........
006DD740 53 55 8B 6C 24 0C 83 BD 84 00 00 00 00 8B 5D 04 SU.l$.........].
006DD750 89 5C 24 0C 75 12 55 E8 64 CE FF FF 83 C4 04 85 .\$.u.U.d.......
006DD760 C0 7D 05 5D 33 C0 5B C3 8B 44 24 10 56 57 50 53 .}.]3.[..D$.VWPS
006DD770 33 FF E8 E9 88 FF FF 8B F0 83 C4 08 85 F6 74 26 3.............t&
006DD780 8B 46 04 8B B8 88 00 00 00 85 FF 74 16 83 B8 8C .F.........t....
006DD790 00 00 00 00 74 0D 53 55 56 FF D7 83 C4 0C 5F 5E ....t.SUV....._^
006DD7A0 5D 5B C3 83 06 01 8B 4C 24 18 51 55 E8 AF 88 FF ][.....L$.QU....
006DD7B0 FF 8B D8 83 C4 08 85 DB 74 3A 85 F6 8B 53 04 8B ........t:...S..
006DD7C0 BA 88 00 00 00 74 11 83 06 FF 75 0C 8B 46 04 8B .....t....u..F..
006DD7D0 48 18 56 FF D1 83 C4 04 85 FF 74 0E 55 6A 00 53 H.V.......t.Uj.S
006DD7E0 FF D7 83 C4 0C 5F 5E 5D 5B C3 83 03 01 5F 5E 5D ....._^][...._^]
006DD7F0 8B C3 5B C3 85 FF 74 26 8B 54 24 14 52 55 56 FF ..[...t&.T$.RUV.
006DD800 D7 83 C4 0C 83 06 FF 8B F8 75 0C 8B 46 04 8B 48 .........u..F..H
006DD810 18 56 FF D1 83 C4 04 8B C7 5F 5E 5D 5B C3 85 F6 .V......._^][...
006DD820 74 07 5F 8B C6 5E 5D 5B C3 8B 54 24 18 8B 45 0C t._..^][..T$..E.
006DD830 8B 0D F0 78 A1 00 83 C2 14 52 50 68 00 19 8D 00 ...x.....RPh....
006DD840 51 E8 8A 3D 00 00 83 C4 10 5F 5E 5D 33 C0 5B C3 Q..=....._^]3.[.
006DD850 57 8B 7C 24 08 F7 47 54 00 02 00 00 75 1D 8B 47 W.|$..GT....u..G
006DD860 0C 8B 0D 7C 6B A1 00 50 68 30 19 8D 00 51 E8 5D ...|k..Ph0...Q.]
006DD870 3D 00 00 83 C4 0C 83 C8 FF 5F C3 8B 54 24 10 53 =........_..T$.S
006DD880 8B 5C 24 10 52 53 57 E8 E4 0F 00 00 83 C4 0C 85 .\$.RSW.........
006DD890 C0 7D 06 5B 83 C8 FF 5F C3 E8 72 F2 FF FF 5B 5F .}.[..._..r...[_
006DD8A0 C3 CC CC CC CC CC CC CC CC CC CC CC CC CC CC CC ................
006DD8B0 83 EC 10 57 8B 7C 24 18 F7 47 54 00 02 00 00 75 ...W.|$..GT....u
006DD8C0 20 8B 47 0C 8B 0D 7C 6B A1 00 50 68 60 1A 8D 00  .G...|k..Ph`...
006DD8D0 51 E8 FA 3C 00 00 83 C4 0C 83 C8 FF 5F 83 C4 10 Q..<........_...
006DD8E0 C3 55 8B 6C 24 20 85 ED 75 20 8B 57 0C A1 7C 6B .U.l$ ..u .W..|k
006DD8F0 A1 00 52 68 44 1A 8D 00 50 E8 D2 3C 00 00 83 C4 ..RhD...P..<....
006DD900 0C 5D 83 C8 FF 5F 83 C4 10 C3 56 8B 75 04 81 FE .]..._....V.u...
006DD910 88 65 A1 00 74 37 68 88 65 A1 00 56 E8 4F 7D FF .e..t7h.e..V.O}.
006DD920 FF 83 C4 08 85 C0 75 25 8B 4E 0C 8B 57 0C A1 7C ......u%.N..W..|
006DD930 6B A1 00 51 52 68 14 1A 8D 00 50 E8 90 3C 00 00 k..QRh....P..<..
006DD940 83 C4 10 5E 5D 83 C8 FF 5F 83 C4 10 C3 8B 45 08 ...^]..._.....E.
006DD950 85 C0 75 22 8B 4F 0C 8B 15 7C 6B A1 00 51 68 DC ..u".O...|k..Qh.
006DD960 19 8D 00 52 E8 67 3C 00 00 83 C4 0C 5E 5D 83 C8 ...R.g<.....^]..
006DD970 FF 5F 83 C4 10 C3 85 C0 53 C7 44 24 10 00 00 00 ._......S.D$....
006DD980 00 7E 7D 8D 45 0C 89 44 24 24 8D 9B 00 00 00 00 .~}.E..D$$......
006DD990 8B 4C 24 24 8B 19 8B 73 04 81 FE 68 E9 A1 00 74 .L$$...s...h...t
006DD9A0 1E 81 FE 80 53 A1 00 74 30 68 80 53 A1 00 56 E8 ....S..t0h.S..V.
006DD9B0 BC 7C FF FF 83 C4 08 85 C0 0F 84 FE 01 00 00 81 .|..............
006DD9C0 FE 80 53 A1 00 74 12 68 80 53 A1 00 56 E8 9E 7C ..S..t.h.S..V..|
006DD9D0 FF FF 83 C4 08 85 C0 74 12 57 53 E8 90 7C FF FF .......t.WS..|..
006DD9E0 83 C4 08 85 C0 0F 85 FB 01 00 00 8B 44 24 10 83 ............D$..
006DD9F0 44 24 24 04 83 C0 01 3B 45 08 89 44 24 10 7C 90 D$$....;E..D$.|.
006DDA00 8B C5 E8 99 F2 FF FF 8B F0 85 F6 0F 84 A1 01 00 ................
006DDA10 00 8B 8F 80 00 00 00 68 60 0D 8D 00 51 E8 DE 8A .......h`...Q...
006DDA20 FF FF 83 C4 08 85 C0 0F 84 85 01 00 00 83 06 01 ................
006DDA30 83 45 00 01 8B 9F A8 00 00 00 8B 97 80 00 00 00 .E..............
006DDA40 8B 87 AC 00 00 00 57 89 5C 24 14 89 54 24 18 89 ......W.\$..T$..
006DDA50 44 24 1C 89 AF A8 00 00 00 89 B7 80 00 00 00 E8 D$..............
006DDA60 9C C6 FF FF 83 C4 04 85 C0 0F 8C C1 00 00 00 6A ...............j
006DDA70 00 E8 DA 4B 01 00 8B F0 83 C4 04 85 F6 0F 84 AD ...K............
006DDA80 00 00 00 56 57 E8 36 F1 FF FF 83 C4 08 85 C0 89 ...VW.6.........
006DDA90 44 24 1C 0F 8D 6B 01 00 00 56 33 DB E8 AF 4C 01 D$...k...V3...L.
006DDAA0 00 83 C4 04 85 C0 7E 77 8B 46 0C 8D 4C 24 1C 51 ......~w.F..L$.Q
006DDAB0 8B 0C 98 8D 54 24 28 52 6A 02 6A 02 68 8F 69 8A ....T$(Rj.j.h.i.
006DDAC0 00 51 E8 09 80 00 00 8B 54 24 3C 8B 82 AC 00 00 .Q......T$<.....
006DDAD0 00 83 00 FF 8B 44 24 3C 8B 88 AC 00 00 00 83 C4 .....D$<........
006DDAE0 18 83 39 00 75 12 8B C1 8B 50 04 50 8B 42 18 FF ..9.u....P.P.B..
006DDAF0 D0 8B 44 24 28 83 C4 04 8B 4C 24 1C 89 88 AC 00 ..D$(....L$.....
006DDB00 00 00 8B 54 24 24 8B 82 AC 00 00 00 83 00 01 56 ...T$$.........V
006DDB10 83 C3 01 E8 38 4C 01 00 83 C4 04 3B D8 7C 89 83 ....8L.....;.|..
006DDB20 06 FF 75 0C 8B 46 04 8B 48 18 56 FF D1 83 C4 04 ..u..F..H.V.....
006DDB30 8B 87 A8 00 00 00 83 00 FF 8B 87 A8 00 00 00 83 ................
006DDB40 38 00 75 0C 8B 50 04 50 8B 42 18 FF D0 83 C4 04 8.u..P.P.B......
006DDB50 8B 87 80 00 00 00 83 00 FF 8B 87 80 00 00 00 83 ................
006DDB60 38 00 75 0C 8B 48 04 8B 51 18 50 FF D2 83 C4 04 8.u..H..Q.P.....
006DDB70 8B 87 AC 00 00 00 8B 74 24 18 3B C6 74 1A 83 00 .......t$.;.t...
006DDB80 FF 8B 87 AC 00 00 00 83 38 00 75 0C 8B 48 04 8B ........8.u..H..
006DDB90 51 18 50 FF D2 83 C4 04 8B 44 24 10 8B 4C 24 14 Q.P......D$..L$.
006DDBA0 89 87 A8 00 00 00 89 8F 80 00 00 00 89 B7 AC 00 ................
006DDBB0 00 00 5B 5E 5D 83 C8 FF 5F 83 C4 10 C3 8B 4F 0C ..[^]..._.....O.
006DDBC0 8B D6 8B 42 0C 8B 15 7C 6B A1 00 50 51 68 98 19 ...B...|k..PQh..
006DDBD0 8D 00 52 E8 F8 39 00 00 83 C4 10 5B 5E 5D 83 C8 ..R..9.....[^]..
006DDBE0 FF 5F 83 C4 10 C3 A1 7C 6B A1 00 68 68 19 8D 00 ._.....|k..hh...
006DDBF0 50 E8 8A 33 00 00 83 C4 08 5B 5E 5D 83 C8 FF 5F P..3.....[^]..._
006DDC00 83 C4 10 C3 83 06 FF 75 0C 8B 56 04 8B 42 18 56 .......u..V..B.V
006DDC10 FF D0 83 C4 04 8B 5B 08 83 EB 01 78 4E 8B 4C 24 ......[....xN.L$
006DDC20 10 8D 54 99 0C 89 54 24 24 8D A4 24 00 00 00 00 ..T...T$$..$....
006DDC30 8B 44 24 24 8B 28 8B 45 04 3D 80 53 A1 00 74 12 .D$$.(.E.=.S..t.
006DDC40 68 80 53 A1 00 50 E8 25 7A FF FF 83 C4 08 85 C0 h.S..P.%z.......
006DDC50 74 09 8B F7 8B C5 E8 F5 A0 FF FF 83 6C 24 24 04 t...........l$$.
006DDC60 83 EB 01 85 DB 7D C9 8B 6C 24 28 8B 75 08 83 EE .....}..l$(.u...
006DDC70 01 78 4D 8D 6C B5 0C EB 07 8D A4 24 00 00 00 00 .xM.l......$....
006DDC80 8B 5D 00 8B 43 04 3D 80 53 A1 00 74 12 68 80 53 .]..C.=.S..t.h.S
006DDC90 A1 00 50 E8 D8 79 FF FF 83 C4 08 85 C0 74 17 57 ..P..y.......t.W
006DDCA0 8B C3 E8 09 A0 FF FF 83 C4 04 85 C0 7D 08 C7 44 ............}..D
006DDCB0 24 1C FF FF FF FF 83 EE 01 83 ED 04 85 F6 7D C0 $.............}.
006DDCC0 E8 AB B6 FF FF 83 3D 90 55 A1 00 00 BE 90 55 A1 ......=.U.....U.
006DDCD0 00 74 10 8B 5E 18 E8 35 EE FF FF 83 C6 1C 83 3E .t..^..5.......>
006DDCE0 00 75 F0 8B 44 24 10 83 00 FF 75 0C 8B 48 04 8B .u..D$....u..H..
006DDCF0 51 18 50 FF D2 83 C4 04 8B 44 24 14 83 00 FF 75 Q.P......D$....u
006DDD00 0C 8B 48 04 8B 51 18 50 FF D2 83 C4 04 8B 44 24 ..H..Q.P......D$
006DDD10 18 83 00 FF 75 0C 8B 48 04 8B 51 18 50 FF D2 83 ....u..H..Q.P...
006DDD20 C4 04 8B 44 24 1C 5B 5E 5D 5F 83 C4 10 C3 CC CC ...D$.[^]_......

;; fn006DDD30: 006DDD30
;;   Called from:
;;     0072E934 (in fn0072E920)
;;     00734DED (in fn00734BB0)
;;     007514EA (in fn007514B0)
fn006DDD30 proc
	mov	eax,[esp+4h]
	test	eax,eax
	jnz	6DDD3Dh

l006DDD38:
	jmp	6E1210h

l006DDD3D:
	mov	ecx,[esp+8h]
	mov	[eax+4h],ecx
	mov	dword ptr [eax],1h
	ret
006DDD4B                                  CC CC CC CC CC            .....

;; fn006DDD50: 006DDD50
;;   Called from:
;;     007105F9 (in fn007105C0)
;;     007106F0 (in fn00710690)
;;     0071077F (in fn00710730)
;;     00710DA7 (in fn00710CB0)
;;     007113AE (in fn00711330)
;;     0071145F (in fn00711400)
;;     00712024 (in fn00711F50)
;;     00712449 (in fn007120F0)
fn006DDD50 proc
	mov	eax,[esp+4h]
	test	eax,eax
	jnz	6DDD5Dh

l006DDD58:
	jmp	6E1210h

l006DDD5D:
	mov	ecx,[esp+0Ch]
	mov	edx,[esp+8h]
	mov	[eax+8h],ecx
	mov	[eax+4h],edx
	mov	dword ptr [eax],1h
	ret
006DDD72       CC CC CC CC CC CC CC CC CC CC CC CC CC CC   ..............

;; fn006DDD80: 006DDD80
;;   Called from:
;;     007177CB (in fn00717740)
;;     0072F1E5 (in fn0072F1E0)
;;     0072F276 (in fn0072F230)
;;     0074734D (in fn00747330)
fn006DDD80 proc
	push	esi
	mov	esi,[esp+8h]
	mov	eax,[esi+10h]
	push	eax
	call	723860h
	add	esp,4h
	test	eax,eax
	jnz	6DDD9Bh

l006DDD95:
	pop	esi
	jmp	6E1210h

l006DDD9B:
	mov	[eax+4h],esi
	mov	dword ptr [eax],1h
	pop	esi
	ret
006DDDA6                   CC CC CC CC CC CC CC CC CC CC       ..........

;; fn006DDDB0: 006DDDB0
;;   Called from:
;;     006DDEE7 (in fn006DDEB0)
;;     006DEF4D (in fn006DEEA0)
;;     00709589 (in fn00708DC0)
;;     0070A322 (in fn00708DC0)
;;     0070A38E (in fn00708DC0)
;;     0070A48F (in fn00708DC0)
;;     00712533 (in fn007120F0)
;;     007267B0 (in fn00726760)
;;     00727948 (in fn00727910)
;;     0072795B (in fn00727910)
;;     00727970 (in fn00727910)
;;     00727988 (in fn00727910)
;;     0072916D (in fn00729040)
;;     00729192 (in fn00729040)
;;     00731BA9 (in fn00731B10)
fn006DDDB0 proc
	call	72EC10h
	test	eax,eax
	jnz	6DDDD5h

l006DDDB9:
	call	6E8800h
	test	eax,eax
	jz	6DDDD8h

l006DDDC2:
	mov	eax,[0A188A8h]
	push	8D1ACCh
	push	eax
	call	6E0F80h
	add	esp,8h

l006DDDD5:
	xor	eax,eax
	ret

l006DDDD8:
	mov	ecx,[esp+4h]
	test	ecx,ecx
	jnz	6DDDEDh

l006DDDE0:
	mov	dword ptr [esp+4h],8D1AC4h
	jmp	6ECAC0h

l006DDDED:
	mov	edx,[ecx+4h]
	mov	eax,[edx+2Ch]
	test	eax,eax
	jnz	6DDE0Ah

l006DDDF7:
	push	ecx
	mov	ecx,[edx+0Ch]
	push	ecx
	push	8D1554h
	call	6F2070h
	add	esp,0Ch
	ret

l006DDE0A:
	push	esi
	push	ecx
	call	eax
	mov	esi,eax
	add	esp,4h
	test	esi,esi
	jnz	6DDE19h

l006DDE17:
	pop	esi
	ret

l006DDE19:
	mov	eax,[esi+4h]
	cmp	eax,0A23B20h
	push	edi
	jz	6DDE36h

l006DDE24:
	push	0A23B20h
	push	eax
	call	6D5670h
	add	esp,8h
	test	eax,eax
	jz	6DDE5Ch

l006DDE36:
	push	0h
	push	0h
	push	esi
	call	71FB20h
	add	esp,0Ch
	add	dword ptr [esi],0FFh
	mov	edi,eax
	jnz	6DDE56h

l006DDE4A:
	mov	edx,[esi+4h]
	mov	eax,[edx+18h]
	push	esi
	call	eax
	add	esp,4h

l006DDE56:
	test	edi,edi
	jz	6DDEA3h

l006DDE5A:
	mov	esi,edi

l006DDE5C:
	mov	eax,[esi+4h]
	cmp	eax,0A1B450h
	jz	6DDEA8h

l006DDE66:
	push	0A1B450h
	push	eax
	call	6D5670h
	add	esp,8h
	test	eax,eax
	jnz	6DDEA8h

l006DDE78:
	mov	ecx,[esi+4h]
	mov	edx,[ecx+0Ch]
	mov	eax,[0A16B7Ch]
	push	edx
	push	8D1A98h
	push	eax
	call	6E15D0h
	add	esp,0Ch
	add	dword ptr [esi],0FFh
	jnz	6DDEA3h

l006DDE97:
	mov	ecx,[esi+4h]
	mov	edx,[ecx+18h]
	push	esi
	call	edx
	add	esp,4h

l006DDEA3:
	pop	edi
	xor	eax,eax
	pop	esi
	ret

l006DDEA8:
	pop	edi
	mov	eax,esi
	pop	esi
	ret
006DDEAD                                        CC CC CC              ...

;; fn006DDEB0: 006DDEB0
;;   Called from:
;;     006DDF76 (in fn006DDF70)
fn006DDEB0 proc
	mov	eax,[esp+4h]
	test	eax,eax
	jnz	6DDEC5h

l006DDEB8:
	mov	dword ptr [esp+4h],8D1AC4h
	jmp	6ECAC0h

l006DDEC5:
	mov	ecx,[eax+4h]
	cmp	ecx,0A1B450h
	jnz	6DDED4h

l006DDED0:
	add	dword ptr [eax],1h
	ret

l006DDED4:
	cmp	ecx,0A23B20h
	jz	6DDED0h

l006DDEDC:
	mov	ecx,[ecx+44h]
	test	ecx,ecx
	jnz	6DDEECh

l006DDEE3:
	mov	[esp+4h],eax
	jmp	6DDDB0h

l006DDEEC:
	push	esi
	push	eax
	call	ecx
	mov	esi,eax
	add	esp,4h
	test	esi,esi
	jz	6DDF5Dh

l006DDEF9:
	mov	eax,[esi+4h]
	cmp	eax,0A1B450h
	jz	6DDF61h

l006DDF03:
	push	0A1B450h
	push	eax
	call	6D5670h
	add	esp,8h
	test	eax,eax
	jnz	6DDF61h

l006DDF15:
	mov	eax,[esi+4h]
	cmp	eax,0A23B20h
	jz	6DDF61h

l006DDF1F:
	push	0A23B20h
	push	eax
	call	6D5670h
	add	esp,8h
	test	eax,eax
	jnz	6DDF61h

l006DDF31:
	mov	eax,[esi+4h]
	mov	ecx,[eax+0Ch]
	mov	edx,[0A16B7Ch]
	push	ecx
	push	8D1ADCh
	push	edx
	call	6E15D0h
	add	esp,0Ch
	add	dword ptr [esi],0FFh
	jnz	6DDF5Dh

l006DDF51:
	mov	eax,[esi+4h]
	mov	ecx,[eax+18h]
	push	esi
	call	ecx
	add	esp,4h

l006DDF5D:
	xor	eax,eax
	pop	esi
	ret

l006DDF61:
	mov	eax,esi
	pop	esi
	ret
006DDF65                CC CC CC CC CC CC CC CC CC CC CC      ...........

;; fn006DDF70: 006DDF70
;;   Called from:
;;     0065722A (in fn00657140)
;;     006DEF46 (in fn006DEEA0)
;;     006E1F47 (in fn006E1DE0)
;;     006E834C (in fn006E8060)
;;     006E855C (in fn006E8430)
;;     00731B98 (in fn00731B10)
fn006DDF70 proc
	mov	eax,[esp+4h]
	push	esi
	push	eax
	call	6DDEB0h
	mov	esi,eax
	add	esp,4h
	test	esi,esi
	jnz	6DDF86h

l006DDF84:
	pop	esi
	ret

l006DDF86:
	mov	eax,[esi+4h]
	cmp	eax,0A23B20h
	push	edi
	jz	6DDFA3h

l006DDF91:
	push	0A23B20h
	push	eax
	call	6D5670h
	add	esp,8h
	test	eax,eax
	jz	6DDFC9h

l006DDFA3:
	push	0h
	push	0h
	push	esi
	call	71FB20h
	add	esp,0Ch
	add	dword ptr [esi],0FFh
	mov	edi,eax
	jnz	6DDFC3h

l006DDFB7:
	mov	ecx,[esi+4h]
	mov	edx,[ecx+18h]
	push	esi
	call	edx
	add	esp,4h

l006DDFC3:
	test	edi,edi
	jz	6DDFCEh

l006DDFC7:
	mov	esi,edi

l006DDFC9:
	pop	edi
	mov	eax,esi
	pop	esi
	ret

l006DDFCE:
	pop	edi
	xor	eax,eax
	pop	esi
	ret
006DDFD3          CC CC CC CC CC CC CC CC CC CC CC CC CC    .............

;; fn006DDFE0: 006DDFE0
;;   Called from:
;;     006DF27B (in fn006DF230)
;;     006DF31C (in fn006DF230)
;;     006DF553 (in fn006DF4C0)
fn006DDFE0 proc
	sub	esp,0Ch
	call	6E0FC0h
	test	eax,eax
	jz	6DE0B4h

l006DDFF0:
	cmp	esi,0FFh
	jz	6DE0ABh

l006DDFF9:
	cmp	esi,0FEh
	jz	6DE0ABh

l006DE002:
	lea	eax,[esp]
	push	eax
	lea	ecx,[esp+8h]
	push	ecx
	lea	edx,[esp+10h]
	push	edx
	call	6E1130h
	mov	eax,[0A18D40h]
	push	1h
	push	8D1B2Ch
	push	eax
	call	6E1970h
	add	esp,18h
	test	eax,eax
	jge	6DE095h

l006DE02E:
	mov	eax,[esp+8h]
	test	eax,eax
	jz	6DE04Eh

l006DE036:
	add	dword ptr [eax],0FFh
	mov	eax,[esp+8h]
	cmp	dword ptr [eax],0h
	jnz	6DE04Eh

l006DE042:
	mov	ecx,[eax+4h]
	mov	edx,[ecx+18h]
	push	eax
	call	edx
	add	esp,4h

l006DE04E:
	mov	eax,[esp+4h]
	test	eax,eax
	jz	6DE06Eh

l006DE056:
	add	dword ptr [eax],0FFh
	mov	eax,[esp+4h]
	cmp	dword ptr [eax],0h
	jnz	6DE06Eh

l006DE062:
	mov	ecx,[eax+4h]
	mov	edx,[ecx+18h]
	push	eax
	call	edx
	add	esp,4h

l006DE06E:
	mov	eax,[esp]
	test	eax,eax
	jz	6DE0ABh

l006DE075:
	add	dword ptr [eax],0FFh
	mov	eax,[esp]
	cmp	dword ptr [eax],0h
	jnz	6DE0ABh

l006DE080:
	mov	ecx,[eax+4h]
	mov	edx,[ecx+18h]
	push	eax
	call	edx
	add	esp,4h
	mov	eax,0FFFFFFFEh
	add	esp,0Ch
	ret

l006DE095:
	mov	eax,[esp]
	mov	ecx,[esp+4h]
	mov	edx,[esp+8h]
	push	eax
	push	ecx
	push	edx
	call	6E0E00h
	add	esp,0Ch

l006DE0AB:
	mov	eax,0FFFFFFFEh
	add	esp,0Ch
	ret

l006DE0B4:
	lea	eax,[esi+1h]
	cmp	eax,2h
	ja	6DE0C2h

l006DE0BC:
	mov	eax,esi
	add	esp,0Ch
	ret

l006DE0C2:
	mov	ecx,[0A18D40h]
	push	1h
	push	8D1B08h
	push	ecx
	call	6E1970h
	add	esp,0Ch
	test	eax,eax
	jl	6DE0ABh

l006DE0DC:
	xor	eax,eax
	cmp	esi,0FFh
	setge	al
	lea	eax,[eax+eax-1h]
	add	esp,0Ch
	ret
006DE0EC                                     CC CC CC CC             ....

;; fn006DE0F0: 006DE0F0
;;   Called from:
;;     006DF46C (in fn006DF460)
fn006DE0F0 proc
	mov	eax,[edi+4h]
	mov	ecx,[esi+4h]
	cmp	eax,ecx
	push	ebp
	mov	ebp,[esp+8h]
	jz	6DE144h

l006DE0FF:
	push	eax
	push	ecx
	call	6D5670h
	add	esp,8h
	test	eax,eax
	jz	6DE144h

l006DE10D:
	mov	eax,[esi+4h]
	test	byte ptr [eax+54h],20h
	jz	6DE144h

l006DE116:
	mov	eax,[eax+64h]
	test	eax,eax
	jz	6DE144h

l006DE11D:
	mov	ecx,[0A162C8h+ebp*4]
	push	ecx
	push	edi
	push	esi
	call	eax
	add	esp,0Ch
	cmp	eax,0A16480h
	jnz	6DE1A1h

l006DE133:
	add	dword ptr [eax],0FFh
	jnz	6DE144h

l006DE138:
	mov	edx,[eax+4h]
	push	eax
	mov	eax,[edx+18h]
	call	eax
	add	esp,4h

l006DE144:
	mov	eax,[edi+4h]
	test	byte ptr [eax+54h],20h
	jz	6DE174h

l006DE14D:
	mov	eax,[eax+64h]
	test	eax,eax
	jz	6DE174h

l006DE154:
	push	ebp
	push	esi
	push	edi
	call	eax
	add	esp,0Ch
	cmp	eax,0A16480h
	jnz	6DE1A1h

l006DE163:
	add	dword ptr [eax],0FFh
	jnz	6DE174h

l006DE168:
	mov	ecx,[eax+4h]
	mov	edx,[ecx+18h]
	push	eax
	call	edx
	add	esp,4h

l006DE174:
	mov	eax,[esi+4h]
	test	byte ptr [eax+54h],20h
	jz	6DE195h

l006DE17D:
	mov	eax,[eax+64h]
	test	eax,eax
	jz	6DE195h

l006DE184:
	mov	ecx,[0A162C8h+ebp*4]
	push	ecx
	push	edi
	push	esi
	call	eax
	add	esp,0Ch
	pop	ebp
	ret

l006DE195:
	add	dword ptr [0A16480h],1h
	mov	eax,0A16480h

l006DE1A1:
	pop	ebp
	ret
006DE1A3          CC CC CC CC CC CC CC CC CC CC CC CC CC    .............

;; fn006DE1B0: 006DE1B0
;;   Called from:
;;     006DF49E (in fn006DF460)
fn006DE1B0 proc
	mov	eax,[edi+4h]
	cmp	eax,[ebx+4h]
	jnz	6DE1C1h

l006DE1B8:
	cmp	ebx,edi
	ja	6DE1C9h

l006DE1BC:
	sbb	eax,eax
	neg	eax
	ret

l006DE1C1:
	cmp	edi,0A163B8h
	jnz	6DE1CDh

l006DE1C9:
	or	eax,0FFh
	ret

l006DE1CD:
	cmp	ebx,0A163B8h
	jnz	6DE1DBh

l006DE1D5:
	mov	eax,1h
	ret

l006DE1DB:
	push	esi
	push	edi
	call	701B20h
	add	esp,4h
	test	eax,eax
	jz	6DE1F0h

l006DE1E9:
	mov	esi,8A698Fh
	jmp	6DE1F6h

l006DE1F0:
	mov	ecx,[edi+4h]
	mov	esi,[ecx+0Ch]

l006DE1F6:
	push	ebx
	call	701B20h
	add	esp,4h
	test	eax,eax
	jz	6DE20Ah

l006DE203:
	mov	ecx,8A698Fh
	jmp	6DE210h

l006DE20A:
	mov	edx,[ebx+4h]
	mov	ecx,[edx+0Ch]

l006DE210:
	mov	eax,esi
	pop	esi

l006DE213:
	mov	dl,[eax]
	cmp	dl,[ecx]
	jnz	6DE233h

l006DE219:
	test	dl,dl
	jz	6DE22Fh

l006DE21D:
	mov	dl,[eax+1h]
	cmp	dl,[ecx+1h]
	jnz	6DE233h

l006DE225:
	add	eax,2h
	add	ecx,2h
	test	dl,dl
	jnz	6DE213h

l006DE22F:
	xor	eax,eax
	jmp	6DE238h

l006DE233:
	sbb	eax,eax
	sbb	eax,0FFh

l006DE238:
	test	eax,eax
	jl	6DE1C9h

l006DE23C:
	jg	6DE1D5h

l006DE23E:
	mov	eax,[edi+4h]
	cmp	eax,[ebx+4h]
	sbb	eax,eax
	and	eax,0FEh
	add	eax,1h
	ret
006DE24D                                        CC CC CC              ...

;; fn006DE250: 006DE250
;;   Called from:
;;     006DF4B4 (in fn006DF460)
;;     006DF56F (in fn006DF4C0)
fn006DE250 proc
	cmp	ecx,5h
	ja	6DE298h

l006DE255:
	jmp	dword ptr [6DE2ACh+ecx*4]

l006DE25C:
	xor	ecx,ecx
	test	eax,eax
	setl	cl
	mov	eax,ecx
	jmp	6DE298h

l006DE267:
	xor	edx,edx
	test	eax,eax
	setle	dl
	jmp	6DE296h

l006DE270:
	xor	ecx,ecx
	test	eax,eax
	setz	cl
	mov	eax,ecx
	jmp	6DE298h

l006DE27B:
	xor	edx,edx
	test	eax,eax
	setnz	dl
	jmp	6DE296h

l006DE284:
	xor	ecx,ecx
	test	eax,eax
	setg	cl
	mov	eax,ecx
	jmp	6DE298h

l006DE28F:
	xor	edx,edx
	test	eax,eax
	setge	dl

l006DE296:
	mov	eax,edx

l006DE298:
	test	eax,eax
	mov	eax,0A191E4h
	jnz	6DE2A6h

l006DE2A1:
	mov	eax,0A191D8h

l006DE2A6:
	add	dword ptr [eax],1h
	ret
006DE2AA                               8B FF                       ..   
l006DE2AC	dd	0x006DE25C
l006DE2B0	dd	0x006DE267
l006DE2B4	dd	0x006DE270
l006DE2B8	dd	0x006DE27B
l006DE2BC	dd	0x006DE284
l006DE2C0	dd	0x006DE28F
006DE2C4             CC CC CC CC CC CC CC CC CC CC CC CC     ............
006DE2D0 8B 44 24 04 C3 CC CC CC CC CC CC CC CC CC CC CC .D$.............

;; fn006DE2E0: 006DE2E0
;;   Called from:
;;     006FBD01 (in fn006FBCC0)
;;     006FBDDF (in fn006FBD90)
;;     006FBE0B (in fn006FBD90)
;;     006FBEAF (in fn006FBE60)
;;     00738148 (in fn00738130)
fn006DE2E0 proc
	mov	eax,[esp+4h]
	mov	ecx,[eax+4h]
	mov	edx,[ecx+3Ch]
	test	edx,edx
	jz	6DE2F4h

l006DE2EE:
	mov	[esp+4h],eax
	jmp	edx

l006DE2F4:
	cmp	dword ptr [ecx+28h],0h
	jnz	6DE306h

l006DE2FA:
	test	byte ptr [ecx+54h],20h
	jz	6DE321h

l006DE300:
	cmp	dword ptr [ecx+64h],0h
	jz	6DE321h

l006DE306:
	mov	eax,[ecx+0Ch]
	mov	ecx,[0A16B7Ch]
	push	eax
	push	8D1674h
	push	ecx
	call	6E15D0h
	add	esp,0Ch
	or	eax,0FFh

l006DE321:
	ret
006DE322       CC CC CC CC CC CC CC CC CC CC CC CC CC CC   ..............

;; fn006DE330: 006DE330
;;   Called from:
;;     006DE3FA (in fn006DE3F0)
;;     006DF795 (in fn006DF760)
;;     006F920D (in fn006F9120)
;;     00703B87 (in fn00703B60)
;;     00703DB2 (in fn00703D00)
;;     00703E81 (in fn00703D00)
;;     007081C3 (in fn007081C0)
;;     0070831E (in fn00708210)
;;     0070A7D8 (in fn00708DC0)
fn006DE330 proc
	push	ebx
	mov	ebx,[esp+8h]
	push	esi
	mov	esi,[esp+10h]
	mov	eax,[esi+4h]
	cmp	eax,0A1B450h
	push	edi
	mov	edi,[ebx+4h]
	jz	6DE3A8h

l006DE348:
	push	0A1B450h
	push	eax
	call	6D5670h
	add	esp,8h
	test	eax,eax
	jnz	6DE3A8h

l006DE35A:
	mov	eax,[esi+4h]
	cmp	eax,0A23B20h
	jz	6DE397h

l006DE364:
	push	0A23B20h
	push	eax
	call	6D5670h
	add	esp,8h
	test	eax,eax
	jnz	6DE397h

l006DE376:
	mov	eax,[esi+4h]
	mov	ecx,[eax+0Ch]
	mov	edx,[0A16B7Ch]
	push	ecx
	push	8D1B88h
	push	edx
	call	6E15D0h
	add	esp,0Ch
	pop	edi
	pop	esi
	xor	eax,eax
	pop	ebx
	ret

l006DE397:
	push	0h
	push	esi
	call	71FC50h
	mov	esi,eax
	add	esp,8h
	test	esi,esi
	jz	6DE3DDh

l006DE3A8:
	mov	eax,[edi+48h]
	test	eax,eax
	jz	6DE3BAh

l006DE3AF:
	push	esi

l006DE3B0:
	push	ebx
	call	eax
	add	esp,8h
	pop	edi
	pop	esi
	pop	ebx
	ret

l006DE3BA:
	mov	eax,[edi+20h]
	add	esi,14h
	test	eax,eax
	push	esi
	jnz	6DE3B0h

l006DE3C5:
	mov	eax,[edi+0Ch]
	mov	ecx,[0A178F0h]
	push	eax
	push	8D1B5Ch
	push	ecx
	call	6E15D0h
	add	esp,10h

l006DE3DD:
	pop	edi
	pop	esi
	xor	eax,eax
	pop	ebx
	ret
006DE3E3          CC CC CC CC CC CC CC CC CC CC CC CC CC    .............

;; fn006DE3F0: 006DE3F0
;;   Called from:
;;     006F8D5B (in fn006F8C70)
fn006DE3F0 proc
	mov	eax,[esp+8h]
	mov	ecx,[esp+4h]
	push	eax
	push	ecx
	call	6DE330h
	add	esp,8h
	test	eax,eax
	jz	6DE41Dh

l006DE406:
	add	dword ptr [eax],0FFh
	jnz	6DE417h

l006DE40B:
	mov	edx,[eax+4h]
	push	eax
	mov	eax,[edx+18h]
	call	eax
	add	esp,4h

l006DE417:
	mov	eax,1h
	ret

l006DE41D:
	call	6E1160h
	xor	eax,eax
	ret
006DE425                CC CC CC CC CC CC CC CC CC CC CC      ...........

;; fn006DE430: 006DE430
;;   Called from:
;;     006DF842 (in fn006DF800)
;;     0070A3C8 (in fn00708DC0)
;;     0070A3EB (in fn00708DC0)
fn006DE430 proc
	mov	eax,[esp+8h]
	cmp	dword ptr [eax+4h],0A1B450h
	push	esi
	push	edi
	mov	edi,[esp+0Ch]
	mov	esi,[edi+4h]
	jz	6DE4C1h

l006DE446:
	mov	eax,[eax+4h]
	push	0A1B450h
	push	eax
	call	6D5670h
	add	esp,8h
	test	eax,eax
	mov	eax,[esp+10h]
	jnz	6DE4C1h

l006DE45F:
	cmp	dword ptr [eax+4h],0A23B20h
	jz	6DE4A6h

l006DE468:
	mov	ecx,[eax+4h]
	push	0A23B20h
	push	ecx
	call	6D5670h
	add	esp,8h
	test	eax,eax
	jnz	6DE4A2h

l006DE47D:
	mov	edx,[esp+10h]
	mov	eax,[edx+4h]
	mov	ecx,[eax+0Ch]
	mov	edx,[0A16B7Ch]
	push	ecx
	push	8D1B88h
	push	edx
	call	6E15D0h
	add	esp,0Ch
	pop	edi
	or	eax,0FFh
	pop	esi
	ret

l006DE4A2:
	mov	eax,[esp+10h]

l006DE4A6:
	push	0h
	push	0h
	push	eax
	call	71FB20h
	add	esp,0Ch
	test	eax,eax
	mov	[esp+10h],eax
	jnz	6DE4C4h

l006DE4BB:
	pop	edi
	or	eax,0FFh
	pop	esi
	ret

l006DE4C1:
	add	dword ptr [eax],1h

l006DE4C4:
	lea	eax,[esp+10h]
	push	eax
	call	6EC890h
	mov	eax,[esi+4Ch]
	add	esp,4h
	test	eax,eax
	jz	6DE50Bh

l006DE4D8:
	mov	edx,[esp+10h]

l006DE4DC:
	mov	ecx,[esp+14h]
	push	ecx
	push	edx
	push	edi
	call	eax
	mov	esi,eax
	mov	eax,[esp+1Ch]
	add	dword ptr [eax],0FFh
	mov	eax,[esp+1Ch]
	add	esp,0Ch
	cmp	dword ptr [eax],0h
	jnz	6DE506h

l006DE4FA:
	mov	ecx,[eax+4h]
	mov	edx,[ecx+18h]
	push	eax
	call	edx
	add	esp,4h

l006DE506:
	pop	edi
	mov	eax,esi
	pop	esi
	ret

l006DE50B:
	mov	eax,[esi+24h]
	test	eax,eax
	jz	6DE51Bh

l006DE512:
	mov	edx,[esp+10h]
	add	edx,14h
	jmp	6DE4DCh

l006DE51B:
	mov	eax,[esp+10h]
	add	dword ptr [eax],0FFh
	mov	eax,[esp+10h]
	cmp	dword ptr [eax],0h
	jnz	6DE53Bh

l006DE52B:
	mov	ecx,[eax+4h]
	mov	edx,[ecx+18h]
	push	eax
	call	edx
	mov	eax,[esp+14h]
	add	esp,4h

l006DE53B:
	cmp	dword ptr [esi+20h],0h
	jnz	6DE57Bh

l006DE541:
	cmp	dword ptr [esi+48h],0h
	jnz	6DE57Bh

l006DE547:
	cmp	dword ptr [esp+14h],0h
	mov	ecx,8D1C2Ch
	jz	6DE558h

l006DE553:
	mov	ecx,8D1C20h

l006DE558:
	add	eax,14h
	push	eax
	mov	eax,[esi+0Ch]
	push	ecx
	mov	ecx,[0A16B7Ch]
	push	eax
	push	8D1BF0h
	push	ecx
	call	6E15D0h
	add	esp,14h
	pop	edi
	or	eax,0FFh
	pop	esi
	ret

l006DE57B:
	cmp	dword ptr [esp+14h],0h
	mov	ecx,8D1C2Ch
	jz	6DE58Ch

l006DE587:
	mov	ecx,8D1C20h

l006DE58C:
	mov	edx,[esi+0Ch]
	add	eax,14h
	push	eax
	mov	eax,[0A16B7Ch]
	push	ecx
	push	edx
	push	8D1BB4h
	push	eax
	call	6E15D0h
	add	esp,14h
	pop	edi
	or	eax,0FFh
	pop	esi
	ret
006DE5AE                                           CC CC               ..
006DE5B0 56 8B 74 24 08 8B 56 04 F7 42 54 00 01 00 00 75 V.t$..V..BT....u
006DE5C0 04 33 C0 5E C3 8B 82 90 00 00 00 85 C0 74 F2 7D .3.^.........t.}
006DE5D0 1D 8B 4E 08 85 C9 7D 02 F7 D9 57 8B 7A 14 0F AF ..N...}...W.z...
006DE5E0 F9 8B 4A 10 8D 54 0F 03 83 E2 FC 03 C2 5F 03 C6 ..J..T......._..
006DE5F0 5E C3 CC CC CC CC CC CC CC CC CC CC CC CC CC CC ^...............
006DE600 8B 44 24 04 83 00 01 C3 CC CC CC CC CC CC CC CC .D$.............
006DE610 83 EC 08 8B 44 24 0C 53 8B 58 04 56 57 8B 7C 24 ....D$.S.X.VW.|$
006DE620 1C 8B 47 04 33 F6 3D 50 B4 A1 00 89 5C 24 10 89 ..G.3.=P....\$..
006DE630 74 24 0C 74 6D 68 50 B4 A1 00 50 E8 30 70 FF FF t$.tmhP...P.0p..
006DE640 83 C4 08 85 C0 75 5B 8B 47 04 3D 20 3B A2 00 74 .....u[.G.= ;..t
006DE650 35 68 20 3B A2 00 50 E8 14 70 FF FF 83 C4 08 85 5h ;..P..p......
006DE660 C0 75 23 8B 4F 04 8B 51 0C A1 7C 6B A1 00 52 68 .u#.O..Q..|k..Rh
006DE670 88 1B 8D 00 50 E8 56 2F 00 00 83 C4 0C 5F 5E 33 ....P.V/....._^3
006DE680 C0 5B 83 C4 08 C3 56 56 57 E8 92 14 04 00 83 C4 .[....VVW.......
006DE690 0C 3B C6 89 44 24 1C 75 0E 5F 5E 33 C0 5B 83 C4 .;..D$.u._^3.[..
006DE6A0 08 C3 83 07 01 EB 04 8B 7C 24 1C 39 B3 84 00 00 ........|$.9....
006DE6B0 00 75 11 53 E8 07 BF FF FF 83 C4 04 85 C0 0F 8C .u.S............
006DE6C0 8B 01 00 00 8B 83 AC 00 00 00 55 8B 68 08 33 FF ..........U.h.3.
006DE6D0 85 ED 7E 45 8D 58 0C EB 07 8D A4 24 00 00 00 00 ..~E.X.....$....
006DE6E0 8B 03 81 78 04 68 E9 A1 00 75 05 8B 40 0C EB 06 ...x.h...u..@...
006DE6F0 8B 80 84 00 00 00 8B 4C 24 20 51 50 E8 BF D5 01 .......L$ QP....
006DE700 00 8B F0 83 C4 08 85 F6 75 0C 83 C7 01 83 C3 04 ........u.......
006DE710 3B FD 7C CC EB 03 83 06 01 33 DB 85 F6 74 4C 8B ;.|......3...tL.
006DE720 46 04 F7 40 54 00 01 00 00 74 40 8B 98 88 00 00 F..@T....t@.....
006DE730 00 85 DB 74 36 83 B8 8C 00 00 00 00 74 2D 8B 44 ...t6.......t-.D
006DE740 24 1C 8B 50 04 52 50 56 FF D3 83 C4 0C 83 06 FF $..P.RPV........
006DE750 89 44 24 10 0F 85 F0 00 00 00 8B 46 04 8B 48 18 .D$........F..H.
006DE760 56 FF D1 83 C4 04 E9 DF 00 00 00 8B 54 24 14 8B V...........T$..
006DE770 82 90 00 00 00 85 C0 8B 6C 24 1C 74 7D 7D 1B 8B ........l$.t}}..
006DE780 4D 08 85 C9 7D 02 F7 D9 8B 7A 14 0F AF F9 8B 4A M...}....z.....J
006DE790 10 8D 4C 0F 03 83 E1 FC 03 C1 8B 3C 28 85 FF 74 ..L........<(..t
006DE7A0 59 8B 54 24 20 83 07 01 52 57 E8 11 D5 01 00 83 Y.T$ ...RW......
006DE7B0 C4 08 85 C0 89 44 24 10 74 2B 83 00 01 85 F6 74 .....D$.t+.....t
006DE7C0 11 83 06 FF 75 0C 8B 46 04 8B 48 18 56 FF D1 83 ....u..F..H.V...
006DE7D0 C4 04 83 07 FF 75 73 8B 57 04 8B 42 18 57 FF D0 .....us.W..B.W..
006DE7E0 83 C4 04 EB 65 83 07 FF 75 0C 8B 4F 04 8B 51 18 ....e...u..O..Q.
006DE7F0 57 FF D2 83 C4 04 8B 54 24 14 85 DB 74 22 8B 45 W......T$...t".E
006DE800 04 50 55 56 FF D3 83 C4 0C 83 06 FF 89 44 24 10 .PUV.........D$.
006DE810 75 38 8B 4E 04 8B 51 18 56 FF D2 83 C4 04 EB 2A u8.N..Q.V......*
006DE820 85 F6 74 06 89 74 24 10 EB 20 8B 44 24 20 8B 4A ..t..t$.. .D$ .J
006DE830 0C 8B 15 F0 78 A1 00 83 C0 14 50 51 68 5C 1B 8D ....x.....PQh\..
006DE840 00 52 E8 89 2D 00 00 83 C4 10 8B 7C 24 20 5D 83 .R..-......|$ ].
006DE850 07 FF 75 0C 8B 47 04 8B 48 18 57 FF D1 83 C4 04 ..u..G..H.W.....
006DE860 8B 44 24 0C 5F 5E 5B 83 C4 08 C3 CC CC CC CC CC .D$._^[.........
006DE870 83 EC 08 53 56 8B 74 24 14 8B 5E 04 57 8B 7C 24 ...SV.t$..^.W.|$
006DE880 1C 8B 47 04 3D 50 B4 A1 00 89 5C 24 10 C7 44 24 ..G.=P....\$..D$
006DE890 0C FF FF FF FF 74 70 68 50 B4 A1 00 50 E8 CE 6D .....tphP...P..m
006DE8A0 FF FF 83 C4 08 85 C0 75 5E 8B 47 04 3D 20 3B A2 .......u^.G.= ;.
006DE8B0 00 74 37 68 20 3B A2 00 50 E8 B2 6D FF FF 83 C4 .t7h ;..P..m....
006DE8C0 08 85 C0 75 25 8B 47 04 8B 48 0C 8B 15 7C 6B A1 ...u%.G..H...|k.
006DE8D0 00 51 68 88 1B 8D 00 52 E8 F3 2C 00 00 83 C4 0C .Qh....R..,.....
006DE8E0 5F 5E 83 C8 FF 5B 83 C4 08 C3 6A 00 6A 00 57 E8 _^...[....j.j.W.
006DE8F0 2C 12 04 00 8B F8 83 C4 0C 85 FF 75 0D 5F 5E 83 ,..........u._^.
006DE900 C8 FF 5B 83 C4 08 C3 83 07 01 83 BB 84 00 00 00 ..[.............
006DE910 00 75 11 53 E8 A7 BC FF FF 83 C4 04 85 C0 0F 8C .u.S............
006DE920 43 01 00 00 55 57 53 E8 34 77 FF FF 8B E8 83 C4 C...UWS.4w......
006DE930 08 33 C0 85 ED BA 00 01 00 00 74 27 8B 4D 04 85 .3........t'.M..
006DE940 51 54 74 1F 8B 81 8C 00 00 00 85 C0 74 15 8B 4C QTt.........t..L
006DE950 24 24 51 56 55 FF D0 83 C4 0C 89 44 24 10 E9 03 $$QVU......D$...
006DE960 01 00 00 8B 4E 04 85 51 54 0F 84 BA 00 00 00 8B ....N..QT.......
006DE970 91 90 00 00 00 85 D2 0F 84 AC 00 00 00 7D 1F 8B .............}..
006DE980 76 08 85 F6 7D 02 F7 DE 8B 59 14 8B 49 10 0F AF v...}....Y..I...
006DE990 DE 8B 74 24 1C 8D 4C 0B 03 83 E1 FC 03 D1 8D 1C ..t$..L.........
006DE9A0 32 85 DB 74 7C 8B 33 85 F6 75 17 39 74 24 24 74 2..t|.3..u.9t$$t
006DE9B0 70 E8 0A F3 01 00 8B F0 85 F6 0F 84 A6 00 00 00 p...............
006DE9C0 89 33 8B 44 24 24 83 06 01 85 C0 75 0C 57 56 E8 .3.D$$.....u.WV.
006DE9D0 8C D4 01 00 83 C4 08 EB 0B 50 57 56 E8 AF D3 01 .........PWV....
006DE9E0 00 83 C4 0C 85 C0 89 44 24 10 7D 22 8B 15 28 7E .......D$.}"..(~
006DE9F0 A1 00 52 E8 18 27 00 00 83 C4 04 85 C0 74 0F A1 ..R..'.......t..
006DEA00 F0 78 A1 00 57 50 E8 85 24 00 00 83 C4 08 83 06 .x..WP..$.......
006DEA10 FF 75 53 8B 4E 04 8B 51 18 56 FF D2 83 C4 04 EB .uS.N..Q.V......
006DEA20 45 8B 74 24 1C 8B 5C 24 14 85 C0 74 12 8B 4C 24 E.t$..\$...t..L$
006DEA30 24 51 56 55 FF D0 83 C4 0C 89 44 24 10 EB 27 85 $QVU......D$..'.
006DEA40 ED 8B 43 0C 8B 0D F0 78 A1 00 8D 57 14 52 50 75 ..C....x...W.RPu
006DEA50 07 68 60 1C 8D 00 EB 05 68 30 1C 8D 00 51 E8 6D .h`.....h0...Q.m
006DEA60 2B 00 00 83 C4 10 5D 83 07 FF 75 0C 8B 57 04 8B +.....]...u..W..
006DEA70 42 18 57 FF D0 83 C4 04 8B 44 24 0C 5F 5E 5B 83 B.W......D$._^[.
006DEA80 C4 08 C3 CC CC CC CC CC CC CC CC CC CC CC CC CC ................

;; fn006DEA90: 006DEA90
;;   Called from:
;;     006DF5F2 (in fn006DF5A0)
;;     006F900F (in fn006F8EC0)
;;     0070952A (in fn00708DC0)
;;     0070A9CB (in fn00708DC0)
;;     0070A9F9 (in fn00708DC0)
;;     0070ABFB (in fn00708DC0)
;;     007267B8 (in fn00726760)
;;     00726BDE (in fn00726930)
;;     007282ED (in fn007282B0)
;;     007282FA (in fn007282B0)
fn006DEA90 proc
	mov	edx,[esp+4h]
	cmp	edx,0A191E4h
	jz	6DEAEBh

l006DEA9C:
	cmp	edx,0A191D8h
	jnz	6DEAA7h

l006DEAA4:
	xor	eax,eax
	ret

l006DEAA7:
	cmp	edx,0A163B8h
	jz	6DEAA4h

l006DEAAF:
	mov	eax,[edx+4h]
	mov	ecx,[eax+30h]
	test	ecx,ecx
	jz	6DEAC0h

l006DEAB9:
	mov	ecx,[ecx+28h]
	test	ecx,ecx
	jnz	6DEAE1h

l006DEAC0:
	mov	ecx,[eax+38h]
	test	ecx,ecx
	jz	6DEAD3h

l006DEAC7:
	cmp	dword ptr [ecx],0h
	jz	6DEAD3h

l006DEACC:
	mov	eax,[ecx]
	push	edx
	call	eax
	jmp	6DEAE4h

l006DEAD3:
	mov	eax,[eax+34h]
	test	eax,eax
	jz	6DEAEBh

l006DEADA:
	cmp	dword ptr [eax],0h
	jz	6DEAEBh

l006DEADF:
	mov	ecx,[eax]

l006DEAE1:
	push	edx
	call	ecx

l006DEAE4:
	add	esp,4h
	test	eax,eax
	jle	6DEAF0h

l006DEAEB:
	mov	eax,1h

l006DEAF0:
	ret
006DEAF1    CC CC CC CC CC CC CC CC CC CC CC CC CC CC CC  ...............
006DEB00 8B 44 24 04 50 E8 86 FF FF FF 83 C4 04 85 C0 7C .D$.P..........|
006DEB10 09 33 C9 85 C0 0F 94 C1 8B C1 C3 CC CC CC CC CC .3..............

;; fn006DEB20: 006DEB20
;;   Called from:
;;     006DEB9A (in fn006DEB90)
;;     006DF2A8 (in fn006DF230)
;;     00701C65 (in fn00701B50)
fn006DEB20 proc
	push	ebx
	mov	ebx,[esp+0Ch]
	push	esi
	mov	esi,[ebx]
	push	edi
	mov	edi,[esp+10h]
	mov	eax,[edi]
	mov	ecx,[eax+4h]
	cmp	ecx,[esi+4h]
	jnz	6DEB49h

l006DEB37:
	test	byte ptr [ecx+54h],10h
	jnz	6DEB49h

l006DEB3D:
	add	dword ptr [eax],1h
	add	dword ptr [esi],1h
	pop	edi
	pop	esi
	xor	eax,eax
	pop	ebx
	ret

l006DEB49:
	mov	ecx,[ecx+30h]
	test	ecx,ecx
	jz	6DEB62h

l006DEB50:
	mov	eax,[ecx+44h]
	test	eax,eax
	jz	6DEB62h

l006DEB57:
	push	ebx
	push	edi
	call	eax
	add	esp,8h
	test	eax,eax
	jle	6DEB83h

l006DEB62:
	mov	eax,[esi+4h]
	mov	eax,[eax+30h]
	test	eax,eax
	jz	6DEB7Eh

l006DEB6C:
	mov	eax,[eax+44h]
	test	eax,eax
	jz	6DEB7Eh

l006DEB73:
	push	edi
	push	ebx
	call	eax
	add	esp,8h
	test	eax,eax
	jle	6DEB83h

l006DEB7E:
	mov	eax,1h

l006DEB83:
	pop	edi
	pop	esi
	pop	ebx
	ret
006DEB87                      CC CC CC CC CC CC CC CC CC        .........

;; fn006DEB90: 006DEB90
;;   Called from:
;;     00701EDF (in fn00701D30)
;;     00701F43 (in fn00701D30)
;;     00701F6F (in fn00701D30)
fn006DEB90 proc
	mov	eax,[esp+8h]
	mov	ecx,[esp+4h]
	push	eax
	push	ecx
	call	6DEB20h
	add	esp,8h
	test	eax,eax
	jle	6DEBBDh

l006DEBA6:
	mov	edx,[0A16B7Ch]
	push	8D1C8Ch
	push	edx
	call	6E0F80h
	add	esp,8h
	or	eax,0FFh

l006DEBBD:
	ret
006DEBBE                                           CC CC               ..
006DEBC0 C7 44 24 04 D0 BD 8A 00 E9 F3 DE 00 00 CC CC CC .D$.............
006DEBD0 C7 44 24 04 A4 1C 8D 00 E9 13 9B 00 00 CC CC CC .D$.............
006DEBE0 C7 44 24 04 B8 1C 8D 00 E9 D3 DE 00 00 CC CC CC .D$.............
006DEBF0 68 80 53 A1 00 E8 C6 B9 FF FF 83 C4 04 85 C0 7D h.S............}
006DEC00 0D 68 70 1D 8D 00 E8 E5 9A 00 00 83 C4 04 68 58 .hp...........hX
006DEC10 C7 A1 00 E8 A8 B9 FF FF 83 C4 04 85 C0 7D 0D 68 .............}.h
006DEC20 54 1D 8D 00 E8 C7 9A 00 00 83 C4 04 68 18 91 A1 T...........h...
006DEC30 00 E8 8A B9 FF FF 83 C4 04 85 C0 7D 0D 68 3C 1D ...........}.h<.
006DEC40 8D 00 E8 A9 9A 00 00 83 C4 04 68 50 B4 A1 00 E8 ..........hP....
006DEC50 6C B9 FF FF 83 C4 04 85 C0 7D 0D 68 24 1D 8D 00 l........}.h$...
006DEC60 E8 8B 9A 00 00 83 C4 04 68 F0 BA A1 00 E8 4E B9 ........h.....N.
006DEC70 FF FF 83 C4 04 85 C0 7D 0D 68 0C 1D 8D 00 E8 6D .......}.h.....m
006DEC80 9A 00 00 83 C4 04 68 F8 62 A1 00 E8 30 B9 FF FF ......h.b...0...
006DEC90 83 C4 04 85 C0 7D 0D 68 F0 1C 8D 00 E8 4F 9A 00 .....}.h.....O..
006DECA0 00 83 C4 04 68 C0 63 A1 00 E8 12 B9 FF FF 83 C4 ....h.c.........
006DECB0 04 85 C0 7D 0B 68 C8 1C 8D 00 E8 31 9A 00 00 59 ...}.h.....1...Y
006DECC0 C3 CC CC CC CC CC CC CC CC CC CC CC CC CC CC CC ................

;; fn006DECD0: 006DECD0
;;   Called from:
;;     00726850 (in fn00726840)
;;     00726994 (in fn00726930)
;;     007269C7 (in fn00726930)
;;     00748674 (in fn00748670)
fn006DECD0 proc
	mov	eax,[esp+4h]
	test	eax,eax
	jnz	6DECDDh

l006DECD8:
	mov	eax,1h

l006DECDD:
	mov	[esp+4h],eax
	jmp	dword ptr [8A45BCh]
006DECE7                      CC CC CC CC CC CC CC CC CC        .........
006DECF0 8B 44 24 08 85 C0 75 05 B8 01 00 00 00 89 44 24 .D$...u.......D$
006DED00 08 FF 25 94 45 8A 00 CC CC CC CC CC CC CC CC CC ..%.E...........
006DED10 FF 25 D4 45 8A 00 CC CC CC CC CC CC CC CC CC CC .%.E............
006DED20 57 E8 9A 6B 03 00 8B F8 85 FF 75 02 5F C3 56 68 W..k......u._.Vh
006DED30 88 1D 8D 00 57 E8 76 EB 01 00 8B F0 83 C4 08 85 ....W.v.........
006DED40 F6 75 39 50 E8 07 39 01 00 8B F0 83 C4 04 85 F6 .u9P..9.........
006DED50 74 13 56 68 88 1D 8D 00 57 E8 92 EB 01 00 83 C4 t.Vh....W.......
006DED60 0C 85 C0 7D 06 5E 83 C8 FF 5F C3 83 06 FF 75 0C ...}.^..._....u.
006DED70 8B 46 04 8B 48 18 56 FF D1 83 C4 04 8B 46 08 83 .F..H.V......F..
006DED80 E8 01 8B 54 24 0C 78 16 8B 4E 0C 8D 0C 81 8B FF ...T$.x..N......
006DED90 39 11 74 19 83 E8 01 83 E9 04 85 C0 7D F2 52 56 9.t.........}.RV
006DEDA0 E8 6B 3C 01 00 83 C4 08 5E 33 C0 5F C3 5E B8 01 .k<.....^3._.^..
006DEDB0 00 00 00 5F C3 CC CC CC CC CC CC CC CC CC CC CC ..._............
006DEDC0 E8 FB 6A 03 00 85 C0 74 68 56 68 88 1D 8D 00 50 ..j....thVh....P
006DEDD0 E8 DB EA 01 00 8B F0 83 C4 08 85 F6 74 52 8B 46 ............tR.F
006DEDE0 04 3D F0 BA A1 00 74 12 68 F0 BA A1 00 50 E8 7D .=....t.h....P.}
006DEDF0 68 FF FF 83 C4 08 85 C0 74 36 8B 46 08 83 E8 01 h.......t6.F....
006DEE00 78 2E 8B 4E 0C 8B 54 24 08 8D 0C 81 8D 64 24 00 x..N..T$.....d$.
006DEE10 39 11 74 0C 83 E8 01 83 E9 04 85 C0 7D F2 5E C3 9.t.........}.^.
006DEE20 6A 00 8D 50 01 52 50 56 E8 83 46 01 00 83 C4 10 j..P.RPV..F.....
006DEE30 5E C3 CC CC CC CC CC CC CC CC CC CC CC CC CC CC ^...............
006DEE40 8B 44 24 04 8B 0D C8 C4 A6 00 89 48 F4 A3 C8 C4 .D$........H....
006DEE50 A6 00 C3 CC CC CC CC CC CC CC CC CC CC CC CC CC ................
006DEE60 A1 C8 C4 A6 00 85 C0 74 32 56 BE 01 00 00 00 90 .......t2V......
006DEE70 8B 48 04 8B 50 F4 8B 49 18 01 35 C4 C4 A6 00 50 .H..P..I..5....P
006DEE80 89 15 C8 C4 A6 00 FF D1 A1 C8 C4 A6 00 29 35 C4 .............)5.
006DEE90 C4 A6 00 83 C4 04 85 C0 75 D6 5E C3 CC CC CC CC ........u.^.....

;; fn006DEEA0: 006DEEA0
;;   Called from:
;;     006DEF63 (in fn006DEEA0)
;;     006DEFD1 (in fn006DEFC0)
fn006DEEA0 proc
	push	ebx
	push	ebp
	mov	ebp,[esp+18h]
	xor	ebx,ebx
	cmp	ebp,0Ah
	jle	6DEEC6h

l006DEEAD:
	mov	eax,[0A175E0h]
	push	8D1DACh
	push	eax
	call	6E0F80h
	add	esp,8h

l006DEEC0:
	pop	ebp
	or	eax,0FFh
	pop	ebx
	ret

l006DEEC6:
	call	72EC10h
	test	eax,eax
	jnz	6DEEC0h

l006DEECF:
	call	6E8800h
	test	eax,eax
	jz	6DEEF2h

l006DEED8:
	mov	ecx,[0A188A8h]
	push	8D1ACCh
	push	ecx
	call	6E0F80h
	add	esp,8h
	pop	ebp
	or	eax,0FFh
	pop	ebx
	ret

l006DEEF2:
	push	esi
	push	edi
	mov	edi,[esp+18h]
	push	edi
	call	dword ptr [8A4588h]
	mov	eax,[esp+18h]
	add	esp,4h
	test	eax,eax
	jnz	6DEF1Bh

l006DEF0A:
	push	8D1DA4h
	push	edi
	call	dword ptr [8A45E0h]
	add	esp,8h
	jmp	6DEF92h

l006DEF1B:
	mov	ecx,[eax]
	test	ecx,ecx
	jg	6DEF34h

l006DEF21:
	push	eax
	push	ecx
	push	8D1D90h
	push	edi
	call	dword ptr [8A45E0h]
	add	esp,10h
	jmp	6DEF92h

l006DEF34:
	mov	edx,[eax+4h]
	mov	ecx,[edx+1Ch]
	test	ecx,ecx
	jnz	6DEF80h

l006DEF3E:
	test	byte ptr [esp+1Ch],1h
	push	eax
	jz	6DEF4Dh

l006DEF46:
	call	6DDF70h
	jmp	6DEF52h

l006DEF4D:
	call	6DDDB0h

l006DEF52:
	mov	esi,eax
	add	esp,4h
	test	esi,esi
	jz	6DEFB5h

l006DEF5B:
	add	ebp,1h
	push	ebp
	push	1h
	push	edi
	push	esi
	call	6DEEA0h
	add	esp,10h
	add	dword ptr [esi],0FFh
	mov	ebx,eax
	jnz	6DEF8Eh

l006DEF72:
	mov	eax,[esi+4h]
	mov	ecx,[eax+18h]
	push	esi
	call	ecx
	add	esp,4h
	jmp	6DEF8Eh

l006DEF80:
	mov	edx,[esp+1Ch]
	push	edx
	push	edi
	push	eax
	call	ecx
	add	esp,0Ch
	mov	ebx,eax

l006DEF8E:
	test	ebx,ebx
	jnz	6DEFB8h

l006DEF92:
	push	edi
	call	dword ptr [8A458Ch]
	add	esp,4h
	test	eax,eax
	jz	6DEFB8h

l006DEFA0:
	mov	eax,[0A17258h]
	push	eax
	call	6E13F0h
	push	edi
	call	dword ptr [8A4588h]
	add	esp,8h

l006DEFB5:
	or	ebx,0FFh

l006DEFB8:
	pop	edi
	pop	esi
	pop	ebp
	mov	eax,ebx
	pop	ebx
	ret
006DEFBF                                              CC                .

;; fn006DEFC0: 006DEFC0
;;   Called from:
;;     006E8D3B (in fn006E8D90)
;;     00731D0A (in fn00731B10)
fn006DEFC0 proc
	mov	eax,[esp+0Ch]
	mov	ecx,[esp+8h]
	mov	edx,[esp+4h]
	push	0h
	push	eax
	push	ecx
	push	edx
	call	6DEEA0h
	add	esp,10h
	ret
006DEFDA                               CC CC CC CC CC CC           ......
006DEFE0 56 8B 74 24 08 85 F6 57 75 40 68 C4 1A 8D 00 E8 V.t$...Wu@h.....
006DEFF0 CC DA 00 00 8B F0 83 C4 04 85 F6 75 05 5F 33 C0 ...........u._3.
006DF000 5E C3 68 C8 1D 8D 00 6A 00 56 E8 61 10 04 00 83 ^.h....j.V.a....
006DF010 C4 0C 83 06 FF 8B F8 75 0C 8B 46 04 8B 48 18 56 .......u..F..H.V
006DF020 FF D1 83 C4 04 8B C7 5F 5E C3 81 7E 04 20 3B A2 ......._^..~. ;.
006DF030 00 75 08 83 06 01 5F 8B C6 5E C3 A1 C0 C4 A6 00 .u...._..^......
006DF040 85 C0 75 16 68 BC 1D 8D 00 E8 22 2A 01 00 83 C4 ..u.h....."*....
006DF050 04 85 C0 A3 C0 C4 A6 00 74 A3 50 56 E8 CF F2 FF ........t.PV....
006DF060 FF 8B F8 83 C4 08 85 FF 74 1F 6A 00 6A 00 57 E8 ........t.j.j.W.
006DF070 0C 86 02 00 83 C4 0C 83 07 FF 8B F0 75 55 8B 57 ............uU.W
006DF080 04 8B 42 18 57 FF D0 EB 47 E8 D2 20 00 00 8B 46 ..B.W...G.. ...F
006DF090 04 3D 20 3B A2 00 0F 84 84 00 00 00 68 20 3B A2 .= ;........h ;.
006DF0A0 00 50 E8 C9 65 FF FF 83 C4 08 85 C0 75 72 8B 46 .P..e.......ur.F
006DF0B0 04 3D 50 B4 A1 00 75 05 83 06 01 EB 16 8B 40 44 .=P...u.......@D
006DF0C0 85 C0 56 74 04 FF D0 EB 05 E8 E2 EC FF FF 8B F0 ..Vt............
006DF0D0 83 C4 04 85 F6 0F 84 22 FF FF FF 8B 46 04 3D 20 ......."....F.= 
006DF0E0 3B A2 00 74 36 68 20 3B A2 00 50 E8 80 65 FF FF ;..t6h ;..P..e..
006DF0F0 83 C4 08 85 C0 75 24 68 C8 1D 8D 00 50 56 E8 6D .....u$h....PV.m
006DF100 0F 04 00 83 C4 0C 83 06 FF 8B F8 75 0C 8B 4E 04 ...........u..N.
006DF110 8B 51 18 56 FF D2 83 C4 04 8B F7 5F 8B C6 5E C3 .Q.V......._..^.
006DF120 8B 46 08 8B 4E 0C 50 51 E8 F3 88 03 00 83 C4 08 .F..N.PQ........
006DF130 5F 5E C3 CC CC CC CC CC CC CC CC CC CC CC CC CC _^..............
006DF140 56 57 8B F9 8B F0 8B 47 04 B1 20 84 48 54 74 06 VW.....G.. .HTt.
006DF150 83 78 64 00 75 0E 8B 46 04 84 48 54 74 38 83 78 .xd.u..F..HTt8.x
006DF160 64 00 74 32 8B 44 24 0C 50 E8 82 EF FF FF 8B F0 d.t2.D$.P.......
006DF170 83 C4 04 85 F6 75 06 5F 83 C8 FF 5E C3 81 FE 80 .....u._...^....
006DF180 64 A1 00 75 19 83 06 FF 75 0C 8B 4E 04 8B 51 18 d..u....u..N..Q.
006DF190 56 FF D2 83 C4 04 5F B8 02 00 00 00 5E C3 56 E8 V....._.....^.V.
006DF1A0 EC F8 FF FF 83 C4 04 83 06 FF 8B F8 75 0C 8B 46 ............u..F
006DF1B0 04 8B 48 18 56 FF D1 83 C4 04 8B C7 5F 5E C3 CC ..H.V......._^..
006DF1C0 8B 47 04 B1 20 84 48 54 74 06 83 78 64 00 75 14 .G.. .HTt..xd.u.
006DF1D0 8B 43 04 84 48 54 74 06 83 78 64 00 75 06 B8 02 .C..HTt..xd.u...
006DF1E0 00 00 00 C3 56 33 F6 EB 07 8D A4 24 00 00 00 00 ....V3.....$....
006DF1F0 8B 04 F5 E0 62 A1 00 50 8B C3 8B CF E8 3F FF FF ....b..P.....?..
006DF200 FF 83 C4 04 83 F8 FF 74 1D 83 F8 01 74 0F 83 C6 .......t....t...
006DF210 01 83 FE 03 7C DA B8 02 00 00 00 5E C3 8B 04 F5 ....|......^....
006DF220 E4 62 A1 00 5E C3 B8 FE FF FF FF 5E C3 CC CC CC .b..^......^....

;; fn006DF230: 006DF230
;;   Called from:
;;     006DF48E (in fn006DF460)
fn006DF230 proc
	mov	edx,[esp+4h]
	mov	ecx,[edx+4h]
	mov	eax,[esp+8h]
	mov	ecx,[ecx+28h]
	push	esi
	mov	esi,0A1EB98h
	cmp	[edx+4h],esi
	jnz	6DF252h

l006DF249:
	push	eax
	push	edx
	call	ecx
	add	esp,8h
	pop	esi
	ret

l006DF252:
	cmp	[eax+4h],esi
	jnz	6DF266h

l006DF257:
	mov	ecx,[eax+4h]
	push	eax
	push	edx
	mov	edx,[ecx+28h]
	call	edx
	add	esp,8h
	pop	esi
	ret

l006DF266:
	test	ecx,ecx
	jz	6DF282h

l006DF26A:
	mov	esi,[eax+4h]
	cmp	ecx,[esi+28h]
	jnz	6DF282h

l006DF272:
	push	eax
	push	edx
	call	ecx
	add	esp,8h
	mov	esi,eax
	call	6DDFE0h
	pop	esi
	ret

l006DF282:
	cmp	ecx,6DC290h
	jz	6DF35Eh

l006DF28E:
	mov	ecx,[eax+4h]
	cmp	dword ptr [ecx+28h],6DC290h
	jz	6DF35Eh

l006DF29E:
	lea	edx,[esp+0Ch]
	push	edx
	lea	eax,[esp+0Ch]
	push	eax
	call	6DEB20h
	add	esp,8h
	test	eax,eax
	jge	6DF2BBh

l006DF2B4:
	mov	eax,0FFFFFFFEh
	pop	esi
	ret

l006DF2BB:
	jg	6DF357h

l006DF2C1:
	mov	eax,[esp+8h]
	mov	ecx,[eax+4h]
	mov	ecx,[ecx+28h]
	test	ecx,ecx
	jz	6DF323h

l006DF2CF:
	mov	edx,[esp+0Ch]
	mov	esi,[edx+4h]
	cmp	ecx,[esi+28h]
	jnz	6DF323h

l006DF2DB:
	push	edx
	push	eax
	call	ecx
	mov	esi,eax
	mov	eax,[esp+10h]
	add	dword ptr [eax],0FFh
	mov	eax,[esp+10h]
	add	esp,8h
	cmp	dword ptr [eax],0h
	jnz	6DF300h

l006DF2F4:
	mov	edx,[eax+4h]
	push	eax
	mov	eax,[edx+18h]
	call	eax
	add	esp,4h

l006DF300:
	mov	eax,[esp+0Ch]
	add	dword ptr [eax],0FFh
	mov	eax,[esp+0Ch]
	cmp	dword ptr [eax],0h
	jnz	6DF31Ch

l006DF310:
	mov	ecx,[eax+4h]
	mov	edx,[ecx+18h]
	push	eax
	call	edx
	add	esp,4h

l006DF31C:
	call	6DDFE0h
	pop	esi
	ret

l006DF323:
	add	dword ptr [eax],0FFh
	mov	eax,[esp+8h]
	cmp	dword ptr [eax],0h
	jnz	6DF33Bh

l006DF32F:
	mov	ecx,[eax+4h]
	mov	edx,[ecx+18h]
	push	eax
	call	edx
	add	esp,4h

l006DF33B:
	mov	eax,[esp+0Ch]
	add	dword ptr [eax],0FFh
	mov	eax,[esp+0Ch]
	cmp	dword ptr [eax],0h
	jnz	6DF357h

l006DF34B:
	mov	ecx,[eax+4h]
	mov	edx,[ecx+18h]
	push	eax
	call	edx
	add	esp,4h

l006DF357:
	mov	eax,2h
	pop	esi
	ret

l006DF35E:
	push	eax
	push	edx
	call	6DC290h
	add	esp,8h
	pop	esi
	ret
006DF36A                               CC CC CC CC CC CC           ......
006DF370 53 57 8B D8 8B F9 8B 47 04 3B 43 04 75 1C 8B 40 SW.....G.;C.u..@
006DF380 28 85 C0 74 15 53 57 FF D0 83 C4 08 81 7F 04 98 (..t.SW.........
006DF390 EB A1 00 75 26 83 F8 02 75 1E E8 21 FE FF FF 83 ...u&...u..!....
006DF3A0 F8 02 7C 14 53 57 E8 85 FE FF FF 83 C4 08 83 F8 ..|.SW..........
006DF3B0 02 7C 05 E8 F8 ED FF FF 5F 5B C3 56 8B F0 E8 1D .|......_[.V....
006DF3C0 EC FF FF 5E 5F 5B C3 CC CC CC CC CC CC CC CC CC ...^_[..........
006DF3D0 56 57 8B 7C 24 0C 85 FF 74 60 8B 74 24 10 85 F6 VW.|$...t`.t$...
006DF3E0 74 58 3B FE 75 05 5F 33 C0 5E C3 A1 7C D6 A6 00 tX;.u._3.^..|...
006DF3F0 83 40 0C 01 A1 AC E8 A1 00 8B 0D 7C D6 A6 00 83 .@.........|....
006DF400 E8 01 A3 AC E8 A1 00 39 41 0C 7E 11 68 E4 1D 8D .......9A.~.h...
006DF410 00 E8 AA 79 02 00 83 C4 04 85 C0 75 2F 8B C6 8B ...y.......u/...
006DF420 CF E8 4A FF FF FF 8B 0D 7C D6 A6 00 83 41 0C FF ..J.....|....A..
006DF430 85 C0 7D 1B 5F 83 C8 FF 5E C3 68 3D 03 00 00 68 ..}._...^.h=...h
006DF440 D0 1D 8D 00 E8 77 29 00 00 83 C4 08 83 C8 FF 5F .....w)........_
006DF450 5E C3 CC CC CC CC CC CC CC CC CC CC CC CC CC CC ^...............

;; fn006DF460: 006DF460
;;   Called from:
;;     006DF587 (in fn006DF4C0)
fn006DF460 proc
	push	ebp
	mov	ebp,[esp+8h]
	push	esi
	push	edi
	mov	esi,eax
	mov	edi,ecx
	push	ebp
	call	6DE0F0h
	add	esp,4h
	cmp	eax,0A16480h
	jnz	6DF4ABh

l006DF47B:
	add	dword ptr [eax],0FFh
	jnz	6DF48Ch

l006DF480:
	mov	ecx,[eax+4h]
	mov	edx,[ecx+18h]
	push	eax
	call	edx
	add	esp,4h

l006DF48C:
	push	esi
	push	edi
	call	6DF230h
	add	esp,8h
	cmp	eax,2h
	jl	6DF4A4h

l006DF49B:
	push	ebx
	mov	ebx,esi
	call	6DE1B0h
	pop	ebx

l006DF4A4:
	cmp	eax,0FEh
	jg	6DF4AFh

l006DF4A9:
	xor	eax,eax

l006DF4AB:
	pop	edi
	pop	esi
	pop	ebp
	ret

l006DF4AF:
	pop	edi
	pop	esi
	mov	ecx,ebp
	pop	ebp
	jmp	6DE250h
006DF4B9                            CC CC CC CC CC CC CC          .......

;; fn006DF4C0: 006DF4C0
;;   Called from:
;;     006DF5C7 (in fn006DF5A0)
;;     0070819E (in fn00708130)
fn006DF4C0 proc
	mov	eax,[0A6D67Ch]
	add	dword ptr [eax+0Ch],1h
	mov	eax,[0A1E8ACh]
	mov	ecx,[0A6D67Ch]
	sub	eax,1h
	mov	[0A1E8ACh],eax
	cmp	[ecx+0Ch],eax
	jle	6DF4F5h

l006DF4E1:
	push	8D1DE4h
	call	706DC0h
	add	esp,4h
	test	eax,eax
	jz	6DF4F5h

l006DF4F2:
	xor	eax,eax
	ret

l006DF4F5:
	push	ebx
	mov	ebx,[esp+10h]
	push	esi
	mov	esi,[esp+0Ch]
	mov	eax,[esi+4h]
	push	edi
	mov	edi,[esp+14h]
	cmp	eax,[edi+4h]
	jnz	6DF582h

l006DF50C:
	cmp	eax,0A1EB98h
	jz	6DF582h

l006DF513:
	test	byte ptr [eax+54h],20h
	jz	6DF540h

l006DF519:
	mov	eax,[eax+64h]
	test	eax,eax
	jz	6DF540h

l006DF520:
	push	ebx
	push	edi
	push	esi
	call	eax
	add	esp,0Ch
	cmp	eax,0A16480h
	jnz	6DF58Fh

l006DF52F:
	add	dword ptr [eax],0FFh
	jnz	6DF540h

l006DF534:
	mov	edx,[eax+4h]
	push	eax
	mov	eax,[edx+18h]
	call	eax
	add	esp,4h

l006DF540:
	mov	ecx,[esi+4h]
	mov	eax,[ecx+28h]
	test	eax,eax
	jz	6DF582h

l006DF54A:
	push	edi
	push	esi
	call	eax
	add	esp,8h
	mov	esi,eax
	call	6DDFE0h
	cmp	eax,0FEh
	jnz	6DF56Dh

l006DF55D:
	mov	ecx,[0A6D67Ch]
	pop	edi
	pop	esi
	xor	eax,eax
	add	dword ptr [ecx+0Ch],0FFh
	pop	ebx
	ret

l006DF56D:
	mov	ecx,ebx
	call	6DE250h
	mov	ecx,[0A6D67Ch]
	add	dword ptr [ecx+0Ch],0FFh
	pop	edi
	pop	esi
	pop	ebx
	ret

l006DF582:
	push	ebx
	mov	eax,edi
	mov	ecx,esi
	call	6DF460h
	add	esp,4h

l006DF58F:
	mov	ecx,[0A6D67Ch]
	add	dword ptr [ecx+0Ch],0FFh
	pop	edi
	pop	esi
	pop	ebx
	ret
006DF59D                                        CC CC CC              ...

;; fn006DF5A0: 006DF5A0
;;   Called from:
;;     00704EAB (in fn00704E40)
;;     0070B890 (in fn0070B600)
fn006DF5A0 proc
	mov	eax,[esp+4h]
	mov	ecx,[esp+8h]
	cmp	eax,ecx
	mov	edx,[esp+0Ch]
	jnz	6DF5C3h

l006DF5B0:
	cmp	edx,2h
	jnz	6DF5BBh

l006DF5B5:
	mov	eax,1h
	ret

l006DF5BB:
	cmp	edx,3h
	jnz	6DF5C3h

l006DF5C0:
	xor	eax,eax
	ret

l006DF5C3:
	push	esi
	push	edx
	push	ecx
	push	eax
	call	6DF4C0h
	mov	esi,eax
	add	esp,0Ch
	test	esi,esi
	jnz	6DF5DAh

l006DF5D5:
	or	eax,0FFh
	pop	esi
	ret

l006DF5DA:
	cmp	dword ptr [esi+4h],0A19118h
	push	edi
	jnz	6DF5F1h

l006DF5E4:
	xor	eax,eax
	cmp	esi,0A191E4h
	setz	al
	jmp	6DF5FAh

l006DF5F1:
	push	esi
	call	6DEA90h
	add	esp,4h

l006DF5FA:
	add	dword ptr [esi],0FFh
	mov	edi,eax
	jnz	6DF60Dh

l006DF601:
	mov	ecx,[esi+4h]
	mov	edx,[ecx+18h]
	push	esi
	call	edx
	add	esp,4h

l006DF60D:
	mov	eax,edi
	pop	edi
	pop	esi
	ret
006DF612       CC CC CC CC CC CC CC CC CC CC CC CC CC CC   ..............
006DF620 55 8B EC 83 E4 C0 DD 45 08 83 EC 38 56 57 8D 44 U......E...8VW.D
006DF630 24 30 50 83 EC 08 DD 1C 24 FF 15 D8 46 8A 00 D9 $0P.....$...F...
006DF640 EE 83 C4 0C D9 C9 DF E9 DD D8 9F F6 C4 44 0F 8A .............D..
006DF650 AD 00 00 00 DD 05 10 1E 8D 00 DD 44 24 30 DB F1 ...........D$0..
006DF660 77 14 D9 C0 D9 E0 DF F2 DD D9 77 0C E8 CF 59 FB w.........w...Y.
006DF670 FF E9 D1 00 00 00 DD D9 83 EC 08 DD 1C 24 FF 15 .............$..
006DF680 D4 46 8A 00 83 C4 08 85 C0 75 32 DD 44 24 30 83 .F.......u2.D$0.
006DF690 EC 08 DD 1C 24 FF 15 D8 45 8A 00 83 C4 08 85 C0 ....$...E.......
006DF6A0 75 1B DD 45 08 D9 EE DF F1 DD D8 76 08 DD 05 08 u..E.......v....
006DF6B0 1E 8D 00 EB 0B DD 05 00 1E 8D 00 EB 03 DD 45 08 ..............E.
006DF6C0 83 EC 08 DD 1C 24 E8 E5 10 03 00 8B F0 83 C4 08 .....$..........
006DF6D0 85 F6 75 09 83 C8 FF 5F 5E 8B E5 5D C3 56 E8 FD ..u...._^..].V..
006DF6E0 EB FF FF 83 C4 04 83 06 FF 8B F8 75 0C 8B 4E 04 ...........u..N.
006DF6F0 8B 51 18 56 FF D2 83 C4 04 8B C7 5F 5E 8B E5 5D .Q.V......._^..]
006DF700 C3 DD 45 08 8D 44 24 3C 50 83 EC 08 DD 1C 24 FF ..E..D$<P.....$.
006DF710 15 D0 46 8A 00 DC 0D F8 1D 8D 00 83 C4 0C D9 C0 ..F.............
006DF720 E8 1B 59 FB FF 8B F0 89 74 24 30 DA 64 24 30 DC ..Y.....t$0.d$0.
006DF730 0D F0 1D 8D 00 E8 06 59 FB FF 8B C8 8B 44 24 3C .......Y.....D$<
006DF740 C1 E0 0F 2B C1 03 C6 83 F8 FF 75 05 B8 FE FF FF ...+......u.....
006DF750 FF 5F 5E 8B E5 5D C3 CC CC CC CC CC CC CC CC CC ._^..]..........

;; fn006DF760: 006DF760
;;   Called from:
;;     0042E067 (in fn0042DF20)
;;     0042E1C5 (in fn0042DF20)
;;     006DF7CA (in fn006DF7C0)
;;     006DF889 (in fn006DF870)
;;     006E185F (in fn006E1780)
;;     006E7DC5 (in fn006E7D90)
;;     006E7DDD (in fn006E7D90)
;;     006E7E29 (in fn006E7D90)
;;     006E7E71 (in fn006E7D90)
;;     006E7EDD (in fn006E7D90)
;;     006E82A3 (in fn006E8060)
;;     006E8CD3 (in fn006E8D90)
;;     006F8516 (in fn006F8440)
;;     006F8D0F (in fn006F8C70)
;;     007038FF (in fn007038E0)
;;     00708220 (in fn00708210)
;;     00708257 (in fn00708210)
;;     00708C79 (in fn00708C10)
;;     00719228 (in fn00718F10)
;;     00731A5B (in fn00731A20)
;;     00731B5E (in fn00731B10)
fn006DF760 proc
	push	edi
	mov	edi,[esp+8h]
	mov	eax,[edi+4h]
	mov	eax,[eax+20h]
	test	eax,eax
	jz	6DF77Ch

l006DF76F:
	mov	ecx,[esp+0Ch]
	push	ecx
	push	edi
	call	eax
	add	esp,8h
	pop	edi
	ret

l006DF77C:
	mov	edx,[esp+0Ch]
	push	esi
	push	edx
	call	6F1A70h
	mov	esi,eax
	add	esp,4h
	test	esi,esi
	jnz	6DF793h

l006DF790:
	pop	esi
	pop	edi
	ret

l006DF793:
	push	esi
	push	edi
	call	6DE330h
	add	esp,8h
	add	dword ptr [esi],0FFh
	mov	edi,eax
	jnz	6DF7B0h

l006DF7A4:
	mov	eax,[esi+4h]
	mov	ecx,[eax+18h]
	push	esi
	call	ecx
	add	esp,4h

l006DF7B0:
	pop	esi
	mov	eax,edi
	pop	edi
	ret
006DF7B5                CC CC CC CC CC CC CC CC CC CC CC      ...........

;; fn006DF7C0: 006DF7C0
;;   Called from:
;;     006E1F36 (in fn006E1DE0)
;;     006E1F93 (in fn006E1DE0)
;;     006E8132 (in fn006E8060)
;;     006F8C7B (in fn006F8C70)
;;     00703658 (in fn00703640)
;;     00704718 (in fn00704700)
fn006DF7C0 proc
	mov	eax,[esp+8h]
	mov	ecx,[esp+4h]
	push	eax
	push	ecx
	call	6DF760h
	add	esp,8h
	test	eax,eax
	jz	6DF7EDh

l006DF7D6:
	add	dword ptr [eax],0FFh
	jnz	6DF7E7h

l006DF7DB:
	mov	edx,[eax+4h]
	push	eax
	mov	eax,[edx+18h]
	call	eax
	add	esp,4h

l006DF7E7:
	mov	eax,1h
	ret

l006DF7ED:
	call	6E1160h
	xor	eax,eax
	ret
006DF7F5                CC CC CC CC CC CC CC CC CC CC CC      ...........

;; fn006DF800: 006DF800
;;   Called from:
;;     006E1E4E (in fn006E1DE0)
;;     006E1E9D (in fn006E1DE0)
;;     006E1EDA (in fn006E1DE0)
;;     006E1F0B (in fn006E1DE0)
;;     006E1F60 (in fn006E1DE0)
;;     006E1FAE (in fn006E1DE0)
;;     006F7142 (in fn006F7100)
;;     00731ACD (in fn00731A20)
fn006DF800 proc
	push	edi
	mov	edi,[esp+8h]
	mov	eax,[edi+4h]
	mov	eax,[eax+24h]
	test	eax,eax
	jz	6DF821h

l006DF80F:
	mov	ecx,[esp+10h]
	mov	edx,[esp+0Ch]
	push	ecx
	push	edx
	push	edi
	call	eax
	add	esp,0Ch
	pop	edi
	ret

l006DF821:
	mov	eax,[esp+0Ch]
	push	esi
	push	eax
	call	6F1A70h
	mov	esi,eax
	add	esp,4h
	test	esi,esi
	jnz	6DF83Bh

l006DF835:
	pop	esi
	or	eax,0FFh
	pop	edi
	ret

l006DF83B:
	mov	ecx,[esp+14h]
	push	ecx
	push	esi
	push	edi
	call	6DE430h
	add	esp,0Ch
	add	dword ptr [esi],0FFh
	mov	edi,eax
	jnz	6DF85Dh

l006DF851:
	mov	edx,[esi+4h]
	mov	eax,[edx+18h]
	push	esi
	call	eax
	add	esp,4h

l006DF85D:
	pop	esi
	mov	eax,edi
	pop	edi
	ret
006DF862       CC CC CC CC CC CC CC CC CC CC CC CC CC CC   ..............

;; fn006DF870: 006DF870
;;   Called from:
;;     00657181 (in fn00657140)
;;     00703923 (in fn007038E0)
;;     0074E1B3 (in fn0074E190)
fn006DF870 proc
	mov	eax,[esp+4h]
	test	eax,eax
	jz	6DF89Ah

l006DF878:
	mov	ecx,[eax+4h]
	cmp	ecx,0A1EB98h
	jnz	6DF8B4h

l006DF883:
	push	8D0068h
	push	eax
	call	6DF760h
	add	esp,8h
	test	eax,eax
	jnz	6DF89Dh

l006DF895:
	call	6E1160h

l006DF89A:
	xor	eax,eax
	ret

l006DF89D:
	add	dword ptr [eax],0FFh
	jnz	6DF8AEh

l006DF8A2:
	mov	ecx,[eax+4h]
	mov	edx,[ecx+18h]
	push	eax
	call	edx
	add	esp,4h

l006DF8AE:
	mov	eax,1h
	ret

l006DF8B4:
	xor	eax,eax
	cmp	[ecx+40h],eax
	setnz	al
	ret
006DF8BD                                        CC CC CC              ...
006DF8C0 51 53 8B 5C 24 10 56 57 68 7C C1 8A 00 53 E8 8D QS.\$.VWh|...S..
006DF8D0 FE FF FF 8B F0 83 C4 08 85 F6 75 27 E8 7F 18 00 ..........u'....
006DF8E0 00 55 68 60 0D 8D 00 53 E8 73 FE FF FF 8B F8 83 .Uh`...S.s......
006DF8F0 C4 08 85 FF 75 3A E8 65 18 00 00 5D 5F 5E 33 C0 ....u:.e...]_^3.
006DF900 5B 59 C3 8B 44 24 14 56 50 E8 32 E5 01 00 83 C4 [Y..D$.VP.2.....
006DF910 08 83 06 FF 8B F8 75 0C 8B 4E 04 8B 51 18 56 FF ......u..N..Q.V.
006DF920 D2 83 C4 04 85 FF 7D B9 5F 5E 83 C8 FF 5B 59 C3 ......}._^...[Y.
006DF930 57 E8 EA 37 02 00 83 C4 04 85 C0 89 44 24 10 7D W..7........D$.}
006DF940 1E E8 1A 18 00 00 83 07 FF 75 0C 8B 4F 04 8B 51 .........u..O..Q
006DF950 18 57 FF D2 83 C4 04 5D 5F 5E 33 C0 5B 59 C3 33 .W.....]_^3.[Y.3
006DF960 DB 85 C0 7E E1 53 57 E8 14 38 02 00 8B F0 83 C4 ...~.SW..8......
006DF970 08 85 F6 74 30 8B 44 24 18 56 50 E8 40 FF FF FF ...t0.D$.VP.@...
006DF980 83 C4 08 83 06 FF 8B E8 75 0C 8B 4E 04 8B 51 18 ........u..N..Q.
006DF990 56 FF D2 83 C4 04 85 ED 7C 25 83 C3 01 3B 5C 24 V.......|%...;\$
006DF9A0 10 7C C2 EB A1 83 07 FF 75 26 8B 47 04 8B 48 18 .|......u&.G..H.
006DF9B0 57 FF D1 83 C4 04 5D 5F 5E 83 C8 FF 5B 59 C3 83 W.....]_^...[Y..
006DF9C0 07 FF 75 0C 8B 57 04 8B 42 18 57 FF D0 83 C4 04 ..u..W..B.W.....
006DF9D0 5D 5F 5E 83 C8 FF 5B 59 C3 CC CC CC CC CC CC CC ]_^...[Y........
006DF9E0 55 57 50 51 33 ED E8 75 FD FF FF 8B F8 83 C4 08 UWPQ3..u........
006DF9F0 85 FF 75 0A E8 67 17 00 00 5F 8B C5 5D C3 57 E8 ..u..g..._..].W.
006DFA00 FC 4C 02 00 83 C4 04 85 C0 0F 84 88 00 00 00 53 .L.............S
006DFA10 57 33 DB E8 08 37 02 00 83 C4 04 85 C0 7E 77 56 W3...7.......~wV
006DFA20 53 57 E8 59 37 02 00 8B F0 8B 46 04 83 C4 08 3D SW.Y7.....F....=
006DFA30 50 B4 A1 00 74 12 68 50 B4 A1 00 50 E8 2F 5C FF P...t.hP...P./\.
006DFA40 FF 83 C4 08 85 C0 74 19 8B 54 24 14 68 B8 63 A1 ......t..T$.h.c.
006DFA50 00 56 52 E8 38 C3 01 00 8B E8 83 C4 0C 85 ED 7C .VR.8..........|
006DFA60 23 83 06 FF 75 0C 8B 46 04 8B 48 18 56 FF D1 83 #...u..F..H.V...
006DFA70 C4 04 57 83 C3 01 E8 A5 36 02 00 83 C4 04 3B D8 ..W.....6.....;.
006DFA80 7C 9E EB 11 83 06 FF 75 0C 8B 56 04 8B 42 18 56 |......u..V..B.V
006DFA90 FF D0 83 C4 04 5E 5B 83 07 FF 75 0C 8B 4F 04 8B .....^[...u..O..
006DFAA0 51 18 57 FF D2 83 C4 04 5F 8B C5 5D C3 CC CC CC Q.W....._..]....
006DFAB0 53 8B 5C 24 08 56 33 F6 85 DB 57 75 21 E8 6E 8D S.\$.V3...Wu!.n.
006DFAC0 02 00 85 C0 0F 84 33 02 00 00 53 68 10 0A 8B 00 ......3...Sh....
006DFAD0 50 E8 0A 3E 02 00 83 C4 0C E9 23 01 00 00 8B 43 P..>......#....C
006DFAE0 04 3D C0 15 A2 00 0F 84 A6 01 00 00 68 C0 15 A2 .=..........h...
006DFAF0 00 50 E8 79 5B FF FF 83 C4 08 85 C0 0F 85 90 01 .P.y[...........
006DFB00 00 00 8B 43 04 3D 80 53 A1 00 0F 84 64 01 00 00 ...C.=.S....d...
006DFB10 68 80 53 A1 00 50 E8 55 5B FF FF 83 C4 08 85 C0 h.S..P.U[.......
006DFB20 0F 85 4E 01 00 00 81 7B 04 68 E9 A1 00 0F 84 41 ..N....{.h.....A
006DFB30 01 00 00 68 7C C1 8A 00 53 E8 22 FC FF FF 8B F8 ...h|...S.".....
006DFB40 83 C4 08 85 FF 75 0E E8 14 16 00 00 E8 6F E1 01 .....u.......o..
006DFB50 00 8B F0 EB 52 8B 47 04 3D B8 D1 A1 00 74 2C 68 ....R.G.=....t,h
006DFB60 B8 D1 A1 00 50 E8 06 5B FF FF 83 C4 08 85 C0 75 ....P..[.......u
006DFB70 1A 83 07 FF 75 0C 8B 47 04 8B 48 18 57 FF D1 83 ....u..G..H.W...
006DFB80 C4 04 E8 39 E1 01 00 8B F0 EB 1C 57 E8 CF E2 01 ...9.......W....
006DFB90 00 83 C4 04 83 07 FF 8B F0 75 0C 8B 57 04 8B 42 .........u..W..B
006DFBA0 18 57 FF D0 83 C4 04 85 F6 0F 84 4E 01 00 00 56 .W.........N...V
006DFBB0 B8 04 BB 8A 00 8B CB E8 24 FE FF FF 83 C4 04 85 ........$.......
006DFBC0 C0 0F 8C 36 01 00 00 56 B8 F8 BA 8A 00 8B CB E8 ...6...V........
006DFBD0 0C FE FF FF 83 C4 04 85 C0 0F 8C 1E 01 00 00 68 ...............h
006DFBE0 9C 29 8B 00 53 E8 76 FB FF FF 8B F8 83 C4 08 85 .)..S.v.........
006DFBF0 FF 75 5B E8 68 15 00 00 56 E8 72 D3 01 00 83 C4 .u[.h...V.r.....
006DFC00 04 8B F8 85 FF 0F 84 F2 00 00 00 8B 47 04 3D F0 ............G.=.
006DFC10 BA A1 00 0F 84 C6 00 00 00 68 F0 BA A1 00 50 E8 .........h....P.
006DFC20 4C 5A FF FF 83 C4 08 85 C0 0F 85 B0 00 00 00 8B LZ..............
006DFC30 4F 04 8B 51 0C A1 7C 6B A1 00 52 68 3C 1E 8D 00 O..Q..|k..Rh<...
006DFC40 50 E8 8A 19 00 00 83 C4 0C E9 9E 00 00 00 57 56 P.............WV
006DFC50 E8 6B FC FF FF 83 C4 08 83 07 FF 8B D8 75 0C 8B .k...........u..
006DFC60 4F 04 8B 51 18 57 FF D2 83 C4 04 85 DB 7D 89 E9 O..Q.W.......}..
006DFC70 89 00 00 00 E8 47 E0 01 00 8B F0 85 F6 74 7E 53 .....G.......t~S
006DFC80 56 E8 3A FC FF FF 83 C4 08 85 C0 7C 70 E9 66 FF V.:........|p.f.
006DFC90 FF FF 68 7C C1 8A 00 53 E8 C3 FA FF FF 8B F0 83 ..h|...S........
006DFCA0 C4 08 85 F6 74 57 8B 46 04 3D B8 D1 A1 00 0F 84 ....tW.F.=......
006DFCB0 44 FF FF FF 68 B8 D1 A1 00 50 E8 B1 59 FF FF 83 D...h....P..Y...
006DFCC0 C4 08 85 C0 0F 85 2E FF FF FF A1 7C 6B A1 00 68 ...........|k..h
006DFCD0 18 1E 8D 00 50 E8 A6 12 00 00 83 C4 08 EB 1E 57 ....P..........W
006DFCE0 E8 FB 50 01 00 83 C4 04 85 C0 74 13 83 07 FF 75 ..P.......t....u
006DFCF0 0C 8B 4F 04 8B 51 18 57 FF D2 83 C4 04 33 FF 85 ..O..Q.W.....3..
006DFD00 F6 74 11 83 06 FF 75 0C 8B 46 04 8B 48 18 56 FF .t....u..F..H.V.
006DFD10 D1 83 C4 04 8B C7 5F 5E 5B C3 CC CC CC CC CC CC ......_^[.......

;; fn006DFD20: 006DFD20
;;   Called from:
;;     006DFF86 (in fn006DFF80)
;;     006E0B53 (in fn006E0B00)
;;     006E1C8B (in fn006E1BD0)
;;     006EA0B9 (in fn006EA0A0)
;;     006F4F2B (in fn006F4F00)
;;     007037A5 (in fn00703780)
;;     00703851 (in fn00703800)
;;     007038C1 (in fn00703870)
;;     00703969 (in fn007038E0)
;;     00703ABC (in fn00703AA0)
;;     00704C79 (in fn00704BA0)
;;     0070768A (in fn00707680)
;;     00707A8C (in fn00707A80)
;;     00707AF4 (in fn00707AF0)
;;     00707B59 (in fn00707B30)
;;     0070A730 (in fn00708DC0)
;;     0070ADF5 (in fn00708DC0)
;;     0070AECC (in fn00708DC0)
;;     0070B7C1 (in fn0070B600)
;;     007264AD (in fn007264A0)
;;     00728AD3 (in fn00728AC0)
;;     0072AC47 (in fn0072AC20)
;;     00736D5F (in fn007367D0)
;;     00736EF0 (in fn007367D0)
;;     0073A5EA (in fn0073A5E0)
;;     0074E14C (in fn0074E140)
;;     0074EBB0 (in fn0074EB10)
fn006DFD20 proc
	push	ebx
	mov	ebx,[esp+8h]
	test	ebx,ebx
	jge	6DFD3Ch

l006DFD29:
	push	20h
	push	8D1E94h
	call	6E1DC0h
	add	esp,8h
	xor	eax,eax
	pop	ebx
	ret

l006DFD3C:
	test	ebx,ebx
	push	esi
	jnz	6DFD50h

l006DFD41:
	mov	eax,[0A6C4D0h]
	test	eax,eax
	jz	6DFD59h

l006DFD4A:
	add	dword ptr [eax],1h
	pop	esi
	pop	ebx
	ret

l006DFD50:
	cmp	ebx,14h
	jge	6DFDDFh

l006DFD59:
	mov	esi,[0A6C4D0h+ebx*4]
	test	esi,esi
	jz	6DFDDFh

l006DFD64:
	mov	eax,[esi+0Ch]
	add	dword ptr [0A6C520h+ebx*4],0FFh
	mov	[0A6C4D0h+ebx*4],eax
	mov	dword ptr [esi],1h

l006DFD7C:
	test	ebx,ebx
	push	edi
	jle	6DFD8Ch

l006DFD81:
	xor	eax,eax
	lea	edi,[esi+0Ch]
	mov	ecx,ebx

l006DFD88:
	rep stosd

l006DFD8A:
	test	ebx,ebx

l006DFD8C:
	jnz	6DFD9Eh

l006DFD8E:
	add	dword ptr [0A6C520h],1h
	mov	[0A6C4D0h],esi
	add	dword ptr [esi],1h

l006DFD9E:
	cmp	dword ptr [esi-8h],0FEh
	lea	edi,[esi-10h]
	jz	6DFDB4h

l006DFDA7:
	push	8D0E04h
	call	6E86F0h
	add	esp,4h

l006DFDB4:
	mov	dword ptr [edi+8h],0FFFFFFFDh
	mov	edx,[0A1D558h]
	mov	[edi],edx
	mov	eax,[0A1D558h]
	mov	eax,[eax+4h]
	mov	[edi+4h],eax
	mov	[eax],edi
	mov	ecx,[0A1D558h]
	mov	[ecx+4h],edi
	pop	edi
	mov	eax,esi
	pop	esi
	pop	ebx
	ret

l006DFDDF:
	lea	eax,[0000h+ebx*4]
	mov	ecx,eax
	shr	ecx,2h
	cmp	ecx,ebx
	jnz	6DFE11h

l006DFDEF:
	add	eax,0Ch
	test	eax,eax
	jle	6DFE11h

l006DFDF6:
	push	ebx
	push	0A16588h
	call	6FEF50h
	mov	esi,eax
	add	esp,8h
	test	esi,esi
	jnz	6DFD7Ch

l006DFE0E:
	pop	esi
	pop	ebx
	ret

l006DFE11:
	pop	esi
	pop	ebx
	jmp	6E1210h
006DFE18                         CC CC CC CC CC CC CC CC         ........

;; fn006DFE20: 006DFE20
;;   Called from:
;;     006E10C4 (in fn006E0FD0)
;;     007070DB (in fn00707020)
;;     0070BD0C (in fn0070BCC0)
;;     0070C1CA (in fn0070C1A0)
;;     0070C744 (in fn0070C700)
;;     00725057 (in fn00725010)
;;     00728C81 (in fn00728BE0)
;;     00734D6E (in fn00734BB0)
;;     00735F91 (in fn00735890)
fn006DFE20 proc
	push	esi
	mov	esi,[esp+8h]
	mov	eax,[esi+4h]
	cmp	eax,0A16588h
	jz	6DFE55h

l006DFE2F:
	push	0A16588h
	push	eax
	call	6D5670h
	add	esp,8h
	test	eax,eax
	jnz	6DFE55h

l006DFE41:
	push	59h
	push	8D1E94h
	call	6E1DC0h
	add	esp,8h
	or	eax,0FFh
	pop	esi
	ret

l006DFE55:
	mov	eax,[esi+8h]
	pop	esi
	ret
006DFE5A                               CC CC CC CC CC CC           ......

;; fn006DFE60: 006DFE60
;;   Called from:
;;     00709490 (in fn00708DC0)
;;     0070BD23 (in fn0070BCC0)
;;     0070BD35 (in fn0070BCC0)
;;     0070BD42 (in fn0070BCC0)
;;     0070C1E7 (in fn0070C1A0)
;;     0070C75E (in fn0070C700)
;;     00725066 (in fn00725010)
;;     00734D87 (in fn00734BB0)
;;     0073B8AA (in fn0073B870)
;;     0073B8C7 (in fn0073B870)
fn006DFE60 proc
	push	esi
	mov	esi,[esp+8h]
	mov	eax,[esi+4h]
	cmp	eax,0A16588h
	jz	6DFE94h

l006DFE6F:
	push	0A16588h
	push	eax
	call	6D5670h
	add	esp,8h
	test	eax,eax
	jnz	6DFE94h

l006DFE81:
	push	64h
	push	8D1E94h
	call	6E1DC0h
	add	esp,8h
	xor	eax,eax
	pop	esi
	ret

l006DFE94:
	mov	eax,[esp+0Ch]
	test	eax,eax
	jl	6DFEA7h

l006DFE9C:
	cmp	eax,[esi+8h]
	jge	6DFEA7h

l006DFEA1:
	mov	eax,[esi+eax*4+0Ch]
	pop	esi
	ret

l006DFEA7:
	mov	eax,[0A17CA4h]
	push	8D1EB0h
	push	eax
	call	6E0F80h
	add	esp,8h
	xor	eax,eax
	pop	esi
	ret
006DFEBE                                           CC CC               ..
006DFEC0 56 8B 74 24 08 8B 46 04 3D 88 65 A1 00 74 12 68 V.t$..F.=.e..t.h
006DFED0 88 65 A1 00 50 E8 96 57 FF FF 83 C4 08 85 C0 74 .e..P..W.......t
006DFEE0 05 83 3E 01 74 2D 8B 44 24 10 85 C0 74 11 83 00 ..>.t-.D$...t...
006DFEF0 FF 75 0C 8B 48 04 8B 51 18 50 FF D2 83 C4 04 6A .u..H..Q.P.....j
006DFF00 75 68 94 1E 8D 00 E8 B5 1E 00 00 83 C4 08 83 C8 uh..............
006DFF10 FF 5E C3 8B 4C 24 0C 85 C9 7C 2A 3B 4E 08 7D 25 .^..L$...|*;N.}%
006DFF20 8B 44 8E 0C 85 C0 8B 54 24 10 89 54 8E 0C 74 11 .D.....T$..T..t.
006DFF30 83 00 FF 75 0C 8B 48 04 8B 51 18 50 FF D2 83 C4 ...u..H..Q.P....
006DFF40 04 33 C0 5E C3 8B 44 24 10 85 C0 74 11 83 00 FF .3.^..D$...t....
006DFF50 75 0C 8B 48 04 8B 51 18 50 FF D2 83 C4 04 A1 A4 u..H..Q.P.......
006DFF60 7C A1 00 68 CC 1E 8D 00 50 E8 12 10 00 00 83 C4 |..h....P.......
006DFF70 08 83 C8 FF 5E C3 CC CC CC CC CC CC CC CC CC CC ....^...........

;; fn006DFF80: 006DFF80
;;   Called from:
;;     006DC1DD (in fn006DC1B0)
;;     006E1CB6 (in fn006E1BD0)
;;     006E8E54 (in fn006E8D90)
;;     006FB764 (in fn006FB760)
;;     007085CF (in fn00708590)
;;     00709DB6 (in fn00708DC0)
;;     0070A880 (in fn00708DC0)
;;     0070A8AE (in fn00708DC0)
;;     007262B4 (in fn00726260)
;;     007263CA (in fn00726340)
;;     0072772E (in fn007276E0)
;;     0072773F (in fn007276E0)
;;     007290E8 (in fn00729040)
;;     00729124 (in fn00729040)
;;     00731BD3 (in fn00731B10)
;;     0073A5F7 (in fn0073A5E0)
;;     0073B95E (in fn0073B870)
fn006DFF80 proc
	push	edi
	mov	edi,[esp+8h]
	push	edi
	call	6DFD20h
	add	esp,4h
	test	eax,eax
	jnz	6DFF94h

l006DFF92:
	pop	edi
	ret

l006DFF94:
	xor	edx,edx
	test	edi,edi
	jle	6DFFB5h

l006DFF9A:
	push	esi
	lea	esi,[esp+0Ch]
	nop

l006DFFA0:
	mov	ecx,[esi+4h]
	add	dword ptr [ecx],1h
	add	esi,4h
	mov	[eax+edx*4+0Ch],ecx
	add	edx,1h
	cmp	edx,edi
	jl	6DFFA0h

l006DFFB4:
	pop	esi

l006DFFB5:
	pop	edi
	ret
006DFFB7                      CC CC CC CC CC CC CC CC CC        .........
006DFFC0 53 8B 5C 24 08 55 8B 6B 08 53 E8 B1 EE 01 00 83 S.\$.U.k.S......
006DFFD0 C4 04 83 3D C4 C4 A6 00 32 0F 8D AA 00 00 00 83 ...=....2.......
006DFFE0 05 C4 C4 A6 00 01 85 ED 7E 70 57 8D 7D FF 85 FF ........~pW.}...
006DFFF0 7C 2D 56 8D 74 BB 0C 83 3E 00 74 18 8B 06 83 00 |-V.t...>.t.....
006E0000 FF 8B 06 83 38 00 75 0C 8B 48 04 8B 51 18 50 FF ....8.u..H..Q.P.
006E0010 D2 83 C4 04 83 EF 01 83 EE 04 85 FF 7D D9 5E 83 ............}.^.
006E0020 FD 14 5F 7D 35 81 3C AD 20 C5 A6 00 D0 07 00 00 .._}5.<. .......
006E0030 8D 0C AD 20 C5 A6 00 7D 21 81 7B 04 88 65 A1 00 ... ...}!.{..e..
006E0040 75 18 8B 14 AD D0 C4 A6 00 8D 04 AD D0 C4 A6 00 u...............
006E0050 89 53 0C 83 01 01 89 18 EB 0F 8B 43 04 8B 88 A0 .S.........C....
006E0060 00 00 00 53 FF D1 83 C4 04 83 2D C4 C4 A6 00 01 ...S......-.....
006E0070 83 3D C8 C4 A6 00 00 74 19 83 3D C4 C4 A6 00 00 .=.....t..=.....
006E0080 7F 10 5D 5B E9 D7 ED FF FF 53 E8 B1 ED FF FF 83 ..][.....S......
006E0090 C4 04 5D 5B C3 CC CC CC CC CC CC CC CC CC CC CC ..][............
006E00A0 53 8B 5C 24 0C 55 56 57 8B 3D E0 45 8A 00 68 F4 S.\$.UVW.=.E..h.
006E00B0 1E 8D 00 53 FF D7 8B 6C 24 1C 33 F6 83 C4 08 39 ...S...l$.3....9
006E00C0 75 08 7E 39 8D 7D 0C 85 F6 7E 0F 68 D0 A2 8A 00 u.~9.}...~.h....
006E00D0 53 FF 15 E0 45 8A 00 83 C4 08 8B 07 6A 00 53 50 S...E.......j.SP
006E00E0 E8 DB EE FF FF 83 C4 0C 85 C0 75 34 83 C6 01 83 ..........u4....
006E00F0 C7 04 3B 75 08 7C D0 8B 3D E0 45 8A 00 83 7D 08 ..;u.|..=.E...}.
006E0100 01 75 0B 68 F0 1E 8D 00 53 FF D7 83 C4 08 68 14 .u.h....S.....h.
006E0110 3B 8B 00 53 FF D7 83 C4 08 5F 5E 5D 33 C0 5B C3 ;..S....._^]3.[.
006E0120 5F 5E 5D 83 C8 FF 5B C3 CC CC CC CC CC CC CC CC _^]...[.........
006E0130 83 EC 0C 8B 44 24 10 53 57 8B 78 08 33 DB 3B FB ....D$.SW.x.3.;.
006E0140 89 5C 24 10 75 13 68 3C E8 8C 00 E8 70 C9 00 00 .\$.u.h<....p...
006E0150 83 C4 04 5F 5B 83 C4 0C C3 55 57 E8 C0 FB FF FF ..._[....UW.....
006E0160 8B E8 83 C4 04 3B EB 75 09 5D 5F 33 C0 5B 83 C4 .....;.u.]_3.[..
006E0170 0C C3 3B FB 56 7E 37 8B 44 24 20 2B C5 8D 75 0C ..;.V~7.D$ +..u.
006E0180 89 44 24 20 EB 04 8B 44 24 20 8B 0C 30 51 E8 1D .D$ ...D$ ..0Q..
006E0190 DC FF FF 83 C4 04 85 C0 89 44 24 10 0F 84 D0 00 .........D$.....
006E01A0 00 00 89 06 83 C3 01 83 C6 04 3B DF 7C D8 68 F4 ..........;.|.h.
006E01B0 1E 8D 00 E8 08 C9 00 00 83 C4 04 85 C0 89 44 24 ..............D$
006E01C0 10 0F 84 AB 00 00 00 8B 45 0C 50 8D 54 24 14 52 ........E.P.T$.R
006E01D0 89 44 24 1C E8 E7 C2 00 00 8B 44 24 18 83 C4 08 .D$.......D$....
006E01E0 89 45 0C 83 7C 24 10 00 0F 84 84 00 00 00 83 FF .E..|$..........
006E01F0 01 B8 F8 1E 8D 00 74 05 B8 14 3B 8B 00 50 E8 BD ......t...;..P..
006E0200 C8 00 00 83 C4 04 85 C0 89 44 24 10 74 64 8B 4C .........D$.td.L
006E0210 BD 08 50 8D 54 24 18 52 89 4C 24 1C E8 9F C2 00 ..P.T$.R.L$.....
006E0220 00 8B 44 24 1C 83 C4 08 89 44 BD 08 83 7C 24 14 ..D$.....D...|$.
006E0230 00 74 3F 68 D0 A2 8A 00 E8 83 C8 00 00 83 C4 04 .t?h............
006E0240 85 C0 89 44 24 10 74 2A 55 50 E8 01 E4 00 00 89 ...D$.t*UP......
006E0250 44 24 20 8B 44 24 18 83 00 FF 8B 44 24 18 83 C4 D$ .D$.....D$...
006E0260 08 83 38 00 75 0C 8B 48 04 8B 51 18 50 FF D2 83 ..8.u..H..Q.P...
006E0270 C4 04 83 45 00 FF 5E 75 0C 8B 45 04 8B 48 18 55 ...E..^u..E..H.U
006E0280 FF D1 83 C4 04 8B 44 24 14 5D 5F 5B 83 C4 0C C3 ......D$.]_[....
006E0290 8B 44 24 04 53 55 56 8B 70 08 83 EE 01 8D 48 0C .D$.SUV.p.....H.
006E02A0 57 BB 43 42 0F 00 BF 78 56 34 00 89 4C 24 14 78 W.CB...xV4..L$.x
006E02B0 33 8D AC 36 58 42 01 00 8B 54 24 14 8B 02 50 E8 3..6XB...T$...P.
006E02C0 1C E0 FF FF 83 44 24 18 04 83 C4 04 83 F8 FF 74 .....D$........t
006E02D0 2A 33 C7 0F AF C3 03 DD 83 EE 01 83 ED 02 85 F6 *3..............
006E02E0 8B F8 7D D4 81 C7 FB 7C 01 00 83 FF FF 75 05 BF ..}....|.....u..
006E02F0 FE FF FF FF 8B C7 5F 5E 5D 5B C3 5F 5E 5D 83 C8 ......_^][._^]..
006E0300 FF 5B C3 CC CC CC CC CC CC CC CC CC CC CC CC CC .[..............
006E0310 53 8B 5C 24 0C 55 8B 6C 24 0C 56 57 33 FF 33 C0 S.\$.U.l$.VW3.3.
006E0320 8D 75 0C 3B 7D 08 7D 18 8B 06 6A 02 50 53 E8 6D .u.;}.}...j.PS.m
006E0330 F2 FF FF 83 C4 0C 83 C7 01 83 C6 04 85 C0 74 E3 ..............t.
006E0340 5F 5E 5D 5B C3 CC CC CC CC CC CC CC CC CC CC CC _^][............
006E0350 8B 4C 24 08 85 C9 7C 15 8B 54 24 04 3B 4A 08 7D .L$...|..T$.;J.}
006E0360 0C 8B 44 8A 0C 83 00 01 8B 44 8A 0C C3 A1 A4 7C ..D......D.....|
006E0370 A1 00 68 B0 1E 8D 00 50 E8 03 0C 00 00 83 C4 08 ..h....P........
006E0380 33 C0 C3 CC CC CC CC CC CC CC CC CC CC CC CC CC 3...............
006E0390 53 56 8B 74 24 10 85 F6 7D 02 33 F6 8B 5C 24 0C SV.t$...}.3..\$.
006E03A0 8B 4B 08 8B 44 24 14 3B C1 0F 4F C1 3B C6 0F 4C .K..D$.;..O.;..L
006E03B0 C6 85 F6 75 15 3B C1 75 11 81 7B 04 88 65 A1 00 ...u.;.u..{..e..
006E03C0 75 08 83 03 01 5E 8B C3 5B C3 2B C6 57 8B F8 57 u....^..[.+.W..W
006E03D0 E8 4B F9 FF FF 83 C4 04 85 C0 75 04 5F 5E 5B C3 .K........u._^[.
006E03E0 85 FF 8D 74 B3 0C 8D 50 0C 7E 15 2B F2 8D 49 00 ...t...P.~.+..I.
006E03F0 8B 0C 16 83 01 01 89 0A 83 C2 04 83 EF 01 75 F0 ..............u.
006E0400 5F 5E 5B C3 CC CC CC CC CC CC CC CC CC CC CC CC _^[.............
006E0410 56 8B 74 24 08 85 F6 74 31 8B 46 04 3D 88 65 A1 V.t$...t1.F.=.e.
006E0420 00 74 12 68 88 65 A1 00 50 E8 42 52 FF FF 83 C4 .t.h.e..P.BR....
006E0430 08 85 C0 74 15 8B 44 24 10 8B 4C 24 0C 50 51 56 ...t..D$..L$.PQV
006E0440 E8 4B FF FF FF 83 C4 0C 5E C3 68 63 01 00 00 68 .K......^.hc...h
006E0450 94 1E 8D 00 E8 67 19 00 00 83 C4 08 33 C0 5E C3 .....g......3.^.
006E0460 55 8B 6C 24 0C 8B 45 04 3D 88 65 A1 00 74 31 68 U.l$..E.=.e..t1h
006E0470 88 65 A1 00 50 E8 F6 51 FF FF 83 C4 08 85 C0 75 .e..P..Q.......u
006E0480 1F 8B 45 04 8B 48 0C 8B 15 7C 6B A1 00 51 68 FC ..E..H...|k..Qh.
006E0490 1E 8D 00 52 E8 37 11 00 00 83 C4 0C 33 C0 5D C3 ...R.7......3.].
006E04A0 8B 45 08 56 8B 74 24 0C 03 46 08 79 07 5E 5D E9 .E.V.t$..F.y.^].
006E04B0 5C 0D 00 00 50 E8 66 F8 FF FF 83 C4 04 85 C0 75 \...P.f........u
006E04C0 03 5E 5D C3 53 57 33 FF 39 7E 08 8D 5E 0C 8D 50 .^].SW3.9~..^..P
006E04D0 0C 7E 15 2B DA 8B 0C 13 83 01 01 89 0A 83 C7 01 .~.+............
006E04E0 83 C2 04 3B 7E 08 7C ED 8B 4E 08 33 F6 39 75 08 ...;~.|..N.3.9u.
006E04F0 8D 7D 0C 8D 54 88 0C 7E 1A 2B FA EB 03 8D 49 00 .}..T..~.+....I.
006E0500 8B 0C 3A 83 01 01 89 0A 83 C6 01 83 C2 04 3B 75 ..:...........;u
006E0510 08 7C ED 5F 5B 5E 5D C3 CC CC CC CC CC CC CC CC .|._[^].........
006E0520 53 8B 5C 24 0C 85 DB 56 57 7D 02 33 DB 8B 74 24 S.\$...VW}.3..t$
006E0530 10 8B 7E 08 85 FF 74 09 83 FB 01 0F 85 8C 00 00 ..~...t.........
006E0540 00 81 7E 04 88 65 A1 00 75 09 83 06 01 5F 8B C6 ..~..e..u...._..
006E0550 5E 5B C3 85 FF 75 76 A1 D0 C4 A6 00 85 C0 74 07 ^[...uv.......t.
006E0560 83 00 01 5F 5E 5B C3 6A 00 68 88 65 A1 00 E8 DD ..._^[.j.h.e....
006E0570 E9 01 00 8B F8 83 C4 08 85 FF 74 74 83 05 20 C5 ..........tt.. .
006E0580 A6 00 01 89 3D D0 C4 A6 00 83 07 01 83 7F F8 FE ....=...........
006E0590 8D 77 F0 74 0D 68 04 0E 8D 00 E8 51 81 00 00 83 .w.t.h.....Q....
006E05A0 C4 04 C7 46 08 FD FF FF FF A1 58 D5 A1 00 89 06 ...F......X.....
006E05B0 8B 0D 58 D5 A1 00 8B 41 04 89 46 04 89 30 8B 15 ..X....A..F..0..
006E05C0 58 D5 A1 00 8B C7 5F 89 72 04 5E 5B C3 8B CF 0F X....._.r.^[....
006E05D0 AF CB 8B C1 99 F7 FF 3B C3 74 08 5F 5E 5B E9 2D .......;.t._^[.-
006E05E0 0C 00 00 51 E8 37 F7 FF FF 83 C4 04 85 C0 75 06 ...Q.7........u.
006E05F0 5F 5E 33 C0 5B C3 85 DB 8D 78 0C 7E 23 8D 49 00 _^3.[....x.~#.I.
006E0600 33 D2 39 56 08 7E 14 8B 4C 96 0C 89 0F 83 01 01 3.9V.~..L.......
006E0610 83 C2 01 83 C7 04 3B 56 08 7C EC 83 EB 01 75 E0 ......;V.|....u.
006E0620 5F 5E 5B C3 CC CC CC CC CC CC CC CC CC CC CC CC _^[.............
006E0630 8B 44 24 04 53 55 56 8B 70 08 83 EE 01 57 78 2B .D$.SUV.p....Wx+
006E0640 8B 5C 24 1C 8B 6C 24 18 8D 7C B0 0C 8D 64 24 00 .\$..l$..|...d$.
006E0650 8B 07 85 C0 74 0B 53 50 FF D5 83 C4 08 85 C0 75 ....t.SP.......u
006E0660 0C 83 EE 01 83 EF 04 85 F6 7D E5 33 C0 5F 5E 5D .........}.3._^]
006E0670 5B C3 CC CC CC CC CC CC CC CC CC CC CC CC CC CC [...............
006E0680 51 53 8B 5C 24 0C 8B 43 04 3D 88 65 A1 00 56 74 QS.\$..C.=.e..Vt
006E0690 12 68 88 65 A1 00 50 E8 D4 4F FF FF 83 C4 08 85 .h.e..P..O......
006E06A0 C0 74 20 8B 74 24 14 8B 46 04 3D 88 65 A1 00 74 .t .t$..F.=.e..t
006E06B0 22 68 88 65 A1 00 50 E8 B4 4F FF FF 83 C4 08 85 "h.e..P..O......
006E06C0 C0 75 10 83 05 80 64 A1 00 01 5E B8 80 64 A1 00 .u....d...^..d..
006E06D0 5B 59 C3 55 8B 6E 08 57 8B 7B 08 33 F6 85 FF 7E [Y.U.n.W.{.3...~
006E06E0 3E 8B 44 24 1C 83 C3 0C 2B 44 24 18 89 44 24 10 >.D$....+D$..D$.
006E06F0 EB 04 8B 44 24 10 3B F5 7D 39 8B 04 18 8B 0B 6A ...D$.;.}9.....j
006E0700 02 50 51 E8 98 EE FF FF 83 C4 0C 85 C0 0F 8C C6 .PQ.............
006E0710 00 00 00 74 1E 83 C6 01 83 C3 04 3B F7 7C D3 8B ...t.......;.|..
006E0720 44 24 20 83 F8 05 0F 87 AD 00 00 00 FF 24 85 E4 D$ ..........$..
006E0730 07 6E 00 3B F7 7D E8 3B F5 7D E4 8B 44 24 20 83 .n.;.}.;.}..D$ .
006E0740 F8 02 75 12 83 05 D8 91 A1 00 01 5F 5D 5E B8 D8 ..u........_]^..
006E0750 91 A1 00 5B 59 C3 83 F8 03 75 12 83 05 E4 91 A1 ...[Y....u......
006E0760 00 01 5F 5D 5E B8 E4 91 A1 00 5B 59 C3 8B 54 24 .._]^.....[Y..T$
006E0770 1C 8B 4C 24 18 50 8B 44 B2 0C 8B 54 B1 0C 50 52 ..L$.P.D...T..PR
006E0780 E8 3B ED FF FF 83 C4 0C 5F 5D 5E 5B 59 C3 33 C0 .;......_]^[Y.3.
006E0790 3B FD 0F 9C C0 EB 2B 33 C0 3B FD 0F 9E C0 EB 22 ;.....+3.;....."
006E07A0 33 C0 3B FD 0F 94 C0 EB 19 33 C0 3B FD 0F 95 C0 3.;......3.;....
006E07B0 EB 10 33 C0 3B FD 0F 9F C0 EB 07 33 C0 3B FD 0F ..3.;......3.;..
006E07C0 9D C0 85 C0 B8 E4 91 A1 00 75 05 B8 D8 91 A1 00 .........u......
006E07D0 83 00 01 5F 5D 5E 5B 59 C3 5F 5D 5E 33 C0 5B 59 ..._]^[Y._]^3.[Y
006E07E0 C3 8D 49 00 8E 07 6E 00 97 07 6E 00 A0 07 6E 00 ..I...n...n...n.
006E07F0 A9 07 6E 00 B2 07 6E 00 BB 07 6E 00 CC CC CC CC ..n...n...n.....
006E0800 51 8B 44 24 08 3D 88 65 A1 00 8B 4C 24 10 8B 54 Q.D$.=.e...L$..T
006E0810 24 0C C7 04 24 00 00 00 00 74 0D 51 52 50 E8 BD $...$....t.QRP..
006E0820 00 00 00 83 C4 0C 59 C3 8D 04 24 50 68 90 64 A1 ......Y...$Ph.d.
006E0830 00 68 30 1F 8D 00 51 52 E8 C3 72 00 00 83 C4 14 .h0...QR..r.....
006E0840 85 C0 75 02 59 C3 8B 04 24 85 C0 75 79 A1 D0 C4 ..u.Y...$..uy...
006E0850 A6 00 85 C0 74 05 83 00 01 59 C3 57 6A 00 68 88 ....t....Y.Wj.h.
006E0860 65 A1 00 E8 E8 E6 01 00 8B F8 83 C4 08 85 FF 75 e..............u
006E0870 03 5F 59 C3 83 05 20 C5 A6 00 01 56 89 3D D0 C4 ._Y... ....V.=..
006E0880 A6 00 83 07 01 83 7F F8 FE 8D 77 F0 74 0D 68 04 ..........w.t.h.
006E0890 0E 8D 00 E8 58 7E 00 00 83 C4 04 C7 46 08 FD FF ....X~......F...
006E08A0 FF FF A1 58 D5 A1 00 89 06 8B 0D 58 D5 A1 00 8B ...X.......X....
006E08B0 41 04 89 46 04 89 30 8B 15 58 D5 A1 00 89 72 04 A..F..0..X....r.
006E08C0 5E 8B C7 5F 59 C3 50 E8 D4 42 02 00 83 C4 04 59 ^.._Y.P..B.....Y
006E08D0 C3 CC CC CC CC CC CC CC CC CC CC CC CC CC CC CC ................
006E08E0 8B 44 24 0C 8B 4C 24 08 53 50 51 68 88 65 A1 00 .D$..L$.SPQh.e..
006E08F0 E8 0B FF FF FF 8B D8 83 C4 0C 85 DB 75 02 5B C3 ............u.[.
006E0900 8B 44 24 08 8B 90 98 00 00 00 56 8B 73 08 57 56 .D$.......V.s.WV
006E0910 50 FF D2 8B F8 83 C4 08 85 FF 75 04 5F 5E 5B C3 P.........u._^[.
006E0920 85 F6 7E 1C 8B D3 8D 4F 0C 2B D7 EB 03 8D 49 00 ..~....O.+....I.
006E0930 8B 04 0A 83 00 01 89 01 83 C1 04 83 EE 01 75 F0 ..............u.
006E0940 83 03 FF 75 0C 8B 43 04 8B 48 18 53 FF D1 83 C4 ...u..C..H.S....
006E0950 04 8B C7 5F 5E 5B C3 CC CC CC CC CC CC CC CC CC ..._^[..........
006E0960 8B 54 24 08 8B 4A 04 8B 41 30 83 EC 0C 85 C0 56 .T$..J..A0.....V
006E0970 57 74 54 F7 41 54 00 00 02 00 74 4B 83 B8 98 00 WtT.AT....tK....
006E0980 00 00 00 74 42 A1 A4 7C A1 00 50 52 E8 9F 22 02 ...tB..|..PR..".
006E0990 00 8B 7C 24 20 8B F0 83 C4 08 83 FE FF 75 11 E8 ..|$ ........u..
006E09A0 1C 06 00 00 85 C0 74 0C 5F 33 C0 5E 83 C4 0C C3 ......t._3.^....
006E09B0 85 F6 7D 03 03 77 08 56 57 E8 92 F9 FF FF 83 C4 ..}..w.VW.......
006E09C0 08 5F 5E 83 C4 0C C3 81 F9 30 5D A2 00 0F 85 EB ._^......0].....
006E09D0 00 00 00 8B 7C 24 18 8D 4C 24 1C 51 8D 44 24 10 ....|$..L$.Q.D$.
006E09E0 50 8D 4C 24 18 51 8B 4F 08 8D 44 24 14 50 51 52 P.L$.Q.O..D$.PQR
006E09F0 E8 DB E8 04 00 83 C4 18 85 C0 0F 8C D2 00 00 00 ................
006E0A00 8B 44 24 1C 85 C0 7F 7E A1 D0 C4 A6 00 85 C0 74 .D$....~.......t
006E0A10 09 83 00 01 5F 5E 83 C4 0C C3 6A 00 68 88 65 A1 ...._^....j.h.e.
006E0A20 00 E8 2A E5 01 00 8B F8 83 C4 08 85 FF 0F 84 9F ..*.............
006E0A30 00 00 00 83 05 20 C5 A6 00 01 89 3D D0 C4 A6 00 ..... .....=....
006E0A40 83 07 01 83 7F F8 FE 8D 77 F0 74 0D 68 04 0E 8D ........w.t.h...
006E0A50 00 E8 9A 7C 00 00 83 C4 04 C7 46 08 FD FF FF FF ...|......F.....
006E0A60 8B 15 58 D5 A1 00 89 16 A1 58 D5 A1 00 8B 40 04 ..X......X....@.
006E0A70 89 46 04 89 30 8B 0D 58 D5 A1 00 8B C7 5F 89 71 .F..0..X....._.q
006E0A80 04 5E 83 C4 0C C3 50 E8 94 F2 FF FF 83 C4 04 85 .^....P.........
006E0A90 C0 74 3F 8B 54 24 08 33 F6 39 74 24 1C 7E 35 90 .t?.T$.3.9t$.~5.
006E0AA0 8B 4C 97 0C 83 01 01 89 4C B0 0C 03 54 24 0C 83 .L......L...T$..
006E0AB0 C6 01 3B 74 24 1C 7C E8 5F 5E 83 C4 0C C3 8B 15 ..;t$.|._^......
006E0AC0 7C 6B A1 00 68 3C 1F 8D 00 52 E8 B1 04 00 00 83 |k..h<...R......
006E0AD0 C4 08 33 C0 5F 5E 83 C4 0C C3 CC CC CC CC CC CC ..3._^..........
006E0AE0 8B 44 24 04 8B 48 08 51 6A 00 50 E8 A0 F8 FF FF .D$..H.Qj.P.....
006E0AF0 50 68 5C 1F 8D 00 E8 05 97 00 00 83 C4 14 C3 CC Ph\.............

;; fn006E0B00: 006E0B00
;;   Called from:
;;     00704CBD (in fn00704BA0)
;;     00704D00 (in fn00704BA0)
fn006E0B00 proc
	push	ecx
	mov	eax,[esp+8h]
	push	ebp
	push	esi
	mov	esi,[eax]
	test	esi,esi
	jz	6E0C5Dh

l006E0B11:
	mov	ecx,[esi+4h]
	cmp	ecx,0A16588h
	jnz	6E0C5Dh

l006E0B20:
	mov	ebp,[esi+8h]
	test	ebp,ebp
	jz	6E0B30h

l006E0B27:
	cmp	dword ptr [esi],1h
	jnz	6E0C5Dh

l006E0B30:
	push	ebx
	mov	ebx,[esp+18h]
	cmp	ebp,ebx
	jnz	6E0B40h

l006E0B39:
	pop	ebx
	pop	esi
	xor	eax,eax
	pop	ebp
	pop	ecx
	ret

l006E0B40:
	test	ebp,ebp
	jnz	6E0B6Fh

l006E0B44:
	add	dword ptr [esi],0FFh
	jnz	6E0B52h

l006E0B49:
	mov	eax,[ecx+18h]
	push	esi
	call	eax
	add	esp,4h

l006E0B52:
	push	ebx
	call	6DFD20h
	mov	ecx,[esp+18h]
	add	esp,4h
	mov	[ecx],eax
	neg	eax
	sbb	eax,eax
	pop	ebx
	neg	eax
	pop	esi
	sub	eax,1h
	pop	ebp
	pop	ecx
	ret

l006E0B6F:
	cmp	ebx,ebp
	mov	edx,[esi-0Ch]
	mov	eax,[esi-10h]
	mov	dword ptr [esi-8h],0FFFFFFFEh
	mov	[edx],eax
	mov	ecx,[esi-10h]
	mov	edx,[esi-0Ch]
	mov	[ecx+4h],edx
	push	edi
	mov	dword ptr [esi-10h],0h
	jge	6E0BCCh

l006E0B93:
	mov	eax,ebp
	sub	eax,ebx
	lea	edi,[esi+ebx*4+0Ch]
	mov	[esp+10h],eax
	nop

l006E0BA0:
	mov	eax,[edi]
	test	eax,eax
	jz	6E0BBCh

l006E0BA6:
	add	dword ptr [eax],0FFh
	mov	eax,[edi]
	cmp	dword ptr [eax],0h
	jnz	6E0BBCh

l006E0BB0:
	mov	ecx,[eax+4h]
	mov	edx,[ecx+18h]
	push	eax
	call	edx
	add	esp,4h

l006E0BBC:
	mov	dword ptr [edi],0h
	add	edi,4h
	sub	dword ptr [esp+10h],1h
	jnz	6E0BA0h

l006E0BCC:
	push	ebx
	push	esi
	call	6FEF90h
	mov	edi,eax
	add	esp,8h
	test	edi,edi
	jnz	6E0BF4h

l006E0BDC:
	mov	eax,[esp+18h]
	push	esi
	mov	[eax],edi
	call	6FEFD0h
	add	esp,4h
	pop	edi
	pop	ebx
	pop	esi
	or	eax,0FFh
	pop	ebp
	pop	ecx
	ret

l006E0BF4:
	cmp	ebx,ebp
	mov	dword ptr [edi],1h
	jle	6E0C14h

l006E0BFE:
	sub	ebx,ebp
	add	ebx,ebx
	add	ebx,ebx
	push	ebx
	lea	ecx,[edi+ebp*4+0Ch]
	push	0h
	push	ecx
	call	695020h
	add	esp,0Ch

l006E0C14:
	mov	edx,[esp+18h]
	lea	esi,[edi-10h]
	mov	[edx],edi
	cmp	dword ptr [esi+8h],0FEh
	jz	6E0C30h

l006E0C23:
	push	8D0E04h
	call	6E86F0h
	add	esp,4h

l006E0C30:
	mov	dword ptr [esi+8h],0FFFFFFFDh
	mov	eax,[0A1D558h]
	mov	[esi],eax
	mov	ecx,[0A1D558h]
	mov	eax,[ecx+4h]
	mov	[esi+4h],eax
	mov	[eax],esi
	mov	edx,[0A1D558h]
	pop	edi
	pop	ebx
	mov	[edx+4h],esi
	pop	esi
	xor	eax,eax
	pop	ebp
	pop	ecx
	ret

l006E0C5D:
	test	esi,esi
	mov	dword ptr [eax],0h
	jz	6E0C78h

l006E0C67:
	add	dword ptr [esi],0FFh
	jnz	6E0C78h

l006E0C6C:
	mov	eax,[esi+4h]
	mov	ecx,[eax+18h]
	push	esi
	call	ecx
	add	esp,4h

l006E0C78:
	push	2C9h
	push	8D1E94h
	call	6E1DC0h
	add	esp,8h
	pop	esi
	or	eax,0FFh
	pop	ebp
	pop	ecx
	ret
006E0C91    CC CC CC CC CC CC CC CC CC CC CC CC CC CC CC  ...............

;; fn006E0CA0: 006E0CA0
;;   Called from:
;;     006E8999 (in fn006E8910)
fn006E0CA0 proc
	mov	eax,[0A6C4D0h]
	test	eax,eax
	jz	6E0CC2h

l006E0CA9:
	add	dword ptr [eax],0FFh
	mov	eax,[0A6C4D0h]
	cmp	dword ptr [eax],0h
	jnz	6E0CC2h

l006E0CB6:
	mov	ecx,[eax+4h]
	mov	edx,[ecx+18h]
	push	eax
	call	edx
	add	esp,4h

l006E0CC2:
	push	esi
	push	edi
	mov	dword ptr [0A6C4D0h],0h
	mov	edi,0A6C4D4h

l006E0CD3:
	mov	esi,[edi]
	test	esi,esi
	mov	dword ptr [edi],0h
	jz	6E0CF2h

l006E0CDF:
	nop

l006E0CE0:
	mov	eax,esi
	mov	esi,[esi+0Ch]
	push	eax
	call	6FEFD0h
	add	esp,4h
	test	esi,esi
	jnz	6E0CE0h

l006E0CF2:
	add	edi,4h
	cmp	edi,0A6C520h
	jl	6E0CD3h

l006E0CFD:
	pop	edi
	pop	esi
	ret
006E0D00 56 8B 74 24 08 8B 46 0C 85 C0 74 2F 8B 4E 08 3B V.t$..F...t/.N.;
006E0D10 48 08 7D 0F 8B 44 88 0C 83 C1 01 89 4E 08 83 00 H.}..D......N...
006E0D20 01 5E C3 83 00 FF 75 0C 8B 48 04 8B 51 18 50 FF .^....u..H..Q.P.
006E0D30 D2 83 C4 04 C7 46 0C 00 00 00 00 33 C0 5E C3 CC .....F.....3.^..
006E0D40 8B 54 24 04 8B 4A 0C 33 C0 85 C9 74 06 8B 41 08 .T$..J.3...t..A.
006E0D50 2B 42 08 89 44 24 04 E9 C4 43 02 00 CC CC CC CC +B..D$...C......
006E0D60 56 8B 74 24 08 8B 46 04 3D 88 65 A1 00 74 28 68 V.t$..F.=.e..t(h
006E0D70 88 65 A1 00 50 E8 F6 48 FF FF 83 C4 08 85 C0 75 .e..P..H.......u
006E0D80 16 68 6F 03 00 00 68 94 1E 8D 00 E8 30 10 00 00 .ho...h.....0...
006E0D90 83 C4 08 33 C0 5E C3 57 68 A0 66 A1 00 E8 8E E1 ...3.^.Wh.f.....
006E0DA0 01 00 8B F8 83 C4 04 85 FF 75 03 5F 5E C3 C7 47 .........u._^..G
006E0DB0 08 00 00 00 00 83 06 01 89 77 0C 83 7F F8 FE 8D .........w......
006E0DC0 77 F0 74 0D 68 04 0E 8D 00 E8 22 79 00 00 83 C4 w.t.h....."y....
006E0DD0 04 C7 46 08 FD FF FF FF A1 58 D5 A1 00 89 06 8B ..F......X......
006E0DE0 0D 58 D5 A1 00 8B 41 04 89 46 04 89 30 8B 15 58 .X....A..F..0..X
006E0DF0 D5 A1 00 8B C7 5F 89 72 04 5E C3 CC CC CC CC CC ....._.r.^......

;; fn006E0E00: 006E0E00
;;   Called from:
;;     00657266 (in fn00657140)
;;     006DE0A3 (in fn006DDFE0)
;;     006E1FCE (in fn006E1DE0)
;;     006E7D38 (in fn006E7CE0)
;;     006E8D73 (in fn006E8D90)
;;     006FBD4C (in fn006FBCC0)
;;     0070420C (in fn007040D0)
;;     007072C7 (in fn00707020)
;;     007085EC (in fn00708590)
;;     0070863E (in fn00708590)
;;     00708728 (in fn007086B0)
;;     00708DA9 (in fn00708C10)
;;     0070A232 (in fn00708DC0)
;;     00716AF7 (in fn00716A00)
;;     0073B4C3 (in fn0073B3D0)
;;     0073B5CE (in fn0073B4E0)
;;     0073B99F (in fn0073B870)
fn006E0E00 proc
	mov	eax,[esp+0Ch]
	test	eax,eax
	push	ebx
	push	esi
	mov	esi,[0A6D67Ch]
	push	edi
	jz	6E0E2Ch

l006E0E11:
	mov	ecx,[eax+4h]
	cmp	ecx,0A25E40h
	jz	6E0E2Ch

l006E0E1C:
	add	dword ptr [eax],0FFh
	jnz	6E0E2Ah

l006E0E21:
	push	eax
	mov	eax,[ecx+18h]
	call	eax
	add	esp,4h

l006E0E2A:
	xor	eax,eax

l006E0E2C:
	mov	edx,[esp+10h]
	mov	ecx,[esi+28h]
	test	ecx,ecx
	mov	edi,[esi+2Ch]
	mov	ebx,[esi+30h]
	mov	[esi+28h],edx
	mov	edx,[esp+14h]
	mov	[esi+2Ch],edx
	mov	[esi+30h],eax
	jz	6E0E5Bh

l006E0E4A:
	add	dword ptr [ecx],0FFh
	jnz	6E0E5Bh

l006E0E4F:
	mov	eax,[ecx+4h]
	push	ecx
	mov	ecx,[eax+18h]
	call	ecx
	add	esp,4h

l006E0E5B:
	test	edi,edi
	jz	6E0E70h

l006E0E5F:
	add	dword ptr [edi],0FFh
	jnz	6E0E70h

l006E0E64:
	mov	edx,[edi+4h]
	mov	eax,[edx+18h]
	push	edi
	call	eax
	add	esp,4h

l006E0E70:
	test	ebx,ebx
	jz	6E0E85h

l006E0E74:
	add	dword ptr [ebx],0FFh
	jnz	6E0E85h

l006E0E79:
	mov	ecx,[ebx+4h]
	mov	edx,[ecx+18h]
	push	ebx
	call	edx
	add	esp,4h

l006E0E85:
	pop	edi
	pop	esi
	pop	ebx
	ret
006E0E89                            CC CC CC CC CC CC CC          .......

;; fn006E0E90: 006E0E90
;;   Called from:
;;     006D9F34 (in fn006D9ED0)
;;     006E0F93 (in fn006E0F80)
;;     006E11E6 (in fn006E11D0)
;;     006E123D (in fn006E1210)
;;     006E135A (in fn006E1260)
;;     006E14BF (in fn006E1400)
;;     006E15E8 (in fn006E15D0)
;;     006E8684 (in fn006E8430)
;;     006F27FF (in fn006F2790)
;;     006F9239 (in fn006F9120)
;;     006FB77A (in fn006FB760)
;;     007283D5 (in fn00728360)
;;     0073B850 (in fn0073B830)
;;     0073C25A (in fn0073C100)
;;     0073CC3A (in fn0073CAE0)
;;     0073CCDF (in fn0073CAE0)
;;     0073DC71 (in fn0073DBD0)
;;     0073DEE4 (in fn0073DBD0)
;;     0073EDCE (in fn0073EB70)
;;     0073FA0D (in fn0073F9D0)
;;     0073FB34 (in fn0073FAF0)
;;     0073FF6F (in fn0073FC30)
;;     0073FFC0 (in fn0073FC30)
;;     0074000A (in fn0073FC30)
;;     0074E2CA (in fn0074E280)
fn006E0E90 proc
	push	ebx
	push	esi
	push	edi
	mov	edi,[esp+10h]
	test	edi,edi
	jz	6E0E9Eh

l006E0E9B:
	add	dword ptr [edi],1h

l006E0E9E:
	mov	edx,[esp+14h]
	test	edx,edx
	jz	6E0EA9h

l006E0EA6:
	add	dword ptr [edx],1h

l006E0EA9:
	mov	eax,[0A6D67Ch]
	mov	ecx,[eax+28h]
	test	ecx,ecx
	mov	esi,[eax+2Ch]
	mov	ebx,[eax+30h]
	mov	[eax+28h],edi
	mov	[eax+2Ch],edx
	mov	dword ptr [eax+30h],0h
	jz	6E0ED9h

l006E0EC8:
	add	dword ptr [ecx],0FFh
	jnz	6E0ED9h

l006E0ECD:
	mov	eax,[ecx+4h]
	push	ecx
	mov	ecx,[eax+18h]
	call	ecx
	add	esp,4h

l006E0ED9:
	test	esi,esi
	jz	6E0EEEh

l006E0EDD:
	add	dword ptr [esi],0FFh
	jnz	6E0EEEh

l006E0EE2:
	mov	edx,[esi+4h]
	mov	eax,[edx+18h]
	push	esi
	call	eax
	add	esp,4h

l006E0EEE:
	test	ebx,ebx
	jz	6E0F03h

l006E0EF2:
	add	dword ptr [ebx],0FFh
	jnz	6E0F03h

l006E0EF7:
	mov	ecx,[ebx+4h]
	mov	edx,[ecx+18h]
	push	ebx
	call	edx
	add	esp,4h

l006E0F03:
	pop	edi
	pop	esi
	pop	ebx
	ret
006E0F07                      CC CC CC CC CC CC CC CC CC        .........

;; fn006E0F10: 006E0F10
;;   Called from:
;;     006E124E (in fn006E1210)
;;     006E84D3 (in fn006E8430)
;;     00708FFB (in fn00708DC0)
fn006E0F10 proc
	mov	edx,[esp+4h]
	test	edx,edx
	jz	6E0F1Bh

l006E0F18:
	add	dword ptr [edx],1h

l006E0F1B:
	mov	eax,[0A6D67Ch]
	mov	ecx,[eax+28h]
	test	ecx,ecx
	push	esi
	mov	esi,[eax+2Ch]
	push	edi
	mov	edi,[eax+30h]
	mov	[eax+28h],edx
	mov	dword ptr [eax+2Ch],0h
	mov	dword ptr [eax+30h],0h
	jz	6E0F51h

l006E0F40:
	add	dword ptr [ecx],0FFh
	jnz	6E0F51h

l006E0F45:
	mov	eax,[ecx+4h]
	push	ecx
	mov	ecx,[eax+18h]
	call	ecx
	add	esp,4h

l006E0F51:
	test	esi,esi
	jz	6E0F66h

l006E0F55:
	add	dword ptr [esi],0FFh
	jnz	6E0F66h

l006E0F5A:
	mov	edx,[esi+4h]
	mov	eax,[edx+18h]
	push	esi
	call	eax
	add	esp,4h

l006E0F66:
	test	edi,edi
	jz	6E0F7Bh

l006E0F6A:
	add	dword ptr [edi],0FFh
	jnz	6E0F7Bh

l006E0F6F:
	mov	ecx,[edi+4h]
	mov	edx,[ecx+18h]
	push	edi
	call	edx
	add	esp,4h

l006E0F7B:
	pop	edi
	pop	esi
	ret
006E0F7E                                           CC CC               ..

;; fn006E0F80: 006E0F80
;;   Called from:
;;     00656668 (in fn00656570)
;;     006DDDCD (in fn006DDDB0)
;;     006DEBB2 (in fn006DEB90)
;;     006DEEB8 (in fn006DEEA0)
;;     006DEEE4 (in fn006DEEA0)
;;     006DFEB2 (in fn006DFE60)
;;     006E56ED (in fn006E5590)
;;     006E5AFC (in fn006E5AD0)
;;     006E5CEF (in fn006E5C60)
;;     006E5D0B (in fn006E5C60)
;;     006E5DBE (in fn006E5C60)
;;     006E5DE4 (in fn006E5C60)
;;     006E5E8C (in fn006E5C60)
;;     006E5EB2 (in fn006E5C60)
;;     006E77E0 (in fn006E7660)
;;     006E7A81 (in fn006E7660)
;;     006E98F7 (in fn006E98A0)
;;     006E9AB0 (in fn006E99A0)
;;     006E9BB0 (in fn006E9B00)
;;     006E9C1C (in fn006E9BD0)
;;     006E9E5D (in fn006E9BD0)
;;     006E9ECE (in fn006E9BD0)
;;     006E9FCC (in fn006E9FA0)
;;     006E9FF7 (in fn006E9FA0)
;;     006EA167 (in fn006EA0A0)
;;     006EA4EC (in fn006EA420)
;;     006EAA87 (in fn006EA9D0)
;;     006ECAF0 (in fn006ECAC0)
;;     006F2481 (in fn006F2090)
;;     006F29DF (in fn006F29C0)
;;     006F697A (in fn006F68F0)
;;     006F6F8E (in fn006F6EA0)
;;     006F6FD2 (in fn006F6EA0)
;;     006F7001 (in fn006F6EA0)
;;     006F709C (in fn006F6EA0)
;;     006F8021 (in fn006F7890)
;;     006F83D9 (in fn006F82C0)
;;     006F8B72 (in fn006F8AD0)
;;     006F8E2B (in fn006F8C70)
;;     006F8FDE (in fn006F8EC0)
;;     006F9110 (in fn006F9090)
;;     006FF48D (in fn006FF3E0)
;;     0070147A (in fn007012A0)
;;     0070149B (in fn007012A0)
;;     007016BD (in fn00701650)
;;     007018D8 (in fn00701880)
;;     00701918 (in fn00701880)
;;     0070193C (in fn00701880)
;;     0070292C (in fn00702910)
;;     0070298C (in fn00702970)
;;     007029EC (in fn007029D0)
;;     00702B10 (in fn00702AF0)
;;     0070313C (in fn00703120)
;;     0070319D (in fn00703180)
;;     0070322D (in fn00703210)
;;     0070331D (in fn00703300)
;;     007033AD (in fn00703390)
;;     0070343D (in fn00703420)
;;     0070353D (in fn00703520)
;;     007035DD (in fn007035C0)
;;     007036AC (in fn00703690)
;;     0070374A (in fn00703710)
;;     0070381D (in fn00703800)
;;     0070388D (in fn00703870)
;;     00703914 (in fn007038E0)
;;     007039A8 (in fn007038E0)
;;     00703B0B (in fn00703AF0)
;;     00703CD2 (in fn00703CB0)
;;     00703E0B (in fn00703D00)
;;     00703F66 (in fn00703F10)
;;     00703FD8 (in fn00703F10)
;;     0070409C (in fn00704080)
;;     007040F0 (in fn007040D0)
;;     007042F0 (in fn00704220)
;;     007043E7 (in fn00704300)
;;     007044D6 (in fn00704400)
;;     00704BBE (in fn00704BA0)
;;     00704DBC (in fn00704DA0)
;;     00704E08 (in fn00704DA0)
;;     00704F72 (in fn00704E40)
;;     00704FAB (in fn00704E40)
;;     00705250 (in fn007051A0)
;;     007052B2 (in fn007051A0)
;;     007052D4 (in fn007052C0)
;;     00705417 (in fn00705340)
;;     00705475 (in fn00705340)
;;     00706DDF (in fn00706DC0)
;;     007071F2 (in fn00707020)
;;     00707396 (in fn007072E0)
;;     007076C1 (in fn00707680)
;;     00707701 (in fn00707680)
;;     00707DDB (in fn00707D70)
;;     00708284 (in fn00708210)
;;     00708435 (in fn00708410)
;;     00709D63 (in fn00708DC0)
;;     00709E3B (in fn00708DC0)
;;     00709FCC (in fn00708DC0)
;;     0070A065 (in fn00708DC0)
;;     0070A0A7 (in fn00708DC0)
;;     0070A20D (in fn00708DC0)
;;     0070A833 (in fn00708DC0)
;;     0070A96A (in fn00708DC0)
;;     0070AFF9 (in fn00708DC0)
;;     0070B02E (in fn00708DC0)
;;     0070B628 (in fn0070B600)
;;     0070BDC0 (in fn0070BCC0)
;;     0070BE44 (in fn0070BCC0)
;;     0070BE7F (in fn0070BCC0)
;;     0070BEAA (in fn0070BCC0)
;;     0071097C (in fn007108F0)
;;     00710A5C (in fn007109D0)
;;     00710EBE (in fn00710E90)
;;     0071102E (in fn00710E90)
;;     007115D0 (in fn007114E0)
;;     00711644 (in fn007114E0)
;;     00711FC3 (in fn00711F50)
;;     00712122 (in fn007120F0)
;;     007172F7 (in fn00717280)
;;     00717725 (in fn00717680)
;;     00719463 (in fn00718F10)
;;     0072016D (in fn00720070)
;;     0072366E (in fn00723540)
;;     007236E8 (in fn00723540)
;;     007251D7 (in fn00725150)
;;     00728325 (in fn00728310)
;;     0072B681 (in fn0072B360)
;;     0072B769 (in fn0072B360)
;;     0072BD19 (in fn0072BBE0)
;;     0072BD62 (in fn0072BD40)
;;     0072E74B (in fn0072E660)
;;     0072E86A (in fn0072E790)
;;     0072E9E0 (in fn0072E9C0)
;;     0072E9FD (in fn0072E9C0)
;;     00731B24 (in fn00731B10)
;;     00731CA3 (in fn00731B10)
;;     00731D4D (in fn00731D30)
;;     00731DEC (in fn00731D30)
;;     0073684A (in fn007367D0)
;;     0073698C (in fn007367D0)
;;     00736D1C (in fn007367D0)
;;     00736DBD (in fn007367D0)
;;     007371D3 (in fn007367D0)
;;     0073C499 (in fn0073C440)
;;     0073C509 (in fn0073C4B0)
;;     0073D4EF (in fn0073D450)
;;     00742EE4 (in fn00742ED0)
;;     00742F34 (in fn00742F20)
;;     00742F55 (in fn00742F20)
;;     00742FC4 (in fn00742FB0)
;;     007430B4 (in fn007430A0)
;;     00743114 (in fn00743100)
;;     00743135 (in fn00743100)
;;     00743157 (in fn00743100)
;;     00743214 (in fn00743200)
;;     00743235 (in fn00743200)
;;     007432A4 (in fn00743290)
;;     00743314 (in fn00743300)
;;     00743384 (in fn00743370)
;;     007434D4 (in fn007434C0)
;;     00743574 (in fn00743560)
;;     007435E4 (in fn007435D0)
;;     00743694 (in fn00743680)
;;     00743784 (in fn00743770)
;;     007437E4 (in fn007437D0)
;;     00743805 (in fn007437D0)
;;     00743827 (in fn007437D0)
;;     00743894 (in fn00743880)
;;     007438B5 (in fn00743880)
;;     00743914 (in fn00743900)
;;     00743935 (in fn00743900)
;;     00743994 (in fn00743980)
;;     007439B5 (in fn00743980)
;;     007439D7 (in fn00743980)
;;     00743A84 (in fn00743A70)
;;     00743AE4 (in fn00743AD0)
;;     00743B84 (in fn00743B70)
;;     00743BF4 (in fn00743BE0)
;;     00743C74 (in fn00743C60)
;;     00743CD4 (in fn00743CC0)
;;     00743D34 (in fn00743D20)
;;     00743D94 (in fn00743D80)
;;     00743DB5 (in fn00743D80)
;;     00743DD7 (in fn00743D80)
;;     00743E44 (in fn00743E30)
;;     00743E65 (in fn00743E30)
;;     00743E87 (in fn00743E30)
;;     00743EF4 (in fn00743EE0)
;;     00743F15 (in fn00743EE0)
;;     00743F74 (in fn00743F60)
;;     00743FD4 (in fn00743FC0)
;;     007440D4 (in fn007440C0)
;;     00744124 (in fn00744110)
;;     00744145 (in fn00744110)
;;     00744214 (in fn00744200)
;;     00744235 (in fn00744200)
;;     00744284 (in fn00744270)
;;     007475BE (in fn00747580)
;;     00747A0D (in fn00747960)
;;     00748006 (in fn00747FD0)
;;     00748747 (in fn007486D0)
;;     00748ACA (in fn00748810)
;;     00749084 (in fn00748E50)
;;     00749933 (in fn00749820)
;;     0074E0D8 (in fn0074E0B0)
;;     0074E1CB (in fn0074E190)
;;     0074E2AF (in fn0074E280)
;;     0074EBED (in fn0074EB10)
;;     0074ECB1 (in fn0074EB10)
;;     0074EE03 (in fn0074ED80)
;;     0074EF1D (in fn0074EE90)
;;     0074FA94 (in fn0074F9E0)
;;     007514C9 (in fn007514B0)
;;     00752C32 (in fn00752B30)
;;     00752D94 (in fn00752CA0)
;;     00753709 (in fn00753600)
;;     00755841 (in fn00755780)
;;     007558CA (in fn007558B0)
fn006E0F80 proc
	mov	eax,[esp+8h]
	push	esi
	push	eax
	call	6ECAC0h
	mov	ecx,[esp+0Ch]
	mov	esi,eax
	push	esi
	push	ecx
	call	6E0E90h
	add	esp,0Ch
	test	esi,esi
	jz	6E0FB0h

l006E0F9F:
	add	dword ptr [esi],0FFh
	jnz	6E0FB0h

l006E0FA4:
	mov	edx,[esi+4h]
	mov	eax,[edx+18h]
	push	esi
	call	eax
	add	esp,4h

l006E0FB0:
	pop	esi
	ret
006E0FB2       CC CC CC CC CC CC CC CC CC CC CC CC CC CC   ..............

;; fn006E0FC0: 006E0FC0
;;   Called from:
;;     00657145 (in fn00657140)
;;     0065720A (in fn00657140)
;;     006D9F21 (in fn006D9ED0)
;;     006DC24C (in fn006DC1B0)
;;     006DDFE3 (in fn006DDFE0)
;;     006E55BF (in fn006E5590)
;;     006E5CBA (in fn006E5C60)
;;     006E5D55 (in fn006E5C60)
;;     006E5D97 (in fn006E5C60)
;;     006E5E30 (in fn006E5C60)
;;     006E5E66 (in fn006E5C60)
;;     006E5EFD (in fn006E5C60)
;;     006E5F33 (in fn006E5C60)
;;     006E5FEC (in fn006E5C60)
;;     006E60BD (in fn006E5C60)
;;     006E60FF (in fn006E5C60)
;;     006E6155 (in fn006E5C60)
;;     006E7E5B (in fn006E7D90)
;;     006E7EC8 (in fn006E7D90)
;;     006E824B (in fn006E8060)
;;     006E84BF (in fn006E8430)
;;     006E9EBA (in fn006E9BD0)
;;     006E9FE2 (in fn006E9FA0)
;;     006F3727 (in fn006F3930)
;;     006F37E8 (in fn006F3930)
;;     006F80E5 (in fn006F8050)
;;     006FCDDC (in fn006FCC90)
;;     006FE86E (in fn006FE400)
;;     006FEF01 (in fn006FEEB0)
;;     00701928 (in fn00701880)
;;     00702918 (in fn00702910)
;;     00702978 (in fn00702970)
;;     007029D8 (in fn007029D0)
;;     00702AFC (in fn00702AF0)
;;     00702C5C (in fn00702C30)
;;     00703128 (in fn00703120)
;;     00703189 (in fn00703180)
;;     00703219 (in fn00703210)
;;     00703309 (in fn00703300)
;;     00703399 (in fn00703390)
;;     00703429 (in fn00703420)
;;     00703529 (in fn00703520)
;;     007035C9 (in fn007035C0)
;;     00703698 (in fn00703690)
;;     00703735 (in fn00703710)
;;     00703809 (in fn00703800)
;;     00703879 (in fn00703870)
;;     00703993 (in fn007038E0)
;;     00703AF7 (in fn00703AF0)
;;     00703C50 (in fn00703BF0)
;;     00703CBD (in fn00703CB0)
;;     00703F52 (in fn00703F10)
;;     00704057 (in fn00704040)
;;     00704088 (in fn00704080)
;;     007040DC (in fn007040D0)
;;     00704290 (in fn00704220)
;;     007042DB (in fn00704220)
;;     0070437F (in fn00704300)
;;     007043D2 (in fn00704300)
;;     00704472 (in fn00704400)
;;     007044C1 (in fn00704400)
;;     00704523 (in fn007044F0)
;;     00704BAA (in fn00704BA0)
;;     00704C26 (in fn00704BA0)
;;     00704CED (in fn00704BA0)
;;     00704DA8 (in fn00704DA0)
;;     00704F0C (in fn00704E40)
;;     00704F2D (in fn00704E40)
;;     00704F96 (in fn00704E40)
;;     0070527F (in fn007051A0)
;;     00705441 (in fn00705340)
;;     00707326 (in fn007072E0)
;;     0070734A (in fn007072E0)
;;     00707DC3 (in fn00707D70)
;;     0070A4E8 (in fn00708DC0)
;;     0070A69C (in fn00708DC0)
;;     0070A85E (in fn00708DC0)
;;     0070AAE5 (in fn00708DC0)
;;     0070B019 (in fn00708DC0)
;;     0070B8B1 (in fn0070B600)
;;     007191A9 (in fn00718F10)
;;     00726945 (in fn00726930)
;;     0072E855 (in fn0072E790)
;;     0072E9E8 (in fn0072E9C0)
;;     00731D39 (in fn00731D30)
;;     00731D76 (in fn00731D30)
;;     00735E53 (in fn00735890)
;;     00736A59 (in fn007367D0)
;;     00736B7F (in fn007367D0)
;;     00736BCB (in fn007367D0)
;;     00736DA9 (in fn007367D0)
;;     00736EC4 (in fn007367D0)
;;     00736F49 (in fn007367D0)
;;     00738B2D (in fn007389B0)
;;     00740AD2 (in fn00740A90)
;;     0074FA2D (in fn0074F9E0)
;;     0074FA6A (in fn0074F9E0)
fn006E0FC0 proc
	mov	eax,[0A6D67Ch]
	mov	eax,[eax+28h]
	ret
006E0FC9                            CC CC CC CC CC CC CC          .......

;; fn006E0FD0: 006E0FD0
;;   Called from:
;;     006E10DB (in fn006E0FD0)
;;     006E111E (in fn006E1110)
;;     006E1220 (in fn006E1210)
;;     00702C6D (in fn00702C30)
;;     00708181 (in fn00708130)
fn006E0FD0 proc
	push	ebp
	mov	ebp,[esp+8h]
	test	ebp,ebp
	push	edi
	jz	6E1102h

l006E0FDE:
	mov	edi,[esp+10h]
	test	edi,edi
	jz	6E1102h

l006E0FEA:
	mov	eax,[edi+4h]
	cmp	eax,0A16588h
	jz	6E10C1h

l006E0FF8:
	push	0A16588h
	push	eax
	call	6D5670h
	add	esp,8h
	test	eax,eax
	jnz	6E10C1h
