;;; Segment .text (00401000)

;; fn005B60D0: 005B60D0
;;   Called from:
;;     005B66AA (in fn005B6640)
;;     005B674C (in fn005B6640)
;;     005B67EA (in fn005B6780)
;;     005B688D (in fn005B6780)
fn005B60D0 proc
	push	esi
	mov	esi,ecx
	mov	ecx,[esi+4h]
	mov	eax,[ecx]
	mov	[ecx],ecx
	mov	ecx,[esi+4h]
	mov	[ecx+4h],ecx
	cmp	eax,[esi+4h]
	mov	dword ptr [esi+8h],0h
	jz	5B6103h

l005B60EC:
	push	edi
	lea	ecx,[ecx+0h]

l005B60F0:
	mov	edi,[eax]
	push	eax
	call	694FC6h
	add	esp,4h
	cmp	edi,[esi+4h]
	mov	eax,edi
	jnz	5B60F0h

l005B6102:
	pop	edi

l005B6103:
	pop	esi
	ret
005B6105                CC CC CC CC CC CC CC CC CC CC CC      ...........

;; fn005B6110: 005B6110
;;   Called from:
;;     005B623D (in fn005B61E0)
;;     005B63EB (in fn005B62A0)
fn005B6110 proc
	push	0FFh
	push	85CAC9h
	mov	eax,fs:[0000h]
	push	eax
	sub	esp,44h
	push	esi
	mov	eax,[0A14188h]
	xor	eax,esp
	push	eax
	lea	eax,[esp+4Ch]
	mov	fs:[0000h],eax
	mov	eax,[ecx+8h]
	mov	edx,[esp+5Ch]
	mov	esi,3FFFFFFFh
	sub	esi,eax
	cmp	esi,edx
	jnc	5B6182h

l005B6146:
	push	8A80B0h
	lea	ecx,[esp+0Ch]
	call	dword ptr [8A4334h]
	lea	eax,[esp+8h]
	push	eax
	lea	ecx,[esp+28h]
	mov	dword ptr [esp+58h],0h
	call	4019E0h
	push	999C68h
	lea	ecx,[esp+28h]
	push	ecx
	mov	dword ptr [esp+2Ch],990030h
	call	694FCCh

l005B6182:
	add	eax,edx
	mov	[ecx+8h],eax
	mov	ecx,[esp+4Ch]
	mov	fs:[0000h],ecx
	pop	ecx
	pop	esi
	add	esp,50h
	ret	4h
005B619A                               CC CC CC CC CC CC           ......
005B61A0 8B 44 24 08 56 8B F1 3B 46 04 57 8B 38 74 1C 8B .D$.V..;F.W.8t..
005B61B0 48 04 8B D7 89 11 8B 08 8B 50 04 50 89 51 04 E8 H........P.P.Q..
005B61C0 02 EE 0D 00 83 C4 04 83 46 08 FF 8B 44 24 0C 89 ........F...D$..
005B61D0 38 5F 5E C2 08 00 CC CC CC CC CC CC CC CC CC CC 8_^.............

;; fn005B61E0: 005B61E0
;;   Called from:
;;     005B6609 (in fn005B65B0)
fn005B61E0 proc
	push	ebp
	mov	ebp,esp
	push	0FFh
	push	85CAF0h
	mov	eax,fs:[0000h]
	push	eax
	sub	esp,0Ch
	push	ebx
	push	esi
	push	edi
	mov	eax,[0A14188h]
	xor	eax,ebp
	push	eax
	lea	eax,[ebp-0Ch]
	mov	fs:[0000h],eax
	mov	[ebp-10h],esp
	mov	[ebp-14h],ecx
	mov	edi,[ebp+0Ch]
	mov	ebx,[ebp+8h]
	mov	[ebp-18h],edi
	mov	dword ptr [ebp-4h],0h
	mov	edi,edi

l005B6220:
	cmp	edi,[ebp+10h]
	jz	5B6281h

l005B6225:
	mov	ecx,[ebp-14h]
	lea	eax,[edi+8h]
	push	eax
	mov	eax,[ebx+4h]
	push	eax
	push	ebx
	call	8119C0h
	mov	ecx,[ebp-14h]
	push	1h
	mov	esi,eax
	call	5B6110h
	mov	[ebx+4h],esi
	mov	ecx,[esi+4h]
	mov	[ecx],esi
	mov	edi,[edi]
	mov	[ebp+0Ch],edi
	jmp	5B6220h
005B6251    8B 75 E8 8B 7D 0C 3B F7 74 1D 8B 5D EC 8B FF  .u..}.;.t..]...
005B6260 8B 55 08 8B 42 04 50 8D 45 0C 50 8B CB E8 2E FF .U..B.P.E.P.....
005B6270 FF FF 8B 36 3B F7 75 E8 6A 00 6A 00 E8 4B ED 0D ...6;.u.j.j..K..
005B6280 00                                              .              

l005B6281:
	mov	ecx,[ebp-0Ch]
	mov	fs:[0000h],ecx
	pop	ecx
	pop	edi
	pop	esi
	pop	ebx
	mov	esp,ebp
	pop	ebp
	ret	10h
005B6295                CC CC CC CC CC CC CC CC CC CC CC      ...........

;; fn005B62A0: 005B62A0
;;   Called from:
;;     0045E0F0 (in fn0045E0B0)
fn005B62A0 proc
	push	0FFh
	push	85CB2Eh
	mov	eax,fs:[0000h]
	push	eax
	sub	esp,0Ch
	push	ebx
	push	ebp
	push	esi
	push	edi
	mov	eax,[0A14188h]
	xor	eax,esp
	push	eax
	lea	eax,[esp+20h]
	mov	fs:[0000h],eax
	mov	ebx,ecx
	mov	[esp+18h],ebx
	xor	edi,edi
	mov	dword ptr [ebx],8C38DCh
	cmp	[0A62CC8h],edi
	jnz	5B63A3h

l005B62E1:
	push	0Ch
	call	694FD8h
	mov	esi,eax
	add	esp,4h
	mov	[esp+14h],esi
	cmp	esi,edi
	mov	[esp+28h],edi
	jz	5B6308h

l005B62F9:
	mov	ecx,esi
	call	4C8820h
	mov	[esi+4h],eax
	mov	[esi+8h],edi
	jmp	5B630Ah

l005B6308:
	xor	esi,esi

l005B630A:
	push	8h
	mov	dword ptr [esp+2Ch],0FFFFFFFFh
	mov	[0A62CC8h],esi
	call	694FD8h
	mov	ebp,[8A40FCh]
	mov	esi,eax
	add	esp,4h
	cmp	esi,edi
	jz	5B633Bh

l005B632E:
	push	edi
	push	edi
	push	edi
	call	ebp
	mov	[esi],eax
	mov	byte ptr [esi+4h],0h
	jmp	5B633Dh

l005B633B:
	xor	esi,esi

l005B633D:
	push	0Ch
	mov	[0A62CD4h],esi
	call	694FD8h
	mov	esi,eax
	add	esp,4h
	mov	[esp+14h],esi
	cmp	esi,edi
	mov	dword ptr [esp+28h],1h
	jz	5B636Eh

l005B635F:
	mov	ecx,esi
	call	4C8820h
	mov	[esi+4h],eax
	mov	[esi+8h],edi
	jmp	5B6370h

l005B636E:
	xor	esi,esi

l005B6370:
	push	8h
	mov	dword ptr [esp+2Ch],0FFFFFFFFh
	mov	[0A62CCCh],esi
	call	694FD8h
	mov	esi,eax
	add	esp,4h
	cmp	esi,edi
	jz	5B639Bh

l005B638E:
	push	edi
	push	edi
	push	edi
	call	ebp
	mov	[esi],eax
	mov	byte ptr [esi+4h],0h
	jmp	5B639Dh

l005B639B:
	xor	esi,esi

l005B639D:
	mov	[0A62CD0h],esi

l005B63A3:
	mov	eax,[0A62CD4h]
	mov	ebp,eax
	mov	esi,eax
	mov	eax,[eax]
	push	0FFh
	push	eax
	mov	[esp+24h],ebp
	call	dword ptr [8A40F4h]
	mov	byte ptr [esi+4h],1h
	mov	ecx,[0A62CC8h]
	mov	esi,[ecx+4h]
	mov	eax,[esi+4h]
	lea	edx,[esp+14h]
	push	edx
	push	eax
	mov	[esp+1Ch],ebx
	push	esi
	mov	dword ptr [esp+34h],2h
	mov	ebx,ecx
	call	8119C0h
	push	1h
	mov	ecx,ebx
	mov	edi,eax
	call	5B6110h
	mov	[esi+4h],edi
	mov	ecx,[edi+4h]
	mov	[ecx],edi
	mov	edx,[ebp+0h]
	push	edx
	mov	byte ptr [ebp+4h],0h
	call	dword ptr [8A40F0h]
	mov	eax,[esp+18h]
	mov	ecx,[esp+20h]
	mov	fs:[0000h],ecx
	pop	ecx
	pop	edi
	pop	esi
	pop	ebp
	pop	ebx
	add	esp,18h
	ret
005B641E                                           CC CC               ..
005B6420 51 57 8B F9 C7 07 DC 38 8C 00 83 3D C8 2C A6 00 QW.....8...=.,..
005B6430 00 89 7C 24 04 0F 84 70 01 00 00 A1 D4 2C A6 00 ..|$...p.....,..
005B6440 55 8B 2D F4 40 8A 00 56 8B F0 8B 00 6A FF 50 FF U.-.@..V....j.P.
005B6450 D5 C6 46 04 01 8B 15 C8 2C A6 00 8B 4A 04 8B 01 ..F.....,...J...
005B6460 3B C1 74 33 39 78 08 74 06 8B 00 3B C1 75 F5 3B ;.t39x.t...;.u.;
005B6470 C1 74 24 8B 48 04 8B F2 8B 10 89 11 8B 08 8B 50 .t$.H..........P
005B6480 04 50 89 51 04 E8 3C EB 0D 00 83 C4 04 83 46 08 .P.Q..<.......F.
005B6490 FF 8B 15 C8 2C A6 00 A1 D4 2C A6 00 83 7A 08 00 ....,....,...z..
005B64A0 53 C6 40 04 00 8B 00 50 0F 94 C3 FF 15 F0 40 8A S.@....P......@.
005B64B0 00 84 DB 0F 84 91 00 00 00 8B 0D C8 2C A6 00 85 ............,...
005B64C0 C9 8B F1 74 0E E8 B6 46 01 00 56 E8 F6 EA 0D 00 ...t...F..V.....
005B64D0 83 C4 04 A1 D4 2C A6 00 85 C0 8B 3D F8 40 8A 00 .....,.....=.@..
005B64E0 C7 05 C8 2C A6 00 00 00 00 00 8B F0 74 0E 8B 08 ...,........t...
005B64F0 51 FF D7 56 E8 CD EA 0D 00 83 C4 04 8B 0D CC 2C Q..V...........,
005B6500 A6 00 33 DB 3B CB 89 1D D4 2C A6 00 8B F1 74 0E ..3.;....,....t.
005B6510 E8 6B 46 01 00 56 E8 AB EA 0D 00 83 C4 04 A1 D0 .kF..V..........
005B6520 2C A6 00 3B C3 89 1D CC 2C A6 00 8B F0 74 0E 8B ,..;....,....t..
005B6530 10 52 FF D7 56 E8 8C EA 0D 00 83 C4 04 8B 7C 24 .R..V.........|$
005B6540 10 33 C0 A3 D0 2C A6 00 EB 05 A1 D0 2C A6 00 83 .3...,......,...
005B6550 3D CC 2C A6 00 00 5B 74 50 8B F0 8B 00 6A FF 50 =.,...[tP....j.P
005B6560 FF D5 C6 46 04 01 8B 0D CC 2C A6 00 8B 71 04 8B ...F.....,...q..
005B6570 46 04 8D 54 24 0C 52 50 56 89 7C 24 18 8B E9 E8 F..T$.RPV.|$....
005B6580 3C B4 25 00 6A 01 8B CD 8B F8 E8 81 FB FF FF A1 <.%.j...........
005B6590 D0 2C A6 00 89 7E 04 8B 4F 04 89 39 8B 10 52 C6 .,...~..O..9..R.
005B65A0 40 04 00 FF 15 F0 40 8A 00 5E 5D 5F 59 C3 CC CC @.....@..^]_Y...

;; fn005B65B0: 005B65B0
;;   Called from:
;;     005B6697 (in fn005B6640)
;;     005B67D7 (in fn005B6780)
fn005B65B0 proc
	push	ebp
	mov	ebp,esp
	push	0FFh
	push	85CB50h
	mov	eax,fs:[0000h]
	push	eax
	sub	esp,8h
	push	ebx
	push	esi
	push	edi
	mov	eax,[0A14188h]
	xor	eax,ebp
	push	eax
	lea	eax,[ebp-0Ch]
	mov	fs:[0000h],eax
	mov	[ebp-10h],esp
	mov	esi,ecx
	mov	[ebp-14h],esi
	call	4C8820h
	mov	ecx,[ebp+8h]
	mov	edi,[ebp+8h]
	mov	[esi+4h],eax
	mov	dword ptr [esi+8h],0h
	mov	ecx,[ecx+4h]
	mov	edx,[ecx]
	mov	eax,[eax]
	push	edi
	push	ecx
	push	edx
	push	eax
	mov	ecx,esi
	mov	dword ptr [ebp-4h],0h
	call	5B61E0h
	mov	eax,esi
	mov	ecx,[ebp-0Ch]
	mov	fs:[0000h],ecx
	pop	ecx
	pop	edi
	pop	esi
	pop	ebx
	mov	esp,ebp
	pop	ebp
	ret	4h
005B6624             8B 4D EC E8 54 45 01 00 6A 00 6A 00     .M..TE..j.j.
005B6630 E8 97 E9 0D 00 CC CC CC CC CC CC CC CC CC CC CC ................

;; fn005B6640: 005B6640
;;   Called from:
;;     005A75FC (in fn005A7560)
fn005B6640 proc
	push	0FFh
	push	85CB78h
	mov	eax,fs:[0000h]
	push	eax
	sub	esp,0Ch
	push	ebx
	push	ebp
	push	esi
	push	edi
	mov	eax,[0A14188h]
	xor	eax,esp
	push	eax
	lea	eax,[esp+20h]
	mov	fs:[0000h],eax
	cmp	dword ptr [0A62CC8h],0h
	jz	5B6768h

l005B6674:
	mov	eax,[0A62CD4h]
	mov	ebp,[8A40F4h]
	mov	esi,eax
	mov	eax,[eax]
	push	0FFh
	push	eax
	call	ebp
	mov	byte ptr [esi+4h],1h
	mov	ecx,[0A62CC8h]
	push	ecx
	lea	ecx,[esp+18h]
	call	5B65B0h
	mov	ecx,[0A62CCCh]
	mov	dword ptr [esp+28h],0h
	call	5B60D0h
	mov	eax,[0A62CD4h]
	mov	edx,[eax]
	mov	ebx,[8A40F0h]
	push	edx
	mov	byte ptr [eax+4h],0h
	call	ebx
	mov	eax,[esp+18h]
	mov	esi,[eax]
	cmp	esi,eax
	jz	5B6734h

l005B66CD:
	lea	ecx,[ecx+0h]

l005B66D0:
	mov	eax,[0A62CD0h]
	mov	edi,eax
	mov	eax,[eax]
	push	0FFh
	push	eax
	call	ebp
	mov	byte ptr [edi+4h],1h
	mov	edx,[0A62CCCh]
	mov	eax,[edx+4h]
	mov	ecx,[eax]
	cmp	ecx,eax
	jz	5B6715h

l005B66F1:
	mov	edi,[esi+8h]

l005B66F4:
	cmp	[ecx+8h],edi
	jz	5B66FFh

l005B66F9:
	mov	ecx,[ecx]
	cmp	ecx,eax
	jnz	5B66F4h

l005B66FF:
	cmp	ecx,eax
	jz	5B6715h

l005B6703:
	mov	eax,[0A62CD0h]
	mov	ecx,[eax]
	mov	esi,[esi]
	push	ecx
	mov	byte ptr [eax+4h],0h
	call	ebx
	jmp	5B672Eh

l005B6715:
	mov	eax,[0A62CD0h]
	mov	edx,[eax]
	push	edx
	mov	byte ptr [eax+4h],0h
	call	ebx
	mov	ecx,[esi+8h]
	mov	eax,[ecx]
	mov	edx,[eax]
	call	edx
	mov	esi,[esi]

l005B672E:
	cmp	esi,[esp+18h]
	jnz	5B66D0h

l005B6734:
	mov	eax,[0A62CD0h]
	mov	esi,eax
	mov	eax,[eax]
	push	0FFh
	push	eax
	call	ebp
	mov	byte ptr [esi+4h],1h
	mov	ecx,[0A62CCCh]
	call	5B60D0h
	mov	eax,[0A62CD0h]
	mov	ecx,[eax]
	push	ecx
	mov	byte ptr [eax+4h],0h
	call	ebx
	lea	ecx,[esp+14h]
	call	5CAB80h

l005B6768:
	mov	ecx,[esp+20h]
	mov	fs:[0000h],ecx
	pop	ecx
	pop	edi
	pop	esi
	pop	ebp
	pop	ebx
	add	esp,18h
	ret
005B677C                                     CC CC CC CC             ....

;; fn005B6780: 005B6780
;;   Called from:
;;     005A7764 (in fn005A7560)
fn005B6780 proc
	push	0FFh
	push	85CBA8h
	mov	eax,fs:[0000h]
	push	eax
	sub	esp,0Ch
	push	ebx
	push	ebp
	push	esi
	push	edi
	mov	eax,[0A14188h]
	xor	eax,esp
	push	eax
	lea	eax,[esp+20h]
	mov	fs:[0000h],eax
	cmp	dword ptr [0A62CC8h],0h
	jz	5B68A9h

l005B67B4:
	mov	eax,[0A62CD4h]
	mov	ebp,[8A40F4h]
	mov	esi,eax
	mov	eax,[eax]
	push	0FFh
	push	eax
	call	ebp
	mov	byte ptr [esi+4h],1h
	mov	ecx,[0A62CC8h]
	push	ecx
	lea	ecx,[esp+18h]
	call	5B65B0h
	mov	ecx,[0A62CCCh]
	mov	dword ptr [esp+28h],0h
	call	5B60D0h
	mov	eax,[0A62CD4h]
	mov	edx,[eax]
	mov	ebx,[8A40F0h]
	push	edx
	mov	byte ptr [eax+4h],0h
	call	ebx
	mov	eax,[esp+18h]
	mov	esi,[eax]
	cmp	esi,eax
	jz	5B6875h

l005B680D:
	lea	ecx,[ecx+0h]

l005B6810:
	mov	eax,[0A62CD0h]
	mov	edi,eax
	mov	eax,[eax]
	push	0FFh
	push	eax
	call	ebp
	mov	byte ptr [edi+4h],1h
	mov	edx,[0A62CCCh]
	mov	eax,[edx+4h]
	mov	ecx,[eax]
	cmp	ecx,eax
	jz	5B6855h

l005B6831:
	mov	edi,[esi+8h]

l005B6834:
	cmp	[ecx+8h],edi
	jz	5B683Fh

l005B6839:
	mov	ecx,[ecx]
	cmp	ecx,eax
	jnz	5B6834h

l005B683F:
	cmp	ecx,eax
	jz	5B6855h

l005B6843:
	mov	eax,[0A62CD0h]
	mov	ecx,[eax]
	mov	esi,[esi]
	push	ecx
	mov	byte ptr [eax+4h],0h
	call	ebx
	jmp	5B686Fh

l005B6855:
	mov	eax,[0A62CD0h]
	mov	edx,[eax]
	push	edx
	mov	byte ptr [eax+4h],0h
	call	ebx
	mov	ecx,[esi+8h]
	mov	eax,[ecx]
	mov	edx,[eax+4h]
	call	edx
	mov	esi,[esi]

l005B686F:
	cmp	esi,[esp+18h]
	jnz	5B6810h

l005B6875:
	mov	eax,[0A62CD0h]
	mov	esi,eax
	mov	eax,[eax]
	push	0FFh
	push	eax
	call	ebp
	mov	byte ptr [esi+4h],1h
	mov	ecx,[0A62CCCh]
	call	5B60D0h
	mov	eax,[0A62CD0h]
	mov	ecx,[eax]
	push	ecx
	mov	byte ptr [eax+4h],0h
	call	ebx
	lea	ecx,[esp+14h]
	call	5CAB80h

l005B68A9:
	mov	ecx,[esp+20h]
	mov	fs:[0000h],ecx
	pop	ecx
	pop	edi
	pop	esi
	pop	ebp
	pop	ebx
	add	esp,18h
	ret
005B68BD                                        CC CC CC              ...
005B68C0 6A FF 68 D8 CB 85 00 64 A1 00 00 00 00 50 83 EC j.h....d.....P..
005B68D0 0C 53 55 56 57 A1 88 41 A1 00 33 C4 50 8D 44 24 .SUVW..A..3.P.D$
005B68E0 20 64 A3 00 00 00 00 83 3D C8 2C A6 00 00 0F 84  d......=.,.....
005B68F0 F5 00 00 00 A1 D4 2C A6 00 8B 2D F4 40 8A 00 8B ......,...-.@...
005B6900 F0 8B 00 6A FF 50 FF D5 C6 46 04 01 8B 0D C8 2C ...j.P...F.....,
005B6910 A6 00 51 8D 4C 24 18 E8 94 FC FF FF 8B 0D CC 2C ..Q.L$.........,
005B6920 A6 00 C7 44 24 28 00 00 00 00 E8 A1 F7 FF FF A1 ...D$(..........
005B6930 D4 2C A6 00 8B 10 8B 1D F0 40 8A 00 52 C6 40 04 .,.......@..R.@.
005B6940 00 FF D3 8B 44 24 18 8B 30 3B F0 74 68 8D 49 00 ....D$..0;.th.I.
005B6950 A1 D0 2C A6 00 8B F8 8B 00 6A FF 50 FF D5 C6 47 ..,......j.P...G
005B6960 04 01 8B 15 CC 2C A6 00 8B 42 04 8B 08 3B C8 74 .....,...B...;.t
005B6970 24 8B 7E 08 39 79 08 74 06 8B 09 3B C8 75 F5 3B $.~.9y.t...;.u.;
005B6980 C8 74 12 A1 D0 2C A6 00 8B 08 8B 36 51 C6 40 04 .t...,.....6Q.@.
005B6990 00 FF D3 EB 1A A1 D0 2C A6 00 8B 10 52 C6 40 04 .......,....R.@.
005B69A0 00 FF D3 8B 4E 08 8B 01 8B 50 08 FF D2 8B 36 3B ....N....P....6;
005B69B0 74 24 18 75 9B A1 D0 2C A6 00 8B F0 8B 00 6A FF t$.u...,......j.
005B69C0 50 FF D5 C6 46 04 01 8B 0D CC 2C A6 00 E8 FE F6 P...F.....,.....
005B69D0 FF FF A1 D0 2C A6 00 8B 08 51 C6 40 04 00 FF D3 ....,....Q.@....
005B69E0 8D 4C 24 14 E8 97 41 01 00 8B 4C 24 20 64 89 0D .L$...A...L$ d..
005B69F0 00 00 00 00 59 5F 5E 5D 5B 83 C4 18 C3 CC CC CC ....Y_^][.......
005B6A00 6A FF 68 08 CC 85 00 64 A1 00 00 00 00 50 83 EC j.h....d.....P..
005B6A10 0C 53 55 56 57 A1 88 41 A1 00 33 C4 50 8D 44 24 .SUVW..A..3.P.D$
005B6A20 20 64 A3 00 00 00 00 83 3D C8 2C A6 00 00 0F 84  d......=.,.....
005B6A30 F5 00 00 00 A1 D4 2C A6 00 8B 2D F4 40 8A 00 8B ......,...-.@...
005B6A40 F0 8B 00 6A FF 50 FF D5 C6 46 04 01 8B 0D C8 2C ...j.P...F.....,
005B6A50 A6 00 51 8D 4C 24 18 E8 54 FB FF FF 8B 0D CC 2C ..Q.L$..T......,
005B6A60 A6 00 C7 44 24 28 00 00 00 00 E8 61 F6 FF FF A1 ...D$(.....a....
005B6A70 D4 2C A6 00 8B 10 8B 1D F0 40 8A 00 52 C6 40 04 .,.......@..R.@.
005B6A80 00 FF D3 8B 44 24 18 8B 30 3B F0 74 68 8D 49 00 ....D$..0;.th.I.
005B6A90 A1 D0 2C A6 00 8B F8 8B 00 6A FF 50 FF D5 C6 47 ..,......j.P...G
005B6AA0 04 01 8B 15 CC 2C A6 00 8B 42 04 8B 08 3B C8 74 .....,...B...;.t
005B6AB0 24 8B 7E 08 39 79 08 74 06 8B 09 3B C8 75 F5 3B $.~.9y.t...;.u.;
005B6AC0 C8 74 12 A1 D0 2C A6 00 8B 08 8B 36 51 C6 40 04 .t...,.....6Q.@.
005B6AD0 00 FF D3 EB 1A A1 D0 2C A6 00 8B 10 52 C6 40 04 .......,....R.@.
005B6AE0 00 FF D3 8B 4E 08 8B 01 8B 50 0C FF D2 8B 36 3B ....N....P....6;
005B6AF0 74 24 18 75 9B A1 D0 2C A6 00 8B F0 8B 00 6A FF t$.u...,......j.
005B6B00 50 FF D5 C6 46 04 01 8B 0D CC 2C A6 00 E8 BE F5 P...F.....,.....
005B6B10 FF FF A1 D0 2C A6 00 8B 08 51 C6 40 04 00 FF D3 ....,....Q.@....
005B6B20 8D 4C 24 14 E8 57 40 01 00 8B 4C 24 20 64 89 0D .L$..W@...L$ d..
005B6B30 00 00 00 00 59 5F 5E 5D 5B 83 C4 18 C3 CC CC CC ....Y_^][.......
005B6B40 6A FF 68 39 CC 85 00 64 A1 00 00 00 00 50 83 EC j.h9...d.....P..
005B6B50 44 56 A1 88 41 A1 00 33 C4 50 8D 44 24 4C 64 A3 DV..A..3.P.D$Ld.
005B6B60 00 00 00 00 8B 41 08 8B 54 24 5C BE FF FF FF 3F .....A..T$\....?
005B6B70 2B F0 3B F2 73 3C 68 B0 80 8A 00 8D 4C 24 0C FF +.;.s<h.....L$..
005B6B80 15 34 43 8A 00 8D 44 24 08 50 8D 4C 24 28 C7 44 .4C...D$.P.L$(.D
005B6B90 24 58 00 00 00 00 E8 45 AE E4 FF 68 68 9C 99 00 $X.....E...hh...
005B6BA0 8D 4C 24 28 51 C7 44 24 2C 30 00 99 00 E8 1A E4 .L$(Q.D$,0......
005B6BB0 0D 00 03 C2 89 41 08 8B 4C 24 4C 64 89 0D 00 00 .....A..L$Ld....
005B6BC0 00 00 59 5E 83 C4 50 C2 04 00 CC CC CC CC CC CC ..Y^..P.........
005B6BD0 8B 0D 2C 32 A6 00 8B 01 3B C1 74 14 B1 01 8B FF ..,2....;.t.....
005B6BE0 8B 50 08 88 4A 18 8B 00 3B 05 2C 32 A6 00 75 F0 .P..J...;.,2..u.
005B6BF0 C3 CC CC CC CC CC CC CC CC CC CC CC CC CC CC CC ................
005B6C00 56 8D 71 10 C7 41 1C 00 00 00 00 8B 46 04 85 C0 V.q..A......F...
005B6C10 74 18 8B 08 8B 51 08 50 FF D2 8B 06 8B 10 C7 46 t....Q.P.......F
005B6C20 04 00 00 00 00 8B CE 5E FF E2 5E C3 CC CC CC CC .......^..^.....
005B6C30 51 53 55 56 8B F1 33 DB 57 8D 7E 10 89 5E 1C 8B QSUV..3.W.~..^..
005B6C40 47 04 3B C3 74 13 8B 08 8B 51 08 50 FF D2 8B 07 G.;.t....Q.P....
005B6C50 8B 10 8B CF 89 5F 04 FF D2 BD 05 40 00 80 E8 8D ....._.....@....
005B6C60 08 FF FF 39 98 A8 00 00 00 0F 84 9A 00 00 00 8A ...9............
005B6C70 46 0E 84 C0 89 5C 24 10 BB 00 02 00 00 74 05 BB F....\$......t..
005B6C80 10 02 00 00 80 7E 0F 00 74 03 83 CB 08 F6 D8 1B .....~..t.......
005B6C90 C0 83 E0 02 8B E8 E8 55 08 FF FF 8B 80 A8 00 00 .......U........
005B6CA0 00 8B 08 6A 00 8D 54 24 14 52 8B 56 20 0F AF 56 ...j..T$.R.V ..V
005B6CB0 08 55 6A 00 53 52 50 8B 41 68 FF D0 8B E8 85 ED .Uj.SRP.Ah......
005B6CC0 7C 47 8B 44 24 10 8B 4F 04 3B C1 8B D8 74 27 85 |G.D$..O.;...t'.
005B6CD0 C9 74 08 8B 11 8B 42 08 51 FF D0 85 DB 89 5F 04 .t....B.Q....._.
005B6CE0 74 08 8B 0B 8B 51 04 53 FF D2 8B 07 8B 10 8B CF t....Q.S........
005B6CF0 FF D2 8B 44 24 10 8B 08 8B 51 08 50 FF D2 C7 46 ...D$....Q.P...F
005B6D00 1C 00 00 00 00 C6 46 19 00 5F 5E 8B C5 5D 5B 59 ......F.._^..][Y
005B6D10 C3 CC CC CC CC CC CC CC CC CC CC CC CC CC CC CC ................
005B6D20 53 56 57 8B F1 33 DB 33 FF E8 C2 07 FF FF 39 98 SVW..3.3......9.
005B6D30 A8 00 00 00 0F 84 9A 00 00 00 55 8B 6C 24 14 39 ..........U.l$.9
005B6D40 6E 20 73 23 8D 7E 10 89 5E 1C 8B 47 04 3B C3 74 n s#.~..^..G.;.t
005B6D50 13 8B 08 8B 51 08 50 FF D2 8B 07 8B 10 8B CF 89 ....Q.P.........
005B6D60 5F 04 FF D2 89 6E 20 39 5E 14 75 0B 8B CE E8 BD _....n 9^.u.....
005B6D70 FE FF FF 85 C0 7C 65 33 C0 38 5E 0D 75 16 8B 46 .....|e3.8^.u..F
005B6D80 1C 03 C5 39 46 20 1B C0 25 00 10 00 00 05 00 10 ...9F ..%.......
005B6D90 00 00 EB 0A 38 5E 0C 74 05 B8 00 20 00 00 8B 4E ....8^.t... ...N
005B6DA0 14 50 8D 44 24 18 50 8B 46 08 0F AF C5 50 89 5C .P.D$.P.F....P.\
005B6DB0 24 20 8B 11 53 51 8B 4A 2C FF D1 85 C0 7C 1D 01 $ ..SQ.J,....|..
005B6DC0 6E 1C 8B 44 24 14 5D 5F 89 5E 04 C6 46 19 01 5E n..D$.]_.^..F..^
005B6DD0 5B C2 04 00 8B C7 5F 5E 5B C2 04 00 5D 5F 5E 33 [....._^[...]_^3
005B6DE0 C0 5B C2 04 00 CC CC CC CC CC CC CC CC CC CC CC .[..............
005B6DF0 53 56 57 8B F1 33 DB 33 FF E8 F2 06 FF FF 39 98 SVW..3.3......9.
005B6E00 A8 00 00 00 0F 84 D4 00 00 00 38 5E 18 74 03 89 ..........8^.t..
005B6E10 5E 1C 8B 46 1C 55 8B 6C 24 14 8D 0C 28 39 4E 20 ^..F.U.l$...(9N 
005B6E20 89 4C 24 14 73 27 8D 7E 10 89 5E 1C 8B 47 04 3B .L$.s'.~..^..G.;
005B6E30 C3 74 17 8B 08 8B 51 08 50 FF D2 8B 07 8B 10 8B .t....Q.P.......
005B6E40 CF 89 5F 04 FF D2 8B 4C 24 14 89 4E 20 39 5E 14 .._....L$..N 9^.
005B6E50 75 0F 8B CE E8 D7 FD FF FF 85 C0 0F 8C 85 00 00 u...............
005B6E60 00 38 5E 18 75 4F 8B 56 1C 8D 04 2A 3B 46 20 77 .8^.uO.V...*;F w
005B6E70 44 8B 46 08 8B 4E 14 89 5C 24 14 8B 39 68 00 10 D.F..N..\$..9h..
005B6E80 00 00 8D 5C 24 18 53 8B D8 0F AF C2 0F AF DD 53 ...\$.S........S
005B6E90 50 51 8B 4F 2C FF D1 85 C0 7C 4B 8B 46 1C 89 46 PQ.O,....|K.F..F
005B6EA0 04 03 C5 5D 5F 89 46 1C 8B 44 24 0C C6 46 19 01 ...]_.F..D$..F..
005B6EB0 5E 5B C2 04 00 8B 46 14 68 00 20 00 00 8D 4C 24 ^[....F.h. ...L$
005B6EC0 18 51 8B 4E 08 0F AF CD 51 89 5E 1C 89 5C 24 20 .Q.N....Q.^..\$ 
005B6ED0 88 5E 18 8B 10 8B 52 2C 53 50 FF D2 EB B9 8B C7 .^....R,SP......
005B6EE0 5F 5E 5B C2 04 00 5D 5F 5E 33 C0 5B C2 04 00 CC _^[...]_^3.[....
005B6EF0 6A FF 68 73 CC 85 00 64 A1 00 00 00 00 50 51 53 j.hs...d.....PQS
005B6F00 56 57 A1 88 41 A1 00 33 C4 50 8D 44 24 14 64 A3 VW..A..3.P.D$.d.
005B6F10 00 00 00 00 8B F9 89 7C 24 10 C7 07 EC 38 8C 00 .......|$....8..
005B6F20 33 DB 8D 77 10 89 5F 1C 8B 46 04 3B C3 C7 44 24 3..w.._..F.;..D$
005B6F30 1C 01 00 00 00 74 13 8B 08 8B 51 08 50 FF D2 8B .....t....Q.P...
005B6F40 06 8B 10 8B CE 89 5E 04 FF D2 8B 0D 2C 32 A6 00 ......^.....,2..
005B6F50 8B 01 3B C1 74 30 39 78 08 74 08 8B 00 3B C1 75 ..;.t09x.t...;.u
005B6F60 F5 EB 23 3B C1 74 1F 8B 48 04 8B 10 89 11 8B 08 ..#;.t..H.......
005B6F70 8B 50 04 50 89 51 04 E8 4A E0 0D 00 83 C4 04 83 .P.P.Q..J.......
005B6F80 2D 30 32 A6 00 01 8B 46 04 3B C3 88 5C 24 1C C7 -02....F.;..\$..
005B6F90 06 3C 9F 8B 00 74 08 8B 08 8B 51 08 50 FF D2 8B .<...t....Q.P...
005B6FA0 CF 89 5E 04 C7 44 24 1C FF FF FF FF E8 6F F4 FF ..^..D$......o..
005B6FB0 FF 8B 4C 24 14 64 89 0D 00 00 00 00 59 5F 5E 5B ..L$.d......Y_^[
005B6FC0 83 C4 10 C3 CC CC CC CC CC CC CC CC CC CC CC CC ................
005B6FD0 6A FF 68 A3 CC 85 00 64 A1 00 00 00 00 50 83 EC j.h....d.....P..
005B6FE0 08 55 56 57 A1 88 41 A1 00 33 C4 50 8D 44 24 18 .UVW..A..3.P.D$.
005B6FF0 64 A3 00 00 00 00 8B F1 89 74 24 14 E8 9F F2 FF d........t$.....
005B7000 FF 33 C0 C7 06 EC 38 8C 00 89 46 04 89 44 24 20 .3....8...F..D$ 
005B7010 C7 46 10 3C 9F 8B 00 89 46 14 88 46 19 89 46 1C .F.<....F..F..F.
005B7020 C6 46 18 01 C7 46 20 D0 07 00 00 8B 3D 2C 32 A6 .F...F .....=,2.
005B7030 00 8B 4F 04 8D 44 24 10 50 51 57 B9 28 32 A6 00 ..O..D$.PQW.(2..
005B7040 C6 44 24 2C 01 89 74 24 1C E8 72 A9 25 00 6A 01 .D$,..t$..r.%.j.
005B7050 B9 28 32 A6 00 8B E8 E8 E4 FA FF FF 89 6F 04 8B .(2..........o..
005B7060 55 04 89 2A 8B C6 8B 4C 24 18 64 89 0D 00 00 00 U..*...L$.d.....
005B7070 00 59 5F 5E 5D 83 C4 14 C3 CC CC CC CC CC CC CC .Y_^]...........
005B7080 6A FF 68 CE CC 85 00 64 A1 00 00 00 00 50 53 A1 j.h....d.....PS.
005B7090 88 41 A1 00 33 C4 50 8D 44 24 08 64 A3 00 00 00 .A..3.P.D$.d....
005B70A0 00 BB 01 00 00 00 84 1D FC 2C A6 00 75 52 09 1D .........,..uR..
005B70B0 FC 2C A6 00 B9 D8 2C A6 00 C7 44 24 10 00 00 00 .,....,...D$....
005B70C0 00 E8 0A FF FF FF 68 A0 03 8A 00 C7 05 D8 2C A6 ......h.......,.
005B70D0 00 FC 38 8C 00 C7 05 E0 2C A6 00 24 00 00 00 C6 ..8.....,..$....
005B70E0 05 E6 2C A6 00 00 88 1D E4 2C A6 00 88 1D E5 2C ..,......,.....,
005B70F0 A6 00 88 1D E7 2C A6 00 E8 8F DB 0D 00 83 C4 04 .....,..........
005B7100 B8 D8 2C A6 00 8B 4C 24 08 64 89 0D 00 00 00 00 ..,...L$.d......
005B7110 59 5B 83 C4 0C C3 CC CC CC CC CC CC CC CC CC CC Y[..............
005B7120 6A FF 68 FE CC 85 00 64 A1 00 00 00 00 50 53 A1 j.h....d.....PS.
005B7130 88 41 A1 00 33 C4 50 8D 44 24 08 64 A3 00 00 00 .A..3.P.D$.d....
005B7140 00 BB 01 00 00 00 84 1D 24 2D A6 00 75 52 09 1D ........$-..uR..
005B7150 24 2D A6 00 B9 00 2D A6 00 C7 44 24 10 00 00 00 $-....-...D$....
005B7160 00 E8 6A FE FF FF 68 80 03 8A 00 C7 05 00 2D A6 ..j...h.......-.
005B7170 00 0C 39 8C 00 C7 05 08 2D A6 00 3C 00 00 00 C6 ..9.....-..<....
005B7180 05 0E 2D A6 00 00 88 1D 0C 2D A6 00 88 1D 0D 2D ..-......-.....-
005B7190 A6 00 88 1D 0F 2D A6 00 E8 EF DA 0D 00 83 C4 04 .....-..........
005B71A0 B8 00 2D A6 00 8B 4C 24 08 64 89 0D 00 00 00 00 ..-...L$.d......
005B71B0 59 5B 83 C4 0C C3 CC CC CC CC CC CC CC CC CC CC Y[..............
005B71C0 6A FF 68 2E CD 85 00 64 A1 00 00 00 00 50 53 A1 j.h....d.....PS.
005B71D0 88 41 A1 00 33 C4 50 8D 44 24 08 64 A3 00 00 00 .A..3.P.D$.d....
005B71E0 00 BB 01 00 00 00 84 1D 4C 2D A6 00 75 52 09 1D ........L-..uR..
005B71F0 4C 2D A6 00 B9 28 2D A6 00 C7 44 24 10 00 00 00 L-...(-...D$....
005B7200 00 E8 CA FD FF FF 68 60 03 8A 00 C7 05 28 2D A6 ......h`.....(-.
005B7210 00 1C 39 8C 00 C7 05 30 2D A6 00 28 00 00 00 C6 ..9....0-..(....
005B7220 05 36 2D A6 00 00 88 1D 34 2D A6 00 88 1D 35 2D .6-.....4-....5-
005B7230 A6 00 88 1D 37 2D A6 00 E8 4F DA 0D 00 83 C4 04 ....7-...O......
005B7240 B8 28 2D A6 00 8B 4C 24 08 64 89 0D 00 00 00 00 .(-...L$.d......
005B7250 59 5B 83 C4 0C C3 CC CC CC CC CC CC CC CC CC CC Y[..............
005B7260 6A FF 68 5E CD 85 00 64 A1 00 00 00 00 50 53 A1 j.h^...d.....PS.
005B7270 88 41 A1 00 33 C4 50 8D 44 24 08 64 A3 00 00 00 .A..3.P.D$.d....
005B7280 00 BB 01 00 00 00 84 1D 74 2D A6 00 75 52 09 1D ........t-..uR..
005B7290 74 2D A6 00 B9 50 2D A6 00 C7 44 24 10 00 00 00 t-...P-...D$....
005B72A0 00 E8 2A FD FF FF 68 40 03 8A 00 C7 05 50 2D A6 ..*...h@.....P-.
005B72B0 00 2C 39 8C 00 C7 05 58 2D A6 00 40 00 00 00 C6 .,9....X-..@....
005B72C0 05 5E 2D A6 00 00 88 1D 5C 2D A6 00 88 1D 5D 2D .^-.....\-....]-
005B72D0 A6 00 88 1D 5F 2D A6 00 E8 AF D9 0D 00 83 C4 04 ...._-..........
005B72E0 B8 50 2D A6 00 8B 4C 24 08 64 89 0D 00 00 00 00 .P-...L$.d......
005B72F0 59 5B 83 C4 0C C3 CC CC CC CC CC CC CC CC CC CC Y[..............
005B7300 6A FF 68 8E CD 85 00 64 A1 00 00 00 00 50 53 A1 j.h....d.....PS.
005B7310 88 41 A1 00 33 C4 50 8D 44 24 08 64 A3 00 00 00 .A..3.P.D$.d....
005B7320 00 BB 01 00 00 00 84 1D 9C 2D A6 00 75 52 09 1D .........-..uR..
005B7330 9C 2D A6 00 B9 78 2D A6 00 C7 44 24 10 00 00 00 .-...x-...D$....
005B7340 00 E8 8A FC FF FF 68 20 03 8A 00 C7 05 78 2D A6 ......h .....x-.
005B7350 00 3C 39 8C 00 C7 05 80 2D A6 00 24 00 00 00 88 .<9.....-..$....
005B7360 1D 86 2D A6 00 88 1D 84 2D A6 00 88 1D 85 2D A6 ..-.....-.....-.
005B7370 00 C6 05 87 2D A6 00 00 E8 0F D9 0D 00 83 C4 04 ....-...........
005B7380 B8 78 2D A6 00 8B 4C 24 08 64 89 0D 00 00 00 00 .x-...L$.d......
005B7390 59 5B 83 C4 0C C3 CC CC CC CC CC CC CC CC CC CC Y[..............
005B73A0 6A FF 68 BE CD 85 00 64 A1 00 00 00 00 50 53 A1 j.h....d.....PS.
005B73B0 88 41 A1 00 33 C4 50 8D 44 24 08 64 A3 00 00 00 .A..3.P.D$.d....
005B73C0 00 BB 01 00 00 00 84 1D C4 2D A6 00 75 52 09 1D .........-..uR..
005B73D0 C4 2D A6 00 B9 A0 2D A6 00 C7 44 24 10 00 00 00 .-....-...D$....
005B73E0 00 E8 EA FB FF FF 68 00 03 8A 00 C7 05 A0 2D A6 ......h.......-.
005B73F0 00 4C 39 8C 00 C7 05 A8 2D A6 00 28 00 00 00 88 .L9.....-..(....
005B7400 1D AE 2D A6 00 88 1D AC 2D A6 00 88 1D AD 2D A6 ..-.....-.....-.
005B7410 00 C6 05 AF 2D A6 00 00 E8 6F D8 0D 00 83 C4 04 ....-....o......
005B7420 B8 A0 2D A6 00 8B 4C 24 08 64 89 0D 00 00 00 00 ..-...L$.d......
005B7430 59 5B 83 C4 0C C3 CC CC CC CC CC CC CC CC CC CC Y[..............
005B7440 6A FF 68 EE CD 85 00 64 A1 00 00 00 00 50 53 A1 j.h....d.....PS.
005B7450 88 41 A1 00 33 C4 50 8D 44 24 08 64 A3 00 00 00 .A..3.P.D$.d....
005B7460 00 BB 01 00 00 00 84 1D EC 2D A6 00 75 52 09 1D .........-..uR..
005B7470 EC 2D A6 00 B9 C8 2D A6 00 C7 44 24 10 00 00 00 .-....-...D$....
005B7480 00 E8 4A FB FF FF 68 E0 02 8A 00 C7 05 C8 2D A6 ..J...h.......-.
005B7490 00 5C 39 8C 00 C7 05 D0 2D A6 00 3C 00 00 00 88 .\9.....-..<....
005B74A0 1D D6 2D A6 00 88 1D D4 2D A6 00 88 1D D5 2D A6 ..-.....-.....-.
005B74B0 00 C6 05 D7 2D A6 00 00 E8 CF D7 0D 00 83 C4 04 ....-...........
005B74C0 B8 C8 2D A6 00 8B 4C 24 08 64 89 0D 00 00 00 00 ..-...L$.d......
005B74D0 59 5B 83 C4 0C C3 CC CC CC CC CC CC CC CC CC CC Y[..............
005B74E0 6A FF 68 1E CE 85 00 64 A1 00 00 00 00 50 53 A1 j.h....d.....PS.
005B74F0 88 41 A1 00 33 C4 50 8D 44 24 08 64 A3 00 00 00 .A..3.P.D$.d....
005B7500 00 BB 01 00 00 00 84 1D 14 2E A6 00 75 52 09 1D ............uR..
005B7510 14 2E A6 00 B9 F0 2D A6 00 C7 44 24 10 00 00 00 ......-...D$....
005B7520 00 E8 AA FA FF FF 68 C0 02 8A 00 C7 05 F0 2D A6 ......h.......-.
005B7530 00 6C 39 8C 00 C7 05 F8 2D A6 00 40 00 00 00 88 .l9.....-..@....
005B7540 1D FE 2D A6 00 88 1D FC 2D A6 00 88 1D FD 2D A6 ..-.....-.....-.
005B7550 00 C6 05 FF 2D A6 00 00 E8 2F D7 0D 00 83 C4 04 ....-..../......
005B7560 B8 F0 2D A6 00 8B 4C 24 08 64 89 0D 00 00 00 00 ..-...L$.d......
005B7570 59 5B 83 C4 0C C3 CC CC CC CC CC CC CC CC CC CC Y[..............
005B7580 6A FF 68 4E CE 85 00 64 A1 00 00 00 00 50 53 A1 j.hN...d.....PS.
005B7590 88 41 A1 00 33 C4 50 8D 44 24 08 64 A3 00 00 00 .A..3.P.D$.d....
005B75A0 00 BB 01 00 00 00 84 1D 3C 2E A6 00 75 52 09 1D ........<...uR..
005B75B0 3C 2E A6 00 B9 18 2E A6 00 C7 44 24 10 00 00 00 <.........D$....
005B75C0 00 E8 0A FA FF FF 68 E0 06 8A 00 C7 05 18 2E A6 ......h.........
005B75D0 00 7C 39 8C 00 C7 05 20 2E A6 00 18 00 00 00 88 .|9.... ........
005B75E0 1D 26 2E A6 00 88 1D 24 2E A6 00 88 1D 25 2E A6 .&.....$.....%..
005B75F0 00 C6 05 27 2E A6 00 00 E8 8F D6 0D 00 83 C4 04 ...'............
005B7600 B8 18 2E A6 00 8B 4C 24 08 64 89 0D 00 00 00 00 ......L$.d......
005B7610 59 5B 83 C4 0C C3 CC CC CC CC CC CC CC CC CC CC Y[..............
005B7620 6A FF 68 7E CE 85 00 64 A1 00 00 00 00 50 53 A1 j.h~...d.....PS.
005B7630 88 41 A1 00 33 C4 50 8D 44 24 08 64 A3 00 00 00 .A..3.P.D$.d....
005B7640 00 BB 01 00 00 00 84 1D 64 2E A6 00 75 52 09 1D ........d...uR..
005B7650 64 2E A6 00 B9 40 2E A6 00 C7 44 24 10 00 00 00 d....@....D$....
005B7660 00 E8 6A F9 FF FF 68 C0 06 8A 00 C7 05 40 2E A6 ..j...h......@..
005B7670 00 8C 39 8C 00 C7 05 48 2E A6 00 18 00 00 00 C6 ..9....H........
005B7680 05 4E 2E A6 00 00 88 1D 4C 2E A6 00 88 1D 4D 2E .N......L.....M.
005B7690 A6 00 88 1D 4F 2E A6 00 E8 EF D5 0D 00 83 C4 04 ....O...........
005B76A0 B8 40 2E A6 00 8B 4C 24 08 64 89 0D 00 00 00 00 .@....L$.d......
005B76B0 59 5B 83 C4 0C C3 CC CC CC CC CC CC CC CC CC CC Y[..............
005B76C0 6A FF 68 AE CE 85 00 64 A1 00 00 00 00 50 53 A1 j.h....d.....PS.
005B76D0 88 41 A1 00 33 C4 50 8D 44 24 08 64 A3 00 00 00 .A..3.P.D$.d....
005B76E0 00 BB 01 00 00 00 84 1D 8C 2E A6 00 75 52 09 1D ............uR..
005B76F0 8C 2E A6 00 B9 68 2E A6 00 C7 44 24 10 00 00 00 .....h....D$....
005B7700 00 E8 CA F8 FF FF 68 A0 06 8A 00 C7 05 68 2E A6 ......h......h..
005B7710 00 9C 39 8C 00 C7 05 70 2E A6 00 14 00 00 00 88 ..9....p........
005B7720 1D 76 2E A6 00 88 1D 74 2E A6 00 88 1D 75 2E A6 .v.....t.....u..
005B7730 00 C6 05 77 2E A6 00 00 E8 4F D5 0D 00 83 C4 04 ...w.....O......
005B7740 B8 68 2E A6 00 8B 4C 24 08 64 89 0D 00 00 00 00 .h....L$.d......
005B7750 59 5B 83 C4 0C C3 CC CC CC CC CC CC CC CC CC CC Y[..............
005B7760 6A FF 68 DE CE 85 00 64 A1 00 00 00 00 50 53 A1 j.h....d.....PS.
005B7770 88 41 A1 00 33 C4 50 8D 44 24 08 64 A3 00 00 00 .A..3.P.D$.d....
005B7780 00 BB 01 00 00 00 84 1D B4 2E A6 00 75 52 09 1D ............uR..
005B7790 B4 2E A6 00 B9 90 2E A6 00 C7 44 24 10 00 00 00 ..........D$....
005B77A0 00 E8 2A F8 FF FF 68 80 06 8A 00 C7 05 90 2E A6 ..*...h.........
005B77B0 00 AC 39 8C 00 C7 05 98 2E A6 00 14 00 00 00 C6 ..9.............
005B77C0 05 9E 2E A6 00 00 88 1D 9C 2E A6 00 88 1D 9D 2E ................
005B77D0 A6 00 88 1D 9F 2E A6 00 E8 AF D4 0D 00 83 C4 04 ................
005B77E0 B8 90 2E A6 00 8B 4C 24 08 64 89 0D 00 00 00 00 ......L$.d......
005B77F0 59 5B 83 C4 0C C3 CC CC CC CC CC CC CC CC CC CC Y[..............
005B7800 6A FF 68 0E CF 85 00 64 A1 00 00 00 00 50 53 A1 j.h....d.....PS.
005B7810 88 41 A1 00 33 C4 50 8D 44 24 08 64 A3 00 00 00 .A..3.P.D$.d....
005B7820 00 BB 01 00 00 00 84 1D DC 2E A6 00 75 52 09 1D ............uR..
005B7830 DC 2E A6 00 B9 B8 2E A6 00 C7 44 24 10 00 00 00 ..........D$....
005B7840 00 E8 8A F7 FF FF 68 60 06 8A 00 C7 05 B8 2E A6 ......h`........
005B7850 00 BC 39 8C 00 C7 05 C0 2E A6 00 24 00 00 00 88 ..9........$....
005B7860 1D C6 2E A6 00 88 1D C4 2E A6 00 88 1D C5 2E A6 ................
005B7870 00 C6 05 C7 2E A6 00 00 E8 0F D4 0D 00 83 C4 04 ................
005B7880 B8 B8 2E A6 00 8B 4C 24 08 64 89 0D 00 00 00 00 ......L$.d......
005B7890 59 5B 83 C4 0C C3 CC CC CC CC CC CC CC CC CC CC Y[..............
005B78A0 6A FF 68 3E CF 85 00 64 A1 00 00 00 00 50 53 A1 j.h>...d.....PS.
005B78B0 88 41 A1 00 33 C4 50 8D 44 24 08 64 A3 00 00 00 .A..3.P.D$.d....
005B78C0 00 BB 01 00 00 00 84 1D 04 2F A6 00 75 52 09 1D ........./..uR..
005B78D0 04 2F A6 00 B9 E0 2E A6 00 C7 44 24 10 00 00 00 ./........D$....
005B78E0 00 E8 EA F6 FF FF 68 40 06 8A 00 C7 05 E0 2E A6 ......h@........
005B78F0 00 CC 39 8C 00 C7 05 E8 2E A6 00 24 00 00 00 C6 ..9........$....
005B7900 05 EE 2E A6 00 00 88 1D EC 2E A6 00 88 1D ED 2E ................
005B7910 A6 00 88 1D EF 2E A6 00 E8 6F D3 0D 00 83 C4 04 .........o......
005B7920 B8 E0 2E A6 00 8B 4C 24 08 64 89 0D 00 00 00 00 ......L$.d......
005B7930 59 5B 83 C4 0C C3 CC CC CC CC CC CC CC CC CC CC Y[..............
005B7940 6A FF 68 6E CF 85 00 64 A1 00 00 00 00 50 53 A1 j.hn...d.....PS.
005B7950 88 41 A1 00 33 C4 50 8D 44 24 08 64 A3 00 00 00 .A..3.P.D$.d....
005B7960 00 BB 01 00 00 00 84 1D 2C 2F A6 00 75 52 09 1D ........,/..uR..
005B7970 2C 2F A6 00 B9 08 2F A6 00 C7 44 24 10 00 00 00 ,/..../...D$....
005B7980 00 E8 4A F6 FF FF 68 20 06 8A 00 C7 05 08 2F A6 ..J...h ....../.
005B7990 00 DC 39 8C 00 C7 05 10 2F A6 00 20 00 00 00 88 ..9...../.. ....
005B79A0 1D 16 2F A6 00 88 1D 14 2F A6 00 88 1D 15 2F A6 ../...../...../.
005B79B0 00 C6 05 17 2F A6 00 00 E8 CF D2 0D 00 83 C4 04 ..../...........
005B79C0 B8 08 2F A6 00 8B 4C 24 08 64 89 0D 00 00 00 00 ../...L$.d......
005B79D0 59 5B 83 C4 0C C3 CC CC CC CC CC CC CC CC CC CC Y[..............
005B79E0 6A FF 68 9E CF 85 00 64 A1 00 00 00 00 50 53 A1 j.h....d.....PS.
005B79F0 88 41 A1 00 33 C4 50 8D 44 24 08 64 A3 00 00 00 .A..3.P.D$.d....
005B7A00 00 BB 01 00 00 00 84 1D 54 2F A6 00 75 52 09 1D ........T/..uR..
005B7A10 54 2F A6 00 B9 30 2F A6 00 C7 44 24 10 00 00 00 T/...0/...D$....
005B7A20 00 E8 AA F5 FF FF 68 00 06 8A 00 C7 05 30 2F A6 ......h......0/.
005B7A30 00 EC 39 8C 00 C7 05 38 2F A6 00 20 00 00 00 C6 ..9....8/.. ....
005B7A40 05 3E 2F A6 00 00 88 1D 3C 2F A6 00 88 1D 3D 2F .>/.....</....=/
005B7A50 A6 00 88 1D 3F 2F A6 00 E8 2F D2 0D 00 83 C4 04 ....?/.../......
005B7A60 B8 30 2F A6 00 8B 4C 24 08 64 89 0D 00 00 00 00 .0/...L$.d......
005B7A70 59 5B 83 C4 0C C3 CC CC CC CC CC CC CC CC CC CC Y[..............
005B7A80 6A FF 68 CE CF 85 00 64 A1 00 00 00 00 50 53 A1 j.h....d.....PS.
005B7A90 88 41 A1 00 33 C4 50 8D 44 24 08 64 A3 00 00 00 .A..3.P.D$.d....
005B7AA0 00 BB 01 00 00 00 84 1D 7C 2F A6 00 75 52 09 1D ........|/..uR..
005B7AB0 7C 2F A6 00 B9 58 2F A6 00 C7 44 24 10 00 00 00 |/...X/...D$....
005B7AC0 00 E8 0A F5 FF FF 68 E0 05 8A 00 C7 05 58 2F A6 ......h......X/.
005B7AD0 00 FC 39 8C 00 C7 05 60 2F A6 00 1C 00 00 00 88 ..9....`/.......
005B7AE0 1D 66 2F A6 00 88 1D 64 2F A6 00 88 1D 65 2F A6 .f/....d/....e/.
005B7AF0 00 C6 05 67 2F A6 00 00 E8 8F D1 0D 00 83 C4 04 ...g/...........
005B7B00 B8 58 2F A6 00 8B 4C 24 08 64 89 0D 00 00 00 00 .X/...L$.d......
005B7B10 59 5B 83 C4 0C C3 CC CC CC CC CC CC CC CC CC CC Y[..............
005B7B20 6A FF 68 FE CF 85 00 64 A1 00 00 00 00 50 53 A1 j.h....d.....PS.
005B7B30 88 41 A1 00 33 C4 50 8D 44 24 08 64 A3 00 00 00 .A..3.P.D$.d....
005B7B40 00 BB 01 00 00 00 84 1D A4 2F A6 00 75 52 09 1D ........./..uR..
005B7B50 A4 2F A6 00 B9 80 2F A6 00 C7 44 24 10 00 00 00 ./..../...D$....
005B7B60 00 E8 6A F4 FF FF 68 C0 05 8A 00 C7 05 80 2F A6 ..j...h......./.
005B7B70 00 0C 3A 8C 00 C7 05 88 2F A6 00 1C 00 00 00 C6 ..:...../.......
005B7B80 05 8E 2F A6 00 00 88 1D 8C 2F A6 00 88 1D 8D 2F ../....../...../
005B7B90 A6 00 88 1D 8F 2F A6 00 E8 EF D0 0D 00 83 C4 04 ...../..........
005B7BA0 B8 80 2F A6 00 8B 4C 24 08 64 89 0D 00 00 00 00 ../...L$.d......
005B7BB0 59 5B 83 C4 0C C3 CC CC CC CC CC CC CC CC CC CC Y[..............
005B7BC0 6A FF 68 2E D0 85 00 64 A1 00 00 00 00 50 53 A1 j.h....d.....PS.
005B7BD0 88 41 A1 00 33 C4 50 8D 44 24 08 64 A3 00 00 00 .A..3.P.D$.d....
005B7BE0 00 BB 01 00 00 00 84 1D CC 2F A6 00 75 52 09 1D ........./..uR..
005B7BF0 CC 2F A6 00 B9 A8 2F A6 00 C7 44 24 10 00 00 00 ./..../...D$....
005B7C00 00 E8 CA F3 FF FF 68 A0 05 8A 00 C7 05 A8 2F A6 ......h......./.
005B7C10 00 1C 3A 8C 00 C7 05 B0 2F A6 00 0C 00 00 00 88 ..:...../.......
005B7C20 1D B6 2F A6 00 88 1D B4 2F A6 00 88 1D B5 2F A6 ../...../...../.
005B7C30 00 C6 05 B7 2F A6 00 00 E8 4F D0 0D 00 83 C4 04 ..../....O......
005B7C40 B8 A8 2F A6 00 8B 4C 24 08 64 89 0D 00 00 00 00 ../...L$.d......
005B7C50 59 5B 83 C4 0C C3 CC CC CC CC CC CC CC CC CC CC Y[..............
005B7C60 6A FF 68 5E D0 85 00 64 A1 00 00 00 00 50 53 A1 j.h^...d.....PS.
005B7C70 88 41 A1 00 33 C4 50 8D 44 24 08 64 A3 00 00 00 .A..3.P.D$.d....
005B7C80 00 BB 01 00 00 00 84 1D F4 2F A6 00 75 52 09 1D ........./..uR..
005B7C90 F4 2F A6 00 B9 D0 2F A6 00 C7 44 24 10 00 00 00 ./..../...D$....
005B7CA0 00 E8 2A F3 FF FF 68 80 05 8A 00 C7 05 D0 2F A6 ..*...h......./.
005B7CB0 00 2C 3A 8C 00 C7 05 D8 2F A6 00 0C 00 00 00 C6 .,:...../.......
005B7CC0 05 DE 2F A6 00 00 88 1D DC 2F A6 00 88 1D DD 2F ../....../...../
005B7CD0 A6 00 88 1D DF 2F A6 00 E8 AF CF 0D 00 83 C4 04 ...../..........
005B7CE0 B8 D0 2F A6 00 8B 4C 24 08 64 89 0D 00 00 00 00 ../...L$.d......
005B7CF0 59 5B 83 C4 0C C3 CC CC CC CC CC CC CC CC CC CC Y[..............
005B7D00 6A FF 68 8E D0 85 00 64 A1 00 00 00 00 50 53 A1 j.h....d.....PS.
005B7D10 88 41 A1 00 33 C4 50 8D 44 24 08 64 A3 00 00 00 .A..3.P.D$.d....
005B7D20 00 BB 01 00 00 00 84 1D 1C 30 A6 00 75 52 09 1D .........0..uR..
005B7D30 1C 30 A6 00 B9 F8 2F A6 00 C7 44 24 10 00 00 00 .0..../...D$....
005B7D40 00 E8 8A F2 FF FF 68 60 05 8A 00 C7 05 F8 2F A6 ......h`....../.
005B7D50 00 3C 3A 8C 00 C7 05 00 30 A6 00 20 00 00 00 88 .<:.....0.. ....
005B7D60 1D 06 30 A6 00 88 1D 04 30 A6 00 88 1D 05 30 A6 ..0.....0.....0.
005B7D70 00 C6 05 07 30 A6 00 00 E8 0F CF 0D 00 83 C4 04 ....0...........
005B7D80 B8 F8 2F A6 00 8B 4C 24 08 64 89 0D 00 00 00 00 ../...L$.d......
005B7D90 59 5B 83 C4 0C C3 CC CC CC CC CC CC CC CC CC CC Y[..............
005B7DA0 6A FF 68 BE D0 85 00 64 A1 00 00 00 00 50 53 A1 j.h....d.....PS.
005B7DB0 88 41 A1 00 33 C4 50 8D 44 24 08 64 A3 00 00 00 .A..3.P.D$.d....
005B7DC0 00 BB 01 00 00 00 84 1D 44 30 A6 00 75 52 09 1D ........D0..uR..
005B7DD0 44 30 A6 00 B9 20 30 A6 00 C7 44 24 10 00 00 00 D0... 0...D$....
005B7DE0 00 E8 EA F1 FF FF 68 40 05 8A 00 C7 05 20 30 A6 ......h@..... 0.
005B7DF0 00 4C 3A 8C 00 C7 05 28 30 A6 00 20 00 00 00 C6 .L:....(0.. ....
005B7E00 05 2E 30 A6 00 00 88 1D 2C 30 A6 00 88 1D 2D 30 ..0.....,0....-0
005B7E10 A6 00 88 1D 2F 30 A6 00 E8 6F CE 0D 00 83 C4 04 ..../0...o......
005B7E20 B8 20 30 A6 00 8B 4C 24 08 64 89 0D 00 00 00 00 . 0...L$.d......
005B7E30 59 5B 83 C4 0C C3 CC CC CC CC CC CC CC CC CC CC Y[..............
005B7E40 6A FF 68 EE D0 85 00 64 A1 00 00 00 00 50 53 A1 j.h....d.....PS.
005B7E50 88 41 A1 00 33 C4 50 8D 44 24 08 64 A3 00 00 00 .A..3.P.D$.d....
005B7E60 00 BB 01 00 00 00 84 1D 6C 30 A6 00 75 52 09 1D ........l0..uR..
005B7E70 6C 30 A6 00 B9 48 30 A6 00 C7 44 24 10 00 00 00 l0...H0...D$....
005B7E80 00 E8 4A F1 FF FF 68 20 05 8A 00 C7 05 48 30 A6 ..J...h .....H0.
005B7E90 00 5C 3A 8C 00 C7 05 50 30 A6 00 38 00 00 00 88 .\:....P0..8....
005B7EA0 1D 56 30 A6 00 88 1D 54 30 A6 00 88 1D 55 30 A6 .V0....T0....U0.
005B7EB0 00 C6 05 57 30 A6 00 00 E8 CF CD 0D 00 83 C4 04 ...W0...........
005B7EC0 B8 48 30 A6 00 8B 4C 24 08 64 89 0D 00 00 00 00 .H0...L$.d......
005B7ED0 59 5B 83 C4 0C C3 CC CC CC CC CC CC CC CC CC CC Y[..............
005B7EE0 6A FF 68 1E D1 85 00 64 A1 00 00 00 00 50 53 A1 j.h....d.....PS.
005B7EF0 88 41 A1 00 33 C4 50 8D 44 24 08 64 A3 00 00 00 .A..3.P.D$.d....
005B7F00 00 BB 01 00 00 00 84 1D 94 30 A6 00 75 52 09 1D .........0..uR..
005B7F10 94 30 A6 00 B9 70 30 A6 00 C7 44 24 10 00 00 00 .0...p0...D$....
005B7F20 00 E8 AA F0 FF FF 68 00 05 8A 00 C7 05 70 30 A6 ......h......p0.
005B7F30 00 6C 3A 8C 00 C7 05 78 30 A6 00 38 00 00 00 C6 .l:....x0..8....
005B7F40 05 7E 30 A6 00 00 88 1D 7C 30 A6 00 88 1D 7D 30 .~0.....|0....}0
005B7F50 A6 00 88 1D 7F 30 A6 00 E8 2F CD 0D 00 83 C4 04 .....0.../......
005B7F60 B8 70 30 A6 00 8B 4C 24 08 64 89 0D 00 00 00 00 .p0...L$.d......
005B7F70 59 5B 83 C4 0C C3 CC CC CC CC CC CC CC CC CC CC Y[..............
005B7F80 6A FF 68 4E D1 85 00 64 A1 00 00 00 00 50 53 A1 j.hN...d.....PS.
005B7F90 88 41 A1 00 33 C4 50 8D 44 24 08 64 A3 00 00 00 .A..3.P.D$.d....
005B7FA0 00 BB 01 00 00 00 84 1D BC 30 A6 00 75 52 09 1D .........0..uR..
005B7FB0 BC 30 A6 00 B9 98 30 A6 00 C7 44 24 10 00 00 00 .0....0...D$....
005B7FC0 00 E8 0A F0 FF FF 68 E0 04 8A 00 C7 05 98 30 A6 ......h.......0.
005B7FD0 00 7C 3A 8C 00 C7 05 A0 30 A6 00 10 00 00 00 88 .|:.....0.......
005B7FE0 1D A6 30 A6 00 88 1D A4 30 A6 00 88 1D A5 30 A6 ..0.....0.....0.
005B7FF0 00 C6 05 A7 30 A6 00 00 E8 8F CC 0D 00 83 C4 04 ....0...........
005B8000 B8 98 30 A6 00 8B 4C 24 08 64 89 0D 00 00 00 00 ..0...L$.d......
005B8010 59 5B 83 C4 0C C3 CC CC CC CC CC CC CC CC CC CC Y[..............
005B8020 6A FF 68 7E D1 85 00 64 A1 00 00 00 00 50 53 A1 j.h~...d.....PS.
005B8030 88 41 A1 00 33 C4 50 8D 44 24 08 64 A3 00 00 00 .A..3.P.D$.d....
005B8040 00 BB 01 00 00 00 84 1D E4 30 A6 00 75 52 09 1D .........0..uR..
005B8050 E4 30 A6 00 B9 C0 30 A6 00 C7 44 24 10 00 00 00 .0....0...D$....
005B8060 00 E8 6A EF FF FF 68 C0 04 8A 00 C7 05 C0 30 A6 ..j...h.......0.
005B8070 00 8C 3A 8C 00 C7 05 C8 30 A6 00 10 00 00 00 C6 ..:.....0.......
005B8080 05 CE 30 A6 00 00 88 1D CC 30 A6 00 88 1D CD 30 ..0......0.....0
005B8090 A6 00 88 1D CF 30 A6 00 E8 EF CB 0D 00 83 C4 04 .....0..........
005B80A0 B8 C0 30 A6 00 8B 4C 24 08 64 89 0D 00 00 00 00 ..0...L$.d......
005B80B0 59 5B 83 C4 0C C3 CC CC CC CC CC CC CC CC CC CC Y[..............
005B80C0 6A FF 68 AE D1 85 00 64 A1 00 00 00 00 50 53 A1 j.h....d.....PS.
005B80D0 88 41 A1 00 33 C4 50 8D 44 24 08 64 A3 00 00 00 .A..3.P.D$.d....
005B80E0 00 BB 01 00 00 00 84 1D 0C 31 A6 00 75 52 09 1D .........1..uR..
005B80F0 0C 31 A6 00 B9 E8 30 A6 00 C7 44 24 10 00 00 00 .1....0...D$....
005B8100 00 E8 CA EE FF FF 68 A0 04 8A 00 C7 05 E8 30 A6 ......h.......0.
005B8110 00 9C 3A 8C 00 C7 05 F0 30 A6 00 14 00 00 00 88 ..:.....0.......
005B8120 1D F6 30 A6 00 88 1D F4 30 A6 00 88 1D F5 30 A6 ..0.....0.....0.
005B8130 00 C6 05 F7 30 A6 00 00 E8 4F CB 0D 00 83 C4 04 ....0....O......
005B8140 B8 E8 30 A6 00 8B 4C 24 08 64 89 0D 00 00 00 00 ..0...L$.d......
005B8150 59 5B 83 C4 0C C3 CC CC CC CC CC CC CC CC CC CC Y[..............
005B8160 6A FF 68 DE D1 85 00 64 A1 00 00 00 00 50 53 A1 j.h....d.....PS.
005B8170 88 41 A1 00 33 C4 50 8D 44 24 08 64 A3 00 00 00 .A..3.P.D$.d....
005B8180 00 BB 01 00 00 00 84 1D 34 31 A6 00 75 52 09 1D ........41..uR..
005B8190 34 31 A6 00 B9 10 31 A6 00 C7 44 24 10 00 00 00 41....1...D$....
005B81A0 00 E8 2A EE FF FF 68 80 04 8A 00 C7 05 10 31 A6 ..*...h.......1.
005B81B0 00 AC 3A 8C 00 C7 05 18 31 A6 00 14 00 00 00 C6 ..:.....1.......
005B81C0 05 1E 31 A6 00 00 88 1D 1C 31 A6 00 88 1D 1D 31 ..1......1.....1
005B81D0 A6 00 88 1D 1F 31 A6 00 E8 AF CA 0D 00 83 C4 04 .....1..........
005B81E0 B8 10 31 A6 00 8B 4C 24 08 64 89 0D 00 00 00 00 ..1...L$.d......
005B81F0 59 5B 83 C4 0C C3 CC CC CC CC CC CC CC CC CC CC Y[..............
005B8200 6A FF 68 0E D2 85 00 64 A1 00 00 00 00 50 53 A1 j.h....d.....PS.
005B8210 88 41 A1 00 33 C4 50 8D 44 24 08 64 A3 00 00 00 .A..3.P.D$.d....
005B8220 00 BB 01 00 00 00 84 1D 5C 31 A6 00 75 52 09 1D ........\1..uR..
005B8230 5C 31 A6 00 B9 38 31 A6 00 C7 44 24 10 00 00 00 \1...81...D$....
005B8240 00 E8 8A ED FF FF 68 60 04 8A 00 C7 05 38 31 A6 ......h`.....81.
005B8250 00 BC 3A 8C 00 C7 05 40 31 A6 00 18 00 00 00 88 ..:....@1.......
005B8260 1D 46 31 A6 00 88 1D 44 31 A6 00 88 1D 45 31 A6 .F1....D1....E1.
005B8270 00 C6 05 47 31 A6 00 00 E8 0F CA 0D 00 83 C4 04 ...G1...........
005B8280 B8 38 31 A6 00 8B 4C 24 08 64 89 0D 00 00 00 00 .81...L$.d......
005B8290 59 5B 83 C4 0C C3 CC CC CC CC CC CC CC CC CC CC Y[..............
005B82A0 6A FF 68 3E D2 85 00 64 A1 00 00 00 00 50 53 A1 j.h>...d.....PS.
005B82B0 88 41 A1 00 33 C4 50 8D 44 24 08 64 A3 00 00 00 .A..3.P.D$.d....
005B82C0 00 BB 01 00 00 00 84 1D 84 31 A6 00 75 52 09 1D .........1..uR..
005B82D0 84 31 A6 00 B9 60 31 A6 00 C7 44 24 10 00 00 00 .1...`1...D$....
005B82E0 00 E8 EA EC FF FF 68 40 04 8A 00 C7 05 60 31 A6 ......h@.....`1.
005B82F0 00 CC 3A 8C 00 C7 05 68 31 A6 00 18 00 00 00 C6 ..:....h1.......
005B8300 05 6E 31 A6 00 00 88 1D 6C 31 A6 00 88 1D 6D 31 .n1.....l1....m1
005B8310 A6 00 88 1D 6F 31 A6 00 E8 6F C9 0D 00 83 C4 04 ....o1...o......
005B8320 B8 60 31 A6 00 8B 4C 24 08 64 89 0D 00 00 00 00 .`1...L$.d......
005B8330 59 5B 83 C4 0C C3 CC CC CC CC CC CC CC CC CC CC Y[..............
005B8340 6A FF 68 6E D2 85 00 64 A1 00 00 00 00 50 53 A1 j.hn...d.....PS.
005B8350 88 41 A1 00 33 C4 50 8D 44 24 08 64 A3 00 00 00 .A..3.P.D$.d....
005B8360 00 BB 01 00 00 00 84 1D AC 31 A6 00 75 52 09 1D .........1..uR..
005B8370 AC 31 A6 00 B9 88 31 A6 00 C7 44 24 10 00 00 00 .1....1...D$....
005B8380 00 E8 4A EC FF FF 68 20 04 8A 00 C7 05 88 31 A6 ..J...h ......1.
005B8390 00 DC 3A 8C 00 C7 05 90 31 A6 00 1C 00 00 00 88 ..:.....1.......
005B83A0 1D 96 31 A6 00 88 1D 94 31 A6 00 88 1D 95 31 A6 ..1.....1.....1.
005B83B0 00 C6 05 97 31 A6 00 00 E8 CF C8 0D 00 83 C4 04 ....1...........
005B83C0 B8 88 31 A6 00 8B 4C 24 08 64 89 0D 00 00 00 00 ..1...L$.d......
005B83D0 59 5B 83 C4 0C C3 CC CC CC CC CC CC CC CC CC CC Y[..............
005B83E0 6A FF 68 9E D2 85 00 64 A1 00 00 00 00 50 53 A1 j.h....d.....PS.
005B83F0 88 41 A1 00 33 C4 50 8D 44 24 08 64 A3 00 00 00 .A..3.P.D$.d....
005B8400 00 BB 01 00 00 00 84 1D D4 31 A6 00 75 52 09 1D .........1..uR..
005B8410 D4 31 A6 00 B9 B0 31 A6 00 C7 44 24 10 00 00 00 .1....1...D$....
005B8420 00 E8 AA EB FF FF 68 00 04 8A 00 C7 05 B0 31 A6 ......h.......1.
005B8430 00 EC 3A 8C 00 C7 05 B8 31 A6 00 1C 00 00 00 C6 ..:.....1.......
005B8440 05 BE 31 A6 00 00 88 1D BC 31 A6 00 88 1D BD 31 ..1......1.....1
005B8450 A6 00 88 1D BF 31 A6 00 E8 2F C8 0D 00 83 C4 04 .....1.../......
005B8460 B8 B0 31 A6 00 8B 4C 24 08 64 89 0D 00 00 00 00 ..1...L$.d......
005B8470 59 5B 83 C4 0C C3 CC CC CC CC CC CC CC CC CC CC Y[..............
005B8480 6A FF 68 CE D2 85 00 64 A1 00 00 00 00 50 53 A1 j.h....d.....PS.
005B8490 88 41 A1 00 33 C4 50 8D 44 24 08 64 A3 00 00 00 .A..3.P.D$.d....
005B84A0 00 BB 01 00 00 00 84 1D FC 31 A6 00 75 52 09 1D .........1..uR..
005B84B0 FC 31 A6 00 B9 D8 31 A6 00 C7 44 24 10 00 00 00 .1....1...D$....
005B84C0 00 E8 0A EB FF FF 68 E0 03 8A 00 C7 05 D8 31 A6 ......h.......1.
005B84D0 00 FC 3A 8C 00 C7 05 E0 31 A6 00 14 00 00 00 88 ..:.....1.......
005B84E0 1D E6 31 A6 00 88 1D E4 31 A6 00 88 1D E5 31 A6 ..1.....1.....1.
005B84F0 00 C6 05 E7 31 A6 00 00 E8 8F C7 0D 00 83 C4 04 ....1...........
005B8500 B8 D8 31 A6 00 8B 4C 24 08 64 89 0D 00 00 00 00 ..1...L$.d......
005B8510 59 5B 83 C4 0C C3 CC CC CC CC CC CC CC CC CC CC Y[..............
005B8520 6A FF 68 FE D2 85 00 64 A1 00 00 00 00 50 53 A1 j.h....d.....PS.
005B8530 88 41 A1 00 33 C4 50 8D 44 24 08 64 A3 00 00 00 .A..3.P.D$.d....
005B8540 00 BB 01 00 00 00 84 1D 24 32 A6 00 75 52 09 1D ........$2..uR..
005B8550 24 32 A6 00 B9 00 32 A6 00 C7 44 24 10 00 00 00 $2....2...D$....
005B8560 00 E8 6A EA FF FF 68 C0 03 8A 00 C7 05 00 32 A6 ..j...h.......2.
005B8570 00 0C 3B 8C 00 C7 05 08 32 A6 00 14 00 00 00 C6 ..;.....2.......
005B8580 05 0E 32 A6 00 00 88 1D 0C 32 A6 00 88 1D 0D 32 ..2......2.....2
005B8590 A6 00 88 1D 0F 32 A6 00 E8 EF C6 0D 00 83 C4 04 .....2..........
005B85A0 B8 00 32 A6 00 8B 4C 24 08 64 89 0D 00 00 00 00 ..2...L$.d......
005B85B0 59 5B 83 C4 0C C3 CC CC CC CC CC CC CC CC CC CC Y[..............
005B85C0 E8 2B EF FE FF 80 B8 98 00 00 00 00 74 05 E9 AD .+..........t...
005B85D0 EF FF FF E9 48 F0 FF FF CC CC CC CC CC CC CC CC ....H...........
005B85E0 E8 0B EF FE FF 80 B8 98 00 00 00 00 74 05 E9 CD ............t...
005B85F0 F0 FF FF E9 68 F1 FF FF CC CC CC CC CC CC CC CC ....h...........
005B8600 E8 EB EE FE FF 80 B8 98 00 00 00 00 74 05 E9 ED ............t...
005B8610 F1 FF FF E9 88 F2 FF FF CC CC CC CC CC CC CC CC ................
005B8620 E8 CB EE FE FF 80 B8 98 00 00 00 00 74 05 E9 0D ............t...
005B8630 F3 FF FF E9 A8 F3 FF FF CC CC CC CC CC CC CC CC ................
005B8640 E8 AB EE FE FF 80 B8 98 00 00 00 00 74 05 E9 2D ............t..-
005B8650 F4 FF FF E9 C8 F4 FF FF CC CC CC CC CC CC CC CC ................
005B8660 E8 8B EE FE FF 80 B8 98 00 00 00 00 74 05 E9 4D ............t..M
005B8670 F5 FF FF E9 E8 F5 FF FF CC CC CC CC CC CC CC CC ................
005B8680 E8 6B EE FE FF 80 B8 98 00 00 00 00 74 05 E9 6D .k..........t..m
005B8690 F6 FF FF E9 08 F7 FF FF CC CC CC CC CC CC CC CC ................
005B86A0 E8 4B EE FE FF 80 B8 98 00 00 00 00 74 05 E9 8D .K..........t...
005B86B0 F7 FF FF E9 28 F8 FF FF CC CC CC CC CC CC CC CC ....(...........
005B86C0 E8 2B EE FE FF 80 B8 98 00 00 00 00 74 05 E9 AD .+..........t...
005B86D0 F8 FF FF E9 48 F9 FF FF CC CC CC CC CC CC CC CC ....H...........
005B86E0 E8 0B EE FE FF 80 B8 98 00 00 00 00 74 05 E9 CD ............t...
005B86F0 F9 FF FF E9 68 FA FF FF CC CC CC CC CC CC CC CC ....h...........
005B8700 E8 EB ED FE FF 80 B8 98 00 00 00 00 74 05 E9 ED ............t...
005B8710 FA FF FF E9 88 FB FF FF CC CC CC CC CC CC CC CC ................
005B8720 E8 CB ED FE FF 80 B8 98 00 00 00 00 74 05 E9 0D ............t...
005B8730 FC FF FF E9 A8 FC FF FF CC CC CC CC CC CC CC CC ................
005B8740 E8 AB ED FE FF 80 B8 98 00 00 00 00 74 05 E9 2D ............t..-
005B8750 FD FF FF E9 C8 FD FF FF CC CC CC CC CC CC CC CC ................
005B8760 8B C1 B9 01 00 00 00 33 D2 C7 00 02 00 00 00 C7 .......3........
005B8770 40 04 02 00 00 00 89 48 08 C7 40 0C 02 00 00 00 @......H..@.....
005B8780 89 48 10 89 50 14 89 48 18 C7 40 1C 02 00 00 00 .H..P..H..@.....
005B8790 89 48 20 89 50 24 89 50 28 89 48 2C 88 48 30 89 .H .P$.P(.H,.H0.
005B87A0 50 34 C3 CC CC CC CC CC CC CC CC CC CC CC CC CC P4..............

;; fn005B87B0: 005B87B0
;;   Called from:
;;     00428862 (in fn00428850)
;;     004292E2 (in fn004292A0)
;;     005AEBF5 (in fn005AEBE0)
fn005B87B0 proc
	push	ebx
	push	esi
	push	edi
	mov	edi,ecx
	mov	esi,[edi+34h]
	xor	ebx,ebx
	cmp	esi,ebx
	jz	5B87D8h

l005B87BE:
	mov	ecx,esi
	call	401AE0h
	cmp	eax,1h
	jnz	5B87D8h

l005B87CA:
	cmp	esi,ebx
	jz	5B87D8h

l005B87CE:
	mov	eax,[esi]
	mov	edx,[eax]
	push	1h
	mov	ecx,esi
	call	edx

l005B87D8:
	mov	[edi+34h],ebx
	pop	edi
	pop	esi
	pop	ebx
	ret
005B87DF                                              CC                .
005B87E0 51 8B 06 8B 48 4C 68 3C 3B 8C 00 57 56 C7 44 24 Q...HLh<;..WV.D$
005B87F0 0C 00 00 00 00 FF D1 85 C0 75 12 8B 16 8B 42 4C .........u....BL
005B8800 68 24 3B 8C 00 57 56 FF D0 85 C0 74 0D 8B 0E 8D h$;..WV....t....
005B8810 14 24 52 50 8B 41 5C 56 FF D0 8B 0E 8B 51 4C 68 .$RP.A\V.....QLh
005B8820 1C 3B 8C 00 57 56 FF D2 83 3C 24 01 74 06 85 C0 .;..WV...<$.t...
005B8830 75 02 59 C3 B8 01 00 00 00 59 C3 CC CC CC CC CC u.Y......Y......
005B8840 A1 34 32 A6 00 C3 CC CC CC CC CC CC CC CC CC CC .42.............
005B8850 6A FF 68 29 D3 85 00 64 A1 00 00 00 00 50 83 EC j.h)...d.....P..
005B8860 44 A1 88 41 A1 00 33 C4 50 8D 44 24 48 64 A3 00 D..A..3.P.D$Hd..
005B8870 00 00 00 68 98 69 8A 00 8D 4C 24 08 FF 15 34 43 ...h.i...L$...4C
005B8880 8A 00 8D 44 24 04 50 8D 4C 24 24 C7 44 24 54 00 ...D$.P.L$$.D$T.
005B8890 00 00 00 E8 48 91 E4 FF 68 68 9C 99 00 8D 4C 24 ....H...hh....L$
005B88A0 24 51 C7 44 24 28 30 00 99 00 E8 1D C7 0D 00 CC $Q.D$(0.........
005B88B0 6A FF 68 59 D3 85 00 64 A1 00 00 00 00 50 83 EC j.hY...d.....P..
005B88C0 44 A1 88 41 A1 00 33 C4 50 8D 44 24 48 64 A3 00 D..A..3.P.D$Hd..
005B88D0 00 00 00 68 98 69 8A 00 8D 4C 24 08 FF 15 34 43 ...h.i...L$...4C
005B88E0 8A 00 8D 44 24 04 50 8D 4C 24 24 C7 44 24 54 00 ...D$.P.L$$.D$T.
005B88F0 00 00 00 E8 E8 90 E4 FF 68 68 9C 99 00 8D 4C 24 ........hh....L$
005B8900 24 51 C7 44 24 28 30 00 99 00 E8 BD C6 0D 00 CC $Q.D$(0.........
005B8910 6A FF 68 89 D3 85 00 64 A1 00 00 00 00 50 83 EC j.h....d.....P..
005B8920 44 A1 88 41 A1 00 33 C4 50 8D 44 24 48 64 A3 00 D..A..3.P.D$Hd..
005B8930 00 00 00 68 98 69 8A 00 8D 4C 24 08 FF 15 34 43 ...h.i...L$...4C
005B8940 8A 00 8D 44 24 04 50 8D 4C 24 24 C7 44 24 54 00 ...D$.P.L$$.D$T.
005B8950 00 00 00 E8 88 90 E4 FF 68 68 9C 99 00 8D 4C 24 ........hh....L$
005B8960 24 51 C7 44 24 28 30 00 99 00 E8 5D C6 0D 00 CC $Q.D$(0....]....
005B8970 8B 44 24 04 8B 08 80 79 45 00 75 0E 8D 64 24 00 .D$....yE.u..d$.
005B8980 8B C1 8B 08 80 79 45 00 74 F6 C3 CC CC CC CC CC .....yE.t.......
005B8990 6A FF 68 B9 D3 85 00 64 A1 00 00 00 00 50 83 EC j.h....d.....P..
005B89A0 44 A1 88 41 A1 00 33 C4 50 8D 44 24 48 64 A3 00 D..A..3.P.D$Hd..
005B89B0 00 00 00 68 98 69 8A 00 8D 4C 24 08 FF 15 34 43 ...h.i...L$...4C
005B89C0 8A 00 8D 44 24 04 50 8D 4C 24 24 C7 44 24 54 00 ...D$.P.L$$.D$T.
005B89D0 00 00 00 E8 08 90 E4 FF 68 68 9C 99 00 8D 4C 24 ........hh....L$
005B89E0 24 51 C7 44 24 28 30 00 99 00 E8 DD C5 0D 00 CC $Q.D$(0.........
005B89F0 6A FF 68 E9 D3 85 00 64 A1 00 00 00 00 50 83 EC j.h....d.....P..
005B8A00 44 A1 88 41 A1 00 33 C4 50 8D 44 24 48 64 A3 00 D..A..3.P.D$Hd..
005B8A10 00 00 00 68 98 69 8A 00 8D 4C 24 08 FF 15 34 43 ...h.i...L$...4C
005B8A20 8A 00 8D 44 24 04 50 8D 4C 24 24 C7 44 24 54 00 ...D$.P.L$$.D$T.
005B8A30 00 00 00 E8 A8 8F E4 FF 68 68 9C 99 00 8D 4C 24 ........hh....L$
005B8A40 24 51 C7 44 24 28 30 00 99 00 E8 7D C5 0D 00 CC $Q.D$(0....}....
005B8A50 6A FF 68 19 D4 85 00 64 A1 00 00 00 00 50 83 EC j.h....d.....P..
005B8A60 44 A1 88 41 A1 00 33 C4 50 8D 44 24 48 64 A3 00 D..A..3.P.D$Hd..
005B8A70 00 00 00 68 98 69 8A 00 8D 4C 24 08 FF 15 34 43 ...h.i...L$...4C
005B8A80 8A 00 8D 44 24 04 50 8D 4C 24 24 C7 44 24 54 00 ...D$.P.L$$.D$T.
005B8A90 00 00 00 E8 48 8F E4 FF 68 68 9C 99 00 8D 4C 24 ....H...hh....L$
005B8AA0 24 51 C7 44 24 28 30 00 99 00 E8 1D C5 0D 00 CC $Q.D$(0.........
005B8AB0 8B 54 24 04 8B 02 56 8B 70 08 89 32 8B 70 08 80 .T$...V.p..2.p..
005B8AC0 7E 45 00 75 03 89 56 04 8B 72 04 89 70 04 8B 49 ~E.u..V..r..p..I
005B8AD0 04 3B 51 04 5E 75 0C 89 41 04 89 50 08 89 42 04 .;Q.^u..A..P..B.
005B8AE0 C2 04 00 8B 4A 04 3B 51 08 75 0C 89 41 08 89 50 ....J.;Q.u..A..P
005B8AF0 08 89 42 04 C2 04 00 89 01 89 50 08 89 42 04 C2 ..B.......P..B..
005B8B00 04 00 CC CC CC CC CC CC CC CC CC CC CC CC CC CC ................
005B8B10 6A FF 68 49 D4 85 00 64 A1 00 00 00 00 50 83 EC j.hI...d.....P..
005B8B20 44 A1 88 41 A1 00 33 C4 50 8D 44 24 48 64 A3 00 D..A..3.P.D$Hd..
005B8B30 00 00 00 68 98 69 8A 00 8D 4C 24 08 FF 15 34 43 ...h.i...L$...4C
005B8B40 8A 00 8D 44 24 04 50 8D 4C 24 24 C7 44 24 54 00 ...D$.P.L$$.D$T.
005B8B50 00 00 00 E8 88 8E E4 FF 68 68 9C 99 00 8D 4C 24 ........hh....L$
005B8B60 24 51 C7 44 24 28 30 00 99 00 E8 5D C4 0D 00 CC $Q.D$(0....]....
005B8B70 8B 44 24 04 8B 48 08 80 79 45 00 75 0E 8D 49 00 .D$..H..yE.u..I.
005B8B80 8B C1 8B 48 08 80 79 45 00 74 F5 C3 CC CC CC CC ...H..yE.t......
005B8B90 8B 01 80 78 45 00 74 06 8B 40 08 89 01 C3 8B 10 ...xE.t..@......
005B8BA0 80 7A 45 00 75 18 8B 42 08 80 78 45 00 75 0C 90 .zE.u..B..xE.u..
005B8BB0 8B D0 8B 42 08 80 78 45 00 74 F5 89 11 C3 8B 40 ...B..xE.t.....@
005B8BC0 04 80 78 45 00 75 11 8B 11 3B 10 75 0B 89 01 8B ..xE.u...;.u....
005B8BD0 40 04 80 78 45 00 74 EF 8B 11 80 7A 45 00 75 02 @..xE.t....zE.u.
005B8BE0 89 01 C3 CC CC CC CC CC CC CC CC CC CC CC CC CC ................
005B8BF0 8B C1 8B 48 4C 8B 50 50 FF E2 CC CC CC CC CC CC ...HL.PP........
005B8C00 53 8B 5C 24 08 56 8B 74 24 10 3B DE 74 30 57 8B S.\$.V.t$.;.t0W.
005B8C10 7C 24 18 83 EE 28 83 EF 28 56 8B CF FF 15 58 43 |$...(..(V....XC
005B8C20 8A 00 3B F3 8B 46 1C 89 47 1C 8B 4E 20 89 4F 20 ..;..F..G..N .O 
005B8C30 8A 56 24 88 57 24 75 DB 8B C7 5F 5E 5B C3 8B 44 .V$.W$u..._^[..D
005B8C40 24 14 5E 5B C3 CC CC CC CC CC CC CC CC CC CC CC $.^[............
005B8C50 6A FF 68 81 D4 85 00 64 A1 00 00 00 00 50 51 56 j.h....d.....PQV
005B8C60 57 A1 88 41 A1 00 33 C4 50 8D 44 24 10 64 A3 00 W..A..3.P.D$.d..
005B8C70 00 00 00 8B 74 24 20 89 74 24 20 89 74 24 0C 85 ....t$ .t$ .t$..
005B8C80 F6 C7 44 24 18 00 00 00 00 74 1F 8B 7C 24 24 57 ..D$.....t..|$$W
005B8C90 8B CE FF 15 3C 43 8A 00 8B 47 1C 89 46 1C 8B 4F ....<C...G..F..O
005B8CA0 20 89 4E 20 8A 57 24 88 56 24 8B 4C 24 10 64 89  .N .W$.V$.L$.d.
005B8CB0 0D 00 00 00 00 59 5F 5E 83 C4 10 C3 CC CC CC CC .....Y_^........
005B8CC0 6A FF 68 54 D5 85 00 64 A1 00 00 00 00 50 81 EC j.hT...d.....P..
005B8CD0 C0 01 00 00 53 A1 88 41 A1 00 33 C4 50 8D 84 24 ....S..A..3.P..$
005B8CE0 C8 01 00 00 64 A3 00 00 00 00 8B 84 24 D8 01 00 ....d.......$...
005B8CF0 00 3D 68 08 76 88 0F 8F AE 01 00 00 0F 84 49 01 .=h.v.........I.
005B8D00 00 00 3D 0E 00 07 80 0F 84 D6 00 00 00 3D 7C 01 ..=..........=|.
005B8D10 76 88 74 6D 3D 27 08 76 88 0F 85 A8 01 00 00 8B v.tm='.v........
005B8D20 84 24 DC 01 00 00 50 8D 4C 24 44 FF 15 34 43 8A .$....P.L$D..4C.
005B8D30 00 68 A4 28 8C 00 50 8D 8C 24 F0 00 00 00 BB 08 .h.(..P..$......
005B8D40 00 00 00 51 89 9C 24 DC 01 00 00 FF 15 D4 43 8A ...Q..$.......C.
005B8D50 00 83 C4 0C 8B C8 C6 84 24 D0 01 00 00 09 FF 15 ........$.......
005B8D60 54 43 8A 00 8D 8C 24 E8 00 00 00 88 9C 24 D0 01 TC....$......$..
005B8D70 00 00 FF 15 38 43 8A 00 8D 4C 24 40 E9 D2 02 00 ....8C...L$@....
005B8D80 00 8B 94 24 DC 01 00 00 52 8D 4C 24 7C FF 15 34 ...$....R.L$|..4
005B8D90 43 8A 00 68 8C 28 8C 00 50 8D 84 24 60 01 00 00 C..h.(..P..$`...
005B8DA0 BB 06 00 00 00 50 89 9C 24 DC 01 00 00 FF 15 D4 .....P..$.......
005B8DB0 43 8A 00 83 C4 0C 8B C8 C6 84 24 D0 01 00 00 07 C.........$.....
005B8DC0 FF 15 54 43 8A 00 8D 8C 24 58 01 00 00 88 9C 24 ..TC....$X.....$
005B8DD0 D0 01 00 00 FF 15 38 43 8A 00 8D 4C 24 78 E9 70 ......8C...L$x.p
005B8DE0 02 00 00 8B 8C 24 DC 01 00 00 51 8D 8C 24 B4 00 .....$....Q..$..
005B8DF0 00 00 FF 15 34 43 8A 00 68 6C 3B 8C 00 50 8D 94 ....4C..hl;..P..
005B8E00 24 28 01 00 00 BB 0A 00 00 00 52 89 9C 24 DC 01 $(........R..$..
005B8E10 00 00 FF 15 D4 43 8A 00 83 C4 0C 8B C8 C6 84 24 .....C.........$
005B8E20 D0 01 00 00 0B FF 15 54 43 8A 00 8D 8C 24 20 01 .......TC....$ .
005B8E30 00 00 88 9C 24 D0 01 00 00 FF 15 38 43 8A 00 8D ....$......8C...
005B8E40 8C 24 B0 00 00 00 E9 08 02 00 00 8B 84 24 DC 01 .$...........$..
005B8E50 00 00 50 8D 4C 24 0C FF 15 34 43 8A 00 68 54 28 ..P.L$...4C..hT(
005B8E60 8C 00 50 8D 8C 24 98 01 00 00 33 DB 51 89 9C 24 ..P..$....3.Q..$
005B8E70 DC 01 00 00 FF 15 D4 43 8A 00 83 C4 0C 8B C8 C6 .......C........
005B8E80 84 24 D0 01 00 00 01 FF 15 54 43 8A 00 8D 8C 24 .$.......TC....$
005B8E90 90 01 00 00 88 9C 24 D0 01 00 00 FF 15 38 43 8A ......$......8C.
005B8EA0 00 8D 4C 24 08 E9 A9 01 00 00 3D 6A 08 76 88 0F ..L$......=j.v..
005B8EB0 84 3B 01 00 00 3D 6C 08 76 88 0F 84 CB 00 00 00 .;...=l.v.......
005B8EC0 3D 59 0B 76 88 74 5C 8B 94 24 DC 01 00 00 52 8D =Y.v.t\..$....R.
005B8ED0 4C 24 60 FF 15 34 43 8A 00 68 38 28 8C 00 50 8D L$`..4C..h8(..P.
005B8EE0 44 24 2C BB 0E 00 00 00 50 89 9C 24 DC 01 00 00 D$,.....P..$....
005B8EF0 FF 15 D4 43 8A 00 83 C4 0C 8B C8 C6 84 24 D0 01 ...C.........$..
005B8F00 00 00 0F FF 15 54 43 8A 00 8D 4C 24 24 88 9C 24 .....TC...L$$..$
005B8F10 D0 01 00 00 FF 15 38 43 8A 00 8D 4C 24 5C E9 30 ......8C...L$\.0
005B8F20 01 00 00 8B 8C 24 DC 01 00 00 51 8D 8C 24 D0 00 .....$....Q..$..
005B8F30 00 00 FF 15 34 43 8A 00 68 54 3B 8C 00 50 8D 94 ....4C..hT;..P..
005B8F40 24 9C 00 00 00 BB 0C 00 00 00 52 89 9C 24 DC 01 $.........R..$..
005B8F50 00 00 FF 15 D4 43 8A 00 83 C4 0C 8B C8 C6 84 24 .....C.........$
005B8F60 D0 01 00 00 0D FF 15 54 43 8A 00 8D 8C 24 94 00 .......TC....$..
005B8F70 00 00 88 9C 24 D0 01 00 00 FF 15 38 43 8A 00 8D ....$......8C...
005B8F80 8C 24 CC 00 00 00 E9 C8 00 00 00 8B 84 24 DC 01 .$...........$..
005B8F90 00 00 50 8D 8C 24 40 01 00 00 FF 15 34 43 8A 00 ..P..$@.....4C..
005B8FA0 68 04 28 8C 00 50 8D 8C 24 0C 01 00 00 BB 02 00 h.(..P..$.......
005B8FB0 00 00 51 89 9C 24 DC 01 00 00 FF 15 D4 43 8A 00 ..Q..$.......C..
005B8FC0 83 C4 0C 8B C8 C6 84 24 D0 01 00 00 03 FF 15 54 .......$.......T
005B8FD0 43 8A 00 8D 8C 24 04 01 00 00 88 9C 24 D0 01 00 C....$......$...
005B8FE0 00 FF 15 38 43 8A 00 8D 8C 24 3C 01 00 00 EB 63 ...8C....$<....c
005B8FF0 8B 94 24 DC 01 00 00 52 8D 8C 24 B0 01 00 00 FF ..$....R..$.....
005B9000 15 34 43 8A 00 68 CC 27 8C 00 50 8D 84 24 7C 01 .4C..h.'..P..$|.
005B9010 00 00 BB 04 00 00 00 50 89 9C 24 DC 01 00 00 FF .......P..$.....
005B9020 15 D4 43 8A 00 83 C4 0C 8B C8 C6 84 24 D0 01 00 ..C.........$...
005B9030 00 05 FF 15 54 43 8A 00 8D 8C 24 74 01 00 00 88 ....TC....$t....
005B9040 9C 24 D0 01 00 00 FF 15 38 43 8A 00 8D 8C 24 AC .$......8C....$.
005B9050 01 00 00 C7 84 24 D0 01 00 00 FF FF FF FF FF 15 .....$..........
005B9060 38 43 8A 00 8B 8C 24 C8 01 00 00 64 89 0D 00 00 8C....$....d....
005B9070 00 00 59 5B 81 C4 CC 01 00 00 C3 CC CC CC CC CC ..Y[............
005B9080 8B 44 24 04 83 78 08 01 75 0E 83 78 0C 03 75 08 .D$..x..u..x..u.
005B9090 B8 01 00 00 00 C2 04 00 33 C0 C2 04 00 CC CC CC ........3.......
005B90A0 8B 4C 24 04 8B 41 08 83 F8 02 74 05 83 F8 03 75 .L$..A....t....u
005B90B0 0E 83 79 0C 03 75 08 B8 01 00 00 00 C2 04 00 33 ..y..u.........3
005B90C0 C0 C2 04 00 CC CC CC CC CC CC CC CC CC CC CC CC ................
005B90D0 8B 44 24 04 83 78 08 00 75 0E 83 78 0C 03 75 08 .D$..x..u..x..u.
005B90E0 B8 01 00 00 00 C2 04 00 33 C0 C2 04 00 CC CC CC ........3.......
005B90F0 D9 41 08 8B 44 24 04 8B 10 8B 52 78 51 8B 4C 24 .A..D$....RxQ.L$
005B9100 0C D9 1C 24 51 50 FF D2 33 C9 85 C0 0F 9D C1 8A ...$QP..3.......
005B9110 C1 C2 08 00 CC CC CC CC CC CC CC CC CC CC CC CC ................
005B9120 8B 44 24 04 D9 00 D9 59 08 C2 04 00 CC CC CC CC .D$....Y........
005B9130 8B 44 24 04 D9 41 08 D9 18 B0 01 C2 04 00 CC CC .D$..A..........
005B9140 8B 44 24 04 83 78 08 00 75 0E 83 78 0C 01 75 08 .D$..x..u..x..u.
005B9150 B8 01 00 00 00 C2 04 00 33 C0 C2 04 00 CC CC CC ........3.......
005B9160 8B 49 08 8B 44 24 04 8B 10 8B 52 58 51 8B 4C 24 .I..D$....RXQ.L$
005B9170 0C 51 50 FF D2 33 C9 85 C0 0F 9D C1 8A C1 C2 08 .QP..3..........
005B9180 00 CC CC CC CC CC CC CC CC CC CC CC CC CC CC CC ................
005B9190 8B 44 24 04 F3 0F 10 00 0F 2E 05 A4 77 8A 00 9F .D$.........w...
005B91A0 F6 C4 44 7B 0B B8 01 00 00 00 89 41 08 C2 04 00 ..D{.......A....
005B91B0 33 C0 89 41 08 C2 04 00 CC CC CC CC CC CC CC CC 3..A............
005B91C0 83 79 08 00 8B 4C 24 04 0F 95 C0 88 01 B0 01 C2 .y...L$.........
005B91D0 04 00 CC CC CC CC CC CC CC CC CC CC CC CC CC CC ................
005B91E0 8B 44 24 04 83 78 08 04 75 24 8B 40 0C 83 F8 05 .D$..x..u$.@....
005B91F0 74 14 83 F8 06 74 0F 83 F8 07 74 0A 83 F8 08 74 t....t....t....t
005B9200 05 83 F8 09 75 08 B8 01 00 00 00 C2 04 00 33 C0 ....u.........3.
005B9210 C2 04 00 CC CC CC CC CC CC CC CC CC CC CC CC CC ................
005B9220 8B 44 24 04 83 78 08 00 75 0E 83 78 0C 02 75 08 .D$..x..u..x..u.
005B9230 B8 01 00 00 00 C2 04 00 33 C0 C2 04 00 CC CC CC ........3.......
005B9240 8B 49 08 8B 44 24 04 8B 10 8B 52 68 51 8B 4C 24 .I..D$....RhQ.L$
005B9250 0C 51 50 FF D2 33 C9 85 C0 0F 9D C1 8A C1 C2 08 .QP..3..........
005B9260 00 CC CC CC CC CC CC CC CC CC CC CC CC CC CC CC ................
005B9270 8B 44 24 04 F3 0F 2C 10 89 51 08 C2 04 00 CC CC .D$...,..Q......
005B9280 8B 41 08 8B 4C 24 04 89 01 B0 01 C2 04 00 CC CC .A..L$..........
005B9290 83 EC 20 55 8B 6C 24 2C 56 8B 74 24 2C 8B 06 8B .. U.l$,V.t$,...
005B92A0 50 14 57 8D 4C 24 10 51 55 56 BF 0A 00 00 00 FF P.W.L$.QUV......
005B92B0 D2 85 C0 75 61 53 33 DB 33 FF 39 5C 24 18 89 5C ...uaS3.3.9\$..\
005B92C0 24 34 76 48 8B 06 8B 48 38 57 55 56 FF D1 8B 16 $4vH...H8WUV....
005B92D0 8B 52 18 8D 4C 24 20 51 50 56 FF D2 85 C0 75 23 .R..L$ QPV....u#
005B92E0 8B 44 24 2C 50 E8 70 DA 0D 00 0F B6 C4 89 44 24 .D$,P.p.......D$
005B92F0 10 3B D8 8D 44 24 10 7C 04 8D 44 24 34 8B 18 89 .;..D$.|..D$4...
005B9300 5C 24 34 83 C7 01 3B 7C 24 18 72 B8 8B C3 5B 5F \$4...;|$.r...[_
005B9310 5E 5D 83 C4 20 C3 8B C7 5F 5E 5D 83 C4 20 C3 CC ^].. ..._^].. ..
005B9320 56 8B F1 E8 28 2E F2 FF 83 F8 FF 75 04 33 C0 5E V...(......u.3.^
005B9330 C3 8B 56 54 85 D2 75 04 33 C9 EB 08 8B 4E 58 2B ..VT..u.3....NX+
005B9340 CA C1 F9 03 3B C1 7D E5 8B CA 8B 04 C1 5E C3 CC ....;.}......^..
005B9350 8B 01 80 78 45 00 75 42 8B 50 08 80 7A 45 00 75 ...xE.uB.P..zE.u
005B9360 1C 8B 02 80 78 45 00 75 11 8D A4 24 00 00 00 00 ....xE.u...$....
005B9370 8B D0 8B 02 80 78 45 00 74 F6 89 11 C3 8B 40 04 .....xE.t.....@.
005B9380 80 78 45 00 75 12 8B 11 3B 50 08 75 0B 89 01 8B .xE.u...;P.u....
005B9390 40 04 80 78 45 00 74 EE 89 01 C3 CC CC CC CC CC @..xE.t.........
005B93A0 8B 41 04 56 8B 70 04 80 7E 45 00 57 8B F8 75 31 .A.V.p..~E.W..u1
005B93B0 53 8B 5C 24 10 55 8B 2D 0C 44 8A 00 8D 64 24 00 S.\$.U.-.D...d$.
005B93C0 8D 46 0C 53 50 FF D5 83 C4 08 84 C0 74 05 8B 76 .F.SP.......t..v
005B93D0 08 EB 04 8B FE 8B 36 80 7E 45 00 74 E3 5D 8B C7 ......6.~E.t.]..
005B93E0 5B 5F 5E C2 04 00 CC CC CC CC CC CC CC CC CC CC [_^.............
005B93F0 8B 54 24 04 8B 42 08 56 8B 30 89 72 08 8B 30 80 .T$..B.V.0.r..0.
005B9400 7E 45 00 75 03 89 56 04 8B 72 04 89 70 04 8B 49 ~E.u..V..r..p..I
005B9410 04 3B 51 04 5E 75 0B 89 41 04 89 10 89 42 04 C2 .;Q.^u..A....B..
005B9420 04 00 8B 4A 04 3B 11 75 0A 89 01 89 10 89 42 04 ...J.;.u......B.
005B9430 C2 04 00 89 41 08 89 10 89 42 04 C2 04 00 CC CC ....A....B......
005B9440 6A FF 68 A2 D5 85 00 64 A1 00 00 00 00 50 83 EC j.h....d.....P..
005B9450 08 56 A1 88 41 A1 00 33 C4 50 8D 44 24 10 64 A3 .V..A..3.P.D$.d.
005B9460 00 00 00 00 8B 74 24 20 89 74 24 0C C7 44 24 08 .....t$ .t$..D$.
005B9470 00 00 00 00 8D 44 24 24 50 8B CE C7 44 24 1C 01 .....D$$P...D$..
005B9480 00 00 00 FF 15 3C 43 8A 00 8B 4C 24 40 89 4E 1C .....<C...L$@.N.
005B9490 8D 4C 24 24 C7 44 24 08 01 00 00 00 C6 44 24 18 .L$$.D$......D$.
005B94A0 00 FF 15 38 43 8A 00 8B C6 8B 4C 24 10 64 89 0D ...8C.....L$.d..
005B94B0 00 00 00 00 59 5E 83 C4 14 C3 CC CC CC CC CC CC ....Y^..........
005B94C0 53 8B 5C 24 0C 56 8B 74 24 0C 3B F3 74 30 57 8B S.\$.V.t$.;.t0W.
005B94D0 7C 24 18 56 8B CF FF 15 58 43 8A 00 8B 46 1C 89 |$.V....XC...F..
005B94E0 47 1C 8B 4E 20 89 4F 20 8A 56 24 88 57 24 83 C6 G..N .O .V$.W$..
005B94F0 28 83 C7 28 3B F3 75 DB 8B C7 5F 5E 5B C3 8B 44 (..(;.u..._^[..D
005B9500 24 14 5E 5B C3 CC CC CC CC CC CC CC CC CC CC CC $.^[............
005B9510 53 8B 5C 24 0C 56 8B 74 24 0C 3B F3 74 28 57 8B S.\$.V.t$.;.t(W.
005B9520 7C 24 18 57 8B CE FF 15 58 43 8A 00 8B 47 1C 89 |$.W....XC...G..
005B9530 46 1C 8B 4F 20 89 4E 20 8A 57 24 88 56 24 83 C6 F..O .N .W$.V$..
005B9540 28 3B F3 75 DE 5F 5E 5B C3 CC CC CC CC CC CC CC (;.u._^[........
005B9550 8B 44 24 04 8B 10 8B 92 88 00 00 00 83 C1 08 51 .D$............Q
005B9560 8B 4C 24 0C 51 50 FF D2 33 C9 85 C0 0F 9D C1 8A .L$.QP..3.......
005B9570 C1 C2 08 00 CC CC CC CC CC CC CC CC CC CC CC CC ................
005B9580 8B 44 24 04 8B 10 89 51 08 8B 50 04 89 51 0C 8B .D$....Q..P..Q..
005B9590 50 08 89 51 10 8B 40 0C 89 41 14 C2 04 00 CC CC P..Q..@..A......
005B95A0 8B 51 08 8B 44 24 04 89 10 8B 51 0C 89 50 04 8B .Q..D$....Q..P..
005B95B0 51 10 89 50 08 8B 49 14 89 48 0C B0 01 C2 04 00 Q..P..I..H......
005B95C0 8B 44 24 04 8B 10 8B 92 98 00 00 00 83 C1 10 51 .D$............Q
005B95D0 8B 4C 24 0C 51 50 FF D2 33 C9 85 C0 0F 9D C1 8A .L$.QP..3.......
005B95E0 C1 C2 08 00 CC CC CC CC CC CC CC CC CC CC CC CC ................
005B95F0 83 EC 0C 8B 44 24 10 F3 0F 10 00 F3 0F 11 04 24 ....D$.........$
005B9600 F3 0F 10 40 04 F3 0F 11 44 24 04 F3 0F 10 40 08 ...@....D$....@.
005B9610 8B 04 24 8B 54 24 04 89 41 40 F3 0F 11 44 24 08 ..$.T$..A@...D$.
005B9620 8B 44 24 08 F3 0F 10 05 1C 79 8A 00 89 51 44 89 .D$......y...QD.
005B9630 41 48 F3 0F 11 41 4C 83 C4 0C C2 04 00 CC CC CC AH...AL.........
005B9640 F6 44 24 04 01 56 8B F1 C7 06 78 6D 8A 00 74 0A .D$..V....xm..t.
005B9650 56 FF 15 28 46 8A 00 83 C4 04 8B C6 5E C2 04 00 V..(F.......^...
005B9660 F6 44 24 04 01 56 8B F1 C7 06 78 6D 8A 00 74 09 .D$..V....xm..t.
005B9670 56 E8 50 B9 0D 00 83 C4 04 8B C6 5E C2 04 00 CC V.P........^....
005B9680 8B 49 68 E8 C8 2A F2 FF B9 03 00 00 00 2B C8 8B .Ih..*.......+..
005B9690 C1 C3 CC CC CC CC CC CC CC CC CC CC CC CC CC CC ................
005B96A0 6A FF 68 C9 D5 85 00 64 A1 00 00 00 00 50 51 56 j.h....d.....PQV
005B96B0 A1 88 41 A1 00 33 C4 50 8D 44 24 0C 64 A3 00 00 ..A..3.P.D$.d...
005B96C0 00 00 8B F1 89 74 24 08 8B 4E 1C 85 C9 C7 44 24 .....t$..N....D$
005B96D0 14 00 00 00 00 74 0E 83 41 04 FF 75 08 8B 01 8B .....t..A..u....
005B96E0 10 6A 01 FF D2 8B CE C7 46 1C 00 00 00 00 C7 44 .j......F......D
005B96F0 24 14 FF FF FF FF FF 15 38 43 8A 00 8B 4C 24 0C $.......8C...L$.
005B9700 64 89 0D 00 00 00 00 59 5E 83 C4 10 C3 CC CC CC d......Y^.......
005B9710 55 8B EC 6A FF 68 01 D6 85 00 64 A1 00 00 00 00 U..j.h....d.....
005B9720 50 83 EC 0C 53 56 57 A1 88 41 A1 00 33 C5 50 8D P...SVW..A..3.P.
005B9730 45 F4 64 A3 00 00 00 00 89 65 F0 6A 30 E8 96 B8 E.d......e.j0...
005B9740 0D 00 8B F0 83 C4 04 89 75 EC C7 45 FC 00 00 00 ........u..E....
005B9750 00 89 75 E8 85 F6 C6 45 FC 01 74 30 8B 4D 0C 8B ..u....E..t0.M..
005B9760 45 08 8B 55 10 8B 5D 14 89 4E 04 8D 7E 0C 53 8B E..U..]..N..~.S.
005B9770 CF 89 06 89 56 08 FF 15 3C 43 8A 00 8B 43 1C 8A ....V...<C...C..
005B9780 4D 18 89 47 1C 88 4E 2C C6 46 2D 00 8B C6 8B 4D M..G..N,.F-....M
005B9790 F4 64 89 0D 00 00 00 00 59 5F 5E 5B 8B E5 5D C2 .d......Y_^[..].
005B97A0 14 00 8B 55 EC 52 E8 1B B8 0D 00 83 C4 04 6A 00 ...U.R........j.
005B97B0 6A 00 E8 15 B8 0D 00 CC CC CC CC CC CC CC CC CC j...............
005B97C0 6A 48 E8 11 B8 0D 00 83 C4 04 85 C0 74 06 C7 00 jH..........t...
005B97D0 00 00 00 00 8D 48 04 85 C9 74 06 C7 01 00 00 00 .....H...t......
005B97E0 00 8D 48 08 85 C9 74 06 C7 01 00 00 00 00 C6 40 ..H...t........@
005B97F0 44 01 C6 40 45 00 C3 CC CC CC CC CC CC CC CC CC D..@E...........
005B9800 55 8B EC 6A FF 68 31 D6 85 00 64 A1 00 00 00 00 U..j.h1...d.....
005B9810 50 83 EC 0C 53 56 57 A1 88 41 A1 00 33 C5 50 8D P...SVW..A..3.P.
005B9820 45 F4 64 A3 00 00 00 00 89 65 F0 6A 48 E8 A6 B7 E.d......e.jH...
005B9830 0D 00 8B F0 83 C4 04 89 75 EC C7 45 FC 00 00 00 ........u..E....
005B9840 00 89 75 E8 85 F6 C6 45 FC 01 74 27 8B 45 08 8B ..u....E..t'.E..
005B9850 4D 0C 8B 55 10 89 06 8B 45 14 89 4E 04 50 8D 4E M..U....E..N.P.N
005B9860 0C 89 56 08 E8 27 5D EC FF 8A 4D 18 88 4E 44 C6 ..V..']...M..ND.
005B9870 46 45 00 8B C6 8B 4D F4 64 89 0D 00 00 00 00 59 FE....M.d......Y
005B9880 5F 5E 5B 8B E5 5D C2 14 00 8B 55 EC 52 E8 34 B7 _^[..]....U.R.4.
005B9890 0D 00 83 C4 04 6A 00 6A 00 E8 2E B7 0D 00 CC CC .....j.j........
005B98A0 6A FF 68 5B D6 85 00 64 A1 00 00 00 00 50 51 56 j.h[...d.....PQV
005B98B0 A1 88 41 A1 00 33 C4 50 8D 44 24 0C 64 A3 00 00 ..A..3.P.D$.d...
005B98C0 00 00 6A 54 C7 44 24 0C 00 00 00 00 E8 07 B7 0D ..jT.D$.........
005B98D0 00 8B F0 83 C4 04 89 74 24 08 85 F6 C7 44 24 14 .......t$....D$.
005B98E0 00 00 00 00 74 33 8B 44 24 34 8B 4C 24 30 8B 54 ....t3.D$4.L$0.T
005B98F0 24 2C 50 8B 44 24 24 51 52 50 8B CE E8 1F 0E 02 $,P.D$$QRP......
005B9900 00 8B 4C 24 24 8B 54 24 28 89 4E 4C C7 06 4C 3B ..L$$.T$(.NL..L;
005B9910 8C 00 89 56 50 8B CE EB 02 33 C9 85 C9 8B 44 24 ...VP....3....D$
005B9920 1C 89 08 74 04 83 41 04 01 8B 4C 24 0C 64 89 0D ...t..A...L$.d..
005B9930 00 00 00 00 59 5E 83 C4 10 C3 CC CC CC CC CC CC ....Y^..........
005B9940 51 8B 4C 24 10 8B 54 24 10 C6 04 24 00 8B 04 24 Q.L$..T$...$...$
005B9950 50 8B 44 24 14 51 8B 4C 24 14 52 8B 54 24 14 50 P.D$.Q.L$.R.T$.P
005B9960 51 52 E8 99 F2 FF FF 83 C4 1C C3 CC CC CC CC CC QR..............
005B9970 55 8B EC 6A FF 68 80 D6 85 00 64 A1 00 00 00 00 U..j.h....d.....
005B9980 50 83 EC 08 53 56 57 A1 88 41 A1 00 33 C5 50 8D P...SVW..A..3.P.
005B9990 45 F4 64 A3 00 00 00 00 89 65 F0 8B 7D 10 8B 5D E.d......e..}..]
005B99A0 0C 8B 75 08 89 7D EC C7 45 FC 00 00 00 00 8B FF ..u..}..E.......
005B99B0 3B F3 74 37 56 57 E8 95 F2 FF FF 83 C7 28 83 C4 ;.t7VW.......(..
005B99C0 08 89 7D 10 83 C6 28 EB E7 8B 75 EC 8B 7D 10 3B ..}...(...u..}.;
005B99D0 F7 74 0F 8B CE FF 15 38 43 8A 00 83 C6 28 3B F7 .t.....8C....(;.
005B99E0 75 F1 6A 00 6A 00 E8 E1 B5 0D 00 8B C7 8B 4D F4 u.j.j.........M.
005B99F0 64 89 0D 00 00 00 00 59 5F 5E 5B 8B E5 5D C3 CC d......Y_^[..]..
005B9A00 83 EC 14 56 33 F6 6A 18 89 74 24 08 E8 C7 B5 0D ...V3.j..t$.....
005B9A10 00 83 C4 04 3B C6 74 0B 89 70 04 C7 00 3C 3C 8C ....;.t..p...<<.
005B9A20 00 8B F0 8B 44 24 24 8B 08 8D 54 24 08 52 8B 54 ....D$$...T$.R.T
005B9A30 24 24 52 50 8B 81 8C 00 00 00 FF D0 8B 4C 24 08 $$RP.........L$.
005B9A40 89 4E 08 8B 54 24 0C 89 56 0C 8B 44 24 10 89 46 .N..T$..V..D$..F
005B9A50 10 8B 4C 24 14 8B 44 24 1C 89 4E 14 83 46 04 01 ..L$..D$..N..F..
005B9A60 89 30 5E 83 C4 14 C2 0C 00 CC CC CC CC CC CC CC .0^.............
005B9A70 55 8B EC 83 E4 F0 83 EC 44 53 56 57 6A 10 33 F6 U.......DSVWj.3.
005B9A80 6A 50 89 74 24 14 FF 15 24 46 8A 00 8B D8 83 C4 jP.t$...$F......
005B9A90 08 3B DE 74 1A 6A 40 8D 43 10 56 50 89 73 04 C7 .;.t.j@.C.VP.s..
005B9AA0 03 64 3C 8C 00 E8 76 B5 0D 00 83 C4 0C EB 02 33 .d<...v........3
005B9AB0 DB 6A 40 8D 4C 24 14 56 51 E8 62 B5 0D 00 8B 45 .j@.L$.VQ.b....E
005B9AC0 10 8B 10 8B 92 9C 00 00 00 83 C4 0C 8D 4C 24 10 .............L$.
005B9AD0 51 8B 4D 0C 51 50 FF D2 8B 45 08 8D 7B 10 B9 10 Q.M.QP...E..{...
005B9AE0 00 00 00 8D 74 24 10 F3 A5 83 43 04 01 5F 5E 89 ....t$....C.._^.
005B9AF0 18 5B 8B E5 5D C2 0C 00 CC CC CC CC CC CC CC CC .[..]...........
005B9B00 51 56 33 F6 6A 0C 89 74 24 08 E8 C9 B4 0D 00 83 QV3.j..t$.......
005B9B10 C4 04 3B C6 74 0B 89 70 04 C7 00 A0 3B 8C 00 8B ..;.t..p....;...
005B9B20 F0 8B 44 24 14 8B 08 8D 54 24 04 52 8B 54 24 14 ..D$....T$.R.T$.
005B9B30 52 50 8B 41 7C FF D0 F3 0F 10 44 24 04 8B 44 24 RP.A|.....D$..D$
005B9B40 0C F3 0F 11 46 08 83 46 04 01 89 30 5E 59 C2 0C ....F..F...0^Y..
005B9B50 00 CC CC CC CC CC CC CC CC CC CC CC CC CC CC CC ................
005B9B60 51 56 33 F6 6A 0C 89 74 24 08 E8 69 B4 0D 00 83 QV3.j..t$..i....
005B9B70 C4 04 3B C6 74 0B 89 70 04 C7 00 D4 3B 8C 00 8B ..;.t..p....;...
005B9B80 F0 8B 44 24 14 8B 08 8D 54 24 04 52 8B 54 24 14 ..D$....T$.R.T$.
005B9B90 52 50 8B 41 5C FF D0 8B 4C 24 04 8B 44 24 0C 89 RP.A\...L$..D$..
005B9BA0 4E 08 83 46 04 01 89 30 5E 59 C2 0C 00 CC CC CC N..F...0^Y......
005B9BB0 51 56 33 F6 6A 0C 89 74 24 08 E8 19 B4 0D 00 83 QV3.j..t$.......
005B9BC0 C4 04 3B C6 74 0B 89 70 04 C7 00 14 3C 8C 00 8B ..;.t..p....<...
005B9BD0 F0 8B 44 24 14 8B 08 8D 54 24 04 52 8B 54 24 14 ..D$....T$.R.T$.
005B9BE0 52 50 8B 41 6C FF D0 8B 4C 24 04 8B 44 24 0C 89 RP.Al...L$..D$..
005B9BF0 4E 08 83 46 04 01 89 30 5E 59 C2 0C 00 CC CC CC N..F...0^Y......
005B9C00 53 56 57 8B F9 8B 77 20 8B 5F 24 3B F3 74 1F 90 SVW...w ._$;.t..
005B9C10 8B 46 04 8B 08 85 C9 74 0E 8B 06 8B 11 8B 52 04 .F.....t......R.
005B9C20 50 8B 47 0C 50 FF D2 83 C6 08 3B F3 75 E2 5F 5E P.G.P.....;.u._^
005B9C30 5B C3 CC CC CC CC CC CC CC CC CC CC CC CC CC CC [...............
005B9C40 53 55 56 8B 35 34 32 A6 00 8B 46 30 83 C6 28 33 SUV.542...F0..(3
005B9C50 C9 83 C0 02 BA 08 00 00 00 F7 E2 0F 90 C1 57 F7 ..............W.
005B9C60 D9 0B C8 51 E8 20 AF 0D 00 8B 5E 04 8B 33 83 C4 ...Q. ....^..3..
005B9C70 04 33 FF 3B F3 8B E8 74 68 8D A4 24 00 00 00 00 .3.;...th..$....
005B9C80 8D 4E 0C FF 15 54 43 8A 00 8D 4E 28 89 44 FD 00 .N...TC...N(.D..
005B9C90 FF 15 54 43 8A 00 89 44 FD 04 80 7E 45 00 75 3A ..TC...D...~E.u:
005B9CA0 8B 46 08 80 78 45 00 75 16 8B F0 8B 06 80 78 45 .F..xE.u......xE
005B9CB0 00 75 27 8B F0 8B 06 80 78 45 00 74 F6 EB 1B 8B .u'.....xE.t....
005B9CC0 46 04 80 78 45 00 75 10 3B 70 08 75 0B 8B F0 8B F..xE.u.;p.u....
005B9CD0 40 04 80 78 45 00 74 F0 8B F0 83 C7 01 3B F3 75 @..xE.t......;.u
005B9CE0 9F 33 C0 89 44 FD 08 89 44 FD 0C C7 44 FD 00 8C .3..D...D...D...
005B9CF0 3C 8C 00 C7 44 FD 04 E4 77 8A 00 5F 5E 8B C5 5D <...D...w.._^..]
005B9D00 5B C3 CC CC CC CC CC CC CC CC CC CC CC CC CC CC [...............
005B9D10 53 56 57 8B F9 8B 47 6C 6A FF 50 FF 15 F4 40 8A SVW...Glj.P...@.
005B9D20 00 C6 47 70 01 8B 5F 64 8B 33 3B F3 74 5E 55 8B ..Gp.._d.3;.t^U.
005B9D30 6C 24 14 8B 47 54 8B 04 E8 8B 4E 10 8B 11 8B 12 l$..GT....N.....
005B9D40 50 8B 47 4C 50 FF D2 80 7E 15 00 75 3A 8B 46 08 P.GLP...~..u:.F.
005B9D50 80 78 15 00 75 16 8B F0 8B 06 80 78 15 00 75 27 .x..u......x..u'
005B9D60 8B F0 8B 06 80 78 15 00 74 F6 EB 1B 8B 46 04 80 .....x..t....F..
005B9D70 78 15 00 75 10 3B 70 08 75 0B 8B F0 8B 40 04 80 x..u.;p.u....@..
005B9D80 78 15 00 74 F0 8B F0 3B F3 75 A8 5D 8B 47 6C C6 x..t...;.u.].Gl.
005B9D90 47 70 00 5F 5E 5B 89 44 24 04 FF 25 F0 40 8A 00 Gp._^[.D$..%.@..
005B9DA0 53 56 57 8B F9 8B 47 54 8B 5F 58 3B C3 8B F0 74 SVW...GT._X;...t
005B9DB0 25 8B 4C 24 10 39 4E 04 7E 09 83 C6 08 3B F3 75 %.L$.9N.~....;.u
005B9DC0 F4 EB 13 8B CE 2B C8 C1 F9 03 51 8B CF E8 DE 0E .....+....Q.....
005B9DD0 02 00 3B F3 75 2F 8B 4F 54 85 C9 75 15 33 C0 B8 ..;.u/.OT..u.3..
005B9DE0 FF FF FF FF 50 8B CF E8 C4 0E 02 00 5F 5E 5B C2 ....P......._^[.
005B9DF0 04 00 8B 47 58 2B C1 C1 F8 03 83 C0 FF 50 8B CF ...GX+.......P..
005B9E00 E8 AB 0E 02 00 5F 5E 5B C2 04 00 CC CC CC CC CC ....._^[........
005B9E10 6A FF 68 A9 D6 85 00 64 A1 00 00 00 00 50 83 EC j.h....d.....P..
005B9E20 48 53 55 56 57 A1 88 41 A1 00 33 C4 50 8D 44 24 HSUVW..A..3.P.D$
005B9E30 5C 64 A3 00 00 00 00 8B E9 8B 44 24 70 80 78 15 \d........D$p.x.
005B9E40 00 74 3C 68 94 6D 8A 00 8D 4C 24 1C FF 15 34 43 .t<h.m...L$...4C
005B9E50 8A 00 8D 44 24 18 50 8D 4C 24 38 C7 44 24 68 00 ...D$.P.L$8.D$h.
005B9E60 00 00 00 E8 78 7B E4 FF 68 8C A8 99 00 8D 4C 24 ....x{..h.....L$
005B9E70 38 51 C7 44 24 3C 3C 00 99 00 E8 4D B1 0D 00 8B 8Q.D$<<....M....
005B9E80 D8 8D 4C 24 70 89 5C 24 14 E8 A2 93 0E 00 8B 03 ..L$p.\$........
005B9E90 80 78 15 00 74 05 8B 7B 08 EB 18 8B 53 08 80 7A .x..t..{....S..z
005B9EA0 15 00 74 04 8B F8 EB 0B 8B 4C 24 70 3B CB 8B 79 ..t......L$p;..y
005B9EB0 08 75 6B 80 7F 15 00 8B 73 04 75 03 89 77 04 8B .uk.....s.u..w..
005B9EC0 45 04 39 58 04 75 05 89 78 04 EB 0B 39 1E 75 04 E.9X.u..x...9.u.
005B9ED0 89 3E EB 03 89 7E 08 8B 5D 04 8B 03 3B 44 24 14 .>...~..]...;D$.
005B9EE0 75 15 80 7F 15 00 74 04 8B C6 EB 09 57 E8 DE 99 u.....t.....W...
005B9EF0 23 00 83 C4 04 89 03 8B 5D 04 8B 4C 24 14 39 4B #.......]..L$.9K
005B9F00 08 75 72 80 7F 15 00 74 07 8B C6 89 43 08 EB 65 .ur....t....C..e
005B9F10 57 E8 CA 87 E9 FF 83 C4 04 89 43 08 EB 57 89 48 W.........C..W.H
005B9F20 04 8B 13 89 11 3B 4B 08 75 04 8B F1 EB 1A 80 7F .....;K.u.......
005B9F30 15 00 8B 71 04 75 03 89 77 04 89 3E 8B 43 08 89 ...q.u..w..>.C..
005B9F40 41 08 8B 53 08 89 4A 04 8B 45 04 39 58 04 75 05 A..S..J..E.9X.u.
005B9F50 89 48 04 EB 0E 8B 43 04 39 18 75 04 89 08 EB 03 .H....C.9.u.....
005B9F60 89 48 08 8B 43 04 89 41 04 8A 53 14 8A 41 14 88 .H..C..A..S..A..
005B9F70 51 14 88 43 14 8B 44 24 14 B3 01 38 58 14 0F 85 Q..C..D$...8X...
005B9F80 F2 00 00 00 8B 4D 04 3B 79 04 0F 84 E3 00 00 00 .....M.;y.......
005B9F90 38 5F 14 0F 85 DA 00 00 00 8B 06 3B F8 75 63 8B 8_.........;.uc.
005B9FA0 46 08 80 78 14 00 75 12 88 58 14 56 8B CD C6 46 F..x..u..X.V...F
005B9FB0 14 00 E8 09 5D F6 FF 8B 46 08 80 78 15 00 75 72 ....]...F..x..ur
005B9FC0 8B 10 38 5A 14 75 08 8B 48 08 38 59 14 74 5F 8B ..8Z.u..H.8Y.t_.
005B9FD0 48 08 38 59 14 75 12 88 5A 14 50 8B CD C6 40 14 H.8Y.u..Z.P...@.
005B9FE0 00 E8 9A 97 E9 FF 8B 46 08 8A 4E 14 88 48 14 88 .......F..N..H..
005B9FF0 5E 14 8B 50 08 56 8B CD 88 5A 14 E8 C0 5C F6 FF ^..P.V...Z...\..
005BA000 EB 71 80 78 14 00 75 11 88 58 14 56 8B CD C6 46 .q.x..u..X.V...F
005BA010 14 00 E8 69 97 E9 FF 8B 06 80 78 15 00 75 13 8B ...i......x..u..
005BA020 50 08 38 5A 14 75 1E 8B 08 38 59 14 75 17 C6 40 P.8Z.u...8Y.u..@
005BA030 14 00 8B 55 04 8B FE 3B 7A 04 8B 76 04 0F 85 4D ...U...;z..v...M
005BA040 FF FF FF EB 2E 8B 08 38 59 14 75 11 88 5A 14 50 .......8Y.u..Z.P
005BA050 8B CD C6 40 14 00 E8 65 5C F6 FF 8B 06 8A 4E 14 ...@...e\.....N.
005BA060 88 48 14 88 5E 14 8B 10 56 8B CD 88 5A 14 E8 0D .H..^...V...Z...
005BA070 97 E9 FF 88 5F 14 8B 44 24 14 50 E8 46 AF 0D 00 ...._..D$.P.F...
005BA080 8B 45 08 83 C4 04 85 C0 76 06 83 C0 FF 89 45 08 .E......v.....E.
005BA090 8B 44 24 6C 8B 4C 24 70 89 08 8B 4C 24 5C 64 89 .D$l.L$p...L$\d.
005BA0A0 0D 00 00 00 00 59 5F 5E 5D 5B 83 C4 54 C2 08 00 .....Y_^][..T...
005BA0B0 6A FF 68 D9 D6 85 00 64 A1 00 00 00 00 50 83 EC j.h....d.....P..
005BA0C0 44 53 55 56 57 A1 88 41 A1 00 33 C4 50 8D 44 24 DSUVW..A..3.P.D$
005BA0D0 58 64 A3 00 00 00 00 8B F9 81 7F 08 FE FF FF 1F Xd..............
005BA0E0 72 3C 68 80 6D 8A 00 8D 4C 24 18 FF 15 34 43 8A r<h.m...L$...4C.
005BA0F0 00 8D 44 24 14 50 8D 4C 24 34 C7 44 24 64 00 00 ..D$.P.L$4.D$d..
005BA100 00 00 E8 D9 78 E4 FF 68 68 9C 99 00 8D 4C 24 34 ....x..hh....L$4
005BA110 51 C7 44 24 38 30 00 99 00 E8 AE AE 0D 00 8B 54 Q.D$80.........T
005BA120 24 74 8B 47 04 8B 74 24 70 6A 00 52 50 56 50 E8 $t.G..t$pj.RPVP.
005BA130 FC AD 0E 00 8B E8 8B 47 04 BB 01 00 00 00 01 5F .......G......._
005BA140 08 3B F0 75 10 89 68 04 8B 47 04 89 28 8B 4F 04 .;.u..h..G..(.O.
005BA150 89 69 08 EB 22 80 7C 24 6C 00 74 0D 89 2E 8B 47 .i..".|$l.t....G
005BA160 04 3B 30 75 12 89 28 EB 0E 89 6E 08 8B 47 04 3B .;0u..(...n..G.;
005BA170 70 08 75 03 89 68 08 8B 55 04 80 7A 14 00 8D 45 p.u..h..U..z...E
005BA180 04 8B F5 0F 85 EC 00 00 00 8D A4 24 00 00 00 00 ...........$....
005BA190 8B 08 8B 51 04 3B 0A 75 51 8B 52 08 80 7A 14 00 ...Q.;.uQ.R..z..
005BA1A0 75 19 88 59 14 88 5A 14 8B 10 8B 4A 04 C6 41 14 u..Y..Z....J..A.
005BA1B0 00 8B 10 8B 72 04 E9 AA 00 00 00 3B 71 08 75 0A ....r......;q.u.
005BA1C0 8B F1 56 8B CF E8 F6 5A F6 FF 8B 46 04 88 58 14 ..V....Z...F..X.
005BA1D0 8B 4E 04 8B 51 04 C6 42 14 00 8B 46 04 8B 48 04 .N..Q..B...F..H.
005BA1E0 51 8B CF E8 98 95 E9 FF EB 7B 8B 12 80 7A 14 00 Q........{...z..
005BA1F0 75 16 88 59 14 88 5A 14 8B 10 8B 4A 04 C6 41 14 u..Y..Z....J..A.
005BA200 00 8B 10 8B 72 04 EB 5D 3B 31 75 0A 8B F1 56 8B ....r..];1u...V.
005BA210 CF E8 6A 95 E9 FF 8B 46 04 88 58 14 8B 4E 04 8B ..j....F..X..N..
005BA220 51 04 C6 42 14 00 8B 46 04 8B 40 04 8B 48 08 8B Q..B...F..@..H..
005BA230 11 89 50 08 8B 11 80 7A 15 00 75 03 89 42 04 8B ..P....z..u..B..
005BA240 50 04 89 51 04 8B 57 04 3B 42 04 75 05 89 4A 04 P..Q..W.;B.u..J.
005BA250 EB 0E 8B 50 04 3B 02 75 04 89 0A EB 03 89 4A 08 ...P.;.u......J.
005BA260 89 01 89 48 04 8B 4E 04 80 79 14 00 8D 46 04 0F ...H..N..y...F..
005BA270 84 1B FF FF FF 8B 57 04 8B 42 04 88 58 14 8B 44 ......W..B..X..D
005BA280 24 68 89 28 8B 4C 24 58 64 89 0D 00 00 00 00 59 $h.(.L$Xd......Y
005BA290 5F 5E 5D 5B 83 C4 50 C2 10 00 CC CC CC CC CC CC _^][..P.........
005BA2A0 6A FF 68 09 D7 85 00 64 A1 00 00 00 00 50 83 EC j.h....d.....P..
005BA2B0 44 53 55 56 57 A1 88 41 A1 00 33 C4 50 8D 44 24 DSUVW..A..3.P.D$
005BA2C0 58 64 A3 00 00 00 00 8B F9 81 7F 08 FE FF FF 07 Xd..............
005BA2D0 72 3C 68 80 6D 8A 00 8D 4C 24 18 FF 15 34 43 8A r<h.m...L$...4C.
005BA2E0 00 8D 44 24 14 50 8D 4C 24 34 C7 44 24 64 00 00 ..D$.P.L$4.D$d..
005BA2F0 00 00 E8 E9 76 E4 FF 68 68 9C 99 00 8D 4C 24 34 ....v..hh....L$4
005BA300 51 C7 44 24 38 30 00 99 00 E8 BE AC 0D 00 8B 54 Q.D$80.........T
005BA310 24 74 8B 47 04 8B 74 24 70 6A 00 52 50 56 50 E8 $t.G..t$pj.RPVP.
005BA320 EC F3 FF FF 8B E8 8B 47 04 BB 01 00 00 00 01 5F .......G......._
005BA330 08 3B F0 75 10 89 68 04 8B 47 04 89 28 8B 4F 04 .;.u..h..G..(.O.
005BA340 89 69 08 EB 22 80 7C 24 6C 00 74 0D 89 2E 8B 47 .i..".|$l.t....G
005BA350 04 3B 30 75 12 89 28 EB 0E 89 6E 08 8B 47 04 3B .;0u..(...n..G.;
005BA360 70 08 75 03 89 68 08 8B 55 04 80 7A 2C 00 8D 45 p.u..h..U..z,..E
005BA370 04 8B F5 0F 85 EC 00 00 00 8D A4 24 00 00 00 00 ...........$....
005BA380 8B 08 8B 51 04 3B 0A 75 51 8B 52 08 80 7A 2C 00 ...Q.;.uQ.R..z,.
005BA390 75 19 88 59 2C 88 5A 2C 8B 10 8B 4A 04 C6 41 2C u..Y,.Z,...J..A,
005BA3A0 00 8B 10 8B 72 04 E9 AA 00 00 00 3B 71 08 75 0A ....r......;q.u.
005BA3B0 8B F1 56 8B CF E8 96 7E F2 FF 8B 46 04 88 58 2C ..V....~...F..X,
005BA3C0 8B 4E 04 8B 51 04 C6 42 2C 00 8B 46 04 8B 48 04 .N..Q..B,..F..H.
005BA3D0 51 8B CF E8 68 63 E6 FF EB 7B 8B 12 80 7A 2C 00 Q...hc...{...z,.
005BA3E0 75 16 88 59 2C 88 5A 2C 8B 10 8B 4A 04 C6 41 2C u..Y,.Z,...J..A,
005BA3F0 00 8B 10 8B 72 04 EB 5D 3B 31 75 0A 8B F1 56 8B ....r..];1u...V.
005BA400 CF E8 3A 63 E6 FF 8B 46 04 88 58 2C 8B 4E 04 8B ..:c...F..X,.N..
005BA410 51 04 C6 42 2C 00 8B 46 04 8B 40 04 8B 48 08 8B Q..B,..F..@..H..
005BA420 11 89 50 08 8B 11 80 7A 2D 00 75 03 89 42 04 8B ..P....z-.u..B..
005BA430 50 04 89 51 04 8B 57 04 3B 42 04 75 05 89 4A 04 P..Q..W.;B.u..J.
005BA440 EB 0E 8B 50 04 3B 02 75 04 89 0A EB 03 89 4A 08 ...P.;.u......J.
005BA450 89 01 89 48 04 8B 4E 04 80 79 2C 00 8D 46 04 0F ...H..N..y,..F..
005BA460 84 1B FF FF FF 8B 57 04 8B 42 04 88 58 2C 8B 44 ......W..B..X,.D
005BA470 24 68 89 28 8B 4C 24 58 64 89 0D 00 00 00 00 59 $h.(.L$Xd......Y
005BA480 5F 5E 5D 5B 83 C4 50 C2 10 00 CC CC CC CC CC CC _^][..P.........
005BA490 53 8B 5C 24 10 56 8B 74 24 10 57 8B F9 8B 47 04 S.\$.V.t$.W...G.
005BA4A0 3B 30 75 36 3B D8 75 32 8B 40 04 50 E8 0F 2A 11 ;0u6;.u2.@.P..*.
005BA4B0 00 8B 47 04 89 40 04 8B 47 04 C7 47 08 00 00 00 ..G..@..G..G....
005BA4C0 00 89 00 8B 47 04 89 40 08 8B 4F 04 8B 11 8B 44 ....G..@..O....D
005BA4D0 24 10 5F 5E 89 10 5B C2 0C 00 3B F3 74 5A 8B FF $._^..[...;.tZ..
005BA4E0 80 7E 15 00 8B CE 75 3F 8B 46 08 80 78 15 00 75 .~....u?.F..x..u
005BA4F0 1B 8B F0 8B 06 80 78 15 00 75 2C EB 03 8D 49 00 ......x..u,...I.
005BA500 8B F0 8B 06 80 78 15 00 74 F6 EB 1B 8B 46 04 80 .....x..t....F..
005BA510 78 15 00 75 10 3B 70 08 75 0B 8B F0 8B 40 04 80 x..u.;p.u....@..
005BA520 78 15 00 74 F0 8B F0 51 8D 44 24 18 50 8B CF E8 x..t...Q.D$.P...
005BA530 DC F8 FF FF 3B F3 75 A8 8B 44 24 10 5F 89 30 5E ....;.u..D$._.0^
005BA540 5B C2 0C 00 CC CC CC CC CC CC CC CC CC CC CC CC [...............
005BA550 6A FF 68 39 D7 85 00 64 A1 00 00 00 00 50 83 EC j.h9...d.....P..
005BA560 44 53 55 56 57 A1 88 41 A1 00 33 C4 50 8D 44 24 DSUVW..A..3.P.D$
005BA570 58 64 A3 00 00 00 00 8B F9 81 7F 08 23 49 92 04 Xd..........#I..
005BA580 72 3C 68 80 6D 8A 00 8D 4C 24 18 FF 15 34 43 8A r<h.m...L$...4C.
005BA590 00 8D 44 24 14 50 8D 4C 24 34 C7 44 24 64 00 00 ..D$.P.L$4.D$d..
005BA5A0 00 00 E8 39 74 E4 FF 68 68 9C 99 00 8D 4C 24 34 ...9t..hh....L$4
005BA5B0 51 C7 44 24 38 30 00 99 00 E8 0E AA 0D 00 8B 54 Q.D$80.........T
005BA5C0 24 74 8B 47 04 8B 74 24 70 6A 00 52 50 56 50 E8 $t.G..t$pj.RPVP.
005BA5D0 2C F2 FF FF 8B E8 8B 47 04 BB 01 00 00 00 01 5F ,......G......._
005BA5E0 08 3B F0 75 10 89 68 04 8B 47 04 89 28 8B 4F 04 .;.u..h..G..(.O.
005BA5F0 89 69 08 EB 22 80 7C 24 6C 00 74 0D 89 2E 8B 47 .i..".|$l.t....G
005BA600 04 3B 30 75 12 89 28 EB 0E 89 6E 08 8B 47 04 3B .;0u..(...n..G.;
005BA610 70 08 75 03 89 68 08 8B 55 04 80 7A 44 00 8D 45 p.u..h..U..zD..E
005BA620 04 8B F5 0F 85 EC 00 00 00 8D A4 24 00 00 00 00 ...........$....
005BA630 8B 08 8B 51 04 3B 0A 75 51 8B 52 08 80 7A 44 00 ...Q.;.uQ.R..zD.
005BA640 75 19 88 59 44 88 5A 44 8B 10 8B 4A 04 C6 41 44 u..YD.ZD...J..AD
005BA650 00 8B 10 8B 72 04 E9 AA 00 00 00 3B 71 08 75 0A ....r......;q.u.
005BA660 8B F1 56 8B CF E8 86 ED FF FF 8B 46 04 88 58 44 ..V........F..XD
005BA670 8B 4E 04 8B 51 04 C6 42 44 00 8B 46 04 8B 48 04 .N..Q..BD..F..H.
005BA680 51 8B CF E8 28 E4 FF FF EB 7B 8B 12 80 7A 44 00 Q...(....{...zD.
005BA690 75 16 88 59 44 88 5A 44 8B 10 8B 4A 04 C6 41 44 u..YD.ZD...J..AD
005BA6A0 00 8B 10 8B 72 04 EB 5D 3B 31 75 0A 8B F1 56 8B ....r..];1u...V.
005BA6B0 CF E8 FA E3 FF FF 8B 46 04 88 58 44 8B 4E 04 8B .......F..XD.N..
005BA6C0 51 04 C6 42 44 00 8B 46 04 8B 40 04 8B 48 08 8B Q..BD..F..@..H..
005BA6D0 11 89 50 08 8B 11 80 7A 45 00 75 03 89 42 04 8B ..P....zE.u..B..
005BA6E0 50 04 89 51 04 8B 57 04 3B 42 04 75 05 89 4A 04 P..Q..W.;B.u..J.
005BA6F0 EB 0E 8B 50 04 3B 02 75 04 89 0A EB 03 89 4A 08 ...P.;.u......J.
005BA700 89 01 89 48 04 8B 4E 04 80 79 44 00 8D 46 04 0F ...H..N..yD..F..
005BA710 84 1B FF FF FF 8B 57 04 8B 42 04 88 58 44 8B 44 ......W..B..XD.D
005BA720 24 68 89 28 8B 4C 24 58 64 89 0D 00 00 00 00 59 $h.(.L$Xd......Y
005BA730 5F 5E 5D 5B 83 C4 50 C2 10 00 CC CC CC CC CC CC _^][..P.........
005BA740 55 8B EC 6A FF 68 60 D7 85 00 64 A1 00 00 00 00 U..j.h`...d.....
005BA750 50 83 EC 08 53 56 57 A1 88 41 A1 00 33 C5 50 8D P...SVW..A..3.P.
005BA760 45 F4 64 A3 00 00 00 00 89 65 F0 8B 7D 08 8B 5D E.d......e..}..]
005BA770 10 8B 75 0C 89 7D EC C7 45 FC 00 00 00 00 8B FF ..u..}..E.......
005BA780 85 F6 76 37 53 57 E8 C5 E4 FF FF 83 C4 08 83 EE ..v7SW..........
005BA790 01 83 C7 28 89 7D 08 EB E7 8B 75 EC 8B 7D 08 3B ...(.}....u..}.;
005BA7A0 F7 74 0F 8B CE FF 15 38 43 8A 00 83 C6 28 3B F7 .t.....8C....(;.
005BA7B0 75 F1 6A 00 6A 00 E8 11 A8 0D 00 8B 4D F4 64 89 u.j.j.......M.d.
005BA7C0 0D 00 00 00 00 59 5F 5E 5B 8B E5 5D C3 CC CC CC .....Y_^[..]....
005BA7D0 6A FF 68 A1 D7 85 00 64 A1 00 00 00 00 50 83 EC j.h....d.....P..
005BA7E0 24 55 56 57 A1 88 41 A1 00 33 C4 50 8D 44 24 34 $UVW..A..3.P.D$4
005BA7F0 64 A3 00 00 00 00 C7 44 24 10 00 00 00 00 6A 18 d......D$.....j.
005BA800 C7 44 24 40 01 00 00 00 E8 CB A7 0D 00 83 C4 04 .D$@............
005BA810 85 C0 74 11 C7 40 04 00 00 00 00 C7 00 3C 3C 8C ..t..@.......<<.
005BA820 00 8B F0 EB 02 33 F6 A1 D8 3F A5 00 8B 0D DC 3F .....3...?.....?
005BA830 A5 00 8B 15 E0 3F A5 00 8B 7C 24 48 89 44 24 14 .....?...|$H.D$.
005BA840 A1 E4 3F A5 00 89 44 24 20 89 4C 24 18 8D 44 24 ..?...D$ .L$..D$
005BA850 14 89 54 24 1C 8B 17 8B 52 68 50 8D 4C 24 28 51 ..T$....RhP.L$(Q
005BA860 8B CF FF D2 8B 08 8B 6C 24 44 89 4E 08 8B 50 04 .......l$D.N..P.
005BA870 89 56 0C 8B 48 08 89 4E 10 8B 50 0C 89 56 14 B8 .V..H..N..P..V..
005BA880 01 00 00 00 89 75 00 01 46 04 8B CF 89 44 24 10 .....u..F....D$.
005BA890 C6 44 24 3C 00 E8 46 72 E4 FF 83 F8 01 75 0A 8B .D$<..Fr.....u..
005BA8A0 07 8B 10 6A 01 8B CF FF D2 8B C5 8B 4C 24 34 64 ...j........L$4d
005BA8B0 89 0D 00 00 00 00 59 5F 5E 5D 83 C4 30 C2 08 00 ......Y_^]..0...
005BA8C0 53 8B DC 83 EC 08 83 E4 F0 83 C4 04 55 8B 6B 04 S...........U.k.
005BA8D0 89 6C 24 04 8B EC 6A FF 68 0B D8 85 00 64 A1 00 .l$...j.h....d..
005BA8E0 00 00 00 50 53 81 EC 98 00 00 00 56 57 A1 88 41 ...PS......VW..A
005BA8F0 A1 00 33 C5 50 8D 45 F4 64 A3 00 00 00 00 C7 45 ..3.P.E.d......E
005BA900 D8 00 00 00 00 6A 10 6A 50 C7 45 FC 01 00 00 00 .....j.jP.E.....
005BA910 FF 15 24 46 8A 00 8B F0 33 C9 83 C4 08 3B F1 74 ..$F....3....;.t
005BA920 1D 6A 40 8D 46 10 51 50 89 4E 04 C7 06 64 3C 8C .j@.F.QP.N...d<.
005BA930 00 E8 EA A6 0D 00 83 C4 0C 89 75 DC EB 03 89 4D ..........u....M
005BA940 DC 6A 40 8D 85 70 FF FF FF 6A 00 50 E8 CF A6 0D .j@..p...j.P....
005BA950 00 83 C4 0C 68 F8 78 8A 00 8D 4D BC FF 15 34 43 ....h.x...M...4C
005BA960 8A 00 8B 15 DC 3F A5 00 8B 0D D8 3F A5 00 A1 E0 .....?.....?....
005BA970 3F A5 00 8B 73 0C 89 4D E0 8B 0D E4 3F A5 00 89 ?...s..M....?...
005BA980 55 E4 8D 55 E0 89 45 E8 52 89 4D EC 8D 45 BC 50 U..U..E.R.M..E.P
005BA990 8D 8D 60 FF FF FF 51 8B CE C6 45 FC 02 E8 9E 4A ..`...Q...E....J
005BA9A0 E5 FF 8B 10 8B 48 04 89 95 70 FF FF FF 8B 50 08 .....H...p....P.
005BA9B0 8B 40 0C 89 8D 74 FF FF FF 8D 4D BC 89 95 78 FF .@...t....M...x.
005BA9C0 FF FF 89 85 7C FF FF FF C6 45 FC 01 FF 15 38 43 ....|....E....8C
005BA9D0 8A 00 68 F0 78 8A 00 8D 4D BC FF 15 34 43 8A 00 ..h.x...M...4C..
005BA9E0 8B 15 DC 3F A5 00 8B 0D D8 3F A5 00 A1 E0 3F A5 ...?.....?....?.
005BA9F0 00 89 4D E0 8B 0D E4 3F A5 00 89 55 E4 8D 55 E0 ..M....?...U..U.
005BAA00 89 45 E8 52 89 4D EC 8D 45 BC 50 8D 8D 60 FF FF .E.R.M..E.P..`..
005BAA10 FF 51 8B CE C6 45 FC 03 E8 23 4A E5 FF 8B 10 8B .Q...E...#J.....
005BAA20 48 04 89 55 80 8B 50 08 8B 40 0C 89 4D 84 8D 4D H..U..P..@..M..M
005BAA30 BC 89 55 88 89 45 8C C6 45 FC 01 FF 15 38 43 8A ..U..E..E....8C.
005BAA40 00 68 E8 78 8A 00 8D 4D BC FF 15 34 43 8A 00 8B .h.x...M...4C...
005BAA50 0D D8 3F A5 00 8B 15 DC 3F A5 00 A1 E0 3F A5 00 ..?.....?....?..
005BAA60 C6 45 FC 04 89 4D E0 89 55 E4 8B 0D E4 3F A5 00 .E...M..U....?..
005BAA70 8D 55 E0 89 45 E8 52 89 4D EC 8D 45 BC 50 8D 8D .U..E.R.M..E.P..
005BAA80 60 FF FF FF 51 8B CE E8 B4 49 E5 FF 8B 10 8B 48 `...Q....I.....H
005BAA90 04 89 55 90 8B 50 08 8B 40 0C 89 4D 94 8D 4D BC ..U..P..@..M..M.
005BAAA0 89 55 98 89 45 9C C6 45 FC 01 FF 15 38 43 8A 00 .U..E..E....8C..
005BAAB0 68 E0 78 8A 00 8D 4D BC FF 15 34 43 8A 00 8B 15 h.x...M...4C....
005BAAC0 DC 3F A5 00 8B 0D D8 3F A5 00 A1 E0 3F A5 00 89 .?.....?....?...
005BAAD0 4D E0 8B 0D E4 3F A5 00 89 55 E4 8D 55 E0 89 45 M....?...U..U..E
005BAAE0 E8 52 89 4D EC 8D 45 BC 50 8D 8D 60 FF FF FF 51 .R.M..E.P..`...Q
005BAAF0 8B CE C6 45 FC 05 E8 45 49 E5 FF 8B 10 8B 48 04 ...E...EI.....H.
005BAB00 89 55 A0 8B 50 08 8B 40 0C 89 4D A4 8D 4D BC 89 .U..P..@..M..M..
005BAB10 55 A8 89 45 AC C6 45 FC 01 FF 15 38 43 8A 00 8B U..E..E....8C...
005BAB20 7D DC 8B 45 DC 83 C7 10 B9 10 00 00 00 8D B5 70 }..E...........p
005BAB30 FF FF FF F3 A5 8B 7B 08 B9 01 00 00 00 89 07 01 ......{.........
005BAB40 48 04 8B 73 0C 85 F6 89 4D D8 C6 45 FC 00 74 15 H..s....M..E..t.
005BAB50 8B CE E8 89 6F E4 FF 83 F8 01 75 09 8B 16 50 8B ....o.....u...P.
005BAB60 02 8B CE FF D0 8B C7 8B 4D F4 64 89 0D 00 00 00 ........M.d.....
005BAB70 00 59 5F 5E 8B E5 5D 8B E3 5B C2 08 00 CC CC CC .Y_^..]..[......
005BAB80 6A FF 68 38 D8 85 00 64 A1 00 00 00 00 50 56 57 j.h8...d.....PVW
005BAB90 A1 88 41 A1 00 33 C4 50 8D 44 24 0C 64 A3 00 00 ..A..3.P.D$.d...
005BABA0 00 00 8B 79 08 8B 74 24 1C 3B FE C7 44 24 14 00 ...y..t$.;..D$..
005BABB0 00 00 00 74 28 85 F6 89 71 08 74 07 8B CE E8 0D ...t(...q.t.....
005BABC0 6F E4 FF 85 FF 74 16 8B CF E8 12 6F E4 FF 83 F8 o....t.....o....
005BABD0 01 75 0A 8B 07 8B 10 6A 01 8B CF FF D2 85 F6 C7 .u.....j........
005BABE0 44 24 14 FF FF FF FF 74 16 8B CE E8 F0 6E E4 FF D$.....t.....n..
005BABF0 83 F8 01 75 0A 8B 06 8B 10 6A 01 8B CE FF D2 8B ...u.....j......
005BAC00 4C 24 0C 64 89 0D 00 00 00 00 59 5F 5E 83 C4 0C L$.d......Y_^...
005BAC10 C2 04 00 CC CC CC CC CC CC CC CC CC CC CC CC CC ................
005BAC20 6A FF 68 7A D8 85 00 64 A1 00 00 00 00 50 83 EC j.hz...d.....P..
005BAC30 20 53 A1 88 41 A1 00 33 C4 50 8D 44 24 28 64 A3  S..A..3.P.D$(d.
005BAC40 00 00 00 00 33 DB 89 5C 24 08 8B 49 08 3B CB 74 ....3..\$..I.;.t
005BAC50 09 8B 01 8B 50 18 FF D2 EB 1C 68 8F 69 8A 00 8D ....P.....h.i...
005BAC60 4C 24 10 FF 15 34 43 8A 00 89 5C 24 30 BB 01 00 L$...4C...\$0...
005BAC70 00 00 89 5C 24 08 8B 4C 24 38 50 FF 15 58 43 8A ...\$..L$8P..XC.
005BAC80 00 F6 C3 01 C7 44 24 30 FF FF FF FF 74 0A 8D 4C .....D$0....t..L
005BAC90 24 0C FF 15 38 43 8A 00 B0 01 8B 4C 24 28 64 89 $...8C.....L$(d.
005BACA0 0D 00 00 00 00 59 5B 83 C4 2C C2 04 00 CC CC CC .....Y[..,......
005BACB0 6A FF 68 A8 D8 85 00 64 A1 00 00 00 00 50 56 57 j.h....d.....PVW
005BACC0 A1 88 41 A1 00 33 C4 50 8D 44 24 0C 64 A3 00 00 ..A..3.P.D$.d...
005BACD0 00 00 8B 79 08 8B 74 24 1C 3B FE C7 44 24 14 00 ...y..t$.;..D$..
005BACE0 00 00 00 74 28 85 F6 89 71 08 74 07 8B CE E8 DD ...t(...q.t.....
005BACF0 6D E4 FF 85 FF 74 16 8B CF E8 E2 6D E4 FF 83 F8 m....t.....m....
005BAD00 01 75 0A 8B 07 8B 10 6A 01 8B CF FF D2 85 F6 C7 .u.....j........
005BAD10 44 24 14 FF FF FF FF 74 16 8B CE E8 C0 6D E4 FF D$.....t.....m..
005BAD20 83 F8 01 75 0A 8B 06 8B 10 6A 01 8B CE FF D2 8B ...u.....j......
005BAD30 4C 24 0C 64 89 0D 00 00 00 00 59 5F 5E 83 C4 0C L$.d......Y_^...
005BAD40 C2 04 00 CC CC CC CC CC CC CC CC CC CC CC CC CC ................
005BAD50 6A FF 68 D8 D8 85 00 64 A1 00 00 00 00 50 51 53 j.h....d.....PQS
005BAD60 56 57 A1 88 41 A1 00 33 C4 50 8D 44 24 14 64 A3 VW..A..3.P.D$.d.
005BAD70 00 00 00 00 8B F1 89 74 24 10 8B 7E 08 33 DB 3B .......t$..~.3.;
005BAD80 FB 89 5C 24 1C 74 1A 8B CF E8 52 6D E4 FF 83 F8 ..\$.t....Rm....
005BAD90 01 75 0E 3B FB 74 0A 8B 07 8B 10 6A 01 8B CF FF .u.;.t.....j....
005BADA0 D2 89 5E 08 C7 06 78 6D 8A 00 8B 4C 24 14 64 89 ..^...xm...L$.d.
005BADB0 0D 00 00 00 00 59 5F 5E 5B 83 C4 10 C3 CC CC CC .....Y_^[.......
005BADC0 6A FF 68 21 D9 85 00 64 A1 00 00 00 00 50 51 55 j.h!...d.....PQU
005BADD0 56 57 A1 88 41 A1 00 33 C4 50 8D 44 24 14 64 A3 VW..A..3.P.D$.d.
005BADE0 00 00 00 00 C7 44 24 10 00 00 00 00 6A 0C C7 44 .....D$.....j..D
005BADF0 24 20 01 00 00 00 E8 DD A1 0D 00 83 C4 04 85 C0 $ ..............
005BAE00 74 11 C7 40 04 00 00 00 00 C7 00 A0 3B 8C 00 8B t..@........;...
005BAE10 F0 EB 02 33 F6 8B 7C 24 28 D9 EE 8B 07 8B 50 50 ...3..|$(.....PP
005BAE20 51 8B CF D9 1C 24 FF D2 D9 5E 08 8B 6C 24 24 B8 Q....$...^..l$$.
005BAE30 01 00 00 00 89 75 00 01 46 04 8B CF 89 44 24 10 .....u..F....D$.
005BAE40 C6 44 24 1C 00 E8 96 6C E4 FF 83 F8 01 75 0A 8B .D$....l.....u..
005BAE50 07 8B 10 6A 01 8B CF FF D2 8B C5 8B 4C 24 14 64 ...j........L$.d
005BAE60 89 0D 00 00 00 00 59 5F 5E 5D 83 C4 10 C2 08 00 ......Y_^]......
005BAE70 6A FF 68 61 D9 85 00 64 A1 00 00 00 00 50 51 55 j.ha...d.....PQU
005BAE80 56 57 A1 88 41 A1 00 33 C4 50 8D 44 24 14 64 A3 VW..A..3.P.D$.d.
005BAE90 00 00 00 00 C7 44 24 10 00 00 00 00 6A 0C C7 44 .....D$.....j..D
005BAEA0 24 20 01 00 00 00 E8 2D A1 0D 00 83 C4 04 85 C0 $ .....-........
005BAEB0 74 11 C7 40 04 00 00 00 00 C7 00 D4 3B 8C 00 8B t..@........;...
005BAEC0 F0 EB 02 33 F6 8B 7C 24 28 8B 07 8B 50 44 6A 00 ...3..|$(...PDj.
005BAED0 8B CF FF D2 8B 6C 24 24 0F B6 C0 89 46 08 B8 01 .....l$$....F...
005BAEE0 00 00 00 89 75 00 01 46 04 8B CF 89 44 24 10 C6 ....u..F....D$..
005BAEF0 44 24 1C 00 E8 E7 6B E4 FF 83 F8 01 75 0A 8B 07 D$....k.....u...
005BAF00 8B 10 6A 01 8B CF FF D2 8B C5 8B 4C 24 14 64 89 ..j........L$.d.
005BAF10 0D 00 00 00 00 59 5F 5E 5D 83 C4 10 C2 08 00 CC .....Y_^].......
005BAF20 6A FF 68 A1 D9 85 00 64 A1 00 00 00 00 50 51 55 j.h....d.....PQU
005BAF30 56 57 A1 88 41 A1 00 33 C4 50 8D 44 24 14 64 A3 VW..A..3.P.D$.d.
005BAF40 00 00 00 00 C7 44 24 10 00 00 00 00 6A 0C C7 44 .....D$.....j..D
005BAF50 24 20 01 00 00 00 E8 7D A0 0D 00 83 C4 04 85 C0 $ .....}........
005BAF60 74 11 C7 40 04 00 00 00 00 C7 00 14 3C 8C 00 8B t..@........<...
005BAF70 F0 EB 02 33 F6 8B 7C 24 28 8B 07 8B 50 48 6A 00 ...3..|$(...PHj.
005BAF80 8B CF FF D2 8B 6C 24 24 89 46 08 B8 01 00 00 00 .....l$$.F......
005BAF90 89 75 00 01 46 04 8B CF 89 44 24 10 C6 44 24 1C .u..F....D$..D$.
005BAFA0 00 E8 3A 6B E4 FF 83 F8 01 75 0A 8B 07 8B 10 6A ..:k.....u.....j
005BAFB0 01 8B CF FF D2 8B C5 8B 4C 24 14 64 89 0D 00 00 ........L$.d....
005BAFC0 00 00 59 5F 5E 5D 83 C4 10 C2 08 00 CC CC CC CC ..Y_^]..........
005BAFD0 6A FF 68 C8 D9 85 00 64 A1 00 00 00 00 50 51 55 j.h....d.....PQU
005BAFE0 56 57 A1 88 41 A1 00 33 C4 50 8D 44 24 14 64 A3 VW..A..3.P.D$.d.
005BAFF0 00 00 00 00 8B F1 8B 46 20 8D 7E 20 6A FF 50 89 .......F .~ j.P.
005BB000 7C 24 18 FF 15 F4 40 8A 00 C6 47 04 01 8B 4C 24 |$....@...G...L$
005BB010 24 51 8D 54 24 28 52 8D 4E 04 C7 44 24 24 00 00 $Q.T$(R.N..D$$..
005BB020 00 00 33 ED E8 B7 79 05 00 8B 44 24 24 3B 46 08 ..3...y...D$$;F.
005BB030 74 03 8B 68 28 8B 07 50 C6 47 04 00 FF 15 F0 40 t..h(..P.G.....@
005BB040 8A 00 8B C5 8B 4C 24 14 64 89 0D 00 00 00 00 59 .....L$.d......Y
005BB050 5F 5E 5D 83 C4 10 C2 04 00 CC CC CC CC CC CC CC _^].............
005BB060 6A FF 68 F8 D9 85 00 64 A1 00 00 00 00 50 51 55 j.h....d.....PQU
005BB070 56 57 A1 88 41 A1 00 33 C4 50 8D 44 24 14 64 A3 VW..A..3.P.D$.d.
005BB080 00 00 00 00 8B F1 8B 46 20 8D 6E 20 6A FF 50 89 .......F .n j.P.
005BB090 6C 24 18 FF 15 F4 40 8A 00 C6 45 04 01 8B 7E 08 l$....@...E...~.
005BB0A0 8B 37 3B F7 C7 44 24 1C 00 00 00 00 74 5D 8B FF .7;..D$.....t]..
005BB0B0 8B 46 28 85 C0 74 0E 8B 40 0C 8B 08 8B 91 18 01 .F(..t..@.......
005BB0C0 00 00 50 FF D2 80 7E 2D 00 75 3C 8B 46 08 80 78 ..P...~-.u<.F..x
005BB0D0 2D 00 75 18 8B F0 8B 06 80 78 2D 00 75 29 8B FF -.u......x-.u)..
005BB0E0 8B F0 8B 06 80 78 2D 00 74 F6 EB 1B 8B 46 04 80 .....x-.t....F..
005BB0F0 78 2D 00 75 10 3B 70 08 75 0B 8B F0 8B 40 04 80 x-.u.;p.u....@..
005BB100 78 2D 00 74 F0 8B F0 3B F7 75 A5 8B 45 00 50 C6 x-.t...;.u..E.P.
005BB110 45 04 00 FF 15 F0 40 8A 00 8B 4C 24 14 64 89 0D E.....@...L$.d..
005BB120 00 00 00 00 59 5F 5E 5D 83 C4 10 C3 CC CC CC CC ....Y_^]........
005BB130 6A FF 68 28 DA 85 00 64 A1 00 00 00 00 50 51 55 j.h(...d.....PQU
005BB140 56 57 A1 88 41 A1 00 33 C4 50 8D 44 24 14 64 A3 VW..A..3.P.D$.d.
005BB150 00 00 00 00 8B F1 8B 46 20 8D 6E 20 6A FF 50 89 .......F .n j.P.
005BB160 6C 24 18 FF 15 F4 40 8A 00 C6 45 04 01 8B 7E 08 l$....@...E...~.
005BB170 8B 37 3B F7 C7 44 24 1C 00 00 00 00 74 5D 8B FF .7;..D$.....t]..
005BB180 8B 46 28 85 C0 74 0E 8B 40 0C 8B 08 8B 91 14 01 .F(..t..@.......
005BB190 00 00 50 FF D2 80 7E 2D 00 75 3C 8B 46 08 80 78 ..P...~-.u<.F..x
005BB1A0 2D 00 75 18 8B F0 8B 06 80 78 2D 00 75 29 8B FF -.u......x-.u)..
005BB1B0 8B F0 8B 06 80 78 2D 00 74 F6 EB 1B 8B 46 04 80 .....x-.t....F..
005BB1C0 78 2D 00 75 10 3B 70 08 75 0B 8B F0 8B 40 04 80 x-.u.;p.u....@..
005BB1D0 78 2D 00 74 F0 8B F0 3B F7 75 A5 8B 45 00 50 C6 x-.t...;.u..E.P.
005BB1E0 45 04 00 FF 15 F0 40 8A 00 8B 4C 24 14 64 89 0D E.....@...L$.d..
005BB1F0 00 00 00 00 59 5F 5E 5D 83 C4 10 C3 CC CC CC CC ....Y_^]........
005BB200 56 8B F1 8B 46 60 6A FF 50 FF 15 F4 40 8A 00 C6 V...F`j.P...@...
005BB210 46 64 01 8B 4E 54 8B 46 58 3B C8 74 0F 8B 54 24 Fd..NT.FX;.t..T$
005BB220 08 39 11 74 07 83 C1 04 3B C8 75 F5 8D 51 04 2B .9.t....;.u..Q.+
005BB230 C2 C1 F8 02 85 C0 7E 11 03 C0 03 C0 50 52 50 51 ......~.....PRPQ
005BB240 FF 15 5C 46 8A 00 83 C4 10 83 46 58 FC 8B 4E 60 ..\F......FX..N`
005BB250 C6 46 64 00 5E 89 4C 24 04 FF 25 F0 40 8A 00 CC .Fd.^.L$..%.@...
005BB260 51 56 57 8B F1 8B 46 6C 6A FF 50 FF 15 F4 40 8A QVW...Flj.P...@.
005BB270 00 8D 4C 24 10 51 8D 54 24 0C 8D 7E 60 52 8B CF ..L$.Q.T$..~`R..
005BB280 C6 46 70 01 E8 E7 93 E9 FF 8B 44 24 08 50 8D 4C .Fp.......D$.P.L
005BB290 24 14 51 8B CF E8 76 EB FF FF 8B 56 6C 5F C6 46 $.Q...v....Vl_.F
005BB2A0 70 00 5E 83 C4 04 89 54 24 04 FF 25 F0 40 8A 00 p.^....T$..%.@..
005BB2B0 51 55 8B 6C 24 10 56 57 8B F9 8B 77 04 8B 46 04 QU.l$.VW...w..F.
005BB2C0 80 78 15 00 B1 01 88 4C 24 0C 75 21 8B 55 00 90 .x.....L$.u!.U..
005BB2D0 3B 50 0C 8B F0 0F 9C C1 84 C9 88 4C 24 0C 74 04 ;P.........L$.t.
005BB2E0 8B 00 EB 03 8B 40 08 80 78 15 00 74 E3 84 C9 8B .....@..x..t....
005BB2F0 D6 89 54 24 18 74 33 8B 47 04 3B 30 8D 4C 24 18 ..T$.t3.G.;0.L$.
005BB300 75 1F 55 56 6A 01 51 8B CF E8 A2 ED FF FF 8B 10 u.UVj.Q.........
005BB310 8B 44 24 14 5F 5E C6 40 04 01 89 10 5D 59 C2 08 .D$._^.@....]Y..
005BB320 00 E8 7A 8A 0E 00 8B 54 24 18 8B 42 0C 3B 45 00 ..z....T$..B.;E.
005BB330 7D 26 8B 4C 24 0C 55 56 51 8D 54 24 24 52 8B CF }&.L$.UVQ.T$$R..
005BB340 E8 6B ED FF FF 8B 08 8B 44 24 14 5F 5E 89 08 C6 .k......D$._^...
005BB350 40 04 01 5D 59 C2 08 00 8B 44 24 14 5F 5E C6 40 @..]Y....D$._^.@
005BB360 04 00 89 10 5D 59 C2 08 00 CC CC CC CC CC CC CC ....]Y..........
005BB370 51 53 55 8B 6C 24 14 56 8B D9 57 8B 7B 04 8B 77 QSU.l$.V..W.{..w
005BB380 04 80 7E 2D 00 B0 01 88 44 24 10 75 28 8D 49 00 ..~-....D$.u(.I.
005BB390 8D 46 0C 50 55 8B FE FF 15 0C 44 8A 00 83 C4 08 .F.PU.....D.....
005BB3A0 84 C0 88 44 24 10 74 04 8B 36 EB 03 8B 76 08 80 ...D$.t..6...v..
005BB3B0 7E 2D 00 74 DB 84 C0 8B F7 89 74 24 1C 74 38 8B ~-.t......t$.t8.
005BB3C0 4B 04 3B 39 75 24 55 57 6A 01 8D 54 24 28 52 8B K.;9u$UWj..T$(R.
005BB3D0 CB E8 CA EE FF FF 8B 08 8B 44 24 18 5F 5E 5D 89 .........D$._^].
005BB3E0 08 C6 40 04 01 5B 59 C2 08 00 8D 4C 24 1C E8 CD ..@..[Y....L$...
005BB3F0 A4 03 00 8B 74 24 1C 8D 56 0C 55 52 FF 15 0C 44 ....t$..V.UR...D
005BB400 8A 00 83 C4 08 84 C0 74 27 8B 44 24 10 55 57 50 .......t'.D$.UWP
005BB410 8D 4C 24 28 51 8B CB E8 84 EE FF FF 8B 10 8B 44 .L$(Q..........D
005BB420 24 18 5F 5E 5D 89 10 C6 40 04 01 5B 59 C2 08 00 $._^]...@..[Y...
005BB430 8B 44 24 18 5F 89 30 5E 5D C6 40 04 00 5B 59 C2 .D$._.0^].@..[Y.
005BB440 08 00 CC CC CC CC CC CC CC CC CC CC CC CC CC CC ................
005BB450 6A FF 68 59 DA 85 00 64 A1 00 00 00 00 50 83 EC j.hY...d.....P..
005BB460 48 53 55 56 57 A1 88 41 A1 00 33 C4 50 8D 44 24 HSUVW..A..3.P.D$
005BB470 5C 64 A3 00 00 00 00 8B E9 8B 44 24 70 80 78 2D \d........D$p.x-
005BB480 00 74 3C 68 94 6D 8A 00 8D 4C 24 1C FF 15 34 43 .t<h.m...L$...4C
005BB490 8A 00 8D 44 24 18 50 8D 4C 24 38 C7 44 24 68 00 ...D$.P.L$8.D$h.
005BB4A0 00 00 00 E8 38 65 E4 FF 68 8C A8 99 00 8D 4C 24 ....8e..h.....L$
005BB4B0 38 51 C7 44 24 3C 3C 00 99 00 E8 0D 9B 0D 00 8B 8Q.D$<<.........
005BB4C0 D8 8D 4C 24 70 89 5C 24 14 E8 F2 59 FF FF 8B 03 ..L$p.\$...Y....
005BB4D0 80 78 2D 00 74 05 8B 7B 08 EB 18 8B 53 08 80 7A .x-.t..{....S..z
005BB4E0 2D 00 74 04 8B F8 EB 0B 8B 4C 24 70 3B CB 8B 79 -.t......L$p;..y
005BB4F0 08 75 6B 80 7F 2D 00 8B 73 04 75 03 89 77 04 8B .uk..-..s.u..w..
005BB500 45 04 39 58 04 75 05 89 78 04 EB 0B 39 1E 75 04 E.9X.u..x...9.u.
005BB510 89 3E EB 03 89 7E 08 8B 5D 04 8B 03 3B 44 24 14 .>...~..]...;D$.
005BB520 75 15 80 7F 2D 00 74 04 8B C6 EB 09 57 E8 9E B9 u...-.t.....W...
005BB530 E4 FF 83 C4 04 89 03 8B 5D 04 8B 4C 24 14 39 4B ........]..L$.9K
005BB540 08 75 72 80 7F 2D 00 74 07 8B C6 89 43 08 EB 65 .ur..-.t....C..e
005BB550 57 E8 0A B4 F2 FF 83 C4 04 89 43 08 EB 57 89 48 W.........C..W.H
005BB560 04 8B 13 89 11 3B 4B 08 75 04 8B F1 EB 1A 80 7F .....;K.u.......
005BB570 2D 00 8B 71 04 75 03 89 77 04 89 3E 8B 43 08 89 -..q.u..w..>.C..
005BB580 41 08 8B 53 08 89 4A 04 8B 45 04 39 58 04 75 05 A..S..J..E.9X.u.
005BB590 89 48 04 EB 0E 8B 43 04 39 18 75 04 89 08 EB 03 .H....C.9.u.....
005BB5A0 89 48 08 8B 43 04 89 41 04 8A 53 2C 8A 41 2C 88 .H..C..A..S,.A,.
005BB5B0 51 2C 88 43 2C 8B 44 24 14 B3 01 38 58 2C 0F 85 Q,.C,.D$...8X,..
005BB5C0 F2 00 00 00 8B 4D 04 3B 79 04 0F 84 E3 00 00 00 .....M.;y.......
005BB5D0 38 5F 2C 0F 85 DA 00 00 00 8B 06 3B F8 75 63 8B 8_,........;.uc.
005BB5E0 46 08 80 78 2C 00 75 12 88 58 2C 56 8B CD C6 46 F..x,.u..X,V...F
005BB5F0 2C 00 E8 59 6C F2 FF 8B 46 08 80 78 2D 00 75 72 ,..Yl...F..x-.ur
005BB600 8B 10 38 5A 2C 75 08 8B 48 08 38 59 2C 74 5F 8B ..8Z,u..H.8Y,t_.
005BB610 48 08 38 59 2C 75 12 88 5A 2C 50 8B CD C6 40 2C H.8Y,u..Z,P...@,
005BB620 00 E8 1A 51 E6 FF 8B 46 08 8A 4E 2C 88 48 2C 88 ...Q...F..N,.H,.
005BB630 5E 2C 8B 50 08 56 8B CD 88 5A 2C E8 10 6C F2 FF ^,.P.V...Z,..l..
005BB640 EB 71 80 78 2C 00 75 11 88 58 2C 56 8B CD C6 46 .q.x,.u..X,V...F
005BB650 2C 00 E8 E9 50 E6 FF 8B 06 80 78 2D 00 75 13 8B ,...P.....x-.u..
005BB660 50 08 38 5A 2C 75 1E 8B 08 38 59 2C 75 17 C6 40 P.8Z,u...8Y,u..@
005BB670 2C 00 8B 55 04 8B FE 3B 7A 04 8B 76 04 0F 85 4D ,..U...;z..v...M
005BB680 FF FF FF EB 2E 8B 08 38 59 2C 75 11 88 5A 2C 50 .......8Y,u..Z,P
005BB690 8B CD C6 40 2C 00 E8 B5 6B F2 FF 8B 06 8A 4E 2C ...@,...k.....N,
005BB6A0 88 48 2C 88 5E 2C 8B 10 56 8B CD 88 5A 2C E8 8D .H,.^,..V...Z,..
005BB6B0 50 E6 FF 88 5F 2C 8B 4C 24 14 83 C1 0C FF 15 38 P..._,.L$......8
005BB6C0 43 8A 00 8B 44 24 14 50 E8 F9 98 0D 00 8B 45 08 C...D$.P......E.
005BB6D0 83 C4 04 85 C0 76 06 83 C0 FF 89 45 08 8B 44 24 .....v.....E..D$
005BB6E0 6C 8B 4C 24 70 89 08 8B 4C 24 5C 64 89 0D 00 00 l.L$p...L$\d....
005BB6F0 00 00 59 5F 5E 5D 5B 83 C4 54 C2 08 00 CC CC CC ..Y_^][..T......

;; fn005BB700: 005BB700
;;   Called from:
;;     00622C4E (in fn00622B40)
;;     00622D14 (in fn00622B40)
fn005BB700 proc
	push	ecx
	mov	edx,[esp+10h]
	push	esi
	mov	esi,[esp+10h]
	push	edi
	mov	edi,[esp+10h]
	mov	byte ptr [esp+8h],0h
	mov	eax,[esp+8h]
	push	eax
	mov	eax,[esp+1Ch]
	push	edx
	push	ecx
	push	eax
	push	esi
	push	edi
	call	7C2D70h
	add	esp,18h
	lea	eax,[edi+esi*8]
	pop	edi
	pop	esi
	pop	ecx
	ret	0Ch
005BB733          CC CC CC CC CC CC CC CC CC CC CC CC CC    .............
005BB740 51 53 55 8B 6C 24 14 56 8B D9 57 8B 7B 04 8B 77 QSU.l$.V..W.{..w
005BB750 04 80 7E 45 00 B0 01 88 44 24 10 75 28 8D 49 00 ..~E....D$.u(.I.
005BB760 8D 46 0C 50 55 8B FE FF 15 0C 44 8A 00 83 C4 08 .F.PU.....D.....
005BB770 84 C0 88 44 24 10 74 04 8B 36 EB 03 8B 76 08 80 ...D$.t..6...v..
005BB780 7E 45 00 74 DB 84 C0 8B F7 89 74 24 1C 74 38 8B ~E.t......t$.t8.
005BB790 4B 04 3B 39 75 24 55 57 6A 01 8D 54 24 28 52 8B K.;9u$UWj..T$(R.
005BB7A0 CB E8 AA ED FF FF 8B 08 8B 44 24 18 5F 5E 5D 89 .........D$._^].
005BB7B0 08 C6 40 04 01 5B 59 C2 08 00 8D 4C 24 1C E8 CD ..@..[Y....L$...
005BB7C0 D3 FF FF 8B 74 24 1C 8D 56 0C 55 52 FF 15 0C 44 ....t$..V.UR...D
005BB7D0 8A 00 83 C4 08 84 C0 74 27 8B 44 24 10 55 57 50 .......t'.D$.UWP
005BB7E0 8D 4C 24 28 51 8B CB E8 64 ED FF FF 8B 10 8B 44 .L$(Q...d......D
005BB7F0 24 18 5F 5E 5D 89 10 C6 40 04 01 5B 59 C2 08 00 $._^]...@..[Y...
005BB800 8B 44 24 18 5F 89 30 5E 5D C6 40 04 00 5B 59 C2 .D$._.0^].@..[Y.
005BB810 08 00 CC CC CC CC CC CC CC CC CC CC CC CC CC CC ................
005BB820 55 8B EC 6A FF 68 91 DA 85 00 64 A1 00 00 00 00 U..j.h....d.....
005BB830 50 83 EC 0C 53 56 57 A1 88 41 A1 00 33 C5 50 8D P...SVW..A..3.P.
005BB840 45 F4 64 A3 00 00 00 00 89 65 F0 6A 30 E8 86 97 E.d......e.j0...
005BB850 0D 00 8B F0 83 C4 04 89 75 EC C7 45 FC 00 00 00 ........u..E....
005BB860 00 89 75 E8 85 F6 C6 45 FC 01 74 38 8B 4D 0C 8B ..u....E..t8.M..
005BB870 45 08 8B 55 10 8B 5D 14 89 4E 04 8D 7E 0C 53 8B E..U..]..N..~.S.
005BB880 CF 89 06 89 56 08 FF 15 3C 43 8A 00 8B 43 1C 85 ....V...<C...C..
005BB890 C0 89 47 1C 74 04 83 40 04 01 8A 45 18 88 46 2C ..G.t..@...E..F,
005BB8A0 C6 46 2D 00 8B C6 8B 4D F4 64 89 0D 00 00 00 00 .F-....M.d......
005BB8B0 59 5F 5E 5B 8B E5 5D C2 14 00 8B 4D EC 51 E8 03 Y_^[..]....M.Q..
005BB8C0 97 0D 00 83 C4 04 6A 00 6A 00 E8 FD 96 0D 00 CC ......j.j.......
005BB8D0 6A FF 68 C2 DA 85 00 64 A1 00 00 00 00 50 83 EC j.h....d.....P..
005BB8E0 4C 53 55 56 57 A1 88 41 A1 00 33 C4 50 8D 44 24 LSUVW..A..3.P.D$
005BB8F0 60 64 A3 00 00 00 00 8B D9 89 5C 24 14 8B 44 24 `d........\$..D$
005BB900 74 80 78 45 00 74 3C 68 94 6D 8A 00 8D 4C 24 20 t.xE.t<h.m...L$ 
005BB910 FF 15 34 43 8A 00 8D 44 24 1C 50 8D 4C 24 3C C7 ..4C...D$.P.L$<.
005BB920 44 24 6C 00 00 00 00 E8 B4 60 E4 FF 68 8C A8 99 D$l......`..h...
005BB930 00 8D 4C 24 3C 51 C7 44 24 40 3C 00 99 00 E8 89 ..L$<Q.D$@<.....
005BB940 96 0D 00 8D 4C 24 74 8B E8 E8 02 DA FF FF 8B 45 ....L$t........E
005BB950 00 80 78 45 00 74 05 8B 7D 08 EB 18 8B 55 08 80 ..xE.t..}....U..
005BB960 7A 45 00 74 04 8B F8 EB 0B 8B 4C 24 74 3B CD 8B zE.t......L$t;..
005BB970 79 08 75 67 80 7F 45 00 8B 75 04 75 03 89 77 04 y.ug..E..u.u..w.
005BB980 8B 43 04 39 68 04 75 05 89 78 04 EB 0B 39 2E 75 .C.9h.u..x...9.u
005BB990 04 89 3E EB 03 89 7E 08 8B 5B 04 39 2B 75 15 80 ..>...~..[.9+u..
005BB9A0 7F 45 00 74 04 8B C6 EB 09 57 E8 C1 CF FF FF 83 .E.t.....W......
005BB9B0 C4 04 89 03 8B 44 24 14 8B 58 04 39 6B 08 75 73 .....D$..X.9k.us
005BB9C0 80 7F 45 00 74 07 8B C6 89 43 08 EB 66 57 E8 9D ..E.t....C..fW..
005BB9D0 D1 FF FF 83 C4 04 89 43 08 EB 58 89 48 04 8B 55 .......C..X.H..U
005BB9E0 00 89 11 3B 4D 08 75 04 8B F1 EB 1A 80 7F 45 00 ...;M.u.......E.
005BB9F0 8B 71 04 75 03 89 77 04 89 3E 8B 45 08 89 41 08 .q.u..w..>.E..A.
005BBA00 8B 55 08 89 4A 04 8B 43 04 39 68 04 75 05 89 48 .U..J..C.9h.u..H
005BBA10 04 EB 0E 8B 45 04 39 28 75 04 89 08 EB 03 89 48 ....E.9(u......H
005BBA20 08 8B 45 04 89 41 04 8A 55 44 8A 41 44 88 51 44 ..E..A..UD.AD.QD
005BBA30 88 45 44 BB 01 00 00 00 38 5D 44 0F 85 FF 00 00 .ED.....8]D.....
005BBA40 00 8B 4C 24 14 8B 41 04 3B 78 04 0F 84 EC 00 00 ..L$..A.;x......
005BBA50 00 38 5F 44 0F 85 E3 00 00 00 8B 06 3B F8 75 67 .8_D........;.ug
005BBA60 8B 46 08 80 78 44 00 75 14 88 58 44 56 C6 46 44 .F..xD.u..XDV.FD
005BBA70 00 E8 7A D9 FF FF 8B 46 08 8B 4C 24 14 80 78 45 ..z....F..L$..xE
005BBA80 00 75 76 8B 10 38 5A 44 75 08 8B 50 08 38 5A 44 .uv..8ZDu..P.8ZD
005BBA90 74 63 8B 50 08 38 5A 44 75 16 8B 10 88 5A 44 50 tc.P.8ZDu....ZDP
005BBAA0 C6 40 44 00 E8 07 D0 FF FF 8B 46 08 8B 4C 24 14 .@D.......F..L$.
005BBAB0 8A 56 44 88 50 44 88 5E 44 8B 40 08 56 88 58 44 .VD.PD.^D.@.V.XD
005BBAC0 E8 2B D9 FF FF EB 76 80 78 44 00 75 13 88 58 44 .+....v.xD.u..XD
005BBAD0 56 C6 46 44 00 E8 D6 CF FF FF 8B 06 8B 4C 24 14 V.FD.........L$.
005BBAE0 80 78 45 00 75 13 8B 50 08 38 5A 44 75 1E 8B 10 .xE.u..P.8ZDu...
005BBAF0 38 5A 44 75 17 C6 40 44 00 8B 41 04 8B FE 3B 78 8ZDu..@D..A...;x
005BBB00 04 8B 76 04 0F 85 47 FF FF FF EB 31 8B 10 38 5A ..v...G....1..8Z
005BBB10 44 75 16 8B 50 08 88 5A 44 50 C6 40 44 00 E8 CD Du..P..ZDP.@D...
005BBB20 D8 FF FF 8B 06 8B 4C 24 14 8A 56 44 88 50 44 88 ......L$..VD.PD.
005BBB30 5E 44 8B 00 56 88 58 44 E8 73 CF FF FF 88 5F 44 ^D..V.XD.s...._D
005BBB40 8D 75 0C 89 74 24 18 8D 4E 1C 89 5C 24 68 FF 15 .u..t$..N..\$h..
005BBB50 38 43 8A 00 8B CE C7 44 24 68 FF FF FF FF FF 15 8C.....D$h......
005BBB60 38 43 8A 00 55 E8 5C 94 0D 00 8B 4C 24 18 8B 41 8C..U.\....L$..A
005BBB70 08 83 C4 04 85 C0 76 06 83 C0 FF 89 41 08 8B 44 ......v.....A..D
005BBB80 24 70 8B 4C 24 74 89 08 8B 4C 24 60 64 89 0D 00 $p.L$t...L$`d...
005BBB90 00 00 00 59 5F 5E 5D 5B 83 C4 58 C2 08 00 CC CC ...Y_^][..X.....
005BBBA0 6A FF 68 E9 DA 85 00 64 A1 00 00 00 00 50 83 EC j.h....d.....P..
005BBBB0 48 53 55 56 57 A1 88 41 A1 00 33 C4 50 8D 44 24 HSUVW..A..3.P.D$
005BBBC0 5C 64 A3 00 00 00 00 8B E9 8B 44 24 70 80 78 2D \d........D$p.x-
005BBBD0 00 74 3C 68 94 6D 8A 00 8D 4C 24 1C FF 15 34 43 .t<h.m...L$...4C
005BBBE0 8A 00 8D 44 24 18 50 8D 4C 24 38 C7 44 24 68 00 ...D$.P.L$8.D$h.
005BBBF0 00 00 00 E8 E8 5D E4 FF 68 8C A8 99 00 8D 4C 24 .....]..h.....L$
005BBC00 38 51 C7 44 24 3C 3C 00 99 00 E8 BD 93 0D 00 8B 8Q.D$<<.........
005BBC10 D8 8D 4C 24 70 89 5C 24 14 E8 A2 52 FF FF 8B 03 ..L$p.\$...R....
005BBC20 80 78 2D 00 74 05 8B 7B 08 EB 18 8B 53 08 80 7A .x-.t..{....S..z
005BBC30 2D 00 74 04 8B F8 EB 0B 8B 4C 24 70 3B CB 8B 79 -.t......L$p;..y
005BBC40 08 75 6B 80 7F 2D 00 8B 73 04 75 03 89 77 04 8B .uk..-..s.u..w..
005BBC50 45 04 39 58 04 75 05 89 78 04 EB 0B 39 1E 75 04 E.9X.u..x...9.u.
005BBC60 89 3E EB 03 89 7E 08 8B 5D 04 8B 03 3B 44 24 14 .>...~..]...;D$.
005BBC70 75 15 80 7F 2D 00 74 04 8B C6 EB 09 57 E8 4E B2 u...-.t.....W.N.
005BBC80 E4 FF 83 C4 04 89 03 8B 5D 04 8B 4C 24 14 39 4B ........]..L$.9K
005BBC90 08 75 72 80 7F 2D 00 74 07 8B C6 89 43 08 EB 65 .ur..-.t....C..e
005BBCA0 57 E8 BA AC F2 FF 83 C4 04 89 43 08 EB 57 89 48 W.........C..W.H
005BBCB0 04 8B 13 89 11 3B 4B 08 75 04 8B F1 EB 1A 80 7F .....;K.u.......
005BBCC0 2D 00 8B 71 04 75 03 89 77 04 89 3E 8B 43 08 89 -..q.u..w..>.C..
005BBCD0 41 08 8B 53 08 89 4A 04 8B 45 04 39 58 04 75 05 A..S..J..E.9X.u.
005BBCE0 89 48 04 EB 0E 8B 43 04 39 18 75 04 89 08 EB 03 .H....C.9.u.....
005BBCF0 89 48 08 8B 43 04 89 41 04 8A 53 2C 8A 41 2C 88 .H..C..A..S,.A,.
005BBD00 51 2C 88 43 2C 8B 44 24 14 B3 01 38 58 2C 0F 85 Q,.C,.D$...8X,..
005BBD10 F2 00 00 00 8B 4D 04 3B 79 04 0F 84 E3 00 00 00 .....M.;y.......
005BBD20 38 5F 2C 0F 85 DA 00 00 00 8B 06 3B F8 75 63 8B 8_,........;.uc.
005BBD30 46 08 80 78 2C 00 75 12 88 58 2C 56 8B CD C6 46 F..x,.u..X,V...F
005BBD40 2C 00 E8 09 65 F2 FF 8B 46 08 80 78 2D 00 75 72 ,...e...F..x-.ur
005BBD50 8B 10 38 5A 2C 75 08 8B 48 08 38 59 2C 74 5F 8B ..8Z,u..H.8Y,t_.
005BBD60 48 08 38 59 2C 75 12 88 5A 2C 50 8B CD C6 40 2C H.8Y,u..Z,P...@,
005BBD70 00 E8 CA 49 E6 FF 8B 46 08 8A 4E 2C 88 48 2C 88 ...I...F..N,.H,.
005BBD80 5E 2C 8B 50 08 56 8B CD 88 5A 2C E8 C0 64 F2 FF ^,.P.V...Z,..d..
005BBD90 EB 71 80 78 2C 00 75 11 88 58 2C 56 8B CD C6 46 .q.x,.u..X,V...F
005BBDA0 2C 00 E8 99 49 E6 FF 8B 06 80 78 2D 00 75 13 8B ,...I.....x-.u..
005BBDB0 50 08 38 5A 2C 75 1E 8B 08 38 59 2C 75 17 C6 40 P.8Z,u...8Y,u..@
005BBDC0 2C 00 8B 55 04 8B FE 3B 7A 04 8B 76 04 0F 85 4D ,..U...;z..v...M
005BBDD0 FF FF FF EB 2E 8B 08 38 59 2C 75 11 88 5A 2C 50 .......8Y,u..Z,P
005BBDE0 8B CD C6 40 2C 00 E8 65 64 F2 FF 8B 06 8A 4E 2C ...@,..ed.....N,
005BBDF0 88 48 2C 88 5E 2C 8B 10 56 8B CD 88 5A 2C E8 3D .H,.^,..V...Z,.=
005BBE00 49 E6 FF 88 5F 2C 8B 4C 24 14 83 C1 0C FF 15 38 I..._,.L$......8
005BBE10 43 8A 00 8B 44 24 14 50 E8 A9 91 0D 00 8B 45 08 C...D$.P......E.
005BBE20 83 C4 04 85 C0 76 06 83 C0 FF 89 45 08 8B 44 24 .....v.....E..D$
005BBE30 6C 8B 4C 24 70 89 08 8B 4C 24 5C 64 89 0D 00 00 l.L$p...L$\d....
005BBE40 00 00 59 5F 5E 5D 5B 83 C4 54 C2 08 00 CC CC CC ..Y_^][..T......
005BBE50 6A FF 68 19 DB 85 00 64 A1 00 00 00 00 50 53 55 j.h....d.....PSU
005BBE60 56 57 A1 88 41 A1 00 33 C4 50 8D 44 24 14 64 A3 VW..A..3.P.D$.d.
005BBE70 00 00 00 00 8B D9 8B 7C 24 24 80 7F 45 00 8B F7 .......|$$..E...
005BBE80 75 46 8B 46 08 50 8B CB E8 C3 FF FF FF 8B 36 8D uF.F.P........6.
005BBE90 6F 0C 89 6C 24 24 8D 4D 1C C7 44 24 1C 00 00 00 o..l$$.M..D$....
005BBEA0 00 FF 15 38 43 8A 00 8B CD C7 44 24 1C FF FF FF ...8C.....D$....
005BBEB0 FF FF 15 38 43 8A 00 57 E8 09 91 0D 00 83 C4 04 ...8C..W........
005BBEC0 80 7E 45 00 8B FE 74 BA 8B 4C 24 14 64 89 0D 00 .~E...t..L$.d...
005BBED0 00 00 00 59 5F 5E 5D 5B 83 C4 0C C2 04 00 CC CC ...Y_^][........
005BBEE0 6A FF 68 7B DB 85 00 64 A1 00 00 00 00 50 83 EC j.h{...d.....P..
005BBEF0 44 53 55 56 57 A1 88 41 A1 00 33 C4 50 8D 44 24 DSUVW..A..3.P.D$
005BBF00 58 64 A3 00 00 00 00 33 DB 89 5C 24 18 6A 0C C7 Xd.....3..\$.j..
005BBF10 44 24 64 01 00 00 00 E8 BC 90 0D 00 83 C4 04 3B D$d............;
005BBF20 C3 74 10 89 58 04 C7 00 94 3C 8C 00 89 58 08 8B .t..X....<...X..
005BBF30 F8 EB 02 33 FF 8D 44 24 3C 50 E8 61 1F E5 FF 83 ...3..D$<P.a....
005BBF40 C4 04 8B 74 24 6C 8B 16 8B 52 58 53 50 8D 44 24 ...t$l...RXSP.D$
005BBF50 28 50 8B CE C6 44 24 6C 02 FF D2 6A 01 6A 01 6A (P...D$l...j.j.j
005BBF60 01 50 8D 44 24 24 50 C6 44 24 74 03 E8 5F 75 01 .P.D$$P.D$t.._u.
005BBF70 00 8B C8 E8 B8 CC 01 00 8D 4C 24 20 C6 44 24 60 .........L$ .D$`
005BBF80 05 FF 15 38 43 8A 00 8D 4C 24 3C C6 44 24 60 06 ...8C...L$<.D$`.
005BBF90 FF 15 38 43 8A 00 51 8B 4C 24 18 8B C4 89 08 8B ..8C..Q.L$......
005BBFA0 4C 24 18 3B CB 89 64 24 20 74 05 E8 20 5B E4 FF L$.;..d$ t.. [..
005BBFB0 8B CF E8 C9 EB FF FF 3B FB 8B 6C 24 68 89 7D 00 .......;..l$h.}.
005BBFC0 74 04 83 47 04 01 8B 4C 24 14 3B CB C7 44 24 18 t..G...L$.;..D$.
005BBFD0 01 00 00 00 C6 44 24 60 01 74 19 8B F9 E8 FE 5A .....D$`.t.....Z
005BBFE0 E4 FF 83 F8 01 75 0D 3B FB 74 09 8B 17 50 8B 02 .....u.;.t...P..
005BBFF0 8B CF FF D0 8B CE 89 5C 24 14 88 5C 24 60 E8 DD .......\$..\$`..
005BC000 5A E4 FF 83 F8 01 75 09 8B 16 50 8B 02 8B CE FF Z.....u...P.....
005BC010 D0 8B C5 8B 4C 24 58 64 89 0D 00 00 00 00 59 5F ....L$Xd......Y_
005BC020 5E 5D 5B 83 C4 50 C2 08 00 CC CC CC CC CC CC CC ^][..P..........
005BC030 51 6A 0C C7 44 24 04 00 00 00 00 E8 98 8F 0D 00 Qj..D$..........
005BC040 83 C4 04 85 C0 74 18 C7 40 04 00 00 00 00 C7 00 .....t..@.......
005BC050 94 3C 8C 00 C7 40 08 00 00 00 00 8B C8 EB 02 33 .<...@.........3
005BC060 C9 85 C9 8B 44 24 08 89 08 74 04 83 41 04 01 59 ....D$...t..A..Y
005BC070 C2 0C 00 CC CC CC CC CC CC CC CC CC CC CC CC CC ................
005BC080 56 8B F1 E8 C8 EC FF FF F6 44 24 08 01 74 09 56 V........D$..t.V
005BC090 E8 31 8F 0D 00 83 C4 04 8B C6 5E C2 04 00 CC CC .1........^.....
005BC0A0 6A FF 68 A8 DB 85 00 64 A1 00 00 00 00 50 51 55 j.h....d.....PQU
005BC0B0 56 57 A1 88 41 A1 00 33 C4 50 8D 44 24 14 64 A3 VW..A..3.P.D$.d.
005BC0C0 00 00 00 00 8B F9 8B 47 20 8D 77 20 6A FF 50 89 .......G .w j.P.
005BC0D0 74 24 18 FF 15 F4 40 8A 00 C6 46 04 01 8B 57 08 t$....@...F...W.
005BC0E0 8B 0A 3B CA C7 44 24 1C 00 00 00 00 74 4D 8B 6C ..;..D$.....tM.l
005BC0F0 24 24 39 69 28 74 66 80 79 2D 00 75 3A 8B 41 08 $$9i(tf.y-.u:.A.
005BC100 80 78 2D 00 75 16 8B C8 8B 01 80 78 2D 00 75 27 .x-.u......x-.u'
005BC110 8B C8 8B 01 80 78 2D 00 74 F6 EB 1B 8B 41 04 80 .....x-.t....A..
005BC120 78 2D 00 75 10 3B 48 08 75 0B 8B C8 8B 40 04 80 x-.u.;H.u....@..
005BC130 78 2D 00 74 F0 8B C8 3B CA 75 B7 8B 06 50 C6 46 x-.t...;.u...P.F
005BC140 04 00 FF 15 F0 40 8A 00 8B 4C 24 14 64 89 0D 00 .....@...L$.d...
005BC150 00 00 00 59 5F 5E 5D 83 C4 10 C2 04 00 51 8D 4C ...Y_^]......Q.L
005BC160 24 28 51 8D 4F 04 E8 E5 F2 FF FF 8B 16 52 EB CE $(Q.O........R..
005BC170 6A FF 68 E8 DB 85 00 64 A1 00 00 00 00 50 83 EC j.h....d.....P..
005BC180 4C 55 56 57 A1 88 41 A1 00 33 C4 50 8D 44 24 5C LUVW..A..3.P.D$\
005BC190 64 A3 00 00 00 00 8B F9 8B 47 20 8D 77 20 6A FF d........G .w j.
005BC1A0 50 89 74 24 18 FF 15 F4 40 8A 00 C6 46 04 01 8B P.t$....@...F...
005BC1B0 4C 24 6C 8B 54 24 70 51 83 EC 1C 8B CC 89 A4 24 L$l.T$pQ.......$
005BC1C0 8C 00 00 00 52 C7 84 24 88 00 00 00 00 00 00 00 ....R..$........
005BC1D0 FF 15 3C 43 8A 00 8D 44 24 5C 50 E8 60 D2 FF FF ..<C...D$\P.`...
005BC1E0 83 C4 24 8B E8 55 8D 4C 24 20 C6 44 24 68 01 FF ..$..U.L$ .D$h..
005BC1F0 15 3C 43 8A 00 8B 4D 1C 89 4C 24 38 8D 54 24 1C .<C...M..L$8.T$.
005BC200 52 8D 44 24 18 50 8D 4F 04 C6 44 24 6C 02 E8 5D R.D$.P.O..D$l..]
005BC210 F1 FF FF 8D 4C 24 1C C6 44 24 64 01 FF 15 38 43 ....L$..D$d...8C
005BC220 8A 00 8D 4C 24 3C C6 44 24 64 00 FF 15 38 43 8A ...L$<.D$d...8C.
005BC230 00 8B 0E 51 C6 46 04 00 FF 15 F0 40 8A 00 8B 4C ...Q.F.....@...L
005BC240 24 5C 64 89 0D 00 00 00 00 59 5F 5E 5D 83 C4 58 $\d......Y_^]..X
005BC250 C2 08 00 CC CC CC CC CC CC CC CC CC CC CC CC CC ................
005BC260 83 EC 10 83 05 38 32 A6 00 01 56 8B F1 8B 46 6C .....82...V...Fl
005BC270 6A FF 50 FF 15 F4 40 8A 00 8B 54 24 18 C6 46 70 j.P...@...T$..Fp
005BC280 01 8B 0D 38 32 A6 00 89 4C 24 04 8D 44 24 04 50 ...82...L$..D$.P
005BC290 8D 4C 24 10 51 8D 4E 60 89 54 24 10 E8 0F F0 FF .L$.Q.N`.T$.....
005BC2A0 FF 8B 56 6C 52 C6 46 70 00 FF 15 F0 40 8A 00 A1 ..VlR.Fp....@...
005BC2B0 38 32 A6 00 5E 83 C4 10 C2 04 00 CC CC CC CC CC 82..^...........
005BC2C0 51 57 8B F9 83 7F 08 02 72 6C 8B 4F 04 8B 01 56 QW......rl.O...V
005BC2D0 8B 30 3B F1 89 44 24 08 74 5B 53 55 EB 06 8B FF .0;..D$.t[SU....
005BC2E0 8B 44 24 10 8D 5E 08 83 C0 08 53 50 FF 15 34 44 .D$..^....SP..4D
005BC2F0 8A 00 83 C4 08 84 C0 74 2D 3B 77 04 8B 2E 74 22 .......t-;w...t"
005BC300 8B 46 04 89 28 8B 0E 8B 56 04 89 51 04 8B CB FF .F..(...V..Q....
005BC310 15 38 43 8A 00 56 E8 AB 8C 0D 00 83 C4 04 83 47 .8C..V.........G
005BC320 08 FF 8B F5 EB 08 8B C6 8B 36 89 44 24 10 3B 77 .........6.D$.;w
005BC330 04 75 AD 5D 5B 5E 5F 59 C3 CC CC CC CC CC CC CC .u.][^_Y........
005BC340 51 8B 54 24 10 56 8B 74 24 10 57 8B 7C 24 10 C6 Q.T$.V.t$.W.|$..
005BC350 44 24 08 00 8B 44 24 08 50 8B 44 24 1C 52 51 50 D$...D$.P.D$.RQP
005BC360 56 57 E8 D9 E3 FF FF 8D 0C B6 83 C4 18 8D 04 CF VW..............
005BC370 5F 5E 59 C2 0C 00 CC CC CC CC CC CC CC CC CC CC _^Y.............
005BC380 83 EC 08 56 8B F1 83 7E 08 00 57 75 21 8B 44 24 ...V...~..Wu!.D$
005BC390 1C 8B 4E 04 8B 7C 24 14 50 51 6A 01 57 8B CE E8 ..N..|$.PQj.W...
005BC3A0 AC E1 FF FF 8B C7 5F 5E 83 C4 08 C2 0C 00 8B 46 ......_^.......F
005BC3B0 04 8B 7C 24 1C 53 8B 5C 24 1C 3B 18 55 75 32 8D ..|$.S.\$.;.Uu2.
005BC3C0 53 0C 52 57 FF 15 0C 44 8A 00 83 C4 08 84 C0 0F S.RW...D........
005BC3D0 84 3A 01 00 00 57 8B 7C 24 20 53 6A 01 57 8B CE .:...W.|$ Sj.W..
005BC3E0 E8 6B E1 FF FF 5D 5B 8B C7 5F 5E 83 C4 08 C2 0C .k...][.._^.....
005BC3F0 00 3B D8 75 3B 8B 40 08 83 C0 0C 57 50 FF 15 0C .;.u;.@....WP...
005BC400 44 8A 00 83 C4 08 84 C0 0F 84 01 01 00 00 8B 46 D..............F
005BC410 04 8B 48 08 57 8B 7C 24 20 51 6A 00 57 8B CE E8 ..H.W.|$ Qj.W...
005BC420 2C E1 FF FF 5D 5B 8B C7 5F 5E 83 C4 08 C2 0C 00 ,...][.._^......
005BC430 8D 43 0C 50 57 FF 15 0C 44 8A 00 83 C4 08 84 C0 .C.PW...D.......
005BC440 74 5B 8D 4C 24 24 89 5C 24 24 E8 41 C7 FF FF 8B t[.L$$.\$$.A....
005BC450 6C 24 24 57 8D 55 0C 52 8B CE E8 71 91 E4 FF 84 l$$W.U.R...q....
005BC460 C0 74 3A 8B 45 08 80 78 45 00 57 8B 7C 24 20 8B .t:.E..xE.W.|$ .
005BC470 CE 74 15 55 6A 00 57 E8 D4 E0 FF FF 5D 5B 8B C7 .t.Uj.W.....][..
005BC480 5F 5E 83 C4 08 C2 0C 00 53 6A 01 57 E8 BF E0 FF _^......Sj.W....
005BC490 FF 5D 5B 8B C7 5F 5E 83 C4 08 C2 0C 00 8D 43 0C .][.._^.......C.
005BC4A0 57 50 FF 15 0C 44 8A 00 83 C4 08 84 C0 74 60 8D WP...D.......t`.
005BC4B0 4C 24 24 89 5C 24 24 E8 94 CE FF FF 8B 6C 24 24 L$$.\$$......l$$
005BC4C0 3B 6E 04 74 10 8D 4D 0C 51 57 8B CE E8 FF 90 E4 ;n.t..M.QW......
005BC4D0 FF 84 C0 74 3A 8B 53 08 80 7A 45 00 57 8B 7C 24 ...t:.S..zE.W.|$
005BC4E0 20 8B CE 74 15 53 6A 00 57 E8 62 E0 FF FF 5D 5B  ..t.Sj.W.b...][
005BC4F0 8B C7 5F 5E 83 C4 08 C2 0C 00 55 6A 01 57 E8 4D .._^......Uj.W.M
005BC500 E0 FF FF 5D 5B 8B C7 5F 5E 83 C4 08 C2 0C 00 57 ...][.._^......W
005BC510 8D 44 24 14 50 8B CE E8 24 F2 FF FF 8B 08 8B 44 .D$.P...$......D
005BC520 24 1C 5D 5B 5F 89 08 5E 83 C4 08 C2 0C 00 CC CC $.][_..^........
005BC530 6A FF 68 19 DC 85 00 64 A1 00 00 00 00 50 83 EC j.h....d.....P..
005BC540 44 53 55 56 57 A1 88 41 A1 00 33 C4 50 8D 44 24 DSUVW..A..3.P.D$
005BC550 58 64 A3 00 00 00 00 8B F9 81 7F 08 FE FF FF 07 Xd..............
005BC560 72 3C 68 80 6D 8A 00 8D 4C 24 18 FF 15 34 43 8A r<h.m...L$...4C.
005BC570 00 8D 44 24 14 50 8D 4C 24 34 C7 44 24 64 00 00 ..D$.P.L$4.D$d..
005BC580 00 00 E8 59 54 E4 FF 68 68 9C 99 00 8D 4C 24 34 ...YT..hh....L$4
005BC590 51 C7 44 24 38 30 00 99 00 E8 2E 8A 0D 00 8B 54 Q.D$80.........T
005BC5A0 24 74 8B 47 04 8B 74 24 70 6A 00 52 50 56 50 E8 $t.G..t$pj.RPVP.
005BC5B0 6C F2 FF FF 8B E8 8B 47 04 BB 01 00 00 00 01 5F l......G......._
005BC5C0 08 3B F0 75 10 89 68 04 8B 47 04 89 28 8B 4F 04 .;.u..h..G..(.O.
005BC5D0 89 69 08 EB 22 80 7C 24 6C 00 74 0D 89 2E 8B 47 .i..".|$l.t....G
005BC5E0 04 3B 30 75 12 89 28 EB 0E 89 6E 08 8B 47 04 3B .;0u..(...n..G.;
005BC5F0 70 08 75 03 89 68 08 8B 55 04 80 7A 2C 00 8D 45 p.u..h..U..z,..E
005BC600 04 8B F5 0F 85 EC 00 00 00 8D A4 24 00 00 00 00 ...........$....
005BC610 8B 08 8B 51 04 3B 0A 75 51 8B 52 08 80 7A 2C 00 ...Q.;.uQ.R..z,.
005BC620 75 19 88 59 2C 88 5A 2C 8B 10 8B 4A 04 C6 41 2C u..Y,.Z,...J..A,
005BC630 00 8B 10 8B 72 04 E9 AA 00 00 00 3B 71 08 75 0A ....r......;q.u.
005BC640 8B F1 56 8B CF E8 06 5C F2 FF 8B 46 04 88 58 2C ..V....\...F..X,
005BC650 8B 4E 04 8B 51 04 C6 42 2C 00 8B 46 04 8B 48 04 .N..Q..B,..F..H.
005BC660 51 8B CF E8 D8 40 E6 FF EB 7B 8B 12 80 7A 2C 00 Q....@...{...z,.
005BC670 75 16 88 59 2C 88 5A 2C 8B 10 8B 4A 04 C6 41 2C u..Y,.Z,...J..A,
005BC680 00 8B 10 8B 72 04 EB 5D 3B 31 75 0A 8B F1 56 8B ....r..];1u...V.
005BC690 CF E8 AA 40 E6 FF 8B 46 04 88 58 2C 8B 4E 04 8B ...@...F..X,.N..
005BC6A0 51 04 C6 42 2C 00 8B 46 04 8B 40 04 8B 48 08 8B Q..B,..F..@..H..
005BC6B0 11 89 50 08 8B 11 80 7A 2D 00 75 03 89 42 04 8B ..P....z-.u..B..
005BC6C0 50 04 89 51 04 8B 57 04 3B 42 04 75 05 89 4A 04 P..Q..W.;B.u..J.
005BC6D0 EB 0E 8B 50 04 3B 02 75 04 89 0A EB 03 89 4A 08 ...P.;.u......J.
005BC6E0 89 01 89 48 04 8B 4E 04 80 79 2C 00 8D 46 04 0F ...H..N..y,..F..
005BC6F0 84 1B FF FF FF 8B 57 04 8B 42 04 88 58 2C 8B 44 ......W..B..X,.D
005BC700 24 68 89 28 8B 4C 24 58 64 89 0D 00 00 00 00 59 $h.(.L$Xd......Y
005BC710 5F 5E 5D 5B 83 C4 50 C2 10 00 CC CC CC CC CC CC _^][..P.........
005BC720 53 8B 5C 24 10 56 8B 74 24 10 57 8B F9 8B 47 04 S.\$.V.t$.W...G.
005BC730 3B 30 75 36 3B D8 75 32 8B 40 04 50 E8 BF CE 06 ;0u6;.u2.@.P....
005BC740 00 8B 47 04 89 40 04 8B 47 04 C7 47 08 00 00 00 ..G..@..G..G....
005BC750 00 89 00 8B 47 04 89 40 08 8B 4F 04 8B 11 8B 44 ....G..@..O....D
005BC760 24 10 5F 5E 89 10 5B C2 0C 00 3B F3 74 5A 8B FF $._^..[...;.tZ..
005BC770 80 7E 2D 00 8B CE 75 3F 8B 46 08 80 78 2D 00 75 .~-...u?.F..x-.u
005BC780 1B 8B F0 8B 06 80 78 2D 00 75 2C EB 03 8D 49 00 ......x-.u,...I.
005BC790 8B F0 8B 06 80 78 2D 00 74 F6 EB 1B 8B 46 04 80 .....x-.t....F..
005BC7A0 78 2D 00 75 10 3B 70 08 75 0B 8B F0 8B 40 04 80 x-.u.;p.u....@..
005BC7B0 78 2D 00 74 F0 8B F0 51 8D 44 24 18 50 8B CF E8 x-.t...Q.D$.P...
005BC7C0 8C EC FF FF 3B F3 75 A8 8B 44 24 10 5F 89 30 5E ....;.u..D$._.0^
005BC7D0 5B C2 0C 00 CC CC CC CC CC CC CC CC CC CC CC CC [...............
005BC7E0 8B 44 24 0C 53 56 8B F1 8B 08 89 4C 24 14 8B 4E .D$.SV.....L$..N
005BC7F0 04 85 C9 57 75 04 33 FF EB 08 8B 7E 0C 2B F9 C1 ...Wu.3....~.+..
005BC800 FF 02 8B 5C 24 14 85 DB 0F 84 81 01 00 00 85 C9 ...\$...........
005BC810 75 04 33 C0 EB 08 8B 46 08 2B C1 C1 F8 02 BA FF u.3....F.+......
005BC820 FF FF 3F 2B D0 3B D3 73 05 E8 62 C1 FF FF 85 C9 ..?+.;.s..b.....
005BC830 75 04 33 C0 EB 08 8B 46 08 2B C1 C1 F8 02 03 C3 u.3....F.+......
005BC840 3B F8 55 0F 83 B4 00 00 00 8B C7 D1 E8 BA FF FF ;.U.............
005BC850 FF 3F 2B D0 3B D7 73 04 33 FF EB 02 03 F8 85 C9 .?+.;.s.3.......
005BC860 75 04 33 C0 EB 08 8B 46 08 2B C1 C1 F8 02 03 C3 u.3....F.+......
005BC870 3B F8 73 12 85 C9 75 04 33 FF EB 08 8B 7E 08 2B ;.s...u.3....~.+
005BC880 F9 C1 FF 02 03 FB 6A 00 57 E8 F2 5B 1F 00 8B 4E ......j.W..[...N
005BC890 04 83 C4 08 8B E8 8B 44 24 14 55 50 51 8B CE E8 .......D$.UPQ...
005BC8A0 5C 5F 1F 00 8D 54 24 1C 52 53 50 8B CE E8 6E D5 \_...T$.RSP...n.
005BC8B0 0A 00 8B 4C 24 14 50 8B 46 08 50 51 8B CE E8 3D ...L$.P.F.PQ...=
005BC8C0 5F 1F 00 8B 46 04 85 C0 75 04 33 C9 EB 08 8B 4E _...F...u.3....N
005BC8D0 08 2B C8 C1 F9 02 03 D9 85 C0 74 09 50 E8 E4 86 .+........t.P...
005BC8E0 0D 00 83 C4 04 8D 54 BD 00 8D 44 9D 00 89 6E 04 ......T...D...n.
005BC8F0 5D 5F 89 56 0C 89 46 08 5E 5B C2 0C 00 8B 6E 08 ]_.V..F.^[....n.
005BC900 8B 7C 24 14 8B CD 2B CF C1 F9 02 8D 04 9D 00 00 .|$...+.........
005BC910 00 00 3B CB 89 44 24 14 8B CE 73 46 03 C7 50 55 ..;..D$...sF..PU
005BC920 57 E8 DA 5E 1F 00 8B 46 08 8B C8 2B CF C1 F9 02 W..^...F...+....
005BC930 8D 54 24 1C 52 2B D9 53 50 8B CE E8 E0 D4 0A 00 .T$.R+.SP.......
005BC940 8B 44 24 14 01 46 08 8B 76 08 8D 54 24 1C 52 2B .D$..F..v..T$.R+
005BC950 F0 56 57 E8 18 6E EF FF 83 C4 0C 5D 5F 5E 5B C2 .VW..n.....]_^[.
005BC960 0C 00 55 8B DD 2B D8 55 53 E8 92 5E 1F 00 55 53 ..U..+.US..^..US
005BC970 57 89 46 08 E8 27 E1 F4 FF 8B 4C 24 20 8D 44 24 W.F..'....L$ .D$
005BC980 28 50 03 CF 51 57 E8 E5 6D EF FF 83 C4 18 5D 5F (P..QW..m.....]_
005BC990 5E 5B C2 0C 00 CC CC CC CC CC CC CC CC CC CC CC ^[..............
005BC9A0 6A FF 68 49 DC 85 00 64 A1 00 00 00 00 50 83 EC j.hI...d.....P..
005BC9B0 48 53 55 56 57 A1 88 41 A1 00 33 C4 50 8D 44 24 HSUVW..A..3.P.D$
005BC9C0 5C 64 A3 00 00 00 00 8B E9 8B 44 24 70 80 78 2D \d........D$p.x-
005BC9D0 00 74 3C 68 94 6D 8A 00 8D 4C 24 1C FF 15 34 43 .t<h.m...L$...4C
005BC9E0 8A 00 8D 44 24 18 50 8D 4C 24 38 C7 44 24 68 00 ...D$.P.L$8.D$h.
005BC9F0 00 00 00 E8 E8 4F E4 FF 68 8C A8 99 00 8D 4C 24 .....O..h.....L$
005BCA00 38 51 C7 44 24 3C 3C 00 99 00 E8 BD 85 0D 00 8B 8Q.D$<<.........
005BCA10 D8 8D 4C 24 70 89 5C 24 14 E8 A2 44 FF FF 8B 03 ..L$p.\$...D....
005BCA20 80 78 2D 00 74 05 8B 7B 08 EB 18 8B 53 08 80 7A .x-.t..{....S..z
005BCA30 2D 00 74 04 8B F8 EB 0B 8B 4C 24 70 3B CB 8B 79 -.t......L$p;..y
005BCA40 08 75 6B 80 7F 2D 00 8B 73 04 75 03 89 77 04 8B .uk..-..s.u..w..
005BCA50 45 04 39 58 04 75 05 89 78 04 EB 0B 39 1E 75 04 E.9X.u..x...9.u.
005BCA60 89 3E EB 03 89 7E 08 8B 5D 04 8B 03 3B 44 24 14 .>...~..]...;D$.
005BCA70 75 15 80 7F 2D 00 74 04 8B C6 EB 09 57 E8 4E A4 u...-.t.....W.N.
005BCA80 E4 FF 83 C4 04 89 03 8B 5D 04 8B 4C 24 14 39 4B ........]..L$.9K
005BCA90 08 75 72 80 7F 2D 00 74 07 8B C6 89 43 08 EB 65 .ur..-.t....C..e
005BCAA0 57 E8 BA 9E F2 FF 83 C4 04 89 43 08 EB 57 89 48 W.........C..W.H
005BCAB0 04 8B 13 89 11 3B 4B 08 75 04 8B F1 EB 1A 80 7F .....;K.u.......
005BCAC0 2D 00 8B 71 04 75 03 89 77 04 89 3E 8B 43 08 89 -..q.u..w..>.C..
005BCAD0 41 08 8B 53 08 89 4A 04 8B 45 04 39 58 04 75 05 A..S..J..E.9X.u.
005BCAE0 89 48 04 EB 0E 8B 43 04 39 18 75 04 89 08 EB 03 .H....C.9.u.....
005BCAF0 89 48 08 8B 43 04 89 41 04 8A 53 2C 8A 41 2C 88 .H..C..A..S,.A,.
005BCB00 51 2C 88 43 2C 8B 44 24 14 B3 01 38 58 2C 0F 85 Q,.C,.D$...8X,..
005BCB10 F2 00 00 00 8B 4D 04 3B 79 04 0F 84 E3 00 00 00 .....M.;y.......
005BCB20 38 5F 2C 0F 85 DA 00 00 00 8B 06 3B F8 75 63 8B 8_,........;.uc.
005BCB30 46 08 80 78 2C 00 75 12 88 58 2C 56 8B CD C6 46 F..x,.u..X,V...F
005BCB40 2C 00 E8 09 57 F2 FF 8B 46 08 80 78 2D 00 75 72 ,...W...F..x-.ur
005BCB50 8B 10 38 5A 2C 75 08 8B 48 08 38 59 2C 74 5F 8B ..8Z,u..H.8Y,t_.
005BCB60 48 08 38 59 2C 75 12 88 5A 2C 50 8B CD C6 40 2C H.8Y,u..Z,P...@,
005BCB70 00 E8 CA 3B E6 FF 8B 46 08 8A 4E 2C 88 48 2C 88 ...;...F..N,.H,.
005BCB80 5E 2C 8B 50 08 56 8B CD 88 5A 2C E8 C0 56 F2 FF ^,.P.V...Z,..V..
005BCB90 EB 71 80 78 2C 00 75 11 88 58 2C 56 8B CD C6 46 .q.x,.u..X,V...F
005BCBA0 2C 00 E8 99 3B E6 FF 8B 06 80 78 2D 00 75 13 8B ,...;.....x-.u..
005BCBB0 50 08 38 5A 2C 75 1E 8B 08 38 59 2C 75 17 C6 40 P.8Z,u...8Y,u..@
005BCBC0 2C 00 8B 55 04 8B FE 3B 7A 04 8B 76 04 0F 85 4D ,..U...;z..v...M
005BCBD0 FF FF FF EB 2E 8B 08 38 59 2C 75 11 88 5A 2C 50 .......8Y,u..Z,P
005BCBE0 8B CD C6 40 2C 00 E8 65 56 F2 FF 8B 06 8A 4E 2C ...@,..eV.....N,
005BCBF0 88 48 2C 88 5E 2C 8B 10 56 8B CD 88 5A 2C E8 3D .H,.^,..V...Z,.=
005BCC00 3B E6 FF 88 5F 2C 8B 4C 24 14 83 C1 0C E8 8E CA ;..._,.L$.......
005BCC10 FF FF 8B 44 24 14 50 E8 AA 83 0D 00 8B 45 08 83 ...D$.P......E..
005BCC20 C4 04 85 C0 76 06 83 C0 FF 89 45 08 8B 44 24 6C ....v.....E..D$l
005BCC30 8B 4C 24 70 89 08 8B 4C 24 5C 64 89 0D 00 00 00 .L$p...L$\d.....
005BCC40 00 59 5F 5E 5D 5B 83 C4 54 C2 08 00 CC CC CC CC .Y_^][..T.......
005BCC50 6A FF 68 81 DC 85 00 64 A1 00 00 00 00 50 83 EC j.h....d.....P..
005BCC60 54 55 56 57 A1 88 41 A1 00 33 C4 50 8D 44 24 64 TUVW..A..3.P.D$d
005BCC70 64 A3 00 00 00 00 8B F1 8B 6C 24 74 55 E8 1E C7 d........l$tU...
005BCC80 FF FF 8B F8 3B 7E 04 74 12 8D 47 0C 50 55 FF 15 ....;~.t..G.PU..
005BCC90 0C 44 8A 00 83 C4 08 84 C0 74 6A 8D 4C 24 10 FF .D.......tj.L$..
005BCCA0 15 B0 43 8A 00 50 55 8D 4C 24 34 C7 44 24 74 00 ..C..PU.L$4.D$t.
005BCCB0 00 00 00 E8 18 28 EC FF 50 57 8D 4C 24 7C 51 8B .....(..PW.L$|Q.
005BCCC0 CE C6 44 24 78 01 E8 B5 F6 FF FF 8B 30 8D 4C 24 ..D$x.......0.L$
005BCCD0 2C C6 44 24 6C 00 E8 95 27 EC FF 8D 4C 24 10 C7 ,.D$l...'...L$..
005BCCE0 44 24 6C FF FF FF FF FF 15 38 43 8A 00 8D 46 28 D$l......8C...F(
005BCCF0 8B 4C 24 64 64 89 0D 00 00 00 00 59 5F 5E 5D 83 .L$dd......Y_^].
005BCD00 C4 60 C2 04 00 8D 47 28 8B 4C 24 64 64 89 0D 00 .`....G(.L$dd...
005BCD10 00 00 00 59 5F 5E 5D 83 C4 60 C2 04 00 CC CC CC ...Y_^]..`......
005BCD20 53 56 57 8B 7C 24 10 80 7F 2D 00 8B D9 8B F7 75 SVW.|$...-.....u
005BCD30 26 8B 46 08 50 8B CB E8 E4 FF FF FF 8B 36 8D 4F &.F.P........6.O
005BCD40 0C E8 5A C9 FF FF 57 E8 7A 82 0D 00 83 C4 04 80 ..Z...W.z.......
005BCD50 7E 2D 00 8B FE 74 DA 5F 5E 5B C2 04 00 CC CC CC ~-...t._^[......
005BCD60 8B 54 24 0C 55 8B E9 8B 4C 24 0C 3B CA 74 4A 8B .T$.U...L$.;.tJ.
005BCD70 45 08 53 56 57 C6 44 24 1C 00 8B 74 24 1C 56 8B E.SVW.D$...t$.V.
005BCD80 74 24 1C 56 8B 74 24 20 56 51 50 52 E8 2F C7 FF t$.V.t$ VQPR./..
005BCD90 FF 8B 5D 08 8B F8 83 C4 18 3B FB 8B F7 74 10 90 ..]......;...t..
005BCDA0 8B CE FF 15 38 43 8A 00 83 C6 28 3B F3 75 F1 8B ....8C....(;.u..
005BCDB0 4C 24 18 89 7D 08 5F 5E 5B 8B 44 24 08 89 08 5D L$..}._^[.D$...]
005BCDC0 C2 0C 00 CC CC CC CC CC CC CC CC CC CC CC CC CC ................
005BCDD0 53 8B D9 56 8B 73 04 85 F6 74 24 57 8B 7B 08 3B S..V.s...t$W.{.;
005BCDE0 F7 74 0F 8B CE FF 15 38 43 8A 00 83 C6 28 3B F7 .t.....8C....(;.
005BCDF0 75 F1 8B 43 04 50 E8 CB 81 0D 00 83 C4 04 5F 5E u..C.P........_^
005BCE00 C7 43 04 00 00 00 00 C7 43 08 00 00 00 00 C7 43 .C......C......C
005BCE10 0C 00 00 00 00 5B C3 CC CC CC CC CC CC CC CC CC .....[..........
005BCE20 51 53 55 8B 6C 24 14 56 8B D9 57 8B 7B 04 8B 77 QSU.l$.V..W.{..w
005BCE30 04 80 7E 2D 00 B0 01 88 44 24 10 75 28 8D 49 00 ..~-....D$.u(.I.
005BCE40 8D 46 0C 50 55 8B FE FF 15 0C 44 8A 00 83 C4 08 .F.PU.....D.....
005BCE50 84 C0 88 44 24 10 74 04 8B 36 EB 03 8B 76 08 80 ...D$.t..6...v..
005BCE60 7E 2D 00 74 DB 84 C0 8B F7 89 74 24 1C 74 38 8B ~-.t......t$.t8.
005BCE70 4B 04 3B 39 75 24 55 57 6A 01 8D 54 24 28 52 8B K.;9u$UWj..T$(R.
005BCE80 CB E8 AA F6 FF FF 8B 08 8B 44 24 18 5F 5E 5D 89 .........D$._^].
005BCE90 08 C6 40 04 01 5B 59 C2 08 00 8D 4C 24 1C E8 1D ..@..[Y....L$...
005BCEA0 8A 03 00 8B 74 24 1C 8D 56 0C 55 52 FF 15 0C 44 ....t$..V.UR...D
005BCEB0 8A 00 83 C4 08 84 C0 74 27 8B 44 24 10 55 57 50 .......t'.D$.UWP
005BCEC0 8D 4C 24 28 51 8B CB E8 64 F6 FF FF 8B 10 8B 44 .L$(Q...d......D
005BCED0 24 18 5F 5E 5D 89 10 C6 40 04 01 5B 59 C2 08 00 $._^]...@..[Y...
005BCEE0 8B 44 24 18 5F 89 30 5E 5D C6 40 04 00 5B 59 C2 .D$._.0^].@..[Y.
005BCEF0 08 00 CC CC CC CC CC CC CC CC CC CC CC CC CC CC ................
005BCF00 55 8B EC 6A FF 68 A0 DC 85 00 64 A1 00 00 00 00 U..j.h....d.....
005BCF10 50 83 EC 10 53 56 57 A1 88 41 A1 00 33 C5 50 8D P...SVW..A..3.P.
005BCF20 45 F4 64 A3 00 00 00 00 89 65 F0 8B F1 8B 45 10 E.d......e....E.
005BCF30 8B 08 8B 50 04 8B 46 04 85 C0 89 4D E4 89 55 E8 ...P..F....M..U.
005BCF40 75 04 33 FF EB 08 8B 7E 0C 2B F8 C1 FF 03 8B 55 u.3....~.+.....U
005BCF50 0C 85 D2 0F 84 E9 01 00 00 85 C0 75 04 33 C9 EB ...........u.3..
005BCF60 08 8B 4E 08 2B C8 C1 F9 03 BB FF FF FF 1F 2B D9 ..N.+.........+.
005BCF70 3B DA 73 05 E8 D7 B8 FF FF 85 C0 75 04 33 C9 EB ;.s........u.3..
005BCF80 08 8B 4E 08 2B C8 C1 F9 03 03 CA 3B F9 0F 83 FC ..N.+......;....
005BCF90 00 00 00 8B CF D1 E9 BB FF FF FF 1F 2B D9 3B DF ............+.;.
005BCFA0 73 04 33 FF EB 02 03 F9 85 C0 75 04 33 C9 EB 08 s.3.......u.3...
005BCFB0 8B 4E 08 2B C8 C1 F9 03 03 CA 3B F9 73 13 85 C0 .N.+......;.s...
005BCFC0 75 04 33 C9 EB 08 8B 4E 08 2B C8 C1 F9 03 8D 3C u.3....N.+.....<
005BCFD0 11 6A 00 57 E8 37 C4 01 00 8B 55 0C C6 45 10 00 .j.W.7....U..E..
005BCFE0 8B 4D 10 51 8B 4D 08 52 8B D8 8B 46 04 56 53 51 .M.Q.M.R...F.VSQ
005BCFF0 50 89 5D EC C7 45 FC 00 00 00 00 E8 80 70 05 00 P.]..E.......p..
005BD000 8B 4D 0C 83 C4 20 8D 55 E4 52 51 50 8B CE E8 ED .M... .U.RQP....
005BD010 E6 FF FF 8B 4E 08 C6 45 10 00 8B 55 10 52 8B 55 ....N..E...U.R.U
005BD020 0C 52 56 50 8B 45 08 51 50 E8 52 70 05 00 8B 4E .RVP.E.QP.Rp...N
005BD030 04 83 C4 18 85 C9 75 04 33 C0 EB 08 8B 46 08 2B ......u.3....F.+
005BD040 C1 C1 F8 03 01 45 0C 85 C9 74 09 51 E8 75 7F 0D .....E...t.Q.u..
005BD050 00 83 C4 04 8B 55 0C 8D 0C FB 8D 04 D3 89 4E 0C .....U........N.
005BD060 89 46 08 89 5E 04 8B 4D F4 64 89 0D 00 00 00 00 .F..^..M.d......
005BD070 59 5F 5E 5B 8B E5 5D C2 0C 00 8B 4D EC 51 E8 43 Y_^[..]....M.Q.C
005BD080 7F 0D 00 83 C4 04 6A 00 6A 00 E8 3D 7F 0D 00 8B ......j.j..=....
005BD090 5E 08 8B 7D 08 8B C3 2B C7 C1 F8 03 3B C2 73 66 ^..}...+....;.sf
005BD0A0 8D 04 D5 00 00 00 00 89 45 08 03 C7 50 53 57 8B ........E...PSW.
005BD0B0 CE E8 0A AA E5 FF 8B 46 08 8B D0 8D 4D E4 51 8B .......F....M.Q.
005BD0C0 4D 0C 2B D7 C1 FA 03 2B CA 51 50 8B CE C7 45 FC M.+....+.QP...E.
005BD0D0 02 00 00 00 E8 27 E6 FF FF 8B 45 08 01 46 08 8B .....'....E..F..
005BD0E0 76 08 8D 4D E4 51 2B F0 56 57 E8 B1 95 E5 FF 83 v..M.Q+.VW......
005BD0F0 C4 0C 8B 4D F4 64 89 0D 00 00 00 00 59 5F 5E 5B ...M.d......Y_^[
005BD100 8B E5 5D C2 0C 00 8D 0C D5 00 00 00 00 53 8B C3 ..]..........S..
005BD110 2B C1 53 89 4D 08 50 8B CE 89 45 0C E8 9F A9 E5 +.S.M.P...E.....
005BD120 FF 8B 55 0C 53 52 57 89 46 08 E8 71 70 0A 00 8B ..U.SRW.F..qp...
005BD130 4D 08 8D 45 E4 50 03 CF 51 57 E8 61 95 E5 FF 83 M..E.P..QW.a....
005BD140 C4 18 8B 4D F4 64 89 0D 00 00 00 00 59 5F 5E 5B ...M.d......Y_^[
005BD150 8B E5 5D C2 0C 00 CC CC CC CC CC CC CC CC CC CC ..].............
005BD160 55 8B EC 6A FF 68 C0 DC 85 00 64 A1 00 00 00 00 U..j.h....d.....
005BD170 50 83 EC 10 53 56 57 A1 88 41 A1 00 33 C5 50 8D P...SVW..A..3.P.
005BD180 45 F4 64 A3 00 00 00 00 89 65 F0 8B F1 8B 45 10 E.d......e....E.
005BD190 8B 08 8B 50 04 8B 46 04 85 C0 89 4D E4 89 55 E8 ...P..F....M..U.
005BD1A0 75 04 33 FF EB 08 8B 7E 0C 2B F8 C1 FF 03 8B 55 u.3....~.+.....U
005BD1B0 0C 85 D2 0F 84 E9 01 00 00 85 C0 75 04 33 C9 EB ...........u.3..
005BD1C0 08 8B 4E 08 2B C8 C1 F9 03 BB FF FF FF 1F 2B D9 ..N.+.........+.
005BD1D0 3B DA 73 05 E8 37 B7 FF FF 85 C0 75 04 33 C9 EB ;.s..7.....u.3..
005BD1E0 08 8B 4E 08 2B C8 C1 F9 03 03 CA 3B F9 0F 83 FC ..N.+......;....
005BD1F0 00 00 00 8B CF D1 E9 BB FF FF FF 1F 2B D9 3B DF ............+.;.
005BD200 73 04 33 FF EB 02 03 F9 85 C0 75 04 33 C9 EB 08 s.3.......u.3...
005BD210 8B 4E 08 2B C8 C1 F9 03 03 CA 3B F9 73 13 85 C0 .N.+......;.s...
005BD220 75 04 33 C9 EB 08 8B 4E 08 2B C8 C1 F9 03 8D 3C u.3....N.+.....<
005BD230 11 6A 00 57 E8 D7 C1 01 00 8B 55 0C C6 45 10 00 .j.W......U..E..
005BD240 8B 4D 10 51 8B 4D 08 52 8B D8 8B 46 04 56 53 51 .M.Q.M.R...F.VSQ
005BD250 50 89 5D EC C7 45 FC 00 00 00 00 E8 20 6E 05 00 P.]..E...... n..
005BD260 8B 4D 0C 83 C4 20 8D 55 E4 52 51 50 8B CE E8 8D .M... .U.RQP....
005BD270 E4 FF FF 8B 4E 08 C6 45 10 00 8B 55 10 52 8B 55 ....N..E...U.R.U
005BD280 0C 52 56 50 8B 45 08 51 50 E8 F2 6D 05 00 8B 4E .RVP.E.QP..m...N
005BD290 04 83 C4 18 85 C9 75 04 33 C0 EB 08 8B 46 08 2B ......u.3....F.+
005BD2A0 C1 C1 F8 03 01 45 0C 85 C9 74 09 51 E8 15 7D 0D .....E...t.Q..}.
005BD2B0 00 83 C4 04 8B 55 0C 8D 0C FB 8D 04 D3 89 4E 0C .....U........N.
005BD2C0 89 46 08 89 5E 04 8B 4D F4 64 89 0D 00 00 00 00 .F..^..M.d......
005BD2D0 59 5F 5E 5B 8B E5 5D C2 0C 00 8B 4D EC 51 E8 E3 Y_^[..]....M.Q..
005BD2E0 7C 0D 00 83 C4 04 6A 00 6A 00 E8 DD 7C 0D 00 8B |.....j.j...|...
005BD2F0 5E 08 8B 7D 08 8B C3 2B C7 C1 F8 03 3B C2 73 66 ^..}...+....;.sf
005BD300 8D 04 D5 00 00 00 00 89 45 08 03 C7 50 53 57 8B ........E...PSW.
005BD310 CE E8 AA A7 E5 FF 8B 46 08 8B D0 8D 4D E4 51 8B .......F....M.Q.
005BD320 4D 0C 2B D7 C1 FA 03 2B CA 51 50 8B CE C7 45 FC M.+....+.QP...E.
005BD330 02 00 00 00 E8 C7 E3 FF FF 8B 45 08 01 46 08 8B ..........E..F..
005BD340 76 08 8D 4D E4 51 2B F0 56 57 E8 51 93 E5 FF 83 v..M.Q+.VW.Q....
005BD350 C4 0C 8B 4D F4 64 89 0D 00 00 00 00 59 5F 5E 5B ...M.d......Y_^[
005BD360 8B E5 5D C2 0C 00 8D 0C D5 00 00 00 00 53 8B C3 ..]..........S..
005BD370 2B C1 53 89 4D 08 50 8B CE 89 45 0C E8 3F A7 E5 +.S.M.P...E..?..
005BD380 FF 8B 55 0C 53 52 57 89 46 08 E8 11 6E 0A 00 8B ..U.SRW.F...n...
005BD390 4D 08 8D 45 E4 50 03 CF 51 57 E8 01 93 E5 FF 83 M..E.P..QW......
005BD3A0 C4 18 8B 4D F4 64 89 0D 00 00 00 00 59 5F 5E 5B ...M.d......Y_^[
005BD3B0 8B E5 5D C2 0C 00 CC CC CC CC CC CC CC CC CC CC ..].............
005BD3C0 53 8B 5C 24 10 56 8B 74 24 10 57 8B F9 8B 47 04 S.\$.V.t$.W...G.
005BD3D0 3B 30 75 36 3B D8 75 32 8B 40 04 50 E8 6F EA FF ;0u6;.u2.@.P.o..
005BD3E0 FF 8B 47 04 89 40 04 8B 47 04 C7 47 08 00 00 00 ..G..@..G..G....
005BD3F0 00 89 00 8B 47 04 89 40 08 8B 4F 04 8B 11 8B 44 ....G..@..O....D
005BD400 24 10 5F 5E 89 10 5B C2 0C 00 3B F3 74 5A 8B FF $._^..[...;.tZ..
005BD410 80 7E 45 00 8B CE 75 3F 8B 46 08 80 78 45 00 75 .~E...u?.F..xE.u
005BD420 1B 8B F0 8B 06 80 78 45 00 75 2C EB 03 8D 49 00 ......xE.u,...I.
005BD430 8B F0 8B 06 80 78 45 00 74 F6 EB 1B 8B 46 04 80 .....xE.t....F..
005BD440 78 45 00 75 10 3B 70 08 75 0B 8B F0 8B 40 04 80 xE.u.;p.u....@..
005BD450 78 45 00 74 F0 8B F0 51 8D 44 24 18 50 8B CF E8 xE.t...Q.D$.P...
005BD460 6C E4 FF FF 3B F3 75 A8 8B 44 24 10 5F 89 30 5E l...;.u..D$._.0^
005BD470 5B C2 0C 00 CC CC CC CC CC CC CC CC CC CC CC CC [...............
005BD480 53 8B 5C 24 10 56 8B 74 24 10 57 8B F9 8B 47 04 S.\$.V.t$.W...G.
005BD490 3B 30 75 36 3B D8 75 32 8B 40 04 50 E8 5F C1 06 ;0u6;.u2.@.P._..
005BD4A0 00 8B 47 04 89 40 04 8B 47 04 C7 47 08 00 00 00 ..G..@..G..G....
005BD4B0 00 89 00 8B 47 04 89 40 08 8B 4F 04 8B 11 8B 44 ....G..@..O....D
005BD4C0 24 10 5F 5E 89 10 5B C2 0C 00 3B F3 74 5A 8B FF $._^..[...;.tZ..
005BD4D0 80 7E 2D 00 8B CE 75 3F 8B 46 08 80 78 2D 00 75 .~-...u?.F..x-.u
005BD4E0 1B 8B F0 8B 06 80 78 2D 00 75 2C EB 03 8D 49 00 ......x-.u,...I.
005BD4F0 8B F0 8B 06 80 78 2D 00 74 F6 EB 1B 8B 46 04 80 .....x-.t....F..
005BD500 78 2D 00 75 10 3B 70 08 75 0B 8B F0 8B 40 04 80 x-.u.;p.u....@..
005BD510 78 2D 00 74 F0 8B F0 51 8D 44 24 18 50 8B CF E8 x-.t...Q.D$.P...
005BD520 7C E6 FF FF 3B F3 75 A8 8B 44 24 10 5F 89 30 5E |...;.u..D$._.0^
005BD530 5B C2 0C 00 CC CC CC CC CC CC CC CC CC CC CC CC [...............
005BD540 51 8B 54 24 10 C6 04 24 00 8B 04 24 50 8B 44 24 Q.T$...$...$P.D$
005BD550 14 52 8B 54 24 10 51 8B 4C 24 18 50 51 52 E8 0D .R.T$.Q.L$.PQR..
005BD560 C4 FF FF 83 C4 1C C2 0C 00 CC CC CC CC CC CC CC ................
005BD570 56 8B 74 24 08 57 8B 7C 24 10 3B F7 74 25 8B FF V.t$.W.|$.;.t%..
005BD580 8B 4E 04 85 C9 74 0E 83 41 04 FF 75 08 8B 01 8B .N...t..A..u....
005BD590 10 6A 01 FF D2 C7 46 04 00 00 00 00 83 C6 08 3B .j....F........;
005BD5A0 F7 75 DD 5F 5E C3 CC CC CC CC CC CC CC CC CC CC .u._^...........
005BD5B0 6A FF 68 16 DD 85 00 64 A1 00 00 00 00 50 83 EC j.h....d.....P..
005BD5C0 38 56 57 A1 88 41 A1 00 33 C4 50 8D 44 24 44 64 8VW..A..3.P.D$Dd
005BD5D0 A3 00 00 00 00 6A 04 E8 FC 79 0D 00 83 C4 04 85 .....j...y......
005BD5E0 C0 74 0A C7 00 7C 3B 8C 00 8B F0 EB 02 33 F6 68 .t...|;......3.h
005BD5F0 60 6A 8B 00 8D 4C 24 10 FF 15 34 43 8A 00 8D 44 `j...L$...4C...D
005BD600 24 0C 50 B9 60 32 A6 00 C7 44 24 50 00 00 00 00 $.P.`2...D$P....
005BD610 E8 DB 5E F2 FF 83 CF FF 8D 4C 24 0C 89 30 89 7C ..^......L$..0.|
005BD620 24 4C FF 15 38 43 8A 00 6A 04 E8 A9 79 0D 00 83 $L..8C..j...y...
005BD630 C4 04 85 C0 74 0A C7 00 88 3B 8C 00 8B F0 EB 02 ....t....;......
005BD640 33 F6 68 D0 3C 8C 00 8D 4C 24 10 FF 15 34 43 8A 3.h.<...L$...4C.
005BD650 00 8D 4C 24 0C 51 B9 60 32 A6 00 C7 44 24 50 01 ..L$.Q.`2...D$P.
005BD660 00 00 00 E8 88 5E F2 FF 8D 4C 24 0C 89 30 89 7C .....^...L$..0.|
005BD670 24 4C FF 15 38 43 8A 00 6A 04 E8 59 79 0D 00 83 $L..8C..j..Yy...
005BD680 C4 04 85 C0 74 0A C7 00 94 3B 8C 00 8B F0 EB 02 ....t....;......
005BD690 33 F6 68 C8 3C 8C 00 8D 4C 24 10 FF 15 34 43 8A 3.h.<...L$...4C.
005BD6A0 00 8D 54 24 0C 52 B9 60 32 A6 00 C7 44 24 50 02 ..T$.R.`2...D$P.
005BD6B0 00 00 00 E8 38 5E F2 FF 8D 4C 24 0C 89 30 89 7C ....8^...L$..0.|
005BD6C0 24 4C FF 15 38 43 8A 00 6A 04 E8 09 79 0D 00 83 $L..8C..j...y...
005BD6D0 C4 04 85 C0 74 0A C7 00 C8 3B 8C 00 8B F0 EB 02 ....t....;......
005BD6E0 33 F6 68 C0 3C 8C 00 8D 4C 24 10 FF 15 34 43 8A 3.h.<...L$...4C.
005BD6F0 00 8D 44 24 0C 50 B9 60 32 A6 00 C7 44 24 50 03 ..D$.P.`2...D$P.
005BD700 00 00 00 E8 E8 5D F2 FF 8D 4C 24 0C 89 30 89 7C .....]...L$..0.|
005BD710 24 4C FF 15 38 43 8A 00 6A 04 E8 B9 78 0D 00 83 $L..8C..j...x...
005BD720 C4 04 85 C0 74 0A C7 00 FC 3B 8C 00 8B F0 EB 02 ....t....;......
005BD730 33 F6 68 F4 98 8A 00 8D 4C 24 10 FF 15 34 43 8A 3.h.....L$...4C.
005BD740 00 8D 4C 24 0C 51 B9 60 32 A6 00 C7 44 24 50 04 ..L$.Q.`2...D$P.
005BD750 00 00 00 E8 98 5D F2 FF 8D 4C 24 0C 89 30 89 7C .....]...L$..0.|
005BD760 24 4C FF 15 38 43 8A 00 6A 04 E8 69 78 0D 00 83 $L..8C..j..ix...
005BD770 C4 04 85 C0 74 0A C7 00 08 3C 8C 00 8B F0 EB 02 ....t....<......
005BD780 33 F6 68 BC 3C 8C 00 8D 4C 24 2C FF 15 34 43 8A 3.h.<...L$,..4C.
005BD790 00 8D 54 24 28 52 B9 60 32 A6 00 C7 44 24 50 05 ..T$(R.`2...D$P.
005BD7A0 00 00 00 E8 48 5D F2 FF 8D 4C 24 28 89 30 89 7C ....H]...L$(.0.|
005BD7B0 24 4C FF 15 38 43 8A 00 B0 01 8B 4C 24 44 64 89 $L..8C.....L$Dd.
005BD7C0 0D 00 00 00 00 59 5F 5E 83 C4 44 C3 CC CC CC CC .....Y_^..D.....
005BD7D0 6A FF 68 53 DD 85 00 64 A1 00 00 00 00 50 51 53 j.hS...d.....PQS
005BD7E0 56 57 A1 88 41 A1 00 33 C4 50 8D 44 24 14 64 A3 VW..A..3.P.D$.d.
005BD7F0 00 00 00 00 8B F1 89 74 24 10 8B 44 24 28 33 DB .......t$..D$(3.
005BD800 53 53 6A FF 50 E8 16 CF 01 00 8B 4C 24 24 C7 06 SSj.P......L$$..
005BD810 D8 3C 8C 00 89 4E 4C 89 5C 24 1C 89 5E 54 89 5E .<...NL.\$..^T.^
005BD820 58 89 5E 5C 8D 7E 60 8B CF C6 44 24 1C 01 E8 9D X.^\.~`...D$....
005BD830 66 0A 00 89 47 04 C6 40 15 01 8B 47 04 89 40 04 f...G..@...G..@.
005BD840 8B 47 04 89 00 8B 47 04 53 53 89 40 08 53 89 5F .G....G.SS.@.S._
005BD850 08 FF 15 FC 40 8A 00 89 46 6C 88 5E 70 8B C6 8B ....@...Fl.^p...
005BD860 4C 24 14 64 89 0D 00 00 00 00 59 5F 5E 5B 83 C4 L$.d......Y_^[..
005BD870 10 C2 08 00 CC CC CC CC CC CC CC CC CC CC CC CC ................
005BD880 6A FF 68 83 DD 85 00 64 A1 00 00 00 00 50 83 EC j.h....d.....P..
005BD890 08 53 56 57 A1 88 41 A1 00 33 C4 50 8D 44 24 18 .SVW..A..3.P.D$.
005BD8A0 64 A3 00 00 00 00 8B F9 89 7C 24 10 8B 47 6C 50 d........|$..GlP
005BD8B0 C7 44 24 24 01 00 00 00 FF 15 F8 40 8A 00 8B 47 .D$$.......@...G
005BD8C0 64 8B 08 8D 77 60 50 51 8D 4C 24 1C 51 8B CE E8 d...w`PQ.L$.Q...
005BD8D0 BC CB FF FF 8B 46 04 50 E8 E9 76 0D 00 33 DB 89 .....F.P..v..3..
005BD8E0 5E 04 89 5E 08 8B 47 54 83 C4 04 3B C3 74 09 50 ^..^..GT...;.t.P
005BD8F0 E8 D1 76 0D 00 83 C4 04 8B CF 89 5F 54 89 5F 58 ..v........_T._X
005BD900 89 5F 5C C7 44 24 20 FF FF FF FF E8 A0 CE 01 00 ._\.D$ .........
005BD910 8B 4C 24 18 64 89 0D 00 00 00 00 59 5F 5E 5B 83 .L$.d......Y_^[.
005BD920 C4 14 C3 CC CC CC CC CC CC CC CC CC CC CC CC CC ................
005BD930 8B 44 24 04 8D 14 C5 00 00 00 00 2B D0 8B 41 70 .D$........+..Ap
005BD940 8D 04 90 83 C1 4C 50 51 8B 0D 34 32 A6 00 83 C1 .....LPQ..42....
005BD950 28 E8 FA F2 FF FF 8B C8 FF 15 58 43 8A 00 C2 04 (.........XC....
005BD960 00 CC CC CC CC CC CC CC CC CC CC CC CC CC CC CC ................
005BD970 E9 5B F4 FF FF CC CC CC CC CC CC CC CC CC CC CC .[..............
005BD980 83 EC 08 56 8B F1 83 7E 08 00 57 75 21 8B 44 24 ...V...~..Wu!.D$
005BD990 1C 8B 4E 04 8B 7C 24 14 50 51 6A 01 57 8B CE E8 ..N..|$.PQj.W...
005BD9A0 8C EB FF FF 8B C7 5F 5E 83 C4 08 C2 0C 00 8B 46 ......_^.......F
005BD9B0 04 8B 7C 24 1C 53 8B 5C 24 1C 3B 18 55 75 32 8D ..|$.S.\$.;.Uu2.
005BD9C0 53 0C 52 57 FF 15 0C 44 8A 00 83 C4 08 84 C0 0F S.RW...D........
005BD9D0 84 3A 01 00 00 57 8B 7C 24 20 53 6A 01 57 8B CE .:...W.|$ Sj.W..
005BD9E0 E8 4B EB FF FF 5D 5B 8B C7 5F 5E 83 C4 08 C2 0C .K...][.._^.....
005BD9F0 00 3B D8 75 3B 8B 40 08 83 C0 0C 57 50 FF 15 0C .;.u;.@....WP...
005BDA00 44 8A 00 83 C4 08 84 C0 0F 84 01 01 00 00 8B 46 D..............F
005BDA10 04 8B 48 08 57 8B 7C 24 20 51 6A 00 57 8B CE E8 ..H.W.|$ Qj.W...
005BDA20 0C EB FF FF 5D 5B 8B C7 5F 5E 83 C4 08 C2 0C 00 ....][.._^......
005BDA30 8D 43 0C 50 57 FF 15 0C 44 8A 00 83 C4 08 84 C0 .C.PW...D.......
005BDA40 74 5B 8D 4C 24 24 89 5C 24 24 E8 71 7E 03 00 8B t[.L$$.\$$.q~...
005BDA50 6C 24 24 57 8D 55 0C 52 8B CE E8 71 7B E4 FF 84 l$$W.U.R...q{...
005BDA60 C0 74 3A 8B 45 08 80 78 2D 00 57 8B 7C 24 20 8B .t:.E..x-.W.|$ .
005BDA70 CE 74 15 55 6A 00 57 E8 B4 EA FF FF 5D 5B 8B C7 .t.Uj.W.....][..
005BDA80 5F 5E 83 C4 08 C2 0C 00 53 6A 01 57 E8 9F EA FF _^......Sj.W....
005BDA90 FF 5D 5B 8B C7 5F 5E 83 C4 08 C2 0C 00 8D 43 0C .][.._^.......C.
005BDAA0 57 50 FF 15 0C 44 8A 00 83 C4 08 84 C0 74 60 8D WP...D.......t`.
005BDAB0 4C 24 24 89 5C 24 24 E8 04 34 FF FF 8B 6C 24 24 L$$.\$$..4...l$$
005BDAC0 3B 6E 04 74 10 8D 4D 0C 51 57 8B CE E8 FF 7A E4 ;n.t..M.QW....z.
005BDAD0 FF 84 C0 74 3A 8B 53 08 80 7A 2D 00 57 8B 7C 24 ...t:.S..z-.W.|$
005BDAE0 20 8B CE 74 15 53 6A 00 57 E8 42 EA FF FF 5D 5B  ..t.Sj.W.B...][
005BDAF0 8B C7 5F 5E 83 C4 08 C2 0C 00 55 6A 01 57 E8 2D .._^......Uj.W.-
005BDB00 EA FF FF 5D 5B 8B C7 5F 5E 83 C4 08 C2 0C 00 57 ...][.._^......W
005BDB10 8D 44 24 14 50 8B CE E8 04 F3 FF FF 8B 08 8B 44 .D$.P..........D
005BDB20 24 1C 5D 5B 5F 89 08 5E 83 C4 08 C2 0C 00 CC CC $.][_..^........
005BDB30 53 8B 5C 24 10 56 8B 74 24 10 57 8B F9 8B 47 04 S.\$.V.t$.W...G.
005BDB40 3B 30 75 36 3B D8 75 32 8B 40 04 50 E8 CF F1 FF ;0u6;.u2.@.P....
005BDB50 FF 8B 47 04 89 40 04 8B 47 04 C7 47 08 00 00 00 ..G..@..G..G....
005BDB60 00 89 00 8B 47 04 89 40 08 8B 4F 04 8B 11 8B 44 ....G..@..O....D
005BDB70 24 10 5F 5E 89 10 5B C2 0C 00 3B F3 74 5A 8B FF $._^..[...;.tZ..
005BDB80 80 7E 2D 00 8B CE 75 3F 8B 46 08 80 78 2D 00 75 .~-...u?.F..x-.u
005BDB90 1B 8B F0 8B 06 80 78 2D 00 75 2C EB 03 8D 49 00 ......x-.u,...I.
005BDBA0 8B F0 8B 06 80 78 2D 00 74 F6 EB 1B 8B 46 04 80 .....x-.t....F..
005BDBB0 78 2D 00 75 10 3B 70 08 75 0B 8B F0 8B 40 04 80 x-.u.;p.u....@..
005BDBC0 78 2D 00 74 F0 8B F0 51 8D 44 24 18 50 8B CF E8 x-.t...Q.D$.P...
005BDBD0 CC ED FF FF 3B F3 75 A8 8B 44 24 10 5F 89 30 5E ....;.u..D$._.0^
005BDBE0 5B C2 0C 00 CC CC CC CC CC CC CC CC CC CC CC CC [...............
005BDBF0 55 8B EC 6A FF 68 A8 DD 85 00 64 A1 00 00 00 00 U..j.h....d.....
005BDC00 50 83 EC 40 A1 88 41 A1 00 33 C5 89 45 EC 53 56 P..@..A..3..E.SV
005BDC10 57 50 8D 45 F4 64 A3 00 00 00 00 89 65 F0 8B 7D WP.E.d......e..}
005BDC20 10 8B F1 57 8D 4D C4 89 75 BC FF 15 3C 43 8A 00 ...W.M..u...<C..
005BDC30 8B 47 1C 8B 4F 20 8A 57 24 89 45 E0 89 4D E4 88 .G..O .W$.E..M..
005BDC40 55 E8 8B 4E 04 33 FF 3B CF 89 7D FC 74 16 8B 56 U..N.3.;..}.t..V
005BDC50 0C 2B D1 B8 67 66 66 66 F7 EA C1 FA 04 8B FA C1 .+..gfff........
005BDC60 EF 1F 03 FA 8B 5D 0C 85 DB 0F 84 69 02 00 00 85 .....].....i....
005BDC70 C9 75 04 33 C0 EB 16 8B 56 08 2B D1 B8 67 66 66 .u.3....V.+..gff
005BDC80 66 F7 EA C1 FA 04 8B C2 C1 E8 1F 03 C2 BA 66 66 f.............ff
005BDC90 66 06 2B D0 3B D3 73 05 E8 13 AC FF FF 85 C9 75 f.+.;.s........u
005BDCA0 04 33 C0 EB 16 8B 56 08 2B D1 B8 67 66 66 66 F7 .3....V.+..gfff.
005BDCB0 EA C1 FA 04 8B C2 C1 E8 1F 03 C2 03 C3 3B F8 0F .............;..
005BDCC0 83 24 01 00 00 8B C7 D1 E8 BA 66 66 66 06 2B D0 .$........fff.+.
005BDCD0 3B D7 73 04 33 FF EB 02 03 F8 85 C9 75 04 33 C0 ;.s.3.......u.3.
005BDCE0 EB 16 8B 56 08 2B D1 B8 67 66 66 66 F7 EA C1 FA ...V.+..gfff....
005BDCF0 04 8B C2 C1 E8 1F 03 C2 03 C3 3B F8 73 0B 8B CE ..........;.s...
005BDD00 E8 5B 55 07 00 8B F8 03 FB 6A 00 57 E8 6F 97 F2 .[U......j.W.o..
005BDD10 FF 8B 4E 04 C6 45 C0 00 8B 55 C0 52 8B 55 C0 52 ..N..E...U.R.U.R
005BDD20 56 50 89 45 B4 89 45 B8 8B 45 08 50 51 C6 45 FC VP.E..E..E.PQ.E.
005BDD30 01 E8 3A BC FF FF 83 C4 20 8D 4D C4 51 53 50 8B ..:..... .M.QSP.
005BDD40 CE 89 45 B8 E8 F7 E5 FF FF 8B 4E 08 C6 45 C0 00 ..E.......N..E..
005BDD50 8B 55 C0 52 8B 55 C0 52 56 50 89 45 B8 8B 45 08 .U.R.U.RVP.E..E.
005BDD60 51 50 E8 09 BC FF FF 8B 4E 04 33 C0 83 C4 18 3B QP......N.3....;
005BDD70 C8 89 45 FC 74 16 8B 56 08 2B D1 B8 67 66 66 66 ..E.t..V.+..gfff
005BDD80 F7 EA C1 FA 04 8B C2 C1 E8 1F 03 C2 03 D8 85 C9 ................
005BDD90 74 18 8B 56 08 52 51 8B CE E8 A2 E3 F6 FF 8B 46 t..V.RQ........F
005BDDA0 04 50 E8 1F 72 0D 00 83 C4 04 8B 45 B4 8D 0C BF .P..r......E....
005BDDB0 8D 14 C8 8D 0C 9B 89 56 0C 8D 14 C8 89 56 08 89 .......V.....V..
005BDDC0 46 04 E9 11 01 00 00 8B 45 B8 8B 75 B4 8B 4D BC F.......E..u..M.
005BDDD0 50 56 E8 69 E3 F6 FF 56 E8 E9 71 0D 00 83 C4 04 PV.i...V..q.....
005BDDE0 6A 00 6A 00 E8 E3 71 0D 00 8B 4E 08 8B 7D 08 8B j.j...q...N..}..
005BDDF0 D1 2B D7 B8 67 66 66 66 F7 EA C1 FA 04 8B C2 C1 .+..gfff........
005BDE00 E8 1F 03 C2 3B C3 89 4D C0 0F 83 8E 00 00 00 8D ....;..M........
005BDE10 04 9B 03 C0 03 C0 03 C0 89 45 C0 03 C7 50 51 57 .........E...PQW
005BDE20 8B CE E8 19 F7 FF FF 8B 4E 08 8D 55 C4 52 8B D1 ........N..U.R..
005BDE30 2B D7 B8 67 66 66 66 F7 EA C1 FA 04 8B C2 C1 E8 +..gfff.........
005BDE40 1F 03 C2 2B D8 53 51 8B CE C6 45 FC 03 E8 EE E4 ...+.SQ...E.....
005BDE50 FF FF 8B 45 C0 01 46 08 8B 76 08 8D 4D C4 51 2B ...E..F..v..M.Q+
005BDE60 F0 56 57 C7 45 FC 00 00 00 00 E8 A1 B6 FF FF 83 .VW.E...........
005BDE70 C4 0C EB 64 8B 45 0C 8B 4D BC 8B 51 08 8D 04 80 ...d.E..M..Q....
005BDE80 03 C0 03 C0 03 C0 03 D0 52 8B 55 08 03 C2 50 E8 ........R.U...P.
005BDE90 AC E2 F6 FF 6A 00 6A 00 E8 2F 71 0D 00 8D 1C 9B ....j.j../q.....
005BDEA0 03 DB 51 03 DB 8B C1 03 DB 2B C3 51 50 8B CE 89 ..Q......+.QP...
005BDEB0 45 BC E8 89 F6 FF FF 8B 4D BC 89 46 08 8B 45 C0 E.......M..F..E.
005BDEC0 50 51 57 E8 78 BA FF FF 8D 55 C4 52 03 DF 53 57 PQW.x....U.R..SW
005BDED0 E8 3B B6 FF FF 83 C4 18 8D 4D C4 C7 45 FC FF FF .;.......M..E...
005BDEE0 FF FF FF 15 38 43 8A 00 8B 4D F4 64 89 0D 00 00 ....8C...M.d....
005BDEF0 00 00 59 5F 5E 5B 8B 4D EC 33 CD E8 8E 6C 0D 00 ..Y_^[.M.3...l..
005BDF00 8B E5 5D C2 0C 00 CC CC CC CC CC CC CC CC CC CC ..].............
005BDF10 51 56 8B F1 8B 46 04 8B 08 50 51 8D 44 24 0C 50 QV...F...PQ.D$.P
005BDF20 8B CE E8 F9 E7 FF FF 8B 4E 04 51 E8 96 70 0D 00 ........N.Q..p..
005BDF30 83 C4 04 33 C0 89 46 04 89 46 08 5E 59 C3 CC CC ...3..F..F.^Y...
005BDF40 6A FF 68 18 DE 85 00 64 A1 00 00 00 00 50 81 EC j.h....d.....P..
005BDF50 90 00 00 00 A1 88 41 A1 00 33 C4 89 84 24 8C 00 ......A..3...$..
005BDF60 00 00 53 56 57 A1 88 41 A1 00 33 C4 50 8D 84 24 ..SVW..A..3.P..$
005BDF70 A0 00 00 00 64 A3 00 00 00 00 8B 84 24 B0 00 00 ....d.......$...
005BDF80 00 8B F9 50 8D 4C 24 68 FF 15 3C 43 8A 00 8D 4C ...P.L$h..<C...L
005BDF90 24 64 C7 84 24 A8 00 00 00 00 00 00 00 FF 15 44 $d..$..........D
005BDFA0 43 8A 00 85 C0 0F 84 26 02 00 00 B3 02 8D 49 00 C......&......I.
005BDFB0 6A 00 68 E0 6B 8A 00 8D 4C 24 6C FF 15 28 43 8A j.h.k...L$l..(C.
005BDFC0 00 8B 0D 4C 43 8A 00 3B 01 74 38 8B 09 51 50 8D ...LC..;.t8..QP.
005BDFD0 54 24 18 52 8D 4C 24 70 FF 15 40 43 8A 00 50 8D T$.R.L$p..@C..P.
005BDFE0 4C 24 68 C6 84 24 AC 00 00 00 01 FF 15 58 43 8A L$h..$.......XC.
005BDFF0 00 8D 4C 24 10 C6 84 24 A8 00 00 00 00 FF 15 38 ..L$...$.......8
005BE000 43 8A 00 6A 00 68 E0 6B 8A 00 8D 4C 24 6C FF 15 C..j.h.k...L$l..
005BE010 60 43 8A 00 8D 8C 24 80 00 00 00 8B F0 FF 15 B0 `C....$.........
005BE020 43 8A 00 A1 4C 43 8A 00 3B 30 88 9C 24 A8 00 00 C...LC..;0..$...
005BE030 00 74 7B 56 6A 00 8D 4C 24 18 51 8D 4C 24 70 FF .t{Vj..L$.Q.L$p.
005BE040 15 40 43 8A 00 50 8D 8C 24 84 00 00 00 C6 84 24 .@C..P..$......$
005BE050 AC 00 00 00 03 FF 15 58 43 8A 00 8D 4C 24 10 88 .......XC...L$..
005BE060 9C 24 A8 00 00 00 FF 15 38 43 8A 00 8B 15 4C 43 .$......8C....LC
005BE070 8A 00 8B 02 50 83 C6 01 56 8D 4C 24 18 51 8D 4C ....P...V.L$.Q.L
005BE080 24 70 FF 15 40 43 8A 00 50 8D 4C 24 68 C6 84 24 $p..@C..P.L$h..$
005BE090 AC 00 00 00 04 FF 15 58 43 8A 00 8D 4C 24 10 88 .......XC...L$..
005BE0A0 9C 24 A8 00 00 00 FF 15 38 43 8A 00 EB 21 8D 54 .$......8C...!.T
005BE0B0 24 64 52 8D 8C 24 84 00 00 00 FF 15 58 43 8A 00 $dR..$......XC..
005BE0C0 68 8F 69 8A 00 8D 4C 24 68 FF 15 E0 43 8A 00 6A h.i...L$h...C..j
005BE0D0 00 68 5C 69 8A 00 8D 8C 24 88 00 00 00 FF 15 28 .h\i....$......(
005BE0E0 43 8A 00 8B F0 A1 4C 43 8A 00 8B 08 51 68 5C 69 C.....LC....Qh\i
005BE0F0 8A 00 8D 8C 24 88 00 00 00 FF 15 D8 43 8A 00 8B ....$.......C...
005BE100 15 4C 43 8A 00 8B 0A 3B F1 0F 84 9B 00 00 00 3B .LC....;.......;
005BE110 C1 0F 84 93 00 00 00 2B C6 83 C0 01 50 56 8D 44 .......+....PV.D
005BE120 24 34 50 8D 8C 24 8C 00 00 00 FF 15 40 43 8A 00 $4P..$......@C..
005BE130 50 8D 4C 24 4C 51 C6 84 24 B0 00 00 00 05 E8 DD P.L$LQ..$.......
005BE140 4B E4 FF 83 C4 08 50 8D 8C 24 84 00 00 00 C6 84 K.....P..$......
005BE150 24 AC 00 00 00 06 FF 15 58 43 8A 00 8D 4C 24 48 $.......XC...L$H
005BE160 C6 84 24 A8 00 00 00 05 FF 15 38 43 8A 00 8D 4C ..$.......8C...L
005BE170 24 2C 88 9C 24 A8 00 00 00 FF 15 38 43 8A 00 8D $,..$......8C...
005BE180 8C 24 80 00 00 00 FF 15 54 43 8A 00 50 68 E0 3C .$......TC..Ph.<
005BE190 8C 00 E8 E9 2A F6 FF 83 C4 08 8D 94 24 80 00 00 ....*.......$...
005BE1A0 00 52 8D 4F 10 E8 26 5D E4 FF 8D 8C 24 80 00 00 .R.O..&]....$...
005BE1B0 00 C6 84 24 A8 00 00 00 00 FF 15 38 43 8A 00 8D ...$.......8C...
005BE1C0 4C 24 64 FF 15 44 43 8A 00 85 C0 0F 85 DF FD FF L$d..DC.........
005BE1D0 FF 8D 4C 24 64 C7 84 24 A8 00 00 00 FF FF FF FF ..L$d..$........
005BE1E0 FF 15 38 43 8A 00 8B 8C 24 A0 00 00 00 64 89 0D ..8C....$....d..
005BE1F0 00 00 00 00 59 5F 5E 5B 8B 8C 24 8C 00 00 00 33 ....Y_^[..$....3
005BE200 CC E8 88 69 0D 00 81 C4 9C 00 00 00 C2 04 00 CC ...i............
005BE210 56 57 8B F9 8B 47 60 6A FF 50 FF 15 F4 40 8A 00 VW...G`j.P...@..
005BE220 8D 4F 50 C6 47 64 01 8B 51 04 85 D2 75 04 33 F6 .OP.Gd..Q...u.3.
005BE230 EB 08 8B 71 08 2B F2 C1 FE 02 85 D2 74 1D 8B 41 ...q.+......t..A
005BE240 0C 2B C2 C1 F8 02 3B F0 73 11 8B 41 08 8B 54 24 .+....;.s..A..T$
005BE250 0C 89 10 83 C0 04 89 41 08 EB 10 8B 41 08 8D 54 .......A....A..T
005BE260 24 0C 52 6A 01 50 E8 75 E5 FF FF 8B 47 60 C6 47 $.Rj.P.u....G`.G
005BE270 64 00 5F 5E 89 44 24 04 FF 25 F0 40 8A 00 CC CC d._^.D$..%.@....
005BE280 56 8B F1 E8 F8 F5 FF FF F6 44 24 08 01 74 09 56 V........D$..t.V
005BE290 E8 31 6D 0D 00 83 C4 04 8B C6 5E C2 04 00 CC CC .1m.......^.....
005BE2A0 8B 44 24 08 56 8B F1 8B 4C 24 08 50 51 8B CE E8 .D$.V...L$.PQ...
005BE2B0 9C C5 01 00 8B 54 24 10 52 8D 4E 6C E8 0F 5C E4 .....T$.R.Nl..\.
005BE2C0 FF 5E C2 0C 00 CC CC CC CC CC CC CC CC CC CC CC .^..............
005BE2D0 6A FF 68 60 DE 85 00 64 A1 00 00 00 00 50 83 EC j.h`...d.....P..
005BE2E0 24 53 55 56 57 A1 88 41 A1 00 33 C4 50 8D 44 24 $SUVW..A..3.P.D$
005BE2F0 38 64 A3 00 00 00 00 8B F1 8B 6C 24 48 55 E8 8D 8d........l$HU..
005BE300 2C FF FF 8B F8 3B 7E 04 74 12 8D 47 0C 50 55 FF ,....;~.t..G.PU.
005BE310 15 0C 44 8A 00 83 C4 08 84 C0 74 44 33 DB 89 5C ..D.......tD3..\
005BE320 24 48 55 8D 4C 24 1C 89 5C 24 44 FF 15 3C 43 8A $HU.L$..\$D..<C.
005BE330 00 89 5C 24 34 8D 4C 24 18 51 57 8D 54 24 1C 52 ..\$4.L$.QW.T$.R
005BE340 8B CE C6 44 24 4C 01 E8 34 F6 FF FF 8B 30 8D 4C ...D$L..4....0.L
005BE350 24 18 88 5C 24 40 E8 45 B3 FF FF 8D 46 28 EB 03 $..\$@.E....F(..
005BE360 8D 47 28 8B 4C 24 38 64 89 0D 00 00 00 00 59 5F .G(.L$8d......Y_
005BE370 5E 5D 5B 83 C4 30 C2 04 00 CC CC CC CC CC CC CC ^][..0..........
005BE380 51 56 8B F1 8B 56 04 85 D2 75 04 33 C9 EB 08 8B QV...V...u.3....
005BE390 4E 08 2B CA C1 F9 03 85 D2 74 3C 8B 46 0C 2B C2 N.+......t<.F.+.
005BE3A0 C1 F8 03 3B C8 73 30 8B 4C 24 0C 8B 54 24 0C 57 ...;.s0.L$..T$.W
005BE3B0 8B 7E 08 C6 44 24 08 00 8B 44 24 08 50 51 56 52 .~..D$...D$.PQVR
005BE3C0 6A 01 57 E8 A8 49 20 00 83 C4 18 83 C7 08 89 7E j.W..I ........~
005BE3D0 08 5F 5E 59 C2 04 00 8B 4C 24 0C 8B 46 08 51 6A ._^Y....L$..F.Qj
005BE3E0 01 50 8B CE E8 17 EB FF FF 5E 59 C2 04 00 CC CC .P.......^Y.....
005BE3F0 51 56 8B F1 8B 56 04 85 D2 75 04 33 C9 EB 08 8B QV...V...u.3....
005BE400 4E 08 2B CA C1 F9 03 85 D2 74 3C 8B 46 0C 2B C2 N.+......t<.F.+.
005BE410 C1 F8 03 3B C8 73 30 8B 4C 24 0C 8B 54 24 0C 57 ...;.s0.L$..T$.W
005BE420 8B 7E 08 C6 44 24 08 00 8B 44 24 08 50 51 56 52 .~..D$...D$.PQVR
005BE430 6A 01 57 E8 38 49 20 00 83 C4 18 83 C7 08 89 7E j.W.8I ........~
005BE440 08 5F 5E 59 C2 04 00 8B 4C 24 0C 8B 46 08 51 6A ._^Y....L$..F.Qj
005BE450 01 50 8B CE E8 07 ED FF FF 5E 59 C2 04 00 CC CC .P.......^Y.....
005BE460 53 8B 5C 24 0C 56 57 8B F9 8B 77 04 85 F6 74 18 S.\$.VW...w...t.
005BE470 8B 4F 08 2B CE B8 67 66 66 66 F7 E9 C1 FA 04 8B .O.+..gfff......
005BE480 C2 C1 E8 1F 03 C2 75 04 33 F6 EB 15 8B CB 2B CE ......u.3.....+.
005BE490 B8 67 66 66 66 F7 E9 C1 FA 04 8B F2 C1 EE 1F 03 .gfff...........
005BE4A0 F2 8B 4C 24 18 51 6A 01 53 8B CF E8 40 F7 FF FF ..L$.Qj.S...@...
005BE4B0 8B 47 04 8D 14 B6 5F 8D 0C D0 8B 44 24 0C 5E 89 .G...._....D$.^.
005BE4C0 08 5B C2 0C 00 CC CC CC CC CC CC CC CC CC CC CC .[..............
005BE4D0 51 56 8B F1 8B 46 04 8B 08 50 51 8D 44 24 0C 50 QV...F...PQ.D$.P
005BE4E0 8B CE E8 D9 EE FF FF 8B 4E 04 51 E8 D6 6A 0D 00 ........N.Q..j..
005BE4F0 83 C4 04 33 C0 89 46 04 89 46 08 5E 59 C3 CC CC ...3..F..F.^Y...
005BE500 6A FF 68 E1 DE 85 00 64 A1 00 00 00 00 50 83 EC j.h....d.....P..
005BE510 08 53 55 56 57 A1 88 41 A1 00 33 C4 50 8D 44 24 .SUVW..A..3.P.D$
005BE520 1C 64 A3 00 00 00 00 8B F1 89 74 24 14 C7 06 8C .d........t$....
005BE530 3D 8C 00 8B 46 0C 33 DB 3B C3 C7 44 24 24 08 00 =...F.3.;..D$$..
005BE540 00 00 74 75 68 38 3D 8C 00 E8 32 27 F6 FF 8B 46 ..tuh8=...2'...F
005BE550 08 8B 38 83 C4 04 3B F8 74 5F 8D 9B 00 00 00 00 ..8...;.t_......
005BE560 8D 4F 0C FF 15 54 43 8A 00 50 68 1C 3D 8C 00 E8 .O...TC..Ph.=...
005BE570 0C 27 F6 FF 83 C4 08 38 5F 2D 75 38 8B 47 08 38 .'.....8_-u8.G.8
005BE580 58 2D 75 17 8B F8 8B 07 38 58 2D 75 27 8D 49 00 X-u.....8X-u'.I.
005BE590 8B F8 8B 07 38 58 2D 74 F7 EB 19 8B 47 04 38 58 ....8X-t....G.8X
005BE5A0 2D 75 0F 3B 78 08 75 0A 8B F8 8B 40 04 38 58 2D -u.;x.u....@.8X-
005BE5B0 74 F1 8B F8 3B 7E 08 75 A7 8B 4E 68 3B CB C6 44 t...;~.u..Nh;..D
005BE5C0 24 24 07 74 0E 83 41 04 FF 75 08 8B 01 8B 10 6A $$.t..A..u.....j
005BE5D0 01 FF D2 8B 2D F8 40 8A 00 89 5E 68 8B 46 60 50 ....-.@...^h.F`P
005BE5E0 FF D5 8B 46 54 3B C3 74 09 50 E8 D7 69 0D 00 83 ...FT;.t.P..i...
005BE5F0 C4 04 8D 4E 34 89 5E 54 89 5E 58 89 5E 5C C6 44 ...N4.^T.^X.^\.D
005BE600 24 24 04 FF 15 38 43 8A 00 8B 46 2C 8B 08 8D 7E $$...8C...F,...~
005BE610 28 50 51 8D 4C 24 20 51 8B CF C6 44 24 30 03 E8 (PQ.L$ Q...D$0..
005BE620 9C ED FF FF 8B 47 04 50 E8 99 69 0D 00 89 5F 04 .....G.P..i..._.
005BE630 89 5F 08 8B 56 20 83 C4 04 52 FF D5 8D 4E 10 C6 ._..V ...R...N..
005BE640 44 24 24 01 E8 B7 52 E4 FF 8B 46 08 8B 08 8D 7E D$$...R...F....~
005BE650 04 50 51 8D 44 24 20 50 8B CF 88 5C 24 30 E8 BD .PQ.D$ P...\$0..
005BE660 E0 FF FF 8B 47 04 50 E8 5A 69 0D 00 83 C4 04 8B ....G.P.Zi......
005BE670 CE 89 5F 04 89 5F 08 C7 44 24 24 FF FF FF FF E8 .._.._..D$$.....
005BE680 9C 7D FF FF 8B 4C 24 1C 64 89 0D 00 00 00 00 59 .}...L$.d......Y
005BE690 5F 5E 5D 5B 83 C4 14 C3 CC CC CC CC CC CC CC CC _^][............
005BE6A0 51 56 8B F1 57 8B 7E 04 85 FF 75 04 33 C9 EB 16 QV..W.~...u.3...
005BE6B0 8B 4E 08 2B CF B8 67 66 66 66 F7 E9 C1 FA 04 8B .N.+..gfff......
005BE6C0 CA C1 E9 1F 03 CA 85 FF 74 49 8B 56 0C 2B D7 B8 ........tI.V.+..
005BE6D0 67 66 66 66 F7 EA C1 FA 04 8B C2 C1 E8 1F 03 C2 gfff............
005BE6E0 3B C8 73 2F 8B 4C 24 10 8B 54 24 10 8B 7E 08 C6 ;.s/.L$..T$..~..
005BE6F0 44 24 08 00 8B 44 24 08 50 51 56 52 6A 01 57 E8 D$...D$.PQVRj.W.
005BE700 3C C0 FF FF 83 C4 18 83 C7 28 89 7E 08 5F 5E 59 <........(.~._^Y
005BE710 C2 04 00 8B 4C 24 10 8B 46 08 51 50 8D 54 24 18 ....L$..F.QP.T$.
005BE720 52 8B CE E8 38 FD FF FF 5F 5E 59 C2 04 00 CC CC R...8..._^Y.....
005BE730 55 8B EC 6A FF 68 08 DF 85 00 64 A1 00 00 00 00 U..j.h....d.....
005BE740 50 83 EC 18 53 56 57 A1 88 41 A1 00 33 C5 50 8D P...SVW..A..3.P.
005BE750 45 F4 64 A3 00 00 00 00 89 65 F0 8B F1 89 75 E4 E.d......e....u.
005BE760 8B 45 10 8B 00 85 C0 89 45 EC 74 04 83 40 04 01 .E......E.t..@..
005BE770 8B 4E 04 85 C9 C7 45 FC 00 00 00 00 75 04 33 FF .N....E.....u.3.
005BE780 EB 08 8B 7E 0C 2B F9 C1 FF 02 8B 55 0C 85 D2 89 ...~.+.....U....
005BE790 7D 10 0F 84 2B 02 00 00 85 C9 75 04 33 C0 EB 08 }...+.....u.3...
005BE7A0 8B 46 08 2B C1 C1 F8 02 BB FF FF FF 3F 2B D8 3B .F.+........?+.;
005BE7B0 DA 73 05 E8 58 A3 FF FF 85 C9 75 04 33 C0 EB 08 .s..X.....u.3...
005BE7C0 8B 46 08 2B C1 C1 F8 02 03 C2 3B F8 0F 83 25 01 .F.+......;...%.
005BE7D0 00 00 8B C7 D1 E8 BF FF FF FF 3F 2B F8 3B 7D 10 ..........?+.;}.
005BE7E0 73 09 C7 45 10 00 00 00 00 EB 03 01 45 10 85 C9 s..E........E...
005BE7F0 75 04 33 C0 EB 08 8B 46 08 2B C1 C1 F8 02 03 C2 u.3....F.+......
005BE800 39 45 10 73 15 85 C9 75 04 33 C0 EB 08 8B 46 08 9E.s...u.3....F.
005BE810 2B C1 C1 F8 02 03 C2 89 45 10 8B 4D 10 6A 00 51 +.......E..M.j.Q
005BE820 E8 5B 3C 1F 00 8B 4D 0C 8B 5D 08 C6 45 E0 00 8B .[<...M..]..E...
005BE830 55 E0 52 51 8B F8 8B 46 04 56 57 53 50 89 7D DC U.RQ...F.VWSP.}.
005BE840 89 7D E8 C6 45 FC 01 E8 A4 D6 F9 FF 8B 4D 0C 83 .}..E........M..
005BE850 C4 20 8D 55 EC 52 51 50 8B CE 89 45 E8 E8 3E 58 . .U.RQP...E..>X
005BE860 00 00 8B 4E 08 C6 45 08 00 8B 55 08 52 8B 55 0C ...N..E...U.R.U.
005BE870 52 56 50 51 53 89 45 E8 E8 73 D6 F9 FF 8B 4E 04 RVPQS.E..s....N.
005BE880 83 C4 18 85 C9 C7 45 FC 00 00 00 00 75 04 33 C0 ......E.....u.3.
005BE890 EB 08 8B 46 08 2B C1 C1 F8 02 8B 5D 0C 03 D8 85 ...F.+.....]....
005BE8A0 C9 74 1B 8B 55 0C 8B 46 08 52 56 50 51 E8 CE B3 .t..U..F.RVPQ...
005BE8B0 E4 FF 8B 46 04 50 E8 0B 67 0D 00 83 C4 14 8B 45 ...F.P..g......E
005BE8C0 10 8D 0C 87 8D 14 9F 89 4E 0C 89 56 08 89 7E 04 ........N..V..~.
005BE8D0 E9 EB 00 00 00 8B 45 E8 8B 75 DC 8B 4D E4 50 56 ......E..u..M.PV
005BE8E0 E8 1B 60 FD FF 56 E8 DB 66 0D 00 83 C4 04 6A 00 ..`..V..f.....j.
005BE8F0 6A 00 E8 D5 66 0D 00 8B 5E 08 8B 7D 08 8B CB 2B j...f...^..}...+
005BE900 CF C1 F9 02 3B CA 73 7C 8D 04 95 00 00 00 00 89 ....;.s|........
005BE910 45 10 03 C7 50 53 57 8B CE E8 82 3B F3 FF 8B 46 E...PSW....;...F
005BE920 08 8B 4D 0C 8D 55 EC 52 8B D0 2B D7 C1 FA 02 2B ..M..U.R..+....+
005BE930 CA 51 50 8B CE C6 45 FC 03 E8 62 57 00 00 8B 45 .QP...E...bW...E
005BE940 10 01 46 08 8B 76 08 2B F0 8D 45 EC 50 56 57 C7 ..F..v.+..E.PVW.
005BE950 45 FC 00 00 00 00 E8 E5 B3 FB FF 83 C4 0C EB 60 E..............`
005BE960 8B 45 0C 8B 4D E4 8B 51 08 03 C0 03 C0 03 D0 52 .E..M..Q.......R
005BE970 8B 55 08 03 C2 50 E8 85 5F FD FF 6A 00 6A 00 E8 .U...P.._..j.j..
005BE980 48 66 0D 00 8D 0C 95 00 00 00 00 53 8B C3 2B C1 Hf.........S..+.
005BE990 53 89 4D 10 50 8B CE 89 45 0C E8 01 3B F3 FF 89 S.M.P...E...;...
005BE9A0 46 08 8B 45 0C 53 50 57 E8 E3 48 00 00 8B 55 10 F..E.SPW..H...U.
005BE9B0 8D 4D EC 51 03 D7 52 57 E8 83 B3 FB FF 83 C4 18 .M.Q..RW........
005BE9C0 8B 45 EC 83 C9 FF 85 C0 89 4D FC 74 0F 01 48 04 .E.......M.t..H.
005BE9D0 75 0A 8B 10 8B C8 8B 02 6A 01 FF D0 8B 4D F4 64 u.......j....M.d
005BE9E0 89 0D 00 00 00 00 59 5F 5E 5B 8B E5 5D C2 0C 00 ......Y_^[..]...
005BE9F0 55 8B EC 6A FF 68 38 DF 85 00 64 A1 00 00 00 00 U..j.h8...d.....
005BEA00 50 83 EC 18 53 56 57 A1 88 41 A1 00 33 C5 50 8D P...SVW..A..3.P.
005BEA10 45 F4 64 A3 00 00 00 00 89 65 F0 8B F1 89 75 E4 E.d......e....u.
005BEA20 8B 45 10 8B 00 85 C0 89 45 EC 74 04 83 40 04 01 .E......E.t..@..
005BEA30 8B 4E 04 85 C9 C7 45 FC 00 00 00 00 75 04 33 FF .N....E.....u.3.
005BEA40 EB 08 8B 7E 0C 2B F9 C1 FF 02 8B 55 0C 85 D2 89 ...~.+.....U....
005BEA50 7D 10 0F 84 2B 02 00 00 85 C9 75 04 33 C0 EB 08 }...+.....u.3...
005BEA60 8B 46 08 2B C1 C1 F8 02 BB FF FF FF 3F 2B D8 3B .F.+........?+.;
005BEA70 DA 73 05 E8 D8 9F FF FF 85 C9 75 04 33 C0 EB 08 .s........u.3...
005BEA80 8B 46 08 2B C1 C1 F8 02 03 C2 3B F8 0F 83 25 01 .F.+......;...%.
005BEA90 00 00 8B C7 D1 E8 BF FF FF FF 3F 2B F8 3B 7D 10 ..........?+.;}.
005BEAA0 73 09 C7 45 10 00 00 00 00 EB 03 01 45 10 85 C9 s..E........E...
005BEAB0 75 04 33 C0 EB 08 8B 46 08 2B C1 C1 F8 02 03 C2 u.3....F.+......
005BEAC0 39 45 10 73 15 85 C9 75 04 33 C0 EB 08 8B 46 08 9E.s...u.3....F.
005BEAD0 2B C1 C1 F8 02 03 C2 89 45 10 8B 4D 10 6A 00 51 +.......E..M.j.Q
005BEAE0 E8 9B 39 1F 00 8B 4D 0C 8B 5D 08 C6 45 E0 00 8B ..9...M..]..E...
005BEAF0 55 E0 52 51 8B F8 8B 46 04 56 57 53 50 89 7D DC U.RQ...F.VWSP.}.
005BEB00 89 7D E8 C6 45 FC 01 E8 E4 D3 F9 FF 8B 4D 0C 83 .}..E........M..
005BEB10 C4 20 8D 55 EC 52 51 50 8B CE 89 45 E8 E8 7E 55 . .U.RQP...E..~U
005BEB20 00 00 8B 4E 08 C6 45 08 00 8B 55 08 52 8B 55 0C ...N..E...U.R.U.
005BEB30 52 56 50 51 53 89 45 E8 E8 B3 D3 F9 FF 8B 4E 04 RVPQS.E.......N.
005BEB40 83 C4 18 85 C9 C7 45 FC 00 00 00 00 75 04 33 C0 ......E.....u.3.
005BEB50 EB 08 8B 46 08 2B C1 C1 F8 02 8B 5D 0C 03 D8 85 ...F.+.....]....
005BEB60 C9 74 1B 8B 55 0C 8B 46 08 52 56 50 51 E8 0E B1 .t..U..F.RVPQ...
005BEB70 E4 FF 8B 46 04 50 E8 4B 64 0D 00 83 C4 14 8B 45 ...F.P.Kd......E
005BEB80 10 8D 0C 87 8D 14 9F 89 4E 0C 89 56 08 89 7E 04 ........N..V..~.
005BEB90 E9 EB 00 00 00 8B 45 E8 8B 75 DC 8B 4D E4 50 56 ......E..u..M.PV
005BEBA0 E8 5B 5D FD FF 56 E8 1B 64 0D 00 83 C4 04 6A 00 .[]..V..d.....j.
005BEBB0 6A 00 E8 15 64 0D 00 8B 5E 08 8B 7D 08 8B CB 2B j...d...^..}...+
005BEBC0 CF C1 F9 02 3B CA 73 7C 8D 04 95 00 00 00 00 89 ....;.s|........
005BEBD0 45 10 03 C7 50 53 57 8B CE E8 C2 38 F3 FF 8B 46 E...PSW....8...F
005BEBE0 08 8B 4D 0C 8D 55 EC 52 8B D0 2B D7 C1 FA 02 2B ..M..U.R..+....+
005BEBF0 CA 51 50 8B CE C6 45 FC 03 E8 A2 54 00 00 8B 45 .QP...E....T...E
005BEC00 10 01 46 08 8B 76 08 2B F0 8D 45 EC 50 56 57 C7 ..F..v.+..E.PVW.
005BEC10 45 FC 00 00 00 00 E8 25 B1 FB FF 83 C4 0C EB 60 E......%.......`
005BEC20 8B 45 0C 8B 4D E4 8B 51 08 03 C0 03 C0 03 D0 52 .E..M..Q.......R
005BEC30 8B 55 08 03 C2 50 E8 C5 5C FD FF 6A 00 6A 00 E8 .U...P..\..j.j..
005BEC40 88 63 0D 00 8D 0C 95 00 00 00 00 53 8B C3 2B C1 .c.........S..+.
005BEC50 53 89 4D 10 50 8B CE 89 45 0C E8 41 38 F3 FF 89 S.M.P...E..A8...
005BEC60 46 08 8B 45 0C 53 50 57 E8 23 46 00 00 8B 55 10 F..E.SPW.#F...U.
005BEC70 8D 4D EC 51 03 D7 52 57 E8 C3 B0 FB FF 83 C4 18 .M.Q..RW........
005BEC80 8B 45 EC 83 C9 FF 85 C0 89 4D FC 74 0F 01 48 04 .E.......M.t..H.
005BEC90 75 0A 8B 10 8B C8 8B 02 6A 01 FF D0 8B 4D F4 64 u.......j....M.d
005BECA0 89 0D 00 00 00 00 59 5F 5E 5B 8B E5 5D C2 0C 00 ......Y_^[..]...
005BECB0 51 56 8B F1 8B 46 04 8B 08 50 51 8D 44 24 0C 50 QV...F...PQ.D$.P
005BECC0 8B CE E8 69 EE FF FF 8B 4E 04 51 E8 F6 62 0D 00 ...i....N.Q..b..
005BECD0 83 C4 04 33 C0 89 46 04 89 46 08 5E 59 C3 CC CC ...3..F..F.^Y...
005BECE0 6A FF 68 B7 DF 85 00 64 A1 00 00 00 00 50 83 EC j.h....d.....P..
005BECF0 08 53 56 57 A1 88 41 A1 00 33 C4 50 8D 44 24 18 .SVW..A..3.P.D$.
005BED00 64 A3 00 00 00 00 8B F1 89 74 24 10 C7 06 9C 3D d........t$....=
005BED10 8C 00 8B 0D 34 32 A6 00 33 DB 3B CB C7 44 24 20 ....42..3.;..D$ 
005BED20 07 00 00 00 74 06 56 E8 74 D3 FF FF 8B 4E 74 3B ....t.V.t....Nt;
005BED30 CB C6 44 24 20 06 74 0E 83 41 04 FF 75 08 8B 01 ..D$ .t..A..u...
005BED40 8B 10 6A 01 FF D2 8D 4E 58 89 5E 74 C6 44 24 20 ..j....NX.^t.D$ 
005BED50 05 FF 15 38 43 8A 00 8D 4E 48 C6 44 24 20 04 E8 ...8C...NH.D$ ..
005BED60 6C E0 FF FF 8D 4E 2C C6 44 24 20 03 FF 15 38 43 l....N,.D$ ...8C
005BED70 8A 00 8B 46 20 3B C3 74 09 50 E8 47 62 0D 00 83 ...F ;.t.P.Gb...
005BED80 C4 04 89 5E 20 89 5E 24 89 5E 28 8B 46 14 8B 08 ...^ .^$.^(.F...
005BED90 8D 7E 10 50 51 8D 44 24 1C 50 8B CF C6 44 24 2C .~.PQ.D$.P...D$,
005BEDA0 01 E8 8A ED FF FF 8B 47 04 50 E8 17 62 0D 00 89 .......G.P..b...
005BEDB0 5F 04 89 5F 08 8B 46 0C 83 C4 04 3B C3 88 5C 24 _.._..F....;..\$
005BEDC0 20 C7 46 08 50 3C 8B 00 74 08 8B 08 8B 51 08 50  .F.P<..t....Q.P
005BEDD0 FF D2 89 5E 0C C7 06 78 6D 8A 00 8B 4C 24 18 64 ...^...xm...L$.d
005BEDE0 89 0D 00 00 00 00 59 5F 5E 5B 83 C4 14 C3 CC CC ......Y_^[......
005BEDF0 6A FF 68 F6 DF 85 00 64 A1 00 00 00 00 50 51 53 j.h....d.....PQS
005BEE00 56 57 A1 88 41 A1 00 33 C4 50 8D 44 24 14 64 A3 VW..A..3.P.D$.d.
005BEE10 00 00 00 00 8B F1 89 74 24 10 33 DB C7 06 A0 3D .......t$.3....=
005BEE20 8C 00 89 5E 08 89 5E 0C 89 5E 10 8D 7E 14 8B CF ...^..^..^..~...
005BEE30 89 5C 24 1C E8 57 D0 E5 FF 89 47 04 89 5F 08 8D .\$..W....G.._..
005BEE40 4E 20 C6 44 24 1C 01 FF 15 B0 43 8A 00 8B C6 8B N .D$.....C.....
005BEE50 4C 24 14 64 89 0D 00 00 00 00 59 5F 5E 5B 83 C4 L$.d......Y_^[..
005BEE60 10 C3 CC CC CC CC CC CC CC CC CC CC CC CC CC CC ................
005BEE70 53 8B 5C 24 0C 57 8B 7C 24 0C 3B FB 74 40 56 8B S.\$.W.|$.;.t@V.
005BEE80 74 24 18 8B 07 89 06 8B 47 04 8B 4E 04 3B C8 74 t$......G..N.;.t
005BEE90 1D 85 C0 89 46 04 74 04 83 40 04 01 85 C9 74 0E ....F.t..@....t.
005BEEA0 83 41 04 FF 75 08 8B 11 8B 02 6A 01 FF D0 83 C7 .A..u.....j.....
005BEEB0 08 83 C6 08 3B FB 75 CB 8B C6 5E 5F 5B C3 8B 44 ....;.u...^_[..D
005BEEC0 24 14 5F 5B C3 CC CC CC CC CC CC CC CC CC CC CC $._[............
005BEED0 6A FF 68 39 E0 85 00 64 A1 00 00 00 00 50 51 56 j.h9...d.....PQV
005BEEE0 A1 88 41 A1 00 33 C4 50 8D 44 24 0C 64 A3 00 00 ..A..3.P.D$.d...
005BEEF0 00 00 8B 4C 24 20 33 C0 89 44 24 08 8B 74 24 1C ...L$ 3..D$..t$.
005BEF00 89 0E 8B 4C 24 24 3B C8 89 4E 04 BA 01 00 00 00 ...L$$;..N......
005BEF10 74 03 01 51 04 3B C8 89 44 24 14 89 54 24 08 74 t..Q.;..D$..T$.t
005BEF20 0D 83 41 04 FF 75 07 8B 01 52 8B 10 FF D2 8B C6 ..A..u...R......
005BEF30 8B 4C 24 0C 64 89 0D 00 00 00 00 59 5E 83 C4 10 .L$.d......Y^...
005BEF40 C3 CC CC CC CC CC CC CC CC CC CC CC CC CC CC CC ................
005BEF50 51 8B 4C 24 10 8B 54 24 10 C6 04 24 00 8B 04 24 Q.L$..T$...$...$
005BEF60 50 8B 44 24 14 51 8B 4C 24 14 52 8B 54 24 14 50 P.D$.Q.L$.R.T$.P
005BEF70 51 52 E8 49 9A F2 FF 83 C4 1C C3 CC CC CC CC CC QR.I............
005BEF80 8B 54 24 08 85 D2 76 2A 8B 4C 24 04 56 8B 74 24 .T$...v*.L$.V.t$
005BEF90 10 85 C9 74 12 8B 06 89 01 8B 46 04 85 C0 89 41 ...t......F....A
005BEFA0 04 74 04 83 40 04 01 83 EA 01 83 C1 08 85 D2 77 .t..@..........w
005BEFB0 E0 5E C3 CC CC CC CC CC CC CC CC CC CC CC CC CC .^..............
005BEFC0 51 8B 54 24 0C 56 57 8B 7C 24 14 8B F1 8B 4C 24 Q.T$.VW.|$....L$
005BEFD0 14 C6 44 24 08 00 8B 44 24 08 50 8B 46 08 51 52 ..D$...D$.P.F.QR
005BEFE0 57 50 8D 4F 08 51 E8 85 FE FF FF 8B 54 24 2C 8B WP.O.Q......T$,.
005BEFF0 46 08 52 56 50 83 C0 F8 50 E8 72 E5 FF FF 8B 44 F.RVP...P.r....D
005BF000 24 38 83 C4 28 83 46 08 F8 89 38 5F 5E 59 C2 08 $8..(.F...8_^Y..
005BF010 00 CC CC CC CC CC CC CC CC CC CC CC CC CC CC CC ................
005BF020 6A FF 68 76 E0 85 00 64 A1 00 00 00 00 50 51 53 j.hv...d.....PQS
005BF030 56 57 A1 88 41 A1 00 33 C4 50 8D 44 24 14 64 A3 VW..A..3.P.D$.d.
005BF040 00 00 00 00 8B F1 89 74 24 10 C7 06 A0 3D 8C 00 .......t$....=..
005BF050 8D 4E 20 C7 44 24 1C 01 00 00 00 FF 15 38 43 8A .N .D$.......8C.
005BF060 00 8D 7E 14 33 DB 8B CF 88 5C 24 1C E8 DF E3 21 ..~.3....\$....!
005BF070 00 8B 47 04 50 E8 4C 5F 0D 00 83 C6 04 89 5F 04 ..G.P.L_......_.
005BF080 8B 46 04 83 C4 04 3B C3 C7 44 24 1C FF FF FF FF .F....;..D$.....
005BF090 74 1C 8B 4C 24 10 8B 56 08 51 56 52 50 E8 CE E4 t..L$..V.QVRP...
005BF0A0 FF FF 8B 46 04 50 E8 1B 5F 0D 00 83 C4 14 89 5E ...F.P.._......^
005BF0B0 04 89 5E 08 89 5E 0C 8B 4C 24 14 64 89 0D 00 00 ..^..^..L$.d....
005BF0C0 00 00 59 5F 5E 5B 83 C4 10 C3 CC CC CC CC CC CC ..Y_^[..........
005BF0D0 8B 54 24 04 8B 42 08 8B 4A 0C 3B C1 74 25 56 8B .T$..B..J.;.t%V.
005BF0E0 74 24 0C 39 30 74 0D 83 C0 08 3B C1 75 F5 5E 33 t$.90t....;.u.^3
005BF0F0 C0 C2 08 00 50 8D 44 24 0C 50 8D 4A 04 E8 BE FE ....P.D$.P.J....
005BF100 FF FF 5E 33 C0 C2 08 00 CC CC CC CC CC CC CC CC ..^3............
005BF110 6A FF 68 BB E0 85 00 64 A1 00 00 00 00 50 83 EC j.h....d.....P..
005BF120 58 A1 88 41 A1 00 33 C4 89 44 24 54 53 55 56 57 X..A..3..D$TSUVW
005BF130 A1 88 41 A1 00 33 C4 50 8D 44 24 6C 64 A3 00 00 ..A..3.P.D$ld...
005BF140 00 00 8B 6C 24 7C 8B F1 89 6C 24 20 E8 9F 83 FE ...l$|...l$ ....
005BF150 FF 6A 00 8B C8 E8 66 89 FE FF 84 C0 75 14 68 A8 .j....f.....u.h.
005BF160 3E 8C 00 E8 18 1B F6 FF 83 C4 04 32 C0 E9 09 03 >..........2....
005BF170 00 00 8D 5E 48 C6 46 78 01 8B 43 08 8B 4B 04 50 ...^H.Fx..C..K.P
005BF180 51 8D 44 24 1C 50 8B CB E8 D3 DB FF FF 8B 46 0C Q.D$.P........F.
005BF190 8B 08 8B 51 24 68 98 3E 8C 00 6A 00 50 FF D2 85 ...Q$h.>..j.P...
005BF1A0 C0 0F 84 C6 01 00 00 8B 4E 0C 8B 11 68 3C 15 8B ........N...h<..
005BF1B0 00 50 8B 42 4C 51 FF D0 85 C0 0F 84 97 01 00 00 .P.BLQ..........
005BF1C0 8B 4E 0C 8B 11 8D 7C 24 1C 57 50 8B 82 CC 00 00 .N....|$.WP.....
005BF1D0 00 51 FF D0 85 C0 0F 8C 7B 01 00 00 8B 46 0C 8B .Q......{....F..
005BF1E0 08 8D 54 24 24 52 50 8B 41 0C FF D0 8B 4C 24 1C ..T$$RP.A....L$.
005BF1F0 51 8D 4E 58 FF 15 E0 43 8A 00 E8 F1 82 FE FF 80 Q.NX...C........
005BF200 B8 98 00 00 00 00 74 18 E8 E3 82 FE FF 8B 80 A8 ......t.........
005BF210 00 00 00 8B 10 6A 01 50 8B 82 34 01 00 00 FF D0 .....j.P..4.....
005BF220 33 FF 39 7C 24 2C 0F 86 03 01 00 00 EB 06 8B FF 3.9|$,..........
005BF230 8B 6C 24 20 8D 4C 24 40 FF 15 B0 43 8A 00 8B 46 .l$ .L$@...C...F
005BF240 0C 8B 08 8B 51 30 57 50 C7 44 24 7C 00 00 00 00 ....Q0WP.D$|....
005BF250 FF D2 85 C0 89 44 24 5C 0F 84 9C 00 00 00 8B 4E .....D$\.......N
005BF260 0C 50 51 E8 28 A0 FF FF 8B 54 24 64 89 44 24 68 .PQ.(....T$d.D$h
005BF270 8B 46 0C 8B 08 83 C4 08 52 50 8B 81 F0 00 00 00 .F......RP......
005BF280 FF D0 85 C0 8B 46 0C 0F 9D C1 88 4C 24 64 8B 4C .....F.....L$d.L
005BF290 24 5C 8B 10 8B 52 4C 68 3C 15 8B 00 51 50 FF D2 $\...RLh<...QP..
005BF2A0 85 C0 74 35 8B 4E 0C 8B 11 8D 6C 24 14 55 50 8B ..t5.N....l$.UP.
005BF2B0 82 CC 00 00 00 51 FF D0 85 C0 7C 1D 8B 4C 24 14 .....Q....|..L$.
005BF2C0 51 8D 4C 24 44 FF 15 E0 43 8A 00 8D 54 24 40 52 Q.L$D...C...T$@R
005BF2D0 8B CB E8 C9 F3 FF FF EB 37 8B 46 0C 8B 08 8D 54 ........7.F....T
005BF2E0 24 34 52 8B 54 24 60 52 50 8B 41 14 FF D0 8B 4C $4R.T$`RP.A....L
005BF2F0 24 34 51 68 30 3E 8C 00 EB 0E 8B CD FF 15 54 43 $4Qh0>........TC
005BF300 8A 00 50 68 EC 3D 8C 00 E8 73 19 F6 FF 83 C4 08 ..Ph.=...s......
005BF310 8D 4C 24 40 C7 44 24 74 FF FF FF FF FF 15 38 43 .L$@.D$t......8C
005BF320 8A 00 83 C7 01 3B 7C 24 2C 0F 82 01 FF FF FF E8 .....;|$,.......
005BF330 BC 81 FE FF 80 B8 98 00 00 00 00 74 30 E8 AE 81 ...........t0...
005BF340 FE FF 8B 80 A8 00 00 00 8B 10 6A 00 50 8B 82 34 ..........j.P..4
005BF350 01 00 00 FF D0 EB 16 8B CD FF 15 54 43 8A 00 50 ...........TC..P
005BF360 68 A8 3D 8C 00 E8 16 19 F6 FF 83 C4 08 83 7E 6C h.=...........~l
005BF370 00 0F 84 02 01 00 00 8B 43 04 85 C0 0F 84 F7 00 ........C.......
005BF380 00 00 8B 4B 08 2B C8 B8 67 66 66 66 F7 E9 C1 FA ...K.+..gfff....
005BF390 04 8B CA C1 E9 1F 03 CA 0F 84 DB 00 00 00 6A 74 ..............jt
005BF3A0 E8 33 5C 0D 00 83 C4 04 89 44 24 14 85 C0 BD 01 .3\......D$.....
005BF3B0 00 00 00 89 6C 24 74 74 10 8D 56 58 52 56 8B C8 ....l$tt..VXRV..
005BF3C0 E8 0B E4 FF FF 8B F8 EB 02 33 FF 85 FF 89 7C 24 .........3....|$
005BF3D0 14 74 03 01 6F 04 8B 4E 74 3B CF C7 44 24 74 02 .t..o..Nt;..D$t.
005BF3E0 00 00 00 74 1F 85 FF 89 7E 74 74 03 01 6F 04 85 ...t....~tt..o..
005BF3F0 C9 74 11 83 CB FF 01 59 04 75 0C 8B 01 8B 10 55 .t.....Y.u.....U
005BF400 FF D2 EB 03 83 CB FF 85 FF 89 5C 24 74 74 0E 01 ..........\$tt..
005BF410 5F 04 75 09 8B 07 8B 10 55 8B CF FF D2 8B 7E 4C _.u.....U.....~L
005BF420 8B 5E 50 3B FB 74 37 0F B6 47 24 8B 6E 74 50 57 .^P;.t7..G$.ntPW
005BF430 8B CD E8 19 B4 01 00 8B 4F 1C 8B 57 20 8D 44 24 ........O..W .D$
005BF440 14 89 4C 24 14 50 8D 4D 50 89 54 24 1C E8 9E EF ..L$.P.MP.T$....
005BF450 FF FF 83 C7 28 3B FB 75 CE BD 01 00 00 00 8B 76 ....(;.u.......v
005BF460 74 85 F6 51 8B C4 89 64 24 18 89 30 74 03 01 6E t..Q...d$..0t..n
005BF470 04 E8 AA BB 01 00 83 C4 04 B0 01 8B 4C 24 6C 64 ............L$ld
005BF480 89 0D 00 00 00 00 59 5F 5E 5D 5B 8B 4C 24 54 33 ......Y_^][.L$T3
005BF490 CC E8 F8 56 0D 00 83 C4 64 C2 04 00 CC CC CC CC ...V....d.......
005BF4A0 6A FF 68 51 E1 85 00 64 A1 00 00 00 00 50 51 53 j.hQ...d.....PQS
005BF4B0 55 56 57 A1 88 41 A1 00 33 C4 50 8D 44 24 18 64 UVW..A..3.P.D$.d
005BF4C0 A3 00 00 00 00 8B F1 89 74 24 14 E8 D0 6D FF FF ........t$...m..
005BF4D0 8D 7E 04 33 DB 8B CF 89 5C 24 20 C7 06 8C 3D 8C .~.3....\$ ...=.
005BF4E0 00 E8 9A 26 25 00 89 47 04 C6 40 2D 01 8B 47 04 ...&%..G..@-..G.
005BF4F0 89 40 04 8B 47 04 89 00 8B 47 04 89 40 08 89 5F .@..G....G..@.._
005BF500 08 89 5E 14 89 5E 18 89 5E 1C 8B 2D FC 40 8A 00 ..^..^..^..-.@..
005BF510 53 53 53 FF D5 89 46 20 88 5E 24 8D 7E 28 8B CF SSS...F .^$.~(..
005BF520 C6 44 24 20 03 E8 96 A2 FF FF 89 47 04 C6 40 45 .D$ .......G..@E
005BF530 01 8B 47 04 89 40 04 8B 47 04 89 00 8B 47 04 89 ..G..@..G....G..
005BF540 40 08 89 5F 08 68 8F 69 8A 00 8D 4E 34 C6 44 24 @.._.h.i...N4.D$
005BF550 24 04 FF 15 34 43 8A 00 89 5E 54 89 5E 58 89 5E $...4C...^T.^X.^
005BF560 5C 53 53 53 FF D5 89 46 60 88 5E 64 89 5E 68 68 \SSS...F`.^d.^hh
005BF570 44 32 A6 00 8B CE C6 44 24 24 08 E8 C0 E9 FF FF D2.....D$$......
005BF580 8B C6 8B 4C 24 18 64 89 0D 00 00 00 00 59 5F 5E ...L$.d......Y_^
005BF590 5D 5B 83 C4 10 C3 CC CC CC CC CC CC CC CC CC CC ][..............
005BF5A0 8B 0D 34 32 A6 00 85 C9 56 8B F1 74 0E E8 4E EF ..42....V..t..N.
005BF5B0 FF FF 56 E8 0E 5A 0D 00 83 C4 04 C7 05 34 32 A6 ..V..Z.......42.
005BF5C0 00 00 00 00 00 5E C3 CC CC CC CC CC CC CC CC CC .....^..........
005BF5D0 55 8B EC 6A FF 68 78 E1 85 00 64 A1 00 00 00 00 U..j.hx...d.....
005BF5E0 50 83 EC 1C 53 56 57 A1 88 41 A1 00 33 C5 50 8D P...SVW..A..3.P.
005BF5F0 45 F4 64 A3 00 00 00 00 89 65 F0 8B F1 89 75 E8 E.d......e....u.
005BF600 8B 45 10 8B 08 8B 40 04 85 C0 89 4D D8 89 45 DC .E....@....M..E.
005BF610 74 04 83 40 04 01 8B 4E 04 85 C9 C7 45 FC 00 00 t..@...N....E...
005BF620 00 00 75 04 33 FF EB 08 8B 7E 0C 2B F9 C1 FF 03 ..u.3....~.+....
005BF630 8B 55 0C 85 D2 89 7D 10 0F 84 2D 02 00 00 85 C9 .U....}...-.....
005BF640 75 04 33 C0 EB 08 8B 46 08 2B C1 C1 F8 03 BB FF u.3....F.+......
005BF650 FF FF 1F 2B D8 3B DA 73 05 E8 92 93 FF FF 85 C9 ...+.;.s........
005BF660 75 04 33 C0 EB 08 8B 46 08 2B C1 C1 F8 03 03 C2 u.3....F.+......
005BF670 3B F8 0F 83 25 01 00 00 8B C7 D1 E8 BF FF FF FF ;...%...........
005BF680 1F 2B F8 3B 7D 10 73 09 C7 45 10 00 00 00 00 EB .+.;}.s..E......
005BF690 03 01 45 10 85 C9 75 04 33 C0 EB 08 8B 46 08 2B ..E...u.3....F.+
005BF6A0 C1 C1 F8 03 03 C2 39 45 10 73 15 85 C9 75 04 33 ......9E.s...u.3
005BF6B0 C0 EB 08 8B 46 08 2B C1 C1 F8 03 03 C2 89 45 10 ....F.+.......E.
005BF6C0 8B 55 10 6A 00 52 E8 45 9D 01 00 8B 55 0C 8B 5D .U.j.R.E....U..]
005BF6D0 08 C6 45 E4 00 8B 4D E4 51 52 8B F8 8B 46 04 56 ..E...M.QR...F.V
005BF6E0 57 53 50 89 7D E0 89 7D EC C6 45 FC 01 E8 8E 9B WSP.}..}..E.....
005BF6F0 0E 00 8B 55 0C 83 C4 20 8D 4D D8 51 52 50 8B CE ...U... .M.QRP..
005BF700 89 45 EC E8 98 1E F3 FF 8B 4E 08 C6 45 08 00 8B .E.......N..E...
005BF710 55 08 52 8B 55 0C 52 56 50 51 53 89 45 EC E8 5D U.R.U.RVPQS.E..]
005BF720 9B 0E 00 8B 4E 04 83 C4 18 85 C9 C7 45 FC 00 00 ....N.......E...
005BF730 00 00 75 04 33 C0 EB 08 8B 46 08 2B C1 C1 F8 03 ..u.3....F.+....
005BF740 8B 5D 0C 03 D8 85 C9 74 1B 8B 55 0C 8B 46 08 52 .].....t..U..F.R
005BF750 56 50 51 E8 18 DE FF FF 8B 46 04 50 E8 65 58 0D VPQ......F.P.eX.
005BF760 00 83 C4 14 8B 45 10 8D 0C C7 8D 14 DF 89 4E 0C .....E........N.
005BF770 89 56 08 89 7E 04 E9 ED 00 00 00 8B 45 EC 8B 75 .V..~.......E..u
005BF780 E0 8B 4D E8 50 56 E8 F5 1D F3 FF 56 E8 35 58 0D ..M.PV.....V.5X.
005BF790 00 83 C4 04 6A 00 6A 00 E8 2F 58 0D 00 8B 5E 08 ....j.j../X...^.
005BF7A0 8B 7D 08 8B CB 2B CF C1 F9 03 3B CA 73 7E 8D 04 .}...+....;.s~..
005BF7B0 D5 00 00 00 00 89 45 10 03 C7 50 53 57 8B CE E8 ......E...PSW...
005BF7C0 0C 2D F3 FF 8B 46 08 8B 4D 0C 8D 55 D8 52 8B D0 .-...F..M..U.R..
005BF7D0 2B D7 C1 FA 03 2B CA 51 50 8B CE C6 45 FC 03 E8 +....+.QP...E...
005BF7E0 BC 1D F3 FF 8B 45 10 01 46 08 8B 76 08 2B F0 8D .....E..F..v.+..
005BF7F0 45 D8 50 56 57 C7 45 FC 00 00 00 00 E8 9F AA F2 E.PVW.E.........
005BF800 FF 83 C4 0C EB 62 8B 45 0C 8B 4D E8 8B 51 08 03 .....b.E..M..Q..
005BF810 C0 03 C0 03 C0 03 D0 52 8B 55 08 03 C2 50 E8 5D .......R.U...P.]
005BF820 1D F3 FF 6A 00 6A 00 E8 A0 57 0D 00 8D 0C D5 00 ...j.j...W......
005BF830 00 00 00 53 8B C3 2B C1 53 89 4D 10 50 8B CE 89 ...S..+.S.M.P...
005BF840 45 0C E8 89 2C F3 FF 89 46 08 8B 45 0C 53 50 57 E...,...F..E.SPW
005BF850 E8 FB F6 FF FF 8B 55 10 8D 4D D8 51 03 D7 52 57 ......U..M.Q..RW
005BF860 E8 3B AA F2 FF 83 C4 18 8B 45 DC 83 C9 FF 85 C0 .;.......E......
005BF870 89 4D FC 74 0F 01 48 04 75 0A 8B 10 8B C8 8B 02 .M.t..H.u.......
005BF880 6A 01 FF D0 8B 4D F4 64 89 0D 00 00 00 00 59 5F j....M.d......Y_
005BF890 5E 5B 8B E5 5D C2 0C 00 CC CC CC CC CC CC CC CC ^[..]...........
005BF8A0 6A FF 68 E0 E1 85 00 64 A1 00 00 00 00 50 51 53 j.h....d.....PQS
005BF8B0 56 57 A1 88 41 A1 00 33 C4 50 8D 44 24 14 64 A3 VW..A..3.P.D$.d.
005BF8C0 00 00 00 00 8B F1 89 74 24 10 33 DB 89 5E 04 C7 .......t$.3..^..
005BF8D0 06 9C 3D 8C 00 89 5C 24 1C C7 46 08 50 3C 8B 00 ..=...\$..F.P<..
005BF8E0 89 5E 0C 8D 7E 10 8B CF C6 44 24 1C 01 E8 8E 22 .^..~....D$...."
005BF8F0 25 00 89 47 04 C6 40 2D 01 8B 47 04 89 40 04 8B %..G..@-..G..@..
005BF900 47 04 89 00 8B 47 04 89 40 08 89 5F 08 89 5E 20 G....G..@.._..^ 
005BF910 89 5E 24 89 5E 28 68 E0 3E 8C 00 8D 4E 2C C6 44 .^$.^(h.>...N,.D
005BF920 24 20 03 FF 15 34 43 8A 00 89 5E 4C 89 5E 50 89 $ ...4C...^L.^P.
005BF930 5E 54 8D 4E 58 C6 44 24 1C 05 FF 15 B0 43 8A 00 ^T.NX.D$.....C..
005BF940 89 5E 74 88 5E 78 8B C6 8B 4C 24 14 64 89 0D 00 .^t.^x...L$.d...
005BF950 00 00 00 59 5F 5E 5B 83 C4 10 C3 CC CC CC CC CC ...Y_^[.........
005BF960 56 8B F1 E8 78 F3 FF FF F6 44 24 08 01 74 09 56 V...x....D$..t.V
005BF970 E8 51 56 0D 00 83 C4 04 8B C6 5E C2 04 00 CC CC .QV.......^.....
005BF980 56 8B F1 80 7E 78 00 75 09 8D 46 2C 50 E8 7E F7 V...~x.u..F,P.~.
005BF990 FF FF 8B 46 74 5E C3 CC CC CC CC CC CC CC CC CC ...Ft^..........
005BF9A0 6A FF 68 0E E2 85 00 64 A1 00 00 00 00 50 A1 88 j.h....d.....P..
005BF9B0 41 A1 00 33 C4 50 8D 44 24 04 64 A3 00 00 00 00 A..3.P.D$.d.....
005BF9C0 B8 01 00 00 00 84 05 AC 32 A6 00 75 25 09 05 AC ........2..u%...
005BF9D0 32 A6 00 B9 70 32 A6 00 C7 44 24 0C 00 00 00 00 2...p2...D$.....
005BF9E0 E8 0B F4 FF FF 68 50 07 8A 00 E8 9D 52 0D 00 83 .....hP.....R...
005BF9F0 C4 04 B8 70 32 A6 00 8B 4C 24 04 64 89 0D 00 00 ...p2...L$.d....
005BFA00 00 00 59 83 C4 0C C3 CC CC CC CC CC CC CC CC CC ..Y.............
005BFA10 6A FF 68 C9 E2 85 00 64 A1 00 00 00 00 50 81 EC j.h....d.....P..
005BFA20 CC 00 00 00 A1 88 41 A1 00 33 C4 89 84 24 C8 00 ......A..3...$..
005BFA30 00 00 53 55 56 57 A1 88 41 A1 00 33 C4 50 8D 84 ..SUVW..A..3.P..
005BFA40 24 E0 00 00 00 64 A3 00 00 00 00 8B B4 24 F0 00 $....d.......$..
005BFA50 00 00 8B BC 24 F4 00 00 00 56 E8 E1 54 E4 FF 8B ....$....V..T...
005BFA60 DA 8B E8 83 C4 04 0B C3 89 6C 24 38 89 5C 24 3C .........l$8.\$<
005BFA70 75 07 B0 01 E9 4C 05 00 00 57 E8 C1 54 E4 FF 8D u....L...W..T...
005BFA80 4C 24 54 83 C4 04 33 FF 51 89 44 24 60 89 54 24 L$T...3.Q.D$`.T$
005BFA90 64 89 7C 24 18 89 7C 24 1C E8 22 4E E4 FF 8B C8 d.|$..|$.."N....
005BFAA0 E8 3B 2E E4 FF 8B 00 57 56 8D 54 24 24 52 8B C8 .;.....WV.T$$R..
005BFAB0 89 BC 24 F4 00 00 00 E8 C4 EC E4 FF 8B 4C 24 50 ..$..........L$P
005BFAC0 3B CF C6 84 24 E8 00 00 00 02 74 1A 8B F1 E8 0D ;...$.....t.....
005BFAD0 20 E4 FF 83 F8 01 75 0E 3B F7 74 0A 8B 06 8B 10  .....u.;.t.....
005BFAE0 6A 01 8B CE FF D2 8B 4C 24 1C 3B CF 89 7C 24 50 j......L$.;..|$P
005BFAF0 0F 84 83 04 00 00 68 F4 3E 8C 00 8D 4C 24 70 FF ......h.>...L$p.
005BFB00 15 34 43 8A 00 57 8D 44 24 70 50 8D 4C 24 34 51 .4C..W.D$pP.L$4Q
005BFB10 8B 4C 24 28 C6 84 24 F4 00 00 00 03 E8 5F EC E4 .L$(..$......_..
005BFB20 FF 8D 4C 24 6C C6 84 24 E8 00 00 00 05 FF 15 38 ..L$l..$.......8
005BFB30 43 8A 00 8B 4C 24 2C 3B CF 0F 84 FC 03 00 00 8D C...L$,;........
005BFB40 4C 24 30 E8 18 E8 E4 FF 89 7C 24 44 89 7C 24 48 L$0......|$D.|$H
005BFB50 89 7C 24 4C 8B 4C 24 1C 8D 54 24 54 52 C6 84 24 .|$L.L$..T$TR..$
005BFB60 EC 00 00 00 07 E8 C6 F1 E4 FF 50 8D 4C 24 34 C6 ..........P.L$4.
005BFB70 84 24 EC 00 00 00 08 E8 A4 EE E4 FF 8D 4C 24 54 .$...........L$T
005BFB80 C6 84 24 E8 00 00 00 07 E8 23 C5 E5 FF 8B 2D B4 ..$......#....-.
005BFB90 43 8A 00 8B 4C 24 1C 8D 44 24 64 50 E8 3F F2 E4 C...L$..D$dP.?..
005BFBA0 FF 50 8D 4C 24 34 C6 84 24 EC 00 00 00 09 E8 0D .P.L$4..$.......
005BFBB0 E3 E4 FF 8B 4C 24 64 3B CF 8A D8 C6 84 24 E8 00 ....L$d;.....$..
005BFBC0 00 00 07 74 19 8B F1 E8 14 1F E4 FF 83 F8 01 75 ...t...........u
005BFBD0 0D 3B F7 74 09 8B 16 50 8B 02 8B CE FF D0 84 DB .;.t...P........
005BFBE0 89 7C 24 64 0F 84 58 01 00 00 8D 4C 24 28 51 8D .|$d..X....L$(Q.
005BFBF0 4C 24 34 E8 78 E7 E4 FF 8B 4C 24 28 8B 11 8B 52 L$4.x....L$(...R
005BFC00 2C 8D 84 24 C0 00 00 00 50 C6 84 24 EC 00 00 00 ,..$....P..$....
005BFC10 0A FF D2 68 EC 3E 8C 00 50 C6 84 24 F0 00 00 00 ...h.>..P..$....
005BFC20 0B FF D5 83 C4 08 8D 8C 24 C0 00 00 00 8A D8 C6 ........$.......
005BFC30 84 24 E8 00 00 00 0A FF 15 38 43 8A 00 84 DB 0F .$.......8C.....
005BFC40 84 97 00 00 00 8D 8C 24 A4 00 00 00 FF 15 B0 43 .......$.......C
005BFC50 8A 00 8B 4C 24 28 8B 01 8B 40 70 8D 54 24 20 52 ...L$(...@p.T$ R
005BFC60 C6 84 24 EC 00 00 00 0C FF D0 8B 4C 24 20 8B 41 ..$........L$ .A
005BFC70 08 8B 49 0C 03 C8 51 50 8D 8C 24 AC 00 00 00 C6 ..I...QP..$.....
005BFC80 84 24 F0 00 00 00 0D FF 15 68 42 8A 00 8D 8C 24 .$.......hB....$
005BFC90 A4 00 00 00 51 8D 4C 24 44 E8 32 42 E4 FF 8B 44 ....Q.L$D.2B...D
005BFCA0 24 20 3B C7 C6 84 24 E8 00 00 00 0C 74 15 83 40 $ ;...$.....t..@
005BFCB0 04 FF 8B C8 83 C0 04 39 38 75 08 8B 11 8B 02 6A .......98u.....j
005BFCC0 01 FF D0 8D 8C 24 A4 00 00 00 89 7C 24 20 C6 84 .....$.....|$ ..
005BFCD0 24 E8 00 00 00 0A FF 15 38 43 8A 00 8B 4C 24 28 $.......8C...L$(
005BFCE0 3B CF C6 84 24 E8 00 00 00 07 74 19 8B F1 E8 ED ;...$.....t.....
005BFCF0 1D E4 FF 83 F8 01 75 0D 3B F7 74 09 8B 16 50 8B ......u.;.t...P.
005BFD00 02 8B CE FF D0 57 8D 4C 24 58 51 8D 4C 24 38 89 .....W.L$XQ.L$8.
005BFD10 7C 24 30 E8 E8 E7 E4 FF 8B 4C 24 54 3B CF 74 19 |$0......L$T;.t.
005BFD20 8B F1 E8 B9 1D E4 FF 83 F8 01 75 0D 3B F7 74 09 ..........u.;.t.
005BFD30 8B 16 50 8B 02 8B CE FF D0 89 7C 24 54 E9 51 FE ..P.......|$T.Q.
005BFD40 FF FF 8B 74 24 44 3B F7 8B 6C 24 48 74 19 8B CD ...t$D;..l$Ht...
005BFD50 2B CE B8 93 24 49 92 F7 E9 03 D1 C1 FA 04 8B CA +...$I..........
005BFD60 C1 E9 1F 03 CA 75 10 8B 54 24 38 8B 44 24 3C 89 .....u..T$8.D$<.
005BFD70 54 24 14 89 44 24 18 3B F5 8B DE 0F 84 2C 01 00 T$..D$.;.....,..
005BFD80 00 8B 3D 50 43 8A 00 53 8D 8C 24 C4 00 00 00 FF ..=PC..S..$.....
005BFD90 15 3C 43 8A 00 C6 84 24 E8 00 00 00 0E E8 FE FB .<C....$........
005BFDA0 FF FF 8D 8C 24 C0 00 00 00 51 83 C0 20 50 8D 94 ....$....Q.. P..
005BFDB0 24 AC 00 00 00 52 FF D7 8D 84 24 B0 00 00 00 50 $....R....$....P
005BFDC0 C6 84 24 F8 00 00 00 0F E8 73 51 E4 FF 8B C8 83 ..$......sQ.....
005BFDD0 C4 10 0B CA 89 44 24 20 89 54 24 24 0F 85 3A 01 .....D$ .T$$..:.
005BFDE0 00 00 A1 34 32 A6 00 8B 70 14 8B 68 18 3B F5 74 ...42...p..h.;.t
005BFDF0 6C 8D 94 24 C0 00 00 00 8B C6 52 50 8D 84 24 90 l..$......RP..$.
005BFE00 00 00 00 50 83 C6 1C FF D7 83 C4 0C 50 8D 8C 24 ...P........P..$
005BFE10 A8 00 00 00 C6 84 24 EC 00 00 00 10 FF 15 58 43 ......$.......XC
005BFE20 8A 00 8D 8C 24 88 00 00 00 C6 84 24 E8 00 00 00 ....$......$....
005BFE30 0F FF 15 38 43 8A 00 8D 8C 24 A4 00 00 00 51 E8 ...8C....$....Q.
005BFE40 FC 50 E4 FF 8B C8 83 C4 04 0B CA 89 44 24 20 89 .P..........D$ .
005BFE50 54 24 24 0F 85 BB 00 00 00 3B F5 75 94 8B 6C 24 T$$......;.u..l$
005BFE60 48 8B 74 24 44 8D 44 24 14 8B 10 89 54 24 14 8B H.t$D.D$....T$..
005BFE70 40 04 8D 8C 24 A4 00 00 00 89 44 24 18 C6 84 24 @...$.....D$...$
005BFE80 E8 00 00 00 0E FF 15 38 43 8A 00 8D 8C 24 C0 00 .......8C....$..
005BFE90 00 00 C6 84 24 E8 00 00 00 07 FF 15 38 43 8A 00 ....$.......8C..
005BFEA0 83 C3 1C 3B DD 0F 85 DC FE FF FF 33 FF 3B F7 C6 ...;.......3.;..
005BFEB0 84 24 E8 00 00 00 06 74 20 8B 5C 24 44 3B DD 74 .$.....t .\$D;.t
005BFEC0 0F 8B CE FF 15 38 43 8A 00 83 C6 1C 3B F5 75 F1 .....8C.....;.u.
005BFED0 53 E8 F0 50 0D 00 83 C4 04 8B 4C 24 30 3B CF C6 S..P......L$0;..
005BFEE0 84 24 E8 00 00 00 05 74 19 8B F1 E8 F0 1B E4 FF .$.....t........
005BFEF0 83 F8 01 75 0D 3B F7 74 09 8B 16 50 8B 02 8B CE ...u.;.t...P....
005BFF00 FF D0 8B 4C 24 2C 8B 6C 24 38 8B 5C 24 3C 89 7C ...L$,.l$8.\$<.|
005BFF10 24 30 EB 38 8B 6C 24 48 8B 74 24 44 39 54 24 18 $0.8.l$H.t$D9T$.
005BFF20 0F 87 3F FF FF FF 72 0A 39 44 24 14 0F 83 33 FF ..?...r.9D$...3.
005BFF30 FF FF 8D 44 24 20 E9 2E FF FF FF 8B C5 83 C0 01 ...D$ ..........
005BFF40 89 44 24 14 8B C3 13 C7 89 44 24 18 3B CF C6 84 .D$......D$.;...
005BFF50 24 E8 00 00 00 02 74 19 8B F1 E8 81 1B E4 FF 83 $.....t.........
005BFF60 F8 01 75 0D 3B F7 74 09 8B 16 50 8B 02 8B CE FF ..u.;.t...P.....
005BFF70 D0 8B 4C 24 1C 89 7C 24 2C 3B 5C 24 60 72 1A 77 ..L$..|$,;\$`r.w
005BFF80 06 3B 6C 24 5C 72 12 3B 5C 24 18 72 0C 77 06 3B .;l$\r.;\$.r.w.;
005BFF90 6C 24 14 72 04 32 DB EB 02 B3 01 3B CF C7 84 24 l$.r.2.....;...$
005BFFA0 E8 00 00 00 FF FF FF FF 74 19 8B F1 E8 2F 1B E4 ........t..../..
005BFFB0 FF 83 F8 01 75 0D 3B F7 74 09 8B 16 50 8B 02 8B ....u.;.t...P...
005BFFC0 CE FF D0 8A C3 8B 8C 24 E0 00 00 00 64 89 0D 00 .......$....d...
005BFFD0 00 00 00 59 5F 5E 5D 5B 8B 8C 24 C8 00 00 00 33 ...Y_^][..$....3
005BFFE0 CC E8 A8 4B 0D 00 81 C4 D8 00 00 00 C2 08 00 CC ...K............
005BFFF0 6A FF 68 2A E3 85 00 64 A1 00 00 00 00 50 83 EC j.h*...d.....P..
005C0000 78 53 55 56 57 A1 88 41 A1 00 33 C4 50 8D 84 24 xSUVW..A..3.P..$
005C0010 8C 00 00 00 64 A3 00 00 00 00 8B D9 89 5C 24 1C ....d........\$.
005C0020 8B B4 24 A0 00 00 00 33 C0 3B F0 89 84 24 94 00 ..$....3.;...$..
005C0030 00 00 89 44 24 14 89 44 24 18 89 44 24 20 75 0B ...D$..D$..D$ u.
005C0040 E8 FB 9B FF FF 8B F0 89 74 24 20 8B AC 24 9C 00 ........t$ ..$..
005C0050 00 00 85 ED BF 05 40 00 80 74 3E 8B 7D 0C 8B 6D ......@..t>.}..m
005C0060 08 E8 8A 74 FE FF 8B 98 A8 00 00 00 8D 44 24 18 ...t.........D$.
005C0070 50 8D 4C 24 18 51 6A 00 68 00 00 01 00 E8 1E F9 P.L$.Qj.h.......
005C0080 FF FF 50 56 57 55 53 E8 D4 6C 0D 00 8B 5C 24 1C ..PVWUS..l...\$.
005C0090 8B AC 24 9C 00 00 00 8B F8 8B 44 24 20 85 C0 74 ..$.......D$ ..t
005C00A0 09 50 E8 73 4F 0D 00 83 C4 04 8B 44 24 18 85 C0 .P.sO......D$...
005C00B0 74 10 8B 10 50 8B 42 08 FF D0 C7 44 24 18 00 00 t...P.B....D$...
005C00C0 00 00 85 ED 0F 84 1D 03 00 00 85 FF 0F 8C FB 02 ................
005C00D0 00 00 8B 4C 24 14 8B 31 81 C6 1C 01 00 00 E8 6D ...L$..1.......m
005C00E0 49 05 00 8B 54 24 14 50 8B 06 52 FF D0 8B 44 24 I...T$.P..R...D$
005C00F0 14 8B 08 8D 54 24 34 52 50 8B 41 0C FF D0 8B 4B ....T$4RP.A....K
005C0100 14 8B 51 04 8D 6B 10 52 8B CD E8 11 CC FF FF 8B ..Q..k.R........
005C0110 45 04 89 40 04 8B 45 04 33 F6 89 75 08 89 00 8B E..@..E.3..u....
005C0120 45 04 8D 4B 1C 89 40 08 E8 13 13 02 00 39 74 24 E..K..@......9t$
005C0130 38 89 74 24 20 0F 86 CC 01 00 00 8B 54 24 20 8B 8.t$ .......T$ .
005C0140 44 24 14 8B 08 52 6A 00 50 8B 41 20 FF D0 8B F8 D$...Rj.P.A ....
005C0150 8B 44 24 14 8B 08 8D 54 24 60 52 57 50 8B 41 10 .D$....T$`RWP.A.
005C0160 FF D0 8B 74 24 14 E8 75 86 FF FF 84 C0 0F 84 2E ...t$..u........
005C0170 01 00 00 A1 64 32 A6 00 8B 30 8B D8 3B F3 74 5B ....d2...0..;.t[
005C0180 8B 4E 28 8B 11 8B 52 08 8D 44 24 60 50 FF D2 84 .N(...R..D$`P...
005C0190 C0 75 63 38 46 2D 75 3F 8B 46 08 80 78 2D 00 75 .uc8F-u?.F..x-.u
005C01A0 1B 8B F0 8B 06 80 78 2D 00 75 2C EB 03 8D 49 00 ......x-.u,...I.
005C01B0 8B F0 8B 06 80 78 2D 00 74 F6 EB 1B 8B 46 04 80 .....x-.t....F..
005C01C0 78 2D 00 75 10 3B 70 08 75 0B 8B F0 8B 40 04 80 x-.u.;p.u....@..
005C01D0 78 2D 00 74 F0 8B F0 3B F3 75 A5 8B 4C 24 60 51 x-.t...;.u..L$`Q
005C01E0 68 30 3F 8C 00 E8 96 0A F6 FF 8B 5C 24 24 83 C4 h0?........\$$..
005C01F0 08 E9 FC 00 00 00 8B 44 24 60 50 8D 4C 24 48 FF .......D$`P.L$H.
005C0200 15 34 43 8A 00 8B 44 24 14 8B 4E 28 8B 11 8B 12 .4C...D$..N(....
005C0210 50 57 8D 44 24 2C 50 C6 84 24 A0 00 00 00 01 FF PW.D$,P..$......
005C0220 D2 8B F0 8D 44 24 44 50 8B CD C6 84 24 98 00 00 ....D$DP....$...
005C0230 00 02 E8 99 E0 FF FF 8B 16 8B 08 3B CA 74 1C 85 ...........;.t..
005C0240 D2 89 10 74 04 83 42 04 01 85 C9 74 0E 83 41 04 ...t..B....t..A.
005C0250 FF 75 08 8B 11 8B 02 6A 01 FF D0 8B 44 24 24 85 .u.....j....D$$.
005C0260 C0 C6 84 24 94 00 00 00 01 74 16 83 40 04 FF 8B ...$.....t..@...
005C0270 C8 83 C0 04 83 38 00 75 08 8B 11 8B 02 6A 01 FF .....8.u.....j..
005C0280 D0 8D 4C 24 44 C7 44 24 24 00 00 00 00 C6 84 24 ..L$D.D$$......$
005C0290 94 00 00 00 00 FF 15 38 43 8A 00 8B 5C 24 1C EB .......8C...\$..
005C02A0 51 8B 44 24 64 85 C0 74 49 50 8D 4C 24 48 FF 15 Q.D$d..tIP.L$H..
005C02B0 34 43 8A 00 8D 54 24 44 6A 01 52 C6 84 24 9C 00 4C...T$Dj.R..$..
005C02C0 00 00 03 E8 18 7A 03 00 89 44 24 38 83 C4 08 8D .....z...D$8....
005C02D0 44 24 2C 50 8D 4B 1C 89 7C 24 30 E8 A0 E0 FF FF D$,P.K..|$0.....
005C02E0 8D 4C 24 44 C6 84 24 94 00 00 00 00 FF 15 38 43 .L$D..$.......8C
005C02F0 8A 00 8B 44 24 20 83 C0 01 3B 44 24 38 89 44 24 ...D$ ...;D$8.D$
005C0300 20 0F 82 34 FE FF FF 8B 4C 24 14 33 C0 85 C9 BD  ..4....L$.3....
005C0310 50 3C 8B 00 89 6C 24 24 89 44 24 28 74 20 89 4C P<...l$$.D$(t .L
005C0320 24 28 8B 11 8B 42 04 51 FF D0 8B 54 24 24 8B 02 $(...B.Q...T$$..
005C0330 8D 4C 24 24 FF D0 8B 4C 24 14 8B 44 24 28 8B 53 .L$$...L$..D$(.S
005C0340 0C 3B C2 8D 73 08 C6 84 24 94 00 00 00 04 8B F8 .;..s...$.......
005C0350 74 2B 85 D2 74 08 8B 0A 52 8B 51 08 FF D2 85 FF t+..t...R.Q.....
005C0360 89 7E 04 74 08 8B 07 8B 48 04 57 FF D1 8B 16 8B .~.t....H.W.....
005C0370 02 8B CE FF D0 8B 4C 24 14 8B 44 24 28 33 F6 3B ......L$..D$(3.;
005C0380 C6 C6 84 24 94 00 00 00 00 89 6C 24 24 74 0C 8B ...$......l$$t..
005C0390 08 8B 51 08 50 FF D2 8B 4C 24 14 8B 01 51 8B 48 ..Q.P...L$...Q.H
005C03A0 08 89 74 24 2C FF D1 8B 8C 24 9C 00 00 00 83 C8 ..t$,....$......
005C03B0 FF 89 74 24 14 01 41 04 89 84 24 94 00 00 00 75 ..t$..A...$....u
005C03C0 08 8B 11 8B 02 6A 01 FF D0 B0 01 EB 51 8D 4B 2C .....j......Q.K,
005C03D0 FF 15 54 43 8A 00 50 68 FC 3E 8C 00 57 E8 DE 88 ..TC..Ph.>..W...
005C03E0 FF FF 83 C4 0C EB 17 8D 4B 2C FF 15 54 43 8A 00 ........K,..TC..
005C03F0 50 68 FC 3E 8C 00 E8 85 08 F6 FF 83 C4 08 83 C8 Ph.>............
005C0400 FF 85 ED 89 84 24 94 00 00 00 74 10 01 45 04 75 .....$....t..E.u
005C0410 0B 8B 55 00 8B 02 6A 01 8B CD FF D0 32 C0 8B 8C ..U...j.....2...
005C0420 24 8C 00 00 00 64 89 0D 00 00 00 00 59 5F 5E 5D $....d......Y_^]
005C0430 5B 81 C4 84 00 00 00 C2 08 00 CC CC CC CC CC CC [...............
005C0440 6A FF 68 94 E5 85 00 64 A1 00 00 00 00 50 81 EC j.h....d.....P..
005C0450 AC 01 00 00 A1 88 41 A1 00 33 C4 89 84 24 A8 01 ......A..3...$..
005C0460 00 00 53 55 56 57 A1 88 41 A1 00 33 C4 50 8D 84 ..SUVW..A..3.P..
005C0470 24 C0 01 00 00 64 A3 00 00 00 00 8B 84 24 D0 01 $....d.......$..
005C0480 00 00 8B 9C 24 D4 01 00 00 33 FF 89 44 24 44 8B ....$....3..D$D.
005C0490 84 24 D8 01 00 00 3B C7 89 7C 24 14 89 44 24 2C .$....;..|$..D$,
005C04A0 89 7C 24 1C 89 7C 24 40 75 0D E8 91 97 FF FF 89 .|$..|$@u.......
005C04B0 44 24 2C 89 44 24 40 8D 8C 24 30 01 00 00 53 51 D$,.D$@..$0...SQ
005C04C0 E8 3B 2D E4 FF 83 C4 08 BD 01 00 00 00 89 AC 24 .;-............$
005C04D0 C8 01 00 00 E8 C7 F4 FF FF 8D 94 24 30 01 00 00 ...........$0...
005C04E0 52 8D 48 20 FF 15 58 43 8A 00 A1 34 32 A6 00 83 R.H ..XC...42...
005C04F0 C0 34 50 8D 8C 24 6C 01 00 00 FF 15 3C 43 8A 00 .4P..$l.....<C..
005C0500 8D 8C 24 84 01 00 00 53 51 C6 84 24 D0 01 00 00 ..$....SQ..$....
005C0510 02 E8 0A 13 E4 FF 83 C4 08 39 BC 24 7C 01 00 00 .........9.$|...
005C0520 C6 84 24 C8 01 00 00 03 74 7B 8B 35 D4 43 8A 00 ..$.....t{.5.C..
005C0530 68 90 69 8A 00 8D 94 24 88 01 00 00 52 8D 84 24 h.i....$....R..$
005C0540 C8 00 00 00 50 FF D6 8D 8C 24 74 01 00 00 51 50 ....P....$t...QP
005C0550 8D 94 24 F0 00 00 00 52 C6 84 24 E0 01 00 00 04 ..$....R..$.....
005C0560 89 6C 24 2C FF 15 50 43 8A 00 68 20 40 8C 00 50 .l$,..PC..h @..P
005C0570 8D 84 24 C4 00 00 00 50 C7 84 24 EC 01 00 00 05 ..$....P..$.....
005C0580 00 00 00 C7 44 24 38 03 00 00 00 FF D6 83 C4 24 ....D$8........$
005C0590 C7 84 24 C8 01 00 00 06 00 00 00 C7 44 24 14 07 ..$.........D$..
005C05A0 00 00 00 EB 31 68 20 40 8C 00 8D 8C 24 88 01 00 ....1h @....$...
005C05B0 00 51 8D 94 24 90 00 00 00 52 FF 15 D4 43 8A 00 .Q..$....R...C..
005C05C0 83 C4 0C C7 84 24 C8 01 00 00 07 00 00 00 C7 44 .....$.........D
005C05D0 24 14 08 00 00 00 50 8D 8C 24 FC 00 00 00 FF 15 $.....P..$......
005C05E0 3C 43 8A 00 F6 44 24 14 08 C7 84 24 C8 01 00 00 <C...D$....$....
005C05F0 09 00 00 00 74 12 83 64 24 14 F7 8D 8C 24 88 00 ....t..d$....$..
005C0600 00 00 FF 15 38 43 8A 00 F6 44 24 14 04 C6 84 24 ....8C...D$....$
005C0610 C8 01 00 00 0A 74 12 83 64 24 14 FB 8D 8C 24 A4 .....t..d$....$.
005C0620 00 00 00 FF 15 38 43 8A 00 F6 44 24 14 02 C6 84 .....8C...D$....
005C0630 24 C8 01 00 00 0B 74 12 83 64 24 14 FD 8D 8C 24 $.....t..d$....$
005C0640 DC 00 00 00 FF 15 38 43 8A 00 F6 44 24 14 01 C6 ......8C...D$...
005C0650 84 24 C8 01 00 00 0C 74 12 83 64 24 14 FE 8D 8C .$.....t..d$....
005C0660 24 C0 00 00 00 FF 15 38 43 8A 00 E8 30 F3 FF FF $......8C...0...
005C0670 8D 48 14 E8 D8 CD 21 00 8B 0D 34 32 A6 00 53 8D .H....!...42..S.
005C0680 84 24 FC 00 00 00 50 E8 84 F3 FF FF 33 ED 89 6C .$....P.....3..l
005C0690 24 20 84 C0 C6 84 24 C8 01 00 00 0D 0F 84 1F 08 $ ....$.........
005C06A0 00 00 8D 8C 24 F8 00 00 00 FF 15 54 43 8A 00 50 ....$......TC..P
005C06B0 8B CB FF 15 54 43 8A 00 50 68 FC 3F 8C 00 E8 BD ....TC..Ph.?....
005C06C0 05 F6 FF 83 C4 0C 89 7C 24 34 E8 F1 41 E4 FF 8B .......|$4..A...
005C06D0 C8 E8 2A 10 E4 FF 8B 10 8B 52 10 53 8D 4C 24 28 ..*......R.S.L$(
005C06E0 51 8B C8 FF D2 8B 00 3B C7 74 0E 8B E8 3B EF 89 Q......;.t...;..
005C06F0 6C 24 20 74 04 83 45 04 01 8B 44 24 24 3B C7 C6 l$ t..E...D$$;..
005C0700 84 24 C8 01 00 00 0D 74 15 83 40 04 FF 8B C8 83 .$.....t..@.....
005C0710 C0 04 39 38 75 08 8B 01 8B 10 6A 01 FF D2 3B EF ..98u.....j...;.
005C0720 0F 84 29 07 00 00 8B 75 0C 8B 7D 08 8D 44 24 1C ..)....u..}..D$.
005C0730 50 8D 4C 24 38 51 68 00 00 01 00 E8 60 F2 FF FF P.L$8Qh.....`...
005C0740 8B 54 24 38 50 52 56 57 E8 19 66 0D 00 85 C0 0F .T$8PRVW..f.....
005C0750 8C F8 06 00 00 8B 44 24 1C 33 ED 3B C5 74 0C 8B ......D$.3.;.t..
005C0760 08 8B 51 08 50 FF D2 89 6C 24 1C 8B 44 24 34 8D ..Q.P...l$..D$4.
005C0770 54 24 1C 52 8D 54 24 40 52 89 6C 24 44 8B 08 55 T$.R.T$@R.l$D..U
005C0780 50 8B 81 EC 00 00 00 FF D0 8B F0 8B 44 24 34 3B P...........D$4;
005C0790 C5 74 0C 8B 08 8B 51 08 50 FF D2 89 6C 24 34 3B .t....Q.P...l$4;
005C07A0 F5 7D 74 8B 44 24 40 3B C5 74 09 50 E8 69 48 0D .}t.D$@;.t.P.iH.
005C07B0 00 83 C4 04 8B 44 24 1C 3B C5 74 0A 8B 08 8B 51 .....D$.;.t....Q
005C07C0 0C 50 FF D2 EB 05 B8 8F 69 8A 00 50 8B CB FF 15 .P......i..P....
005C07D0 54 43 8A 00 50 68 C4 3F 8C 00 E8 A1 04 F6 FF 8B TC..Ph.?........
005C07E0 44 24 28 83 C4 0C 3B C5 74 0C 8B 08 8B 51 08 50 D$(...;.t....Q.P
005C07F0 FF D2 89 6C 24 1C 8B 74 24 44 83 4C 24 14 10 8D ...l$..t$D.L$...
005C0800 4C 24 20 89 2E C6 84 24 C8 01 00 00 0C E8 BE 45 L$ ....$.......E
005C0810 07 00 E9 60 08 00 00 8B 44 24 1C 3B C5 74 0C 8B ...`....D$.;.t..
005C0820 08 8B 51 08 50 FF D2 89 6C 24 1C 6A 14 E8 A6 47 ..Q.P...l$.j...G
005C0830 0D 00 8B F0 83 C4 04 89 74 24 18 3B F5 74 3C 51 ........t$.;.t<Q
005C0840 8B C4 89 64 24 28 89 28 8B 44 24 40 8B 08 8B 51 ...d$(.(.D$@...Q
005C0850 10 50 C6 84 24 D0 01 00 00 10 FF D2 50 8B 44 24 .P..$.......P.D$
005C0860 44 8B 08 8B 51 0C 50 FF D2 50 8B CE C6 84 24 D4 D...Q.P..P....$.
005C0870 01 00 00 0F E8 B7 9F E5 FF EB 02 33 C0 3B C5 89 ...........3.;..
005C0880 44 24 2C 74 04 83 40 04 01 8D 44 24 2C 50 8D 4C D$,t..@...D$,P.L
005C0890 24 24 C6 84 24 CC 01 00 00 11 E8 D1 92 F6 FF 8D $$..$...........
005C08A0 4C 24 2C C6 84 24 C8 01 00 00 0D E8 20 45 07 00 L$,..$...... E..
005C08B0 E8 0B 40 E4 FF 8B C8 E8 44 0E E4 FF 8B 10 8B 52 ..@.....D......R
005C08C0 20 8D 8C 24 F8 00 00 00 51 8B C8 FF D2 A1 4C 43  ..$....Q.....LC
005C08D0 8A 00 8B 08 51 6A 2F 8D 8C 24 00 01 00 00 FF 15 ....Qj/..$......
005C08E0 30 44 8A 00 8B F0 56 55 8D 94 24 54 01 00 00 52 0D....VU..$T...R
005C08F0 8D 8C 24 04 01 00 00 FF 15 40 43 8A 00 55 8D 84 ..$......@C..U..
005C0900 24 50 01 00 00 50 8D 4C 24 30 51 C6 84 24 D4 01 $P...P.L$0Q..$..
005C0910 00 00 12 E8 08 21 E4 FF 83 C4 0C 8B 15 4C 43 8A .....!.......LC.
005C0920 00 8B 02 50 83 C6 01 56 8D 8C 24 A8 01 00 00 51 ...P...V..$....Q
005C0930 8D 8C 24 04 01 00 00 C6 84 24 D4 01 00 00 13 FF ..$......$......
005C0940 15 40 43 8A 00 6A 40 C6 84 24 CC 01 00 00 14 E8 .@C..j@..$......
005C0950 84 46 0D 00 8B F0 83 C4 04 89 74 24 18 3B F5 B3 .F........t$.;..
005C0960 15 88 9C 24 C8 01 00 00 74 5B 6A 14 E8 67 46 0D ...$....t[j..gF.
005C0970 00 83 C4 04 89 44 24 24 3B C5 C6 84 24 C8 01 00 .....D$$;...$...
005C0980 00 16 74 14 51 8B CC 89 64 24 34 55 89 29 55 8B ..t.Q...d$4U.)U.
005C0990 C8 E8 9A 9E E5 FF EB 02 33 C0 3B C5 51 8B CC 88 ........3.;.Q...
005C09A0 9C 24 CC 01 00 00 89 64 24 28 89 01 74 04 83 40 .$.....d$(..t..@
005C09B0 04 01 8D 94 24 A4 01 00 00 52 8B CE E8 5F A2 E5 ....$....R..._..
005C09C0 FF 8B F8 EB 02 33 FF 3B FD 89 7C 24 24 74 07 8B .....3.;..|$$t..
005C09D0 CF E8 FA 10 E4 FF 51 8B 4C 24 2C 8B C4 89 08 8B ......Q.L$,.....
005C09E0 4C 24 2C 3B CD C6 84 24 CC 01 00 00 17 89 64 24 L$,;...$......d$
005C09F0 1C 74 05 E8 D8 10 E4 FF 8B 17 8B 42 3C 8B CF FF .t.........B<...
005C0A00 D0 8B 17 8B 42 28 8B CF FF D0 68 F4 3E 8C 00 8D ....B(....h.>...
005C0A10 4C 24 70 FF 15 34 43 8A 00 6A 01 8D 4C 24 70 51 L$p..4C..j..L$pQ
005C0A20 8D 54 24 40 52 8B CF C6 84 24 D4 01 00 00 18 E8 .T$@R....$......
005C0A30 4C DD E4 FF 8D 4C 24 6C C6 84 24 C8 01 00 00 1A L....L$l..$.....
005C0A40 FF 15 38 43 8A 00 8B 74 24 38 51 8B C4 8B CF 89 ..8C...t$8Q.....
005C0A50 64 24 1C 89 38 E8 76 10 E4 FF 8B 06 8B 50 3C 8B d$..8.v......P<.
005C0A60 CE FF D2 68 F4 3E 8C 00 8D 8C 24 18 01 00 00 FF ...h.>....$.....
005C0A70 15 34 43 8A 00 51 8B 4C 24 24 3B CD 8B C4 C6 84 .4C..Q.L$$;.....
005C0A80 24 CC 01 00 00 1B 89 64 24 1C 89 08 74 04 83 41 $......d$...t..A
005C0A90 04 01 8D 84 24 18 01 00 00 50 8B CF E8 DF F2 E4 ....$....P......
005C0AA0 FF 8D 8C 24 14 01 00 00 8A D8 C6 84 24 C8 01 00 ...$........$...
005C0AB0 00 1A FF 15 38 43 8A 00 84 DB 0F 84 3B 02 00 00 ....8C......;...
005C0AC0 33 ED 89 6C 24 30 C6 84 24 C8 01 00 00 1C E8 CD 3..l$0..$.......
005C0AD0 EE FF FF 8D 70 14 8B CE 89 74 24 18 E8 DF B7 FF ....p....t$.....
005C0AE0 FF 8B 46 04 8B 18 3B D8 0F 84 69 01 00 00 68 EC ..F...;...i...h.
005C0AF0 3E 8C 00 8D 4C 24 54 FF 15 34 43 8A 00 8B 17 8B >...L$T..4C.....
005C0B00 52 14 8D 44 24 50 50 8D 4C 24 30 51 8B CF C6 84 R..D$PP.L$0Q....
005C0B10 24 D0 01 00 00 1D FF D2 50 8D 4C 24 34 C6 84 24 $.......P.L$4..$
005C0B20 CC 01 00 00 1E E8 96 E5 00 00 8B 4C 24 2C 85 C9 ...........L$,..
005C0B30 C6 84 24 C8 01 00 00 1D 74 1A 8B F1 E8 9F 0F E4 ..$.....t.......
005C0B40 FF 83 F8 01 75 0E 85 F6 74 0A 8B 06 8B 10 6A 01 ....u...t.....j.
005C0B50 8B CE FF D2 8D 4C 24 50 C7 44 24 2C 00 00 00 00 .....L$P.D$,....
005C0B60 C6 84 24 C8 01 00 00 1C FF 15 38 43 8A 00 8D 43 ..$.......8C...C
005C0B70 08 50 8D 8C 24 18 01 00 00 FF 15 3C 43 8A 00 6A .P..$......<C..j
005C0B80 14 C6 84 24 CC 01 00 00 1F E8 4A 44 0D 00 8B F0 ...$......JD....
005C0B90 83 C4 04 89 74 24 4C 85 F6 74 44 51 8B C4 89 64 ....t$L..tDQ...d
005C0BA0 24 4C C7 00 00 00 00 00 8D 8C 24 18 01 00 00 C6 $L........$.....
005C0BB0 84 24 CC 01 00 00 21 FF 15 5C 43 8A 00 50 8D 8C .$....!..\C..P..
005C0BC0 24 1C 01 00 00 FF 15 44 44 8A 00 50 8B CE C6 84 $......DD..P....
005C0BD0 24 D4 01 00 00 20 E8 55 9C E5 FF 8B F0 EB 02 33 $.... .U.......3
005C0BE0 F6 85 F6 89 74 24 48 74 04 83 46 04 01 85 F6 51 ....t$Ht..F....Q
005C0BF0 8B C4 C6 84 24 CC 01 00 00 22 89 64 24 50 89 30 ....$....".d$P.0
005C0C00 74 04 83 46 04 01 8B 6C 24 34 8B 45 00 8B 90 A4 t..F...l$4.E....
005C0C10 00 00 00 8B CD FF D2 85 F6 C6 84 24 C8 01 00 00 ...........$....
005C0C20 1F 74 10 83 46 04 FF 75 0A 8B 06 8B 10 6A 01 8B .t..F..u.....j..
005C0C30 CE FF D2 8D 8C 24 14 01 00 00 C6 84 24 C8 01 00 .....$......$...
005C0C40 00 1C FF 15 38 43 8A 00 8B 1B 8B 44 24 18 3B 58 ....8C.....D$.;X
005C0C50 04 0F 85 97 FE FF FF 8D 4C 24 50 FF 15 B0 43 8A ........L$P...C.
005C0C60 00 8B 17 50 8B 42 34 8B CF C6 84 24 CC 01 00 00 ...P.B4....$....
005C0C70 23 FF D0 84 C0 8D 4C 24 50 0F 94 C3 C6 84 24 C8 #.....L$P.....$.
005C0C80 01 00 00 1C FF 15 38 43 8A 00 84 DB 74 45 8D 8C ......8C....tE..
005C0C90 24 30 01 00 00 51 E8 E5 3E E4 FF 83 C4 04 8D 4C $0...Q..>......L
005C0CA0 24 50 FF 15 B0 43 8A 00 8B 17 50 8B 42 34 8B CF $P...C....P.B4..
005C0CB0 C6 84 24 CC 01 00 00 24 FF D0 84 C0 8D 4C 24 50 ..$....$.....L$P
005C0CC0 0F 94 C3 C6 84 24 C8 01 00 00 1C FF 15 38 43 8A .....$.......8C.
005C0CD0 00 EB 02 32 DB 85 ED C6 84 24 C8 01 00 00 1A 74 ...2.....$.....t
005C0CE0 16 8B CD E8 F8 0D E4 FF 83 F8 01 75 0A 8B 55 00 ...........u..U.
005C0CF0 50 8B 02 8B CD FF D0 84 DB 74 1B 8D 8C 24 F8 00 P........t...$..
005C0D00 00 00 FF 15 54 43 8A 00 50 68 A4 3F 8C 00 E8 6D ....TC..Ph.?...m
005C0D10 FF F5 FF 83 C4 08 8B 4C 24 38 51 8B C4 33 FF 89 .......L$8Q..3..
005C0D20 38 8B 11 8B 42 3C 89 64 24 4C FF D0 89 7C 24 18 8...B<.d$L...|$.
005C0D30 8D 4C 24 18 51 8D 4C 24 3C C6 84 24 CC 01 00 00 .L$.Q.L$<..$....
005C0D40 25 E8 7A E3 00 00 89 7C 24 18 8D 54 24 18 52 8D %.z....|$..T$.R.
005C0D50 4C 24 28 C6 84 24 CC 01 00 00 26 E8 60 E3 00 00 L$(..$....&.`...
005C0D60 89 7C 24 18 8D 44 24 18 50 8D 4C 24 2C C6 84 24 .|$..D$.P.L$,..$
005C0D70 CC 01 00 00 27 E8 46 E3 00 00 8B 44 24 3C 3B C7 ....'.F....D$<;.
005C0D80 C6 84 24 C8 01 00 00 1A 74 0C 8B 08 8B 51 08 50 ..$.....t....Q.P
005C0D90 FF D2 89 7C 24 3C 8B 4C 24 38 3B CF C6 84 24 C8 ...|$<.L$8;...$.
005C0DA0 01 00 00 17 74 1A 8B F1 E8 33 0D E4 FF 83 F8 01 ....t....3......
005C0DB0 75 0E 3B F7 74 0A 8B 06 8B 10 6A 01 8B CE FF D2 u.;.t.....j.....
005C0DC0 8B 74 24 24 3B F7 89 7C 24 38 C6 84 24 C8 01 00 .t$$;..|$8..$...
005C0DD0 00 14 74 16 8B CE E8 05 0D E4 FF 83 F8 01 75 0A ..t...........u.
005C0DE0 8B 06 8B 10 6A 01 8B CE FF D2 8D 8C 24 A0 01 00 ....j.......$...
005C0DF0 00 C6 84 24 C8 01 00 00 13 FF 15 38 43 8A 00 8B ...$.......8C...
005C0E00 4C 24 28 3B CF C6 84 24 C8 01 00 00 12 74 1A 8B L$(;...$.....t..
005C0E10 F1 E8 CA 0C E4 FF 83 F8 01 75 0E 3B F7 74 0A 8B .........u.;.t..
005C0E20 06 8B 10 6A 01 8B CE FF D2 8D 8C 24 4C 01 00 00 ...j.......$L...
005C0E30 89 7C 24 28 C6 84 24 C8 01 00 00 0D FF 15 38 43 .|$(..$.......8C
005C0E40 8A 00 8B 6C 24 20 33 FF E9 E9 01 00 00 33 FF 8B ...l$ 3......3..
005C0E50 44 24 40 3B C7 74 09 50 E8 BD 41 0D 00 83 C4 04 D$@;.t.P..A.....
005C0E60 8B 44 24 1C 3B C7 74 0A 8B 08 8B 51 0C 50 FF D2 .D$.;.t....Q.P..
005C0E70 EB 05 B8 8F 69 8A 00 50 8B CB FF 15 54 43 8A 00 ....i..P....TC..
005C0E80 50 68 60 3F 8C 00 E8 F5 FD F5 FF 8B 44 24 40 83 Ph`?........D$@.
005C0E90 C4 0C 3B C7 74 0C 8B 08 8B 51 08 50 FF D2 89 7C ..;.t....Q.P...|
005C0EA0 24 34 8B 44 24 1C 3B C7 74 0C 8B 08 8B 51 08 50 $4.D$.;.t....Q.P
005C0EB0 FF D2 89 7C 24 1C 8B 74 24 44 89 3E E9 94 01 00 ...|$..t$D.>....
005C0EC0 00 8D 44 24 24 50 E8 F5 39 E4 FF 8B C8 E8 0E 1A ..D$$P..9.......
005C0ED0 E4 FF 8B 00 57 8D 8C 24 FC 00 00 00 51 8D 54 24 ....W..$....Q.T$
005C0EE0 30 52 8B C8 C6 84 24 D4 01 00 00 28 E8 8F D8 E4 0R....$....(....
005C0EF0 FF 8B 4C 24 24 3B CF C6 84 24 C8 01 00 00 2A 74 ..L$$;...$....*t
005C0F00 1A 8B F1 E8 D8 0B E4 FF 83 F8 01 75 0E 3B F7 74 ...........u.;.t
005C0F10 0A 8B 06 8B 10 6A 01 8B CE FF D2 39 7C 24 28 89 .....j.....9|$(.
005C0F20 7C 24 24 0F 84 CE 01 00 00 68 F4 3E 8C 00 8D 8C |$$......h.>....
005C0F30 24 50 01 00 00 FF 15 34 43 8A 00 8D 84 24 4C 01 $P.....4C....$L.
005C0F40 00 00 50 8D 4C 24 34 51 8B 4C 24 30 B3 2B 88 9C ..P.L$4Q.L$0.+..
005C0F50 24 D0 01 00 00 E8 76 E6 E4 FF 8B 00 3B C7 74 0E $.....v.....;.t.
005C0F60 8B E8 3B EF 89 6C 24 20 74 04 83 45 04 01 8B 44 ..;..l$ t..E...D
005C0F70 24 30 3B C7 88 9C 24 C8 01 00 00 74 15 83 40 04 $0;...$....t..@.
005C0F80 FF 8B C8 83 C0 04 39 38 75 08 8B 11 8B 02 6A 01 ......98u.....j.
005C0F90 FF D0 8D 8C 24 4C 01 00 00 89 7C 24 30 C6 84 24 ....$L....|$0..$
005C0FA0 C8 01 00 00 2A FF 15 38 43 8A 00 3B EF 75 5D E8 ....*..8C..;.u].
005C0FB0 0C 39 E4 FF 8B C8 E8 45 07 E4 FF 8B 10 8B 52 10 .9.....E......R.
005C0FC0 8D 8C 24 F8 00 00 00 51 8D 4C 24 1C 51 8B C8 FF ..$....Q.L$.Q...
005C0FD0 D2 50 8D 4C 24 24 C6 84 24 CC 01 00 00 2D E8 8D .P.L$$..$....-..
005C0FE0 8B F6 FF 8B 44 24 18 3B C7 C6 84 24 C8 01 00 00 ....D$.;...$....
005C0FF0 2A 74 15 83 40 04 FF 8B C8 83 C0 04 39 38 75 08 *t..@.......98u.
005C1000 8B 01 8B 10 6A 01 FF D2 8B 6C 24 20 8B 4C 24 28 ....j....l$ .L$(
005C1010 3B CF C6 84 24 C8 01 00 00 0D 74 1A 8B F1 E8 BD ;...$.....t.....
005C1020 0A E4 FF 83 F8 01 75 0E 3B F7 74 0A 8B 06 8B 10 ......u.;.t.....
005C1030 6A 01 8B CE FF D2 8B 44 24 40 3B C7 74 09 50 E8 j......D$@;.t.P.
005C1040 D6 3F 0D 00 83 C4 04 3B EF 8B 74 24 44 89 2E 74 .?.....;..t$D..t
005C1050 04 83 45 04 01 83 4C 24 14 10 3B EF C6 84 24 C8 ..E...L$..;...$.
005C1060 01 00 00 0C 74 11 83 45 04 FF 75 0B 8B 45 00 8B ....t..E..u..E..
005C1070 10 6A 01 8B CD FF D2 8D 8C 24 F8 00 00 00 C6 84 .j.......$......
005C1080 24 C8 01 00 00 03 FF 15 38 43 8A 00 8D 8C 24 84 $.......8C....$.
005C1090 01 00 00 C6 84 24 C8 01 00 00 02 FF 15 38 43 8A .....$.......8C.
005C10A0 00 8D 8C 24 68 01 00 00 C6 84 24 C8 01 00 00 01 ...$h.....$.....
005C10B0 FF 15 38 43 8A 00 8D 8C 24 30 01 00 00 C6 84 24 ..8C....$0.....$
005C10C0 C8 01 00 00 00 FF 15 38 43 8A 00 8B C6 8B 8C 24 .......8C......$
005C10D0 C0 01 00 00 64 89 0D 00 00 00 00 59 5F 5E 5D 5B ....d......Y_^][
005C10E0 8B 8C 24 A8 01 00 00 33 CC E8 A0 3A 0D 00 81 C4 ..$....3...:....
005C10F0 B8 01 00 00 C2 0C 00 E8 C4 37 E4 FF 8B C8 E8 FD .........7......
005C1100 05 E4 FF 8B 10 8B 52 10 8D 8C 24 F8 00 00 00 51 ......R...$....Q
005C1110 8D 4C 24 1C 51 8B C8 FF D2 8B 00 3B C7 74 0E 8B .L$.Q......;.t..
005C1120 E8 3B EF 89 6C 24 20 74 04 83 45 04 01 8B 44 24 .;..l$ t..E...D$
005C1130 18 3B C7 C6 84 24 C8 01 00 00 2A 0F 84 CB FE FF .;...$....*.....
005C1140 FF 83 40 04 FF 8B C8 83 C0 04 39 38 0F 85 BA FE ..@.......98....
005C1150 FF FF 8B 01 8B 10 6A 01 FF D2 E9 AD FE FF FF CC ......j.........
005C1160 6A FF 68 97 E6 85 00 64 A1 00 00 00 00 50 81 EC j.h....d.....P..
005C1170 08 01 00 00 A1 88 41 A1 00 33 C4 89 84 24 04 01 ......A..3...$..
005C1180 00 00 53 55 56 57 A1 88 41 A1 00 33 C4 50 8D 84 ..SUVW..A..3.P..
005C1190 24 1C 01 00 00 64 A3 00 00 00 00 8B B4 24 2C 01 $....d.......$,.
005C11A0 00 00 8B F9 33 DB 56 8D 4F 2C 89 5C 24 18 FF 15 ....3.V.O,.\$...
005C11B0 58 43 8A 00 8B CF E8 85 8A FF FF 56 8D 8C 24 90 XC.........V..$.
005C11C0 00 00 00 8B E8 FF 15 3C 43 8A 00 8D 84 24 E0 00 .......<C....$..
005C11D0 00 00 56 50 89 9C 24 2C 01 00 00 E8 20 20 E4 FF ..VP..$,....  ..
005C11E0 83 C4 08 C6 84 24 24 01 00 00 01 E8 B0 E7 FF FF .....$$.........
005C11F0 8D 8C 24 E0 00 00 00 51 8D 48 20 FF 15 58 43 8A ..$....Q.H ..XC.
005C1200 00 8B 15 34 32 A6 00 83 C2 34 52 8D 8C 24 AC 00 ...42....4R..$..
005C1210 00 00 FF 15 3C 43 8A 00 8D 84 24 8C 00 00 00 50 ....<C....$....P
005C1220 8D 8C 24 C8 00 00 00 51 C6 84 24 2C 01 00 00 02 ..$....Q..$,....
005C1230 E8 EB 05 E4 FF 83 C4 08 39 9C 24 BC 00 00 00 C6 ........9.$.....
005C1240 84 24 24 01 00 00 03 74 76 8B 35 D4 43 8A 00 68 .$$....tv.5.C..h
005C1250 90 69 8A 00 8D 94 24 C8 00 00 00 52 8D 44 24 24 .i....$....R.D$$
005C1260 50 FF D6 8D 8C 24 B4 00 00 00 51 50 8D 54 24 68 P....$....QP.T$h
005C1270 52 C6 84 24 3C 01 00 00 04 C7 44 24 2C 01 00 00 R..$<.....D$,...
005C1280 00 FF 15 50 43 8A 00 68 20 40 8C 00 50 8D 84 24 ...PC..h @..P..$
005C1290 90 00 00 00 50 C7 84 24 48 01 00 00 05 00 00 00 ....P..$H.......
005C12A0 C7 44 24 38 03 00 00 00 FF D6 83 C4 24 C7 84 24 .D$8........$..$
005C12B0 24 01 00 00 06 00 00 00 BB 07 00 00 00 EB 2B 68 $.............+h
005C12C0 20 40 8C 00 8D 8C 24 C8 00 00 00 51 8D 54 24 40  @....$....Q.T$@
005C12D0 52 FF 15 D4 43 8A 00 83 C4 0C C7 84 24 24 01 00 R...C.......$$..
005C12E0 00 07 00 00 00 BB 08 00 00 00 50 8D 8C 24 00 01 ..........P..$..
005C12F0 00 00 89 5C 24 18 FF 15 3C 43 8A 00 F6 C3 08 C7 ...\$...<C......
005C1300 84 24 24 01 00 00 09 00 00 00 74 11 83 E3 F7 8D .$$.......t.....
005C1310 4C 24 38 89 5C 24 14 FF 15 38 43 8A 00 F6 C3 04 L$8.\$...8C.....
005C1320 C6 84 24 24 01 00 00 0A 74 11 83 E3 FB 8D 4C 24 ..$$....t.....L$
005C1330 70 89 5C 24 14 FF 15 38 43 8A 00 F6 C3 02 C6 84 p.\$...8C.......
005C1340 24 24 01 00 00 0B 74 11 83 E3 FD 8D 4C 24 54 89 $$....t.....L$T.
005C1350 5C 24 14 FF 15 38 43 8A 00 F6 C3 01 C6 84 24 24 \$...8C.......$$
005C1360 01 00 00 0C 74 0A 8D 4C 24 1C FF 15 38 43 8A 00 ....t..L$...8C..
005C1370 55 8D 84 24 90 00 00 00 50 8D 4C 24 20 51 8B CF U..$....P.L$ Q..
005C1380 E8 BB F0 FF FF 8B 54 24 18 55 51 8B C4 89 10 8B ......T$.UQ.....
005C1390 44 24 20 85 C0 C6 84 24 2C 01 00 00 0D 89 64 24 D$ ....$,.....d$
005C13A0 1C 74 04 83 40 04 01 8B CF E8 42 EC FF FF 55 8A .t..@.....B...U.
005C13B0 D8 E8 64 3C 0D 00 8B 44 24 1C 83 C4 04 85 C0 C6 ..d<...D$.......
005C13C0 84 24 24 01 00 00 0C 74 16 83 40 04 FF 8B C8 83 .$$....t..@.....
005C13D0 C0 04 83 38 00 75 08 8B 01 8B 10 6A 01 FF D2 8D ...8.u.....j....
005C13E0 8C 24 FC 00 00 00 C7 44 24 18 00 00 00 00 C6 84 .$.....D$.......
005C13F0 24 24 01 00 00 03 FF 15 38 43 8A 00 8D 8C 24 C4 $$......8C....$.
005C1400 00 00 00 C6 84 24 24 01 00 00 02 FF 15 38 43 8A .....$$......8C.
005C1410 00 8D 8C 24 A8 00 00 00 C6 84 24 24 01 00 00 01 ...$......$$....
005C1420 FF 15 38 43 8A 00 8D 8C 24 E0 00 00 00 C6 84 24 ..8C....$......$
005C1430 24 01 00 00 00 FF 15 38 43 8A 00 8D 8C 24 8C 00 $......8C....$..
005C1440 00 00 C7 84 24 24 01 00 00 FF FF FF FF FF 15 38 ....$$.........8
005C1450 43 8A 00 8A C3 8B 8C 24 1C 01 00 00 64 89 0D 00 C......$....d...
005C1460 00 00 00 59 5F 5E 5D 5B 8B 8C 24 04 01 00 00 33 ...Y_^][..$....3
005C1470 CC E8 18 37 0D 00 81 C4 14 01 00 00 C2 04 00 CC ...7............
005C1480 53 55 8B E9 8B 5D 08 56 8B 33 3B F3 57 74 7C 90 SU...].V.3;.Wt|.
005C1490 8B 7E 28 80 7F 78 00 75 0B 8D 47 2C 50 8B CF E8 .~(..x.u..G,P...
005C14A0 6C DC FF FF 8B 7F 74 85 FF 74 17 8B 4D 68 E8 9D l.....t..t..Mh..
005C14B0 AC F1 FF B9 03 00 00 00 2B C8 51 8B CF E8 DE 88 ........+.Q.....
005C14C0 FF FF 80 7E 2D 00 75 3F 8B 46 08 80 78 2D 00 75 ...~-.u?.F..x-.u
005C14D0 1B 8B F0 8B 06 80 78 2D 00 75 2C EB 03 8D 49 00 ......x-.u,...I.
005C14E0 8B F0 8B 06 80 78 2D 00 74 F6 EB 1B 8B 46 04 80 .....x-.t....F..
005C14F0 78 2D 00 75 10 3B 70 08 75 0B 8B F0 8B 40 04 80 x-.u.;p.u....@..
005C1500 78 2D 00 74 F0 8B F0 3B F3 75 85 8B 55 60 6A FF x-.t...;.u..U`j.
005C1510 52 FF 15 F4 40 8A 00 C6 45 64 01 8B 75 54 8B 5D R...@...Ed..uT.]
005C1520 58 3B F3 74 1B BF 03 00 00 00 2B 7C 24 14 8B FF X;.t......+|$...
005C1530 8B 0E 8B 01 8B 10 57 FF D2 83 C6 04 3B F3 75 F0 ......W.....;.u.
005C1540 8B 45 60 5F 5E C6 45 64 00 5D 5B 89 44 24 04 FF .E`_^.Ed.][.D$..
005C1550 25 F0 40 8A 00 CC CC CC CC CC CC CC CC CC CC CC %.@.............
005C1560 6A FF 68 DB E6 85 00 64 A1 00 00 00 00 50 51 56 j.h....d.....PQV
005C1570 57 A1 88 41 A1 00 33 C4 50 8D 44 24 10 64 A3 00 W..A..3.P.D$.d..
005C1580 00 00 00 8B 7C 24 20 8B 0D 34 32 A6 00 57 E8 3D ....|$ ..42..W.=
005C1590 9A FF FF 85 C0 0F 85 82 00 00 00 6A 7C E8 36 3A ...........j|.6:
005C15A0 0D 00 83 C4 04 89 44 24 0C 85 C0 C7 44 24 18 00 ......D$....D$..
005C15B0 00 00 00 74 0B 8B C8 E8 E4 E2 FF FF 8B F0 EB 02 ...t............
005C15C0 33 F6 57 8B CE C7 44 24 1C FF FF FF FF E8 8E FB 3.W...D$........
005C15D0 FF FF 84 C0 74 21 8B 0D 34 32 A6 00 57 56 E8 8D ....t!..42..WV..
005C15E0 AB FF FF 8B C6 8B 4C 24 10 64 89 0D 00 00 00 00 ......L$.d......
005C15F0 59 5F 5E 83 C4 10 C3 8B CF FF 15 54 43 8A 00 50 Y_^........TC..P
005C1600 68 28 40 8C 00 E8 76 F6 F5 FF 83 C4 08 85 F6 74 h(@...v........t
005C1610 0A 8B 06 8B 10 6A 01 8B CE FF D2 33 C0 8B 4C 24 .....j.....3..L$
005C1620 10 64 89 0D 00 00 00 00 59 5F 5E 83 C4 10 C3 CC .d......Y_^.....
005C1630 6A FF 68 0B E7 85 00 64 A1 00 00 00 00 50 51 56 j.h....d.....PQV
005C1640 57 A1 88 41 A1 00 33 C4 50 8D 44 24 10 64 A3 00 W..A..3.P.D$.d..
005C1650 00 00 00 8B 7C 24 20 8B 0D 34 32 A6 00 57 E8 6D ....|$ ..42..W.m
005C1660 99 FF FF 85 C0 75 72 6A 7C E8 6A 39 0D 00 83 C4 .....urj|.j9....
005C1670 04 89 44 24 0C 85 C0 C7 44 24 18 00 00 00 00 74 ..D$....D$.....t
005C1680 0B 8B C8 E8 18 E2 FF FF 8B F0 EB 02 33 F6 6A 00 ............3.j.
005C1690 57 8D 44 24 14 50 8B CE C7 44 24 24 FF FF FF FF W.D$.P...D$$....
005C16A0 E8 9B ED FF FF 8B 44 24 0C 85 C0 74 16 83 40 04 ......D$...t..@.
005C16B0 FF 8B C8 83 C0 04 83 38 00 75 08 8B 11 8B 02 6A .......8.u.....j
005C16C0 01 FF D0 85 F6 C7 44 24 0C 00 00 00 00 74 0A 8B ......D$.....t..
005C16D0 16 8B 02 6A 01 8B CE FF D0 8B 4C 24 10 64 89 0D ...j......L$.d..
005C16E0 00 00 00 00 59 5F 5E 83 C4 10 C3 CC CC CC CC CC ....Y_^.........
005C16F0 6A FF 68 3E E7 85 00 64 A1 00 00 00 00 50 A1 88 j.h>...d.....P..
005C1700 41 A1 00 33 C4 50 8D 44 24 04 64 A3 00 00 00 00 A..3.P.D$.d.....
005C1710 B8 01 00 00 00 84 05 C0 32 A6 00 75 24 09 05 C0 ........2..u$...
005C1720 32 A6 00 33 C0 68 60 07 8A 00 A3 B4 32 A6 00 A3 2..3.h`.....2...
005C1730 B8 32 A6 00 A3 BC 32 A6 00 E8 4E 35 0D 00 83 C4 .2....2...N5....
005C1740 04 B8 B0 32 A6 00 8B 4C 24 04 64 89 0D 00 00 00 ...2...L$.d.....
005C1750 00 59 83 C4 0C C3 CC CC CC CC CC CC CC CC CC CC .Y..............
005C1760 51 56 8B F1 8B 56 04 85 D2 75 04 33 C9 EB 08 8B QV...V...u.3....
005C1770 4E 08 2B CA C1 F9 02 85 D2 74 3C 8B 46 0C 2B C2 N.+......t<.F.+.
005C1780 C1 F8 02 3B C8 73 30 8B 4C 24 0C 8B 54 24 0C 57 ...;.s0.L$..T$.W
005C1790 8B 7E 08 C6 44 24 08 00 8B 44 24 08 50 51 56 52 .~..D$...D$.PQVR
005C17A0 6A 01 57 E8 F8 44 F0 FF 83 C4 18 83 C7 04 89 7E j.W..D.........~
005C17B0 08 5F 5E 59 C2 04 00 8B 4C 24 0C 8B 46 08 51 6A ._^Y....L$..F.Qj
005C17C0 01 50 8B CE E8 67 CF FF FF 5E 59 C2 04 00 CC CC .P...g...^Y.....
005C17D0 51 56 8B F1 8B 56 04 85 D2 75 04 33 C9 EB 08 8B QV...V...u.3....
005C17E0 4E 08 2B CA C1 F9 02 85 D2 74 3C 8B 46 0C 2B C2 N.+......t<.F.+.
005C17F0 C1 F8 02 3B C8 73 30 8B 4C 24 0C 8B 54 24 0C 57 ...;.s0.L$..T$.W
005C1800 8B 7E 08 C6 44 24 08 00 8B 44 24 08 50 51 56 52 .~..D$...D$.PQVR
005C1810 6A 01 57 E8 88 44 F0 FF 83 C4 18 83 C7 04 89 7E j.W..D.........~
005C1820 08 5F 5E 59 C2 04 00 8B 4C 24 0C 8B 46 08 51 6A ._^Y....L$..F.Qj
005C1830 01 50 8B CE E8 B7 D1 FF FF 5E 59 C2 04 00 CC CC .P.......^Y.....
005C1840 6A FF 68 68 E7 85 00 64 A1 00 00 00 00 50 83 EC j.hh...d.....P..
005C1850 08 53 56 57 A1 88 41 A1 00 33 C4 50 8D 44 24 18 .SVW..A..3.P.D$.
005C1860 64 A3 00 00 00 00 8B D9 8B 43 24 8B 7B 20 3B F8 d........C$.{ ;.
005C1870 89 44 24 14 74 5A 8B 47 04 8B 08 85 C9 74 48 8B .D$.tZ.G.....tH.
005C1880 37 8B 43 0C 8B 11 56 50 8B 42 08 FF D0 8B F0 85 7.C...VP.B......
005C1890 F6 74 34 83 46 04 01 89 74 24 10 8D 4C 24 10 51 .t4.F...t$..L$.Q
005C18A0 8B 4C 24 2C C7 44 24 24 00 00 00 00 E8 AF FE FF .L$,.D$$........
005C18B0 FF 83 C8 FF 01 46 04 89 44 24 20 75 0A 8B 16 8B .....F..D$ u....
005C18C0 02 6A 01 8B CE FF D0 83 C7 08 3B 7C 24 14 75 A6 .j........;|$.u.
005C18D0 8B 4C 24 18 64 89 0D 00 00 00 00 59 5F 5E 5B 83 .L$.d......Y_^[.
005C18E0 C4 14 C2 04 00 CC CC CC CC CC CC CC CC CC CC CC ................
005C18F0 6A FF 68 98 E7 85 00 64 A1 00 00 00 00 50 A1 88 j.h....d.....P..
005C1900 41 A1 00 33 C4 50 8D 44 24 04 64 A3 00 00 00 00 A..3.P.D$.d.....
005C1910 8D 44 24 14 50 C7 44 24 10 00 00 00 00 E8 CE FD .D$.P.D$........
005C1920 FF FF 8B C8 E8 A7 FE FF FF 8B 4C 24 14 83 C8 FF ..........L$....
005C1930 85 C9 89 44 24 0C 74 0D 01 41 04 75 08 8B 11 8B ...D$.t..A.u....
005C1940 02 6A 01 FF D0 8B 4C 24 04 64 89 0D 00 00 00 00 .j....L$.d......
005C1950 59 83 C4 0C C3 CC CC CC CC CC CC CC CC CC CC CC Y...............
005C1960 6A FF 68 D8 E7 85 00 64 A1 00 00 00 00 50 81 EC j.h....d.....P..
005C1970 A4 00 00 00 56 57 A1 88 41 A1 00 33 C4 50 8D 84 ....VW..A..3.P..
005C1980 24 B0 00 00 00 64 A3 00 00 00 00 6A 01 6A 03 8D $....d.....j.j..
005C1990 4C 24 30 FF 15 90 44 8A 00 C7 84 24 B8 00 00 00 L$0...D....$....
005C19A0 00 00 00 00 E8 47 FD FF FF 8B 70 04 E8 3F FD FF .....G....p..?..
005C19B0 FF 8B 78 08 3B F7 74 19 8B 0E E8 91 A7 F1 FF 50 ..x.;.t........P
005C19C0 8D 4C 24 34 FF 15 80 44 8A 00 83 C6 04 3B F7 75 .L$4...D.....;.u
005C19D0 E7 8D 44 24 0C 50 8D 4C 24 2C FF 15 B4 44 8A 00 ..D$.P.L$,...D..
005C19E0 8B 0D 34 32 A6 00 50 83 C1 34 C6 84 24 BC 00 00 ..42..P..4..$...
005C19F0 00 01 FF 15 58 43 8A 00 8D 4C 24 0C C6 84 24 B8 ....XC...L$...$.
005C1A00 00 00 00 00 FF 15 38 43 8A 00 8D 4C 24 28 C7 84 ......8C...L$(..
005C1A10 24 B8 00 00 00 FF FF FF FF FF 15 88 44 8A 00 8B $...........D...
005C1A20 8C 24 B0 00 00 00 64 89 0D 00 00 00 00 59 5F 5E .$....d......Y_^
005C1A30 81 C4 B0 00 00 00 C3 CC CC CC CC CC CC CC CC CC ................
005C1A40 51 56 57 E8 A8 FC FF FF 8B 70 04 E8 A0 FC FF FF QVW......p......
005C1A50 8B 78 08 3B F7 74 29 8B 06 50 8B 40 68 FF D0 8B .x.;.t)..P.@h...
005C1A60 06 85 C0 8B CC 89 64 24 0C 89 01 74 04 83 40 04 ......d$...t..@.
005C1A70 01 E8 AA 95 01 00 83 C6 04 83 C4 04 3B F7 75 D7 ............;.u.
005C1A80 5F 5E 59 C3 CC CC CC CC CC CC CC CC CC CC CC CC _^Y.............
005C1A90 51 56 8B F1 8B 56 04 85 D2 75 04 33 C9 EB 08 8B QV...V...u.3....
005C1AA0 4E 08 2B CA C1 F9 03 85 D2 74 3C 8B 46 0C 2B C2 N.+......t<.F.+.
005C1AB0 C1 F8 03 3B C8 73 30 8B 4C 24 0C 8B 54 24 0C 57 ...;.s0.L$..T$.W
005C1AC0 8B 7E 08 C6 44 24 08 00 8B 44 24 08 50 51 56 52 .~..D$...D$.PQVR
005C1AD0 6A 01 57 E8 A8 D4 FF FF 83 C4 18 83 C7 08 89 7E j.W............~
005C1AE0 08 5F 5E 59 C2 04 00 8B 4C 24 0C 8B 46 08 51 6A ._^Y....L$..F.Qj
005C1AF0 01 50 8B CE E8 D7 DA FF FF 5E 59 C2 04 00 CC CC .P.......^Y.....
005C1B00 6A FF 68 94 E8 85 00 64 A1 00 00 00 00 50 81 EC j.h....d.....P..
005C1B10 B4 00 00 00 A1 88 41 A1 00 33 C4 89 84 24 B0 00 ......A..3...$..
005C1B20 00 00 53 55 56 57 A1 88 41 A1 00 33 C4 50 8D 84 ..SUVW..A..3.P..
005C1B30 24 C8 00 00 00 64 A3 00 00 00 00 8B BC 24 E8 00 $....d.......$..
005C1B40 00 00 8B 84 24 EC 00 00 00 8B B4 24 D8 00 00 00 ....$......$....
005C1B50 8B AC 24 E0 00 00 00 33 DB 89 1F 89 74 24 34 89 ..$....3....t$4.
005C1B60 6C 24 30 89 7C 24 18 89 44 24 28 89 18 89 5C 24 l$0.|$..D$(...\$
005C1B70 24 55 8D 4C 24 58 89 9C 24 D4 00 00 00 FF 15 34 $U.L$X..$......4
005C1B80 43 8A 00 53 8D 44 24 58 50 8D 4C 24 1C 51 C6 84 C..S.D$XP.L$.Q..
005C1B90 24 DC 00 00 00 01 E8 85 0E E4 FF 83 C4 0C 8D 4C $..............L
005C1BA0 24 54 C6 84 24 D0 00 00 00 03 FF 15 38 43 8A 00 $T..$.......8C..
005C1BB0 8B 4C 24 14 85 C9 74 53 8B 11 8B 52 70 8D 44 24 .L$...tS...Rp.D$
005C1BC0 18 50 FF D2 8B 00 85 C0 74 0E 8B D8 85 DB 89 5C .P......t......\
005C1BD0 24 24 74 04 83 43 04 01 8B 44 24 18 85 C0 C6 84 $$t..C...D$.....
005C1BE0 24 D0 00 00 00 03 0F 84 C7 02 00 00 83 40 04 FF $............@..
005C1BF0 8B C8 83 C0 04 83 38 00 0F 85 B5 02 00 00 8B 01 ......8.........
005C1C00 8B 10 6A 01 FF D2 E9 A8 02 00 00 55 8D 4C 24 3C ..j........U.L$<
005C1C10 FF 15 34 43 8A 00 8D 44 24 38 50 8D 8C 24 AC 00 ..4C...D$8P..$..
005C1C20 00 00 51 C6 84 24 D8 00 00 00 05 E8 20 FB E3 FF ..Q..$...... ...
005C1C30 83 C4 08 8D 4C 24 38 C6 84 24 D0 00 00 00 07 FF ....L$8..$......
005C1C40 15 38 43 8A 00 8B 2D 50 43 8A 00 8D 94 24 A8 00 .8C...-PC....$..
005C1C50 00 00 52 83 C6 20 8D 84 24 90 00 00 00 56 50 FF ..R.. ..$....VP.
005C1C60 D5 6A 00 8D 8C 24 9C 00 00 00 51 8D 54 24 30 52 .j...$....Q.T$0R
005C1C70 C6 84 24 E8 00 00 00 08 E8 A3 0D E4 FF 83 C4 18 ..$.............
005C1C80 8B 00 8B 4C 24 14 3B C8 C6 84 24 D0 00 00 00 09 ...L$.;...$.....
005C1C90 74 33 8B F1 8B C8 85 C9 89 4C 24 14 74 09 E8 2D t3.......L$.t..-
005C1CA0 FE E3 FF 8B 4C 24 14 85 F6 74 1A 8B CE E8 2E FE ....L$...t......
005C1CB0 E3 FF 83 F8 01 75 0A 8B 06 8B 10 6A 01 8B CE FF .....u.....j....
005C1CC0 D2 8B 4C 24 14 8B 74 24 1C 85 F6 C6 84 24 D0 00 ..L$..t$.....$..
005C1CD0 00 00 08 74 1E 8B CE E8 04 FE E3 FF 83 F8 01 75 ...t...........u
005C1CE0 0E 85 F6 74 0A 8B 06 8B 10 6A 01 8B CE FF D2 8B ...t.....j......
005C1CF0 4C 24 14 85 C9 74 53 8B 01 8B 40 70 8D 54 24 18 L$...tS...@p.T$.
005C1D00 52 FF D0 8B 00 85 C0 74 0E 8B D8 85 DB 89 5C 24 R......t......\$
005C1D10 24 74 04 83 43 04 01 8B 44 24 18 85 C0 C6 84 24 $t..C...D$.....$
005C1D20 D0 00 00 00 08 0F 84 56 01 00 00 83 40 04 FF 8B .......V....@...
005C1D30 C8 83 C0 04 83 38 00 0F 85 44 01 00 00 8B 11 8B .....8...D......
005C1D40 02 6A 01 FF D0 E9 37 01 00 00 A1 34 32 A6 00 8B .j....7....42...
005C1D50 70 14 8B 40 18 3B F0 89 44 24 20 0F 84 20 01 00 p..@.;..D$ .. ..
005C1D60 00 8D 8C 24 A8 00 00 00 8B C6 51 50 8D 54 24 78 ...$......QP.T$x
005C1D70 52 83 C6 1C FF D5 83 C4 0C 50 8D 8C 24 90 00 00 R........P..$...
005C1D80 00 C6 84 24 D4 00 00 00 0B FF 15 58 43 8A 00 8D ...$.......XC...
005C1D90 4C 24 70 C6 84 24 D0 00 00 00 08 FF 15 38 43 8A L$p..$.......8C.
005C1DA0 00 6A 00 8D 84 24 90 00 00 00 50 8D 4C 24 24 51 .j...$....P.L$$Q
005C1DB0 E8 6B 0C E4 FF 83 C4 0C 8B 00 8B 7C 24 14 3B F8 .k.........|$.;.
005C1DC0 C6 84 24 D0 00 00 00 0C 74 28 85 C0 89 44 24 14 ..$.....t(...D$.
005C1DD0 74 07 8B C8 E8 F7 FC E3 FF 85 FF 74 15 8B CF E8 t..........t....
005C1DE0 FC FC E3 FF 83 F8 01 75 09 8B 17 50 8B 02 8B CF .......u...P....
005C1DF0 FF D0 8B 4C 24 1C 85 C9 C6 84 24 D0 00 00 00 08 ...L$.....$.....
005C1E00 74 19 8B F9 E8 D7 FC E3 FF 83 F8 01 75 0D 85 FF t...........u...
005C1E10 74 09 8B 17 50 8B 02 8B CF FF D0 8B 4C 24 14 85 t...P.......L$..
005C1E20 C9 C7 44 24 1C 00 00 00 00 75 0C 3B 74 24 20 0F ..D$.....u.;t$ .
005C1E30 85 2C FF FF FF EB 46 8B 11 8B 52 70 8D 44 24 20 .,....F...Rp.D$ 
005C1E40 50 FF D2 8B 00 85 C0 74 0E 8B D8 85 DB 89 5C 24 P......t......\$
005C1E50 24 74 04 83 43 04 01 8B 44 24 20 85 C0 C6 84 24 $t..C...D$ ....$
005C1E60 D0 00 00 00 08 74 16 83 40 04 FF 8B C8 83 C0 04 .....t..@.......
005C1E70 83 38 00 75 08 8B 01 8B 10 6A 01 FF D2 8B 7C 24 .8.u.....j....|$
005C1E80 18 8D 8C 24 8C 00 00 00 C6 84 24 D0 00 00 00 07 ...$......$.....
005C1E90 FF 15 38 43 8A 00 8D 8C 24 A8 00 00 00 C6 84 24 ..8C....$......$
005C1EA0 D0 00 00 00 03 FF 15 38 43 8A 00 8B 74 24 34 8B .......8C...t$4.
005C1EB0 6C 24 30 85 DB 0F 84 00 01 00 00 8B 43 08 8B 54 l$0.........C..T
005C1EC0 24 28 89 07 8B 4B 0C 51 89 0A 89 64 24 2C 8B C4 $(...K.Q...d$,..
005C1ED0 89 18 83 43 04 01 8B 07 50 8D 4C 24 30 51 E8 ED ...C....P.L$0Q..
005C1EE0 CF FF FF 83 C4 0C 50 8D 4E 04 C6 84 24 D4 00 00 ......P.N...$...
005C1EF0 00 0E E8 99 FB FF FF 8B 44 24 2C 85 C0 C6 84 24 ........D$,....$
005C1F00 D0 00 00 00 03 74 16 83 40 04 FF 8B C8 83 C0 04 .....t..@.......
005C1F10 83 38 00 75 08 8B 11 8B 02 6A 01 FF D0 55 8D 4C .8.u.....j...U.L
005C1F20 24 3C FF 15 34 43 8A 00 8B 7E 18 8B 57 04 83 C6 $<..4C...~..W...
005C1F30 14 8D 4C 24 38 51 52 57 8B CE C6 84 24 DC 00 00 ..L$8QRW....$...
005C1F40 00 0F E8 69 9F E5 FF 6A 01 8B CE 8B E8 E8 FE 9F ...i...j........
005C1F50 E5 FF 89 6F 04 8B 45 04 8D 4C 24 38 89 28 C6 84 ...o..E..L$8.(..
005C1F60 24 D0 00 00 00 03 FF 15 38 43 8A 00 8B 4C 24 14 $.......8C...L$.
005C1F70 85 C9 C6 84 24 D0 00 00 00 00 74 1A 8B F1 E8 5D ....$.....t....]
005C1F80 FB E3 FF 83 F8 01 75 0E 85 F6 74 0A 8B 06 8B 10 ......u...t.....
005C1F90 6A 01 8B CE FF D2 83 C8 FF C7 44 24 14 00 00 00 j.........D$....
005C1FA0 00 01 43 04 89 84 24 D0 00 00 00 75 0A 8B 03 8B ..C...$....u....
005C1FB0 10 6A 01 8B CB FF D2 33 C0 EB 3D 55 68 50 40 8C .j.....3..=UhP@.
005C1FC0 00 E8 BA EC F5 FF 8B 4C 24 1C 83 C4 08 85 C9 C6 .......L$.......
005C1FD0 84 24 D0 00 00 00 00 74 1A 8B F1 E8 00 FB E3 FF .$.....t........
005C1FE0 83 F8 01 75 0E 85 F6 74 0A 8B 06 8B 10 6A 01 8B ...u...t.....j..
005C1FF0 CE FF D2 B8 05 40 00 80 8B 8C 24 C8 00 00 00 64 .....@....$....d
005C2000 89 0D 00 00 00 00 59 5F 5E 5D 5B 8B 8C 24 B0 00 ......Y_^][..$..
005C2010 00 00 33 CC E8 75 2B 0D 00 81 C4 C0 00 00 00 C2 ..3..u+.........
005C2020 18 00 CC CC CC CC CC CC CC CC CC CC CC CC CC CC ................
005C2030 6A FF 68 0D E9 85 00 64 A1 00 00 00 00 50 81 EC j.h....d.....P..
005C2040 C4 00 00 00 55 56 57 A1 88 41 A1 00 33 C4 50 8D ....UVW..A..3.P.
005C2050 84 24 D4 00 00 00 64 A3 00 00 00 00 6A 6C E8 75 .$....d.....jl.u
005C2060 2F 0D 00 83 C4 04 89 44 24 10 85 C0 C7 84 24 DC /......D$.....$.
005C2070 00 00 00 00 00 00 00 74 09 8B C8 E8 20 D4 FF FF .......t.... ...
005C2080 EB 02 33 C0 83 CD FF 89 AC 24 DC 00 00 00 A3 34 ..3......$.....4
005C2090 32 A6 00 E8 A8 F9 FF FF E8 C3 F8 FF FF E8 4E 54 2.............NT
005C20A0 FE FF 0F B7 80 3A 02 00 00 0F B7 F8 68 8C 40 8C .....:......h.@.
005C20B0 00 8D 4C 24 18 C1 EF 08 FF 15 34 43 8A 00 8B 0D ..L$......4C....
005C20C0 34 32 A6 00 6A 00 6A 00 B8 03 00 00 00 2B C7 50 42..j.j......+.P
005C20D0 68 80 14 5C 00 51 8D 54 24 28 52 8D 44 24 28 BE h..\.Q.T$(R.D$(.
005C20E0 01 00 00 00 50 89 B4 24 F8 00 00 00 E8 AF 77 FF ....P..$......w.
005C20F0 FF 83 C4 1C 8B 15 34 32 A6 00 8B 00 8B 4A 68 3B ......42.....Jh;
005C2100 C8 C6 84 24 DC 00 00 00 02 74 1A 85 C0 89 42 68 ...$.....t....Bh
005C2110 74 03 01 70 04 85 C9 74 0C 01 69 04 75 07 8B 11 t..p...t..i.u...
005C2120 8B 02 56 FF D0 8B 44 24 10 85 C0 C6 84 24 DC 00 ..V...D$.....$..
005C2130 00 00 01 74 14 01 68 04 8B C8 83 C0 04 83 38 00 ...t..h.......8.
005C2140 75 07 8B 11 8B 02 56 FF D0 8D 4C 24 14 C7 44 24 u.....V...L$..D$
005C2150 10 00 00 00 00 89 AC 24 DC 00 00 00 FF 15 38 43 .......$......8C
005C2160 8A 00 BE 03 00 00 00 6A 01 6A 03 8D 4C 24 54 FF .......j.j..L$T.
005C2170 15 90 44 8A 00 56 8D 4C 24 58 68 7C 40 8C 00 51 ..D..V.L$Xh|@..Q
005C2180 C7 84 24 E8 00 00 00 03 00 00 00 E8 90 FD E3 FF ..$.............
005C2190 83 C4 08 8B C8 FF 15 80 44 8A 00 3B F7 8D 44 24 ........D..;..D$
005C21A0 30 0F 9E C2 50 8D 4C 24 50 88 54 24 14 FF 15 B4 0...P.L$P.T$....
005C21B0 44 8A 00 8B 54 24 10 8B 0D 34 32 A6 00 8B 49 68 D...T$...42...Ih
005C21C0 52 50 C6 84 24 E4 00 00 00 04 E8 81 86 01 00 8D RP..$...........
005C21D0 4C 24 30 C6 84 24 DC 00 00 00 03 FF 15 38 43 8A L$0..$.......8C.
005C21E0 00 8D 4C 24 4C 89 AC 24 DC 00 00 00 FF 15 88 44 ..L$L..$.......D
005C21F0 8A 00 83 EE 01 0F 89 6C FF FF FF A1 34 32 A6 00 .......l....42..
005C2200 8B 40 68 85 C0 51 8B CC 89 64 24 14 89 01 74 04 .@h..Q...d$...t.
005C2210 83 40 04 01 E8 07 8E 01 00 83 C4 04 8B 8C 24 D4 .@............$.
005C2220 00 00 00 64 89 0D 00 00 00 00 59 5F 5E 5D 81 C4 ...d......Y_^]..
005C2230 D0 00 00 00 C3 CC CC CC CC CC CC CC CC CC CC CC ................
005C2240 6A FF 68 4F E9 85 00 64 A1 00 00 00 00 50 51 56 j.hO...d.....PQV
005C2250 57 A1 88 41 A1 00 33 C4 50 8D 44 24 10 64 A3 00 W..A..3.P.D$.d..
005C2260 00 00 00 8B F1 89 74 24 0C 8B 44 24 20 6A 01 33 ......t$..D$ j.3
005C2270 FF 57 6A FF 50 E8 A6 84 01 00 8B 4C 24 24 51 8D .Wj.P......L$$Q.
005C2280 4E 4C 89 7C 24 1C C7 06 A0 40 8C 00 FF 15 3C 43 NL.|$....@....<C
005C2290 8A 00 8B 54 24 28 89 56 68 89 7E 70 89 7E 74 89 ...T$(.Vh.~p.~t.
005C22A0 7E 78 51 8B C4 89 30 83 46 04 01 C6 44 24 1C 02 ~xQ...0.F...D$..
005C22B0 89 64 24 24 E8 37 F6 FF FF 83 C4 04 8B C6 8B 4C .d$$.7.........L
005C22C0 24 10 64 89 0D 00 00 00 00 59 5F 5E 83 C4 10 C2 $.d......Y_^....
005C22D0 0C 00 CC CC CC CC CC CC CC CC CC CC CC CC CC CC ................
005C22E0 6A FF 68 84 E9 85 00 64 A1 00 00 00 00 50 51 56 j.h....d.....PQV
005C22F0 A1 88 41 A1 00 33 C4 50 8D 44 24 0C 64 A3 00 00 ..A..3.P.D$.d...
005C2300 00 00 8B F1 89 74 24 08 8D 4E 6C C7 44 24 14 01 .....t$..Nl.D$..
005C2310 00 00 00 E8 E8 15 E4 FF 8D 4E 4C C6 44 24 14 00 .........NL.D$..
005C2320 FF 15 38 43 8A 00 8B CE C7 44 24 14 FF FF FF FF ..8C.....D$.....
005C2330 E8 7B 84 01 00 8B 4C 24 0C 64 89 0D 00 00 00 00 .{....L$.d......
005C2340 59 5E 83 C4 10 C3 CC CC CC CC CC CC CC CC CC CC Y^..............
005C2350 56 8B F1 E8 88 FF FF FF F6 44 24 08 01 74 09 56 V........D$..t.V
005C2360 E8 61 2C 0D 00 83 C4 04 8B C6 5E C2 04 00 CC CC .a,.......^.....
005C2370 F3 0F 10 05 C4 32 A6 00 F3 0F 58 44 24 04 F3 0F .....2....XD$...
005C2380 11 05 C4 32 A6 00 C2 04 00 CC CC CC CC CC CC CC ...2............
005C2390 6A FF 68 D9 E9 85 00 64 A1 00 00 00 00 50 83 EC j.h....d.....P..
005C23A0 44 A1 88 41 A1 00 33 C4 50 8D 44 24 48 64 A3 00 D..A..3.P.D$Hd..
005C23B0 00 00 00 68 98 69 8A 00 8D 4C 24 08 FF 15 34 43 ...h.i...L$...4C
005C23C0 8A 00 8D 44 24 04 50 8D 4C 24 24 C7 44 24 54 00 ...D$.P.L$$.D$T.
005C23D0 00 00 00 E8 08 F6 E3 FF 68 68 9C 99 00 8D 4C 24 ........hh....L$
005C23E0 24 51 C7 44 24 28 30 00 99 00 E8 DD 2B 0D 00 CC $Q.D$(0.....+...
005C23F0 6A FF 68 09 EA 85 00 64 A1 00 00 00 00 50 83 EC j.h....d.....P..
005C2400 44 A1 88 41 A1 00 33 C4 50 8D 44 24 48 64 A3 00 D..A..3.P.D$Hd..
005C2410 00 00 00 68 98 69 8A 00 8D 4C 24 08 FF 15 34 43 ...h.i...L$...4C
005C2420 8A 00 8D 44 24 04 50 8D 4C 24 24 C7 44 24 54 00 ...D$.P.L$$.D$T.
005C2430 00 00 00 E8 A8 F5 E3 FF 68 68 9C 99 00 8D 4C 24 ........hh....L$
005C2440 24 51 C7 44 24 28 30 00 99 00 E8 7D 2B 0D 00 CC $Q.D$(0....}+...
005C2450 51 80 79 08 00 74 0F E8 94 50 FE FF F3 0F 10 80 Q.y..t...P......
005C2460 00 02 00 00 EB 0D E8 85 50 FE FF F3 0F 10 80 04 ........P.......
005C2470 02 00 00 8B 44 24 08 8B 08 8B 54 24 0C F3 0F 11 ....D$....T$....
005C2480 04 24 D9 04 24 51 D9 1C 24 52 50 8B 41 78 FF D0 .$..$Q..$RP.Ax..
005C2490 B0 01 59 C2 08 00 CC CC CC CC CC CC CC CC CC CC ..Y.............
005C24A0 6A FF 68 39 EA 85 00 64 A1 00 00 00 00 50 83 EC j.h9...d.....P..
005C24B0 44 A1 88 41 A1 00 33 C4 50 8D 44 24 48 64 A3 00 D..A..3.P.D$Hd..
005C24C0 00 00 00 68 98 69 8A 00 8D 4C 24 08 FF 15 34 43 ...h.i...L$...4C
005C24D0 8A 00 8D 44 24 04 50 8D 4C 24 24 C7 44 24 54 00 ...D$.P.L$$.D$T.
005C24E0 00 00 00 E8 F8 F4 E3 FF 68 68 9C 99 00 8D 4C 24 ........hh....L$
005C24F0 24 51 C7 44 24 28 30 00 99 00 E8 CD 2A 0D 00 CC $Q.D$(0.....*...
005C2500 6A FF 68 69 EA 85 00 64 A1 00 00 00 00 50 83 EC j.hi...d.....P..
005C2510 44 A1 88 41 A1 00 33 C4 50 8D 44 24 48 64 A3 00 D..A..3.P.D$Hd..
005C2520 00 00 00 68 98 69 8A 00 8D 4C 24 08 FF 15 34 43 ...h.i...L$...4C
005C2530 8A 00 8D 44 24 04 50 8D 4C 24 24 C7 44 24 54 00 ...D$.P.L$$.D$T.
005C2540 00 00 00 E8 98 F4 E3 FF 68 68 9C 99 00 8D 4C 24 ........hh....L$
005C2550 24 51 C7 44 24 28 30 00 99 00 E8 6D 2A 0D 00 CC $Q.D$(0....m*...
005C2560 E8 8B 4F FE FF 8B 4C 24 04 8B 11 05 60 01 00 00 ..O...L$....`...
005C2570 50 8B 44 24 0C 50 51 8B 8A 98 00 00 00 FF D1 B0 P.D$.PQ.........
005C2580 01 C2 08 00 CC CC CC CC CC CC CC CC CC CC CC CC ................
005C2590 E8 5B 4F FE FF 8B 4C 24 04 8B 11 05 20 01 00 00 .[O...L$.... ...
005C25A0 50 8B 44 24 0C 50 51 8B 8A 98 00 00 00 FF D1 B0 P.D$.PQ.........
005C25B0 01 C2 08 00 CC CC CC CC CC CC CC CC CC CC CC CC ................
005C25C0 E8 2B 4F FE FF 8B 4C 24 04 8B 11 05 E0 00 00 00 .+O...L$........
005C25D0 50 8B 44 24 0C 50 51 8B 8A 98 00 00 00 FF D1 B0 P.D$.PQ.........
005C25E0 01 C2 08 00 CC CC CC CC CC CC CC CC CC CC CC CC ................
005C25F0 83 EC 1C E8 F8 4E FE FF F3 0F 10 80 20 02 00 00 .....N...... ...
005C2600 F3 0F 11 44 24 08 E8 E5 4E FE FF F3 0F 10 80 1C ...D$...N.......
005C2610 02 00 00 F3 0F 11 44 24 04 E8 D2 4E FE FF F3 0F ......D$...N....
005C2620 10 80 20 02 00 00 F3 0F 59 05 18 A4 8A 00 F3 0F .. .....Y.......
005C2630 11 04 24 E8 B8 4E FE FF F3 0F 10 80 1C 02 00 00 ..$..N..........
005C2640 F3 0F 59 05 18 A4 8A 00 8B 44 24 20 8B 08 8D 54 ..Y......D$ ...T
005C2650 24 0C 52 8B 54 24 28 F3 0F 11 44 24 10 F3 0F 10 $.R.T$(...D$....
005C2660 44 24 04 F3 0F 11 44 24 14 F3 0F 10 44 24 08 52 D$....D$....D$.R
005C2670 F3 0F 11 44 24 1C F3 0F 10 44 24 10 50 8B 81 88 ...D$....D$.P...
005C2680 00 00 00 F3 0F 11 44 24 24 FF D0 B0 01 83 C4 1C ......D$$.......
005C2690 C2 08 00 CC CC CC CC CC CC CC CC CC CC CC CC CC ................
005C26A0 55 8B EC 83 E4 F0 83 EC 58 56 57 E8 40 4E FE FF U.......XVW.@N..
005C26B0 0F 57 C0 8D B0 20 01 00 00 B9 10 00 00 00 8D 7C .W... .........|
005C26C0 24 20 F3 A5 F3 0F 11 44 24 14 8B 44 24 14 F3 0F $ .....D$..D$...
005C26D0 11 44 24 18 8B 4C 24 18 F3 0F 11 44 24 1C 8B 54 .D$..L$....D$..T
005C26E0 24 1C F3 0F 10 05 1C 79 8A 00 89 44 24 50 89 4C $......y...D$P.L
005C26F0 24 54 89 54 24 58 F3 0F 11 44 24 5C E8 EF 4D FE $T.T$X...D$\..M.
005C2700 FF 05 E0 00 00 00 50 8D 44 24 24 50 8B C8 51 E8 ......P.D$$P..Q.
005C2710 98 45 0D 00 8B 45 08 8B 10 8B 92 98 00 00 00 8D .E...E..........
005C2720 4C 24 20 51 8B 4D 0C 51 50 FF D2 5F B0 01 5E 8B L$ Q.M.QP.._..^.
005C2730 E5 5D C2 08 00 CC CC CC CC CC CC CC CC CC CC CC .]..............
005C2740 6A FF 68 99 EA 85 00 64 A1 00 00 00 00 50 83 EC j.h....d.....P..
005C2750 44 A1 88 41 A1 00 33 C4 50 8D 44 24 48 64 A3 00 D..A..3.P.D$Hd..
005C2760 00 00 00 68 98 69 8A 00 8D 4C 24 08 FF 15 34 43 ...h.i...L$...4C
005C2770 8A 00 8D 44 24 04 50 8D 4C 24 24 C7 44 24 54 00 ...D$.P.L$$.D$T.
005C2780 00 00 00 E8 58 F2 E3 FF 68 68 9C 99 00 8D 4C 24 ....X...hh....L$
005C2790 24 51 C7 44 24 28 30 00 99 00 E8 2D 28 0D 00 CC $Q.D$(0....-(...
005C27A0 8B 41 08 8B 10 8B 52 68 56 8B 71 10 8B 49 0C 56 .A....RhV.q..I.V
005C27B0 51 50 FF D2 5E C3 CC CC CC CC CC CC CC CC CC CC QP..^...........
005C27C0 8B 44 24 04 D9 05 C4 32 A6 00 8B 08 8B 54 24 08 .D$....2.....T$.
005C27D0 51 D9 1C 24 52 50 8B 41 78 FF D0 B0 01 C2 08 00 Q..$RP.Ax.......
005C27E0 83 EC 10 66 A1 02 2C A6 00 F3 0F 10 05 A0 EB 8A ...f..,.........
005C27F0 00 0F B6 C8 F3 0F 2A C9 8B 0D 00 2C A6 00 8B D1 ......*....,....
005C2800 C1 EA 08 F3 0F 59 C8 0F B6 D2 F3 0F 11 0C 24 F3 .....Y........$.
005C2810 0F 2A CA F3 0F 59 C8 0F B6 C9 F3 0F 11 4C 24 04 .*...Y.......L$.
005C2820 0F B6 D4 8B 44 24 14 F3 0F 2A C9 8B 08 F3 0F 59 ....D$...*.....Y
005C2830 C8 F3 0F 11 4C 24 08 F3 0F 2A CA 8D 14 24 52 8B ....L$...*...$R.
005C2840 54 24 1C 52 50 8B 81 88 00 00 00 F3 0F 59 C8 F3 T$.RP........Y..
005C2850 0F 11 4C 24 18 FF D0 B0 01 83 C4 10 C2 08 00 CC ..L$............
005C2860 55 8B EC 83 E4 F8 F3 0F 10 1D 1C 79 8A 00 83 EC U..........y....
005C2870 20 56 57 8B F8 33 F6 EB 07 8D A4 24 00 00 00 00  VW..3.....$....
005C2880 F3 0F 10 15 00 42 8C 00 F3 0F 10 25 18 A4 8A 00 .....B.....%....
005C2890 F3 0F 10 6D 18 F3 0F 10 75 1C 8B C6 83 E0 7F 8B ...m....u.......
005C28A0 CE C1 F9 07 F3 0F 2A C0 F3 0F 59 C2 F3 0F 59 C4 ......*...Y...Y.
005C28B0 F3 0F 5C C3 F3 0F 2A C9 F3 0F 59 CA F3 0F 10 55 ..\...*...Y....U
005C28C0 0C F3 0F 59 CC F3 0F 10 65 14 F3 0F 5C CB F3 0F ...Y....e...\...
005C28D0 10 5D 10 F3 0F 59 E9 F3 0F 59 F1 F3 0F 59 E1 F3 .]...Y...Y...Y..
005C28E0 0F 10 4D 08 F3 0F 59 C8 F3 0F 59 D0 F3 0F 59 D8 ..M...Y...Y...Y.
005C28F0 F3 0F 10 45 24 8D 54 24 1C F3 0F 58 D5 F3 0F 58 ...E$.T$...X...X
005C2900 C2 F3 0F 11 44 24 20 F3 0F 10 45 28 52 8B C2 F3 ....D$ ...E(R...
005C2910 0F 58 CC F3 0F 58 4D 20 F3 0F 58 DE F3 0F 58 C3 .X...XM ..X...X.
005C2920 50 F3 0F 11 4C 24 24 F3 0F 11 44 24 2C E8 98 43 P...L$$...D$,..C
005C2930 0D 00 D9 7C 24 0E 0F B7 44 24 0E F3 0F 10 1D 1C ...|$...D$......
005C2940 79 8A 00 F3 0F 10 44 24 1C F3 0F 10 25 FC 41 8C y.....D$....%.A.
005C2950 00 F3 0F 10 4C 24 20 0D 00 0C 00 00 89 44 24 10 ....L$ ......D$.
005C2960 F3 0F 58 C3 F3 0F 59 C4 F3 0F 11 44 24 1C D9 44 ..X...Y....D$..D
005C2970 24 1C D9 6C 24 10 F3 0F 10 54 24 24 F3 0F 58 CB $..l$....T$$..X.
005C2980 F3 0F 59 CC F3 0F 11 4C 24 20 F3 0F 58 D3 DF 7C ..Y....L$ ..X..|
005C2990 24 10 F3 0F 59 D4 F3 0F 11 54 24 24 8B 4C 24 10 $...Y....T$$.L$.
005C29A0 81 C9 00 FF FF FF C1 E1 08 D9 6C 24 0E D9 44 24 ..........l$..D$
005C29B0 20 D9 7C 24 0E 0F B7 44 24 0E 0D 00 0C 00 00 89  .|$...D$.......
005C29C0 44 24 10 D9 6C 24 10 DF 7C 24 10 8B 54 24 10 0B D$..l$..|$..T$..
005C29D0 CA C1 E1 08 D9 6C 24 0E D9 44 24 24 D9 7C 24 0E .....l$..D$$.|$.
005C29E0 0F B7 44 24 0E 0D 00 0C 00 00 89 44 24 10 D9 6C ..D$.......D$..l
005C29F0 24 10 83 C6 01 83 C7 04 DF 7C 24 10 8B 44 24 10 $........|$..D$.
005C2A00 0B C8 81 FE 00 40 00 00 D9 6C 24 0E 89 4F FC 0F .....@...l$..O..
005C2A10 8C 6B FE FF FF 5F 5E 8B E5 5D C3 CC CC CC CC CC .k..._^..]......
005C2A20 56 8B F1 8B 46 04 85 C0 C7 06 C4 40 8C 00 74 08 V...F......@..t.
005C2A30 8B 08 8B 51 08 50 FF D2 C7 46 04 00 00 00 00 5E ...Q.P...F.....^
005C2A40 C3 CC CC CC CC CC CC CC CC CC CC CC CC CC CC CC ................
005C2A50 8B 41 08 8B 10 8B 92 98 00 00 00 56 8D 71 10 8B .A.........V.q..
005C2A60 49 0C 56 51 50 FF D2 5E C3 CC CC CC CC CC CC CC I.VQP..^........
005C2A70 6A FF 68 C9 EA 85 00 64 A1 00 00 00 00 50 83 EC j.h....d.....P..
005C2A80 44 A1 88 41 A1 00 33 C4 50 8D 44 24 48 64 A3 00 D..A..3.P.D$Hd..
005C2A90 00 00 00 68 98 69 8A 00 8D 4C 24 08 FF 15 34 43 ...h.i...L$...4C
005C2AA0 8A 00 8D 44 24 04 50 8D 4C 24 24 C7 44 24 54 00 ...D$.P.L$$.D$T.
005C2AB0 00 00 00 E8 28 EF E3 FF 68 68 9C 99 00 8D 4C 24 ....(...hh....L$
005C2AC0 24 51 C7 44 24 28 30 00 99 00 E8 FD 24 0D 00 CC $Q.D$(0.....$...
005C2AD0 56 8B F1 8B 4E 04 85 C9 74 0E 83 41 04 FF 75 08 V...N...t..A..u.
005C2AE0 8B 01 8B 10 6A 01 FF D2 C7 46 04 00 00 00 00 5E ....j....F.....^
005C2AF0 C3 CC CC CC CC CC CC CC CC CC CC CC CC CC CC CC ................
005C2B00 51 33 D2 56 8B 74 24 0C C7 06 C4 40 8C 00 89 56 Q3.V.t$....@...V
005C2B10 04 8B 41 5C 3B C2 89 54 24 04 74 13 89 46 04 8B ..A\;..T$.t..F..
005C2B20 08 8B 51 04 50 FF D2 8B 06 8B 10 8B CE FF D2 8B ..Q.P...........
005C2B30 C6 5E 59 C2 04 00 CC CC CC CC CC CC CC CC CC CC .^Y.............
005C2B40 53 56 8B F1 33 DB 39 5E 4C 76 25 57 8D 7E 0C 90 SV..3.9^Lv%W.~..
005C2B50 8B 46 08 8B 08 6A 1C 8D 57 04 52 8B 17 52 50 8B .F...j..W.R..RP.
005C2B60 41 50 FF D0 83 C3 01 83 C7 20 3B 5E 4C 72 E1 5F AP....... ;^Lr._
005C2B70 8B 56 4C 8B 46 08 8B 08 52 8B 56 50 6A 00 52 50 .VL.F...R.VPj.RP
005C2B80 8B 81 E0 00 00 00 FF D0 5E 5B C3 CC CC CC CC CC ........^[......
005C2B90 53 56 8B F1 33 DB 39 9E AC 00 00 00 76 27 57 8D SV..3.9.....v'W.
005C2BA0 7E 0C 8B 46 08 8B 08 6A 24 8D 57 04 52 8B 17 52 ~..F...j$.W.R..R
005C2BB0 50 8B 41 50 FF D0 83 C3 01 83 C7 28 3B 9E AC 00 P.AP.......(;...
005C2BC0 00 00 72 DE 5F 8B 96 AC 00 00 00 8B 46 08 8B 08 ..r._.......F...
005C2BD0 52 8B 96 B0 00 00 00 6A 00 52 50 8B 81 E0 00 00 R......j.RP.....
005C2BE0 00 FF D0 5E 5B C3 CC CC CC CC CC CC CC CC CC CC ...^[...........
005C2BF0 53 56 8B F1 33 DB 39 5E 7C 76 25 57 8D 7E 0C 90 SV..3.9^|v%W.~..
005C2C00 8B 46 08 8B 08 6A 34 8D 57 04 52 8B 17 52 50 8B .F...j4.W.R..RP.
005C2C10 41 50 FF D0 83 C3 01 83 C7 38 3B 5E 7C 72 E1 5F AP.......8;^|r._
005C2C20 8B 56 7C 8B 46 08 8B 08 52 8B 96 80 00 00 00 6A .V|.F...R......j
005C2C30 00 52 50 8B 81 E0 00 00 00 FF D0 5E 5B C3 CC CC .RP........^[...
005C2C40 8B 44 24 04 85 C0 53 8B D9 56 89 03 74 37 80 38 .D$...S..V..t7.8
005C2C50 00 75 32 8B 40 08 8B 08 83 C1 50 51 6A 00 8D 73 .u2.@.....PQj..s
005C2C60 10 56 E8 3F 40 0D 00 D9 06 D9 46 04 D9 46 08 5E .V.?@.....F..F.^
005C2C70 DC C8 D9 C2 DE CB DE C2 DC C8 DE C1 D9 FA D9 5B ...............[
005C2C80 50 5B C2 04 00 8B 35 F0 38 A5 00 F3 0F 10 05 1C P[....5.8.......
005C2C90 79 8A 00 57 8D 7B 10 B9 10 00 00 00 F3 A5 5F 5E y..W.{........_^
005C2CA0 F3 0F 11 43 50 5B C2 04 00 CC CC CC CC CC CC CC ...CP[..........
005C2CB0 6A FF 68 F8 EA 85 00 64 A1 00 00 00 00 50 83 EC j.h....d.....P..
005C2CC0 38 56 57 A1 88 41 A1 00 33 C4 50 8D 44 24 44 64 8VW..A..3.P.D$Dd
005C2CD0 A3 00 00 00 00 8B F1 E8 14 48 FE FF 8B 80 A8 00 .........H......
005C2CE0 00 00 8B 08 6A 00 8D 54 24 10 52 6A 01 6A 15 6A ....j..T$.Rj.j.j
005C2CF0 00 6A 01 68 80 00 00 00 50 8B 41 64 FF D0 8B 44 .j.h....P.Ad...D
005C2D00 24 0C 8B 08 6A 00 6A 00 8D 54 24 18 52 6A 00 6A $...j.j..T$.Rj.j
005C2D10 00 50 8B 41 4C FF D0 85 C0 0F 57 C0 F3 0F 10 0D .P.AL.....W.....
005C2D20 70 86 8A 00 0F 8C A5 00 00 00 F3 0F 10 15 1C 79 p..............y
005C2D30 8A 00 83 EC 0C 8B C4 F3 0F 11 54 24 2C 8B 4C 24 ..........T$,.L$
005C2D40 2C 89 08 F3 0F 11 44 24 30 8B 54 24 30 89 50 04 ,.....D$0.T$0.P.
005C2D50 F3 0F 11 44 24 34 8B 4C 24 34 89 48 08 83 EC 0C ...D$4.L$4.H....
005C2D60 8B C4 F3 0F 11 44 24 44 8B 54 24 44 89 10 F3 0F .....D$D.T$D....
005C2D70 11 4C 24 48 8B 4C 24 48 89 48 04 F3 0F 11 44 24 .L$H.L$H.H....D$
005C2D80 4C 8B 54 24 4C 89 50 08 83 EC 0C 8B C4 F3 0F 11 L.T$L.P.........
005C2D90 44 24 5C 8B 4C 24 5C 89 08 F3 0F 11 44 24 60 8B D$\.L$\.....D$`.
005C2DA0 54 24 60 F3 0F 11 4C 24 64 8B 4C 24 64 89 50 04 T$`...L$d.L$d.P.
005C2DB0 89 48 08 8B 44 24 38 E8 A4 FA FF FF 8B 44 24 30 .H..D$8......D$0
005C2DC0 8B 10 83 C4 24 6A 00 6A 00 50 8B 42 50 FF D0 8B ....$j.j.P.BP...
005C2DD0 44 24 0C 8B 08 6A 00 6A 00 8D 54 24 18 52 6A 00 D$...j.j..T$.Rj.
005C2DE0 6A 01 50 8B 41 4C FF D0 85 C0 0F 8C B0 00 00 00 j.P.AL..........
005C2DF0 0F 57 C0 F3 0F 10 0D 70 86 8A 00 83 EC 0C 8B C4 .W.....p........
005C2E00 F3 0F 11 4C 24 44 8B 4C 24 44 89 08 F3 0F 11 44 ...L$D.L$D.....D
005C2E10 24 48 8B 54 24 48 89 50 04 F3 0F 11 44 24 4C 8B $H.T$H.P....D$L.
005C2E20 4C 24 4C 89 48 08 F3 0F 11 44 24 38 8B 54 24 38 L$L.H....D$8.T$8
005C2E30 83 EC 0C 8B C4 89 10 F3 0F 11 4C 24 48 8B 4C 24 ..........L$H.L$
005C2E40 48 89 48 04 F3 0F 11 44 24 4C 8B 54 24 4C 89 50 H.H....D$L.T$L.P
005C2E50 08 F3 0F 11 44 24 38 8B 4C 24 38 83 EC 0C 8B C4 ....D$8.L$8.....
005C2E60 F3 0F 11 44 24 48 F3 0F 10 05 1C 79 8A 00 8B 54 ...D$H.....y...T
005C2E70 24 48 89 08 F3 0F 11 44 24 4C 8B 4C 24 4C 89 50 $H.....D$L.L$L.P
005C2E80 04 89 48 08 8B 44 24 38 E8 D3 F9 FF FF 8B 44 24 ..H..D$8......D$
005C2E90 30 8B 10 83 C4 24 6A 00 6A 01 50 8B 42 50 FF D0 0....$j.j.P.BP..
005C2EA0 8B 44 24 0C 8B 08 6A 00 6A 00 8D 54 24 18 52 6A .D$...j.j..T$.Rj
005C2EB0 00 6A 02 50 8B 41 4C FF D0 85 C0 0F 8C A8 00 00 .j.P.AL.........
005C2EC0 00 0F 57 C0 F3 0F 10 0D 1C 79 8A 00 83 EC 0C 8B ..W......y......
005C2ED0 C4 F3 0F 11 44 24 44 8B 4C 24 44 89 08 F3 0F 11 ....D$D.L$D.....
005C2EE0 4C 24 48 8B 54 24 48 89 50 04 F3 0F 11 44 24 4C L$H.T$H.P....D$L
005C2EF0 8B 4C 24 4C 89 48 08 83 EC 0C 8B C4 F3 0F 11 44 .L$L.H.........D
005C2F00 24 44 8B 54 24 44 89 10 F3 0F 11 44 24 48 8B 4C $D.T$D.....D$H.L
005C2F10 24 48 89 48 04 F3 0F 11 4C 24 4C 8B 54 24 4C 89 $H.H....L$L.T$L.
005C2F20 50 08 83 EC 0C 8B C4 F3 0F 11 4C 24 44 8B 4C 24 P.........L$D.L$
005C2F30 44 89 08 F3 0F 11 44 24 48 8B 54 24 48 F3 0F 11 D.....D$H.T$H...
005C2F40 44 24 4C 8B 4C 24 4C 89 50 04 89 48 08 8B 44 24 D$L.L$L.P..H..D$
005C2F50 38 E8 0A F9 FF FF 8B 44 24 30 8B 10 83 C4 24 6A 8......D$0....$j
005C2F60 00 6A 02 50 8B 42 50 FF D0 8B 44 24 0C 8B 08 6A .j.P.BP...D$...j
005C2F70 00 6A 00 8D 54 24 18 52 6A 00 6A 03 50 8B 41 4C .j..T$.Rj.j.P.AL
005C2F80 FF D0 85 C0 0F 8C B0 00 00 00 0F 57 C0 F3 0F 10 ...........W....
005C2F90 0D 70 86 8A 00 83 EC 0C 8B C4 F3 0F 11 44 24 44 .p...........D$D
005C2FA0 8B 4C 24 44 89 08 F3 0F 11 4C 24 48 8B 54 24 48 .L$D.....L$H.T$H
005C2FB0 89 50 04 F3 0F 11 44 24 4C 8B 4C 24 4C 89 48 08 .P....D$L.L$L.H.
005C2FC0 83 EC 0C 8B C4 F3 0F 11 44 24 44 8B 54 24 44 89 ........D$D.T$D.
005C2FD0 10 F3 0F 11 44 24 48 8B 4C 24 48 89 48 04 F3 0F ....D$H.L$H.H...
005C2FE0 11 4C 24 4C 8B 54 24 4C F3 0F 10 0D 1C 79 8A 00 .L$L.T$L.....y..
005C2FF0 89 50 08 83 EC 0C 8B C4 F3 0F 11 4C 24 44 8B 4C .P.........L$D.L
005C3000 24 44 89 08 F3 0F 11 44 24 48 8B 54 24 48 F3 0F $D.....D$H.T$H..
005C3010 11 44 24 4C 8B 4C 24 4C 89 50 04 89 48 08 8B 44 .D$L.L$L.P..H..D
005C3020 24 38 E8 39 F8 FF FF 8B 44 24 30 8B 10 83 C4 24 $8.9....D$0....$
005C3030 6A 00 6A 03 50 8B 42 50 FF D0 8B 44 24 0C 8B 08 j.j.P.BP...D$...
005C3040 6A 00 6A 00 8D 54 24 18 52 6A 00 6A 04 50 8B 41 j.j..T$.Rj.j.P.A
005C3050 4C FF D0 85 C0 0F 8C B0 00 00 00 0F 57 C0 F3 0F L...........W...
005C3060 10 0D 1C 79 8A 00 F3 0F 10 15 70 86 8A 00 83 EC ...y......p.....
005C3070 0C 8B C4 F3 0F 11 44 24 44 8B 4C 24 44 89 08 F3 ......D$D.L$D...
005C3080 0F 11 44 24 48 8B 54 24 48 89 50 04 F3 0F 11 4C ..D$H.T$H.P....L
005C3090 24 4C 8B 4C 24 4C 89 48 08 83 EC 0C 8B C4 F3 0F $L.L$L.H........
005C30A0 11 44 24 44 8B 54 24 44 89 10 F3 0F 11 54 24 48 .D$D.T$D.....T$H
005C30B0 8B 4C 24 48 89 48 04 F3 0F 11 44 24 4C 8B 54 24 .L$H.H....D$L.T$
005C30C0 4C 89 50 08 83 EC 0C 8B C4 F3 0F 11 4C 24 44 8B L.P.........L$D.
005C30D0 4C 24 44 89 08 F3 0F 11 44 24 48 8B 54 24 48 F3 L$D.....D$H.T$H.
005C30E0 0F 11 44 24 4C 8B 4C 24 4C 89 50 04 89 48 08 8B ..D$L.L$L.P..H..
005C30F0 44 24 38 E8 68 F7 FF FF 8B 44 24 30 8B 10 83 C4 D$8.h....D$0....
005C3100 24 6A 00 6A 04 50 8B 42 50 FF D0 8B 44 24 0C 8B $j.j.P.BP...D$..
005C3110 08 6A 00 6A 00 8D 54 24 18 52 6A 00 6A 05 50 8B .j.j..T$.Rj.j.P.
005C3120 41 4C FF D0 85 C0 0F 8C A8 00 00 00 0F 57 C0 F3 AL...........W..
005C3130 0F 10 0D 70 86 8A 00 83 EC 0C 8B C4 F3 0F 11 44 ...p...........D
005C3140 24 44 8B 4C 24 44 89 08 F3 0F 11 44 24 48 8B 54 $D.L$D.....D$H.T
005C3150 24 48 89 50 04 F3 0F 11 4C 24 4C 8B 4C 24 4C 89 $H.P....L$L.L$L.
005C3160 48 08 83 EC 0C 8B C4 F3 0F 11 44 24 44 8B 54 24 H.........D$D.T$
005C3170 44 89 10 F3 0F 11 4C 24 48 8B 4C 24 48 89 48 04 D.....L$H.L$H.H.
005C3180 F3 0F 11 44 24 4C 8B 54 24 4C 89 50 08 83 EC 0C ...D$L.T$L.P....
005C3190 8B C4 F3 0F 11 4C 24 44 8B 4C 24 44 89 08 F3 0F .....L$D.L$D....
005C31A0 11 44 24 48 8B 54 24 48 F3 0F 11 44 24 4C 8B 4C .D$H.T$H...D$L.L
005C31B0 24 4C 89 50 04 89 48 08 8B 44 24 38 E8 9F F6 FF $L.P..H..D$8....
005C31C0 FF 8B 44 24 30 8B 10 83 C4 24 6A 00 6A 05 50 8B ..D$0....$j.j.P.
005C31D0 42 50 FF D0 8B 54 24 0C 33 C0 85 D2 C7 44 24 18 BP...T$.3....D$.
005C31E0 C4 40 8C 00 89 44 24 1C 74 20 89 54 24 1C 8B 0A .@...D$.t .T$...
005C31F0 52 8B 51 04 FF D2 8B 44 24 18 8B 10 8D 4C 24 18 R.Q....D$....L$.
005C3200 FF D2 8B 54 24 0C 8B 44 24 1C 8B 4E 5C 83 C6 58 ...T$..D$..N\..X
005C3210 3B C1 C7 44 24 4C 00 00 00 00 8B F8 74 2B 85 C9 ;..D$L......t+..
005C3220 74 08 8B 01 51 8B 48 08 FF D1 85 FF 89 7E 04 74 t...Q.H......~.t
005C3230 08 8B 17 8B 42 04 57 FF D0 8B 16 8B 02 8B CE FF ....B.W.........
005C3240 D0 8B 54 24 0C 8B 44 24 1C 85 C0 C7 44 24 4C FF ..T$..D$....D$L.
005C3250 FF FF FF C7 44 24 18 C4 40 8C 00 74 0C 8B 08 8B ....D$..@..t....
005C3260 51 08 50 FF D2 8B 54 24 0C 8B 02 8B 48 08 52 C7 Q.P...T$....H.R.
005C3270 44 24 20 00 00 00 00 FF D1 8B 4C 24 44 64 89 0D D$ .......L$Dd..
005C3280 00 00 00 00 59 5F 5E 83 C4 44 C3 CC CC CC CC CC ....Y_^..D......
005C3290 51 8B 4C 24 10 8B 54 24 10 C6 04 24 00 8B 04 24 Q.L$..T$...$...$
005C32A0 50 8B 44 24 14 51 8B 4C 24 14 52 8B 54 24 14 50 P.D$.Q.L$.R.T$.P
005C32B0 51 52 E8 99 63 01 00 83 C4 1C C3 CC CC CC CC CC QR..c...........
005C32C0 6A FF 68 28 EB 85 00 64 A1 00 00 00 00 50 83 EC j.h(...d.....P..
005C32D0 14 53 A1 88 41 A1 00 33 C4 50 8D 44 24 1C 64 A3 .S..A..3.P.D$.d.
005C32E0 00 00 00 00 E8 07 42 FE FF 8D 4C 24 08 51 8B C8 ......B...L$.Q..
005C32F0 E8 1B F9 E5 FF 83 38 00 8B 44 24 08 0F 95 C3 85 ......8..D$.....
005C3300 C0 74 16 83 40 04 FF 8B C8 83 C0 04 83 38 00 75 .t..@........8.u
005C3310 08 8B 11 8B 02 6A 01 FF D0 84 DB 74 6E E8 CE 41 .....j.....tn..A
005C3320 FE FF 8D 4C 24 08 51 8B C8 E8 E2 F8 E5 FF 8B 00 ...L$.Q.........
005C3330 8B 4C 24 2C 8B 11 83 C0 08 50 8B 44 24 34 50 51 .L$,.....P.D$4PQ
005C3340 8B 8A 88 00 00 00 C7 44 24 30 00 00 00 00 FF D1 .......D$0......
005C3350 8B 44 24 08 85 C0 C7 44 24 24 FF FF FF FF 74 64 .D$....D$$....td
005C3360 83 40 04 FF 8B C8 83 C0 04 83 38 00 75 56 8B 11 .@........8.uV..
005C3370 8B 02 6A 01 FF D0 B0 01 8B 4C 24 1C 64 89 0D 00 ..j......L$.d...
005C3380 00 00 00 59 5B 83 C4 20 C2 08 00 8B 44 24 2C F3 ...Y[.. ....D$,.
005C3390 0F 10 05 1C 79 8A 00 8B 08 8D 54 24 0C 52 8B 54 ....y.....T$.R.T
005C33A0 24 34 52 50 8B 81 88 00 00 00 F3 0F 11 44 24 18 $4RP.........D$.
005C33B0 F3 0F 11 44 24 1C F3 0F 11 44 24 20 F3 0F 11 44 ...D$....D$ ...D
005C33C0 24 24 FF D0 B0 01 8B 4C 24 1C 64 89 0D 00 00 00 $$.....L$.d.....
005C33D0 00 59 5B 83 C4 20 C2 08 00 CC CC CC CC CC CC CC .Y[.. ..........
005C33E0 6A FF 68 58 EB 85 00 64 A1 00 00 00 00 50 51 56 j.hX...d.....PQV
005C33F0 A1 88 41 A1 00 33 C4 50 8D 44 24 0C 64 A3 00 00 ..A..3.P.D$.d...
005C3400 00 00 E8 E9 40 FE FF 8D 4C 24 08 51 8B C8 E8 FD ....@...L$.Q....
005C3410 F7 E5 FF 8B 74 24 08 85 F6 C7 44 24 14 00 00 00 ....t$....D$....
005C3420 00 74 17 8B 46 28 8B 4C 24 1C 8B 11 50 8B 44 24 .t..F(.L$...P.D$
005C3430 24 50 51 8B 4A 68 FF D1 EB 13 8B 44 24 1C 8B 4C $PQ.Jh.....D$..L
005C3440 24 20 8B 10 8B 52 68 6A 00 51 50 FF D2 83 C8 FF $ ...Rhj.QP.....
005C3450 85 F6 89 44 24 14 74 0F 01 46 04 75 0A 8B 06 8B ...D$.t..F.u....
005C3460 10 6A 01 8B CE FF D2 B0 01 8B 4C 24 0C 64 89 0D .j........L$.d..
005C3470 00 00 00 00 59 5E 83 C4 10 C2 08 00 CC CC CC CC ....Y^..........
005C3480 6A FF 68 88 EB 85 00 64 A1 00 00 00 00 50 51 56 j.h....d.....PQV
005C3490 A1 88 41 A1 00 33 C4 50 8D 44 24 0C 64 A3 00 00 ..A..3.P.D$.d...
005C34A0 00 00 E8 49 40 FE FF 8D 4C 24 08 51 8B C8 E8 5D ...I@...L$.Q...]
005C34B0 F7 E5 FF 8B 74 24 08 85 F6 C7 44 24 14 00 00 00 ....t$....D$....
005C34C0 00 74 17 8B 46 3C 8B 4C 24 1C 8B 11 50 8B 44 24 .t..F<.L$...P.D$
005C34D0 24 50 51 8B 4A 68 FF D1 EB 13 8B 44 24 1C 8B 4C $PQ.Jh.....D$..L
005C34E0 24 20 8B 10 8B 52 68 6A 00 51 50 FF D2 83 C8 FF $ ...Rhj.QP.....
005C34F0 85 F6 89 44 24 14 74 0F 01 46 04 75 0A 8B 06 8B ...D$.t..F.u....
005C3500 10 6A 01 8B CE FF D2 B0 01 8B 4C 24 0C 64 89 0D .j........L$.d..
005C3510 00 00 00 00 59 5E 83 C4 10 C2 08 00 CC CC CC CC ....Y^..........
005C3520 6A FF 68 B8 EB 85 00 64 A1 00 00 00 00 50 51 56 j.h....d.....PQV
005C3530 A1 88 41 A1 00 33 C4 50 8D 44 24 0C 64 A3 00 00 ..A..3.P.D$.d...
005C3540 00 00 E8 A9 3F FE FF 8D 4C 24 08 51 8B C8 E8 BD ....?...L$.Q....
005C3550 F6 E5 FF 8B 74 24 08 85 F6 C7 44 24 14 00 00 00 ....t$....D$....
005C3560 00 74 17 8B 46 50 8B 4C 24 1C 8B 11 50 8B 44 24 .t..FP.L$...P.D$
005C3570 24 50 51 8B 4A 68 FF D1 EB 13 8B 44 24 1C 8B 4C $PQ.Jh.....D$..L
005C3580 24 20 8B 10 8B 52 68 6A 00 51 50 FF D2 83 C8 FF $ ...Rhj.QP.....
005C3590 85 F6 89 44 24 14 74 0F 01 46 04 75 0A 8B 06 8B ...D$.t..F.u....
005C35A0 10 6A 01 8B CE FF D2 B0 01 8B 4C 24 0C 64 89 0D .j........L$.d..
005C35B0 00 00 00 00 59 5E 83 C4 10 C2 08 00 CC CC CC CC ....Y^..........
005C35C0 6A FF 68 E8 EB 85 00 64 A1 00 00 00 00 50 51 56 j.h....d.....PQV
005C35D0 A1 88 41 A1 00 33 C4 50 8D 44 24 0C 64 A3 00 00 ..A..3.P.D$.d...
005C35E0 00 00 E8 09 3F FE FF 8D 4C 24 08 51 8B C8 E8 CD ....?...L$.Q....
005C35F0 F6 E5 FF 8B 74 24 08 85 F6 C7 44 24 14 00 00 00 ....t$....D$....
005C3600 00 74 17 8B 46 28 8B 4C 24 1C 8B 11 50 8B 44 24 .t..F(.L$...P.D$
005C3610 24 50 51 8B 4A 68 FF D1 EB 13 8B 44 24 1C 8B 4C $PQ.Jh.....D$..L
005C3620 24 20 8B 10 8B 52 68 6A 00 51 50 FF D2 83 C8 FF $ ...Rhj.QP.....
005C3630 85 F6 89 44 24 14 74 0F 01 46 04 75 0A 8B 06 8B ...D$.t..F.u....
005C3640 10 6A 01 8B CE FF D2 B0 01 8B 4C 24 0C 64 89 0D .j........L$.d..
005C3650 00 00 00 00 59 5E 83 C4 10 C2 08 00 CC CC CC CC ....Y^..........
005C3660 6A FF 68 18 EC 85 00 64 A1 00 00 00 00 50 51 56 j.h....d.....PQV
005C3670 A1 88 41 A1 00 33 C4 50 8D 44 24 0C 64 A3 00 00 ..A..3.P.D$.d...
005C3680 00 00 E8 69 3E FE FF 8D 4C 24 08 51 8B C8 E8 2D ...i>...L$.Q...-
005C3690 F6 E5 FF 8B 74 24 08 85 F6 C7 44 24 14 00 00 00 ....t$....D$....
005C36A0 00 74 17 8B 46 3C 8B 4C 24 1C 8B 11 50 8B 44 24 .t..F<.L$...P.D$
005C36B0 24 50 51 8B 4A 68 FF D1 EB 13 8B 44 24 1C 8B 4C $PQ.Jh.....D$..L
005C36C0 24 20 8B 10 8B 52 68 6A 00 51 50 FF D2 83 C8 FF $ ...Rhj.QP.....
005C36D0 85 F6 89 44 24 14 74 0F 01 46 04 75 0A 8B 06 8B ...D$.t..F.u....
005C36E0 10 6A 01 8B CE FF D2 B0 01 8B 4C 24 0C 64 89 0D .j........L$.d..
005C36F0 00 00 00 00 59 5E 83 C4 10 C2 08 00 CC CC CC CC ....Y^..........
005C3700 80 79 56 00 75 79 56 57 8B 79 64 8B 37 3B F7 74 .yV.uyVW.yd.7;.t
005C3710 6C 8B 56 0C 8B 46 10 8B 0A 3B C8 74 1C 85 C0 89 l.V..F...;.t....
005C3720 02 74 04 83 40 04 01 85 C9 74 0E 83 41 04 FF 75 .t..@....t..A..u
005C3730 08 8B 01 8B 10 6A 01 FF D2 80 7E 15 00 75 3A 8B .....j....~..u:.
005C3740 46 08 80 78 15 00 75 16 8B F0 8B 06 80 78 15 00 F..x..u......x..
005C3750 75 27 8B F0 8B 06 80 78 15 00 74 F6 EB 1B 8B 46 u'.....x..t....F
005C3760 04 80 78 15 00 75 10 3B 70 08 75 0B 8B F0 8B 40 ..x..u.;p.u....@
005C3770 04 80 78 15 00 74 F0 8B F0 3B F7 75 94 5F 5E C3 ..x..t...;.u._^.
005C3780 6A FF 68 49 EC 85 00 64 A1 00 00 00 00 50 83 EC j.hI...d.....P..
005C3790 44 53 55 56 57 A1 88 41 A1 00 33 C4 50 8D 44 24 DSUVW..A..3.P.D$
005C37A0 58 64 A3 00 00 00 00 8B F9 81 7F 08 FE FF FF 1F Xd..............
005C37B0 72 3C 68 80 6D 8A 00 8D 4C 24 18 FF 15 34 43 8A r<h.m...L$...4C.
005C37C0 00 8D 44 24 14 50 8D 4C 24 34 C7 44 24 64 00 00 ..D$.P.L$4.D$d..
005C37D0 00 00 E8 09 E2 E3 FF 68 68 9C 99 00 8D 4C 24 34 .......hh....L$4
005C37E0 51 C7 44 24 38 30 00 99 00 E8 DE 17 0D 00 8B 54 Q.D$80.........T
005C37F0 24 74 8B 47 04 8B 74 24 70 6A 00 52 50 56 50 E8 $t.G..t$pj.RPVP.
005C3800 0C 46 0D 00 8B E8 8B 47 04 BB 01 00 00 00 01 5F .F.....G......._
005C3810 08 3B F0 75 10 89 68 04 8B 47 04 89 28 8B 4F 04 .;.u..h..G..(.O.
005C3820 89 69 08 EB 22 80 7C 24 6C 00 74 0D 89 2E 8B 47 .i..".|$l.t....G
005C3830 04 3B 30 75 12 89 28 EB 0E 89 6E 08 8B 47 04 3B .;0u..(...n..G.;
005C3840 70 08 75 03 89 68 08 8B 55 04 80 7A 14 00 8D 45 p.u..h..U..z...E
005C3850 04 8B F5 0F 85 EC 00 00 00 8D A4 24 00 00 00 00 ...........$....
005C3860 8B 08 8B 51 04 3B 0A 75 51 8B 52 08 80 7A 14 00 ...Q.;.uQ.R..z..
005C3870 75 19 88 59 14 88 5A 14 8B 10 8B 4A 04 C6 41 14 u..Y..Z....J..A.
005C3880 00 8B 10 8B 72 04 E9 AA 00 00 00 3B 71 08 75 0A ....r......;q.u.
005C3890 8B F1 56 8B CF E8 26 C4 F5 FF 8B 46 04 88 58 14 ..V...&....F..X.
005C38A0 8B 4E 04 8B 51 04 C6 42 14 00 8B 46 04 8B 48 04 .N..Q..B...F..H.
005C38B0 51 8B CF E8 C8 FE E8 FF EB 7B 8B 12 80 7A 14 00 Q........{...z..
005C38C0 75 16 88 59 14 88 5A 14 8B 10 8B 4A 04 C6 41 14 u..Y..Z....J..A.
005C38D0 00 8B 10 8B 72 04 EB 5D 3B 31 75 0A 8B F1 56 8B ....r..];1u...V.
005C38E0 CF E8 9A FE E8 FF 8B 46 04 88 58 14 8B 4E 04 8B .......F..X..N..
005C38F0 51 04 C6 42 14 00 8B 46 04 8B 40 04 8B 48 08 8B Q..B...F..@..H..
005C3900 11 89 50 08 8B 11 80 7A 15 00 75 03 89 42 04 8B ..P....z..u..B..
005C3910 50 04 89 51 04 8B 57 04 3B 42 04 75 05 89 4A 04 P..Q..W.;B.u..J.
005C3920 EB 0E 8B 50 04 3B 02 75 04 89 0A EB 03 89 4A 08 ...P.;.u......J.
005C3930 89 01 89 48 04 8B 4E 04 80 79 14 00 8D 46 04 0F ...H..N..y...F..
005C3940 84 1B FF FF FF 8B 57 04 8B 42 04 88 58 14 8B 44 ......W..B..X..D
005C3950 24 68 89 28 8B 4C 24 58 64 89 0D 00 00 00 00 59 $h.(.L$Xd......Y
005C3960 5F 5E 5D 5B 83 C4 50 C2 10 00 CC CC CC CC CC CC _^][..P.........
005C3970 6A FF 68 79 EC 85 00 64 A1 00 00 00 00 50 83 EC j.hy...d.....P..
005C3980 48 53 55 56 57 A1 88 41 A1 00 33 C4 50 8D 44 24 HSUVW..A..3.P.D$
005C3990 5C 64 A3 00 00 00 00 8B D9 89 5C 24 14 8B 44 24 \d........\$..D$
005C39A0 70 80 78 15 00 74 3C 68 94 6D 8A 00 8D 4C 24 1C p.x..t<h.m...L$.
005C39B0 FF 15 34 43 8A 00 8D 44 24 18 50 8D 4C 24 38 C7 ..4C...D$.P.L$8.
005C39C0 44 24 68 00 00 00 00 E8 14 E0 E3 FF 68 8C A8 99 D$h.........h...
005C39D0 00 8D 4C 24 38 51 C7 44 24 3C 3C 00 99 00 E8 E9 ..L$8Q.D$<<.....
005C39E0 15 0D 00 8D 4C 24 70 8B E8 E8 42 F8 0D 00 8B 45 ....L$p...B....E
005C39F0 00 80 78 15 00 74 05 8B 7D 08 EB 18 8B 55 08 80 ..x..t..}....U..
005C3A00 7A 15 00 74 04 8B F8 EB 0B 8B 4C 24 70 3B CD 8B z..t......L$p;..
005C3A10 79 08 75 67 80 7F 15 00 8B 75 04 75 03 89 77 04 y.ug.....u.u..w.
005C3A20 8B 43 04 39 68 04 75 05 89 78 04 EB 0B 39 2E 75 .C.9h.u..x...9.u
005C3A30 04 89 3E EB 03 89 7E 08 8B 5B 04 39 2B 75 15 80 ..>...~..[.9+u..
005C3A40 7F 15 00 74 04 8B C6 EB 09 57 E8 81 FE 22 00 83 ...t.....W..."..
005C3A50 C4 04 89 03 8B 44 24 14 8B 58 04 39 6B 08 75 73 .....D$..X.9k.us
005C3A60 80 7F 15 00 74 07 8B C6 89 43 08 EB 66 57 E8 6D ....t....C..fW.m
005C3A70 EC E8 FF 83 C4 04 89 43 08 EB 58 89 48 04 8B 55 .......C..X.H..U
005C3A80 00 89 11 3B 4D 08 75 04 8B F1 EB 1A 80 7F 15 00 ...;M.u.........
005C3A90 8B 71 04 75 03 89 77 04 89 3E 8B 45 08 89 41 08 .q.u..w..>.E..A.
005C3AA0 8B 55 08 89 4A 04 8B 43 04 39 68 04 75 05 89 48 .U..J..C.9h.u..H
005C3AB0 04 EB 0E 8B 45 04 39 28 75 04 89 08 EB 03 89 48 ....E.9(u......H
005C3AC0 08 8B 45 04 89 41 04 8A 55 14 8A 41 14 88 51 14 ..E..A..U..A..Q.
005C3AD0 88 45 14 BB 01 00 00 00 38 5D 14 0F 85 FF 00 00 .E......8]......
005C3AE0 00 8B 4C 24 14 8B 41 04 3B 78 04 0F 84 EC 00 00 ..L$..A.;x......
005C3AF0 00 38 5F 14 0F 85 E3 00 00 00 8B 06 3B F8 75 67 .8_.........;.ug
005C3B00 8B 46 08 80 78 14 00 75 14 88 58 14 56 C6 46 14 .F..x..u..X.V.F.
005C3B10 00 E8 AA C1 F5 FF 8B 46 08 8B 4C 24 14 80 78 15 .......F..L$..x.
005C3B20 00 75 76 8B 10 38 5A 14 75 08 8B 50 08 38 5A 14 .uv..8Z.u..P.8Z.
005C3B30 74 63 8B 50 08 38 5A 14 75 16 8B 10 88 5A 14 50 tc.P.8Z.u....Z.P
005C3B40 C6 40 14 00 E8 37 FC E8 FF 8B 46 08 8B 4C 24 14 .@...7....F..L$.
005C3B50 8A 56 14 88 50 14 88 5E 14 8B 40 08 56 88 58 14 .V..P..^..@.V.X.
005C3B60 E8 5B C1 F5 FF EB 76 80 78 14 00 75 13 88 58 14 .[....v.x..u..X.
005C3B70 56 C6 46 14 00 E8 06 FC E8 FF 8B 06 8B 4C 24 14 V.F..........L$.
005C3B80 80 78 15 00 75 13 8B 50 08 38 5A 14 75 1E 8B 10 .x..u..P.8Z.u...
005C3B90 38 5A 14 75 17 C6 40 14 00 8B 41 04 8B FE 3B 78 8Z.u..@...A...;x
005C3BA0 04 8B 76 04 0F 85 47 FF FF FF EB 31 8B 10 38 5A ..v...G....1..8Z
005C3BB0 14 75 16 8B 50 08 88 5A 14 50 C6 40 14 00 E8 FD .u..P..Z.P.@....
005C3BC0 C0 F5 FF 8B 06 8B 4C 24 14 8A 56 14 88 50 14 88 ......L$..V..P..
005C3BD0 5E 14 8B 00 56 88 58 14 E8 A3 FB E8 FF 88 5F 14 ^...V.X......._.
005C3BE0 8B 4D 10 85 C9 74 0D 83 41 04 FF 75 07 8B 11 8B .M...t..A..u....
005C3BF0 02 53 FF D0 55 C7 45 10 00 00 00 00 E8 C5 13 0D .S..U.E.........
005C3C00 00 8B 4C 24 18 8B 41 08 83 C4 04 85 C0 76 06 83 ..L$..A......v..
005C3C10 C0 FF 89 41 08 8B 44 24 6C 8B 4C 24 70 89 08 8B ...A..D$l.L$p...
005C3C20 4C 24 5C 64 89 0D 00 00 00 00 59 5F 5E 5D 5B 83 L$\d......Y_^][.
005C3C30 C4 54 C2 08 00 CC CC CC CC CC CC CC CC CC CC CC .T..............
005C3C40 55 56 57 8B 7C 24 10 80 7F 15 00 8B E9 8B F7 75 UVW.|$.........u
005C3C50 3A 8B 46 08 50 8B CD E8 E4 FF FF FF 8B 4F 10 85 :.F.P........O..
005C3C60 C9 8B 36 74 0E 83 41 04 FF 75 08 8B 11 8B 02 6A ..6t..A..u.....j
005C3C70 01 FF D0 57 C7 47 10 00 00 00 00 E8 46 13 0D 00 ...W.G......F...
005C3C80 83 C4 04 80 7E 15 00 8B FE 74 C6 5F 5E 5D C2 04 ....~....t._^]..
005C3C90 00 CC CC CC CC CC CC CC CC CC CC CC CC CC CC CC ................
005C3CA0 51 55 8B 6C 24 10 56 57 8B F9 8B 77 04 8B 46 04 QU.l$.VW...w..F.
005C3CB0 80 78 15 00 B1 01 88 4C 24 0C 75 21 8B 55 00 90 .x.....L$.u!.U..
005C3CC0 3B 50 0C 8B F0 0F 92 C1 84 C9 88 4C 24 0C 74 04 ;P.........L$.t.
005C3CD0 8B 00 EB 03 8B 40 08 80 78 15 00 74 E3 84 C9 8B .....@..x..t....
005C3CE0 D6 89 54 24 18 74 33 8B 47 04 3B 30 8D 4C 24 18 ..T$.t3.G.;0.L$.
005C3CF0 75 1F 55 56 6A 01 51 8B CF E8 82 FA FF FF 8B 10 u.UVj.Q.........
005C3D00 8B 44 24 14 5F 5E C6 40 04 01 89 10 5D 59 C2 08 .D$._^.@....]Y..
005C3D10 00 E8 8A 00 0E 00 8B 54 24 18 8B 42 0C 3B 45 00 .......T$..B.;E.
005C3D20 73 26 8B 4C 24 0C 55 56 51 8D 54 24 24 52 8B CF s&.L$.UVQ.T$$R..
005C3D30 E8 4B FA FF FF 8B 08 8B 44 24 14 5F 5E 89 08 C6 .K......D$._^...
005C3D40 40 04 01 5D 59 C2 08 00 8B 44 24 14 5F 5E C6 40 @..]Y....D$._^.@
005C3D50 04 00 89 10 5D 59 C2 08 00 CC CC CC CC CC CC CC ....]Y..........
005C3D60 6A FF 68 A8 EC 85 00 64 A1 00 00 00 00 50 51 A1 j.h....d.....PQ.
005C3D70 88 41 A1 00 33 C4 50 8D 44 24 08 64 A3 00 00 00 .A..3.P.D$.d....
005C3D80 00 8B C1 33 C9 89 48 04 C7 00 30 42 8C 00 89 48 ...3..H...0B...H
005C3D90 18 89 48 1C 89 48 20 8B 4C 24 08 64 89 0D 00 00 ..H..H .L$.d....
005C3DA0 00 00 59 83 C4 10 C3 CC CC CC CC CC CC CC CC CC ..Y.............
005C3DB0 56 8B F1 8B 56 10 8B 46 08 8B 08 52 8B 56 18 52 V...V..F...R.V.R
005C3DC0 8B 56 0C 52 50 8B 81 90 00 00 00 FF D0 8B 56 10 .V.RP.........V.
005C3DD0 8B 46 08 8B 08 52 8B 56 0C 6A 00 52 50 8B 81 E0 .F...R.V.j.RP...
005C3DE0 00 00 00 FF D0 5E C3 CC CC CC CC CC CC CC CC CC .....^..........
005C3DF0 56 8B F1 8B 56 04 85 D2 57 75 04 33 C9 EB 08 8B V...V...Wu.3....
005C3E00 4E 08 2B CA C1 F9 04 8B 44 24 0C 3B C8 73 28 85 N.+.....D$.;.s(.
005C3E10 D2 75 04 33 C9 EB 08 8B 4E 08 2B CA C1 F9 04 8B .u.3....N.+.....
005C3E20 56 08 8D 7C 24 10 57 2B C1 50 52 8B CE E8 BE EB V..|$.W+.PR.....
005C3E30 E4 FF 5F 5E C2 14 00 85 D2 74 25 8B 7E 08 8B CF .._^.....t%.~...
005C3E40 2B CA C1 F9 04 3B C1 73 17 C1 E0 04 03 C2 3B C7 +....;.s......;.
005C3E50 74 0E 50 57 57 E8 16 01 FE FF 83 C4 0C 89 46 08 t.PWW.........F.
005C3E60 5F 5E C2 14 00 CC CC CC CC CC CC CC CC CC CC CC _^..............
005C3E70 83 EC 08 56 57 8B F9 83 7F 08 00 75 21 8B 44 24 ...VW......u!.D$
005C3E80 1C 8B 4F 04 8B 74 24 14 50 51 6A 01 56 8B CF E8 ..O..t$.PQj.V...
005C3E90 EC F8 FF FF 5F 8B C6 5E 83 C4 08 C2 0C 00 8B 47 ...._..^.......G
005C3EA0 04 8B 74 24 1C 53 8B 5C 24 1C 3B 18 55 75 25 8B ..t$.S.\$.;.Uu%.
005C3EB0 16 3B 53 0C 0F 83 F9 00 00 00 56 8B 74 24 20 53 .;S.......V.t$ S
005C3EC0 6A 01 56 E8 B8 F8 FF FF 5D 5B 5F 8B C6 5E 83 C4 j.V.....][_..^..
005C3ED0 08 C2 0C 00 3B D8 75 2A 8B 40 08 8B 48 0C 3B 0E ....;.u*.@..H.;.
005C3EE0 0F 83 CD 00 00 00 56 8B 74 24 20 50 6A 00 56 8B ......V.t$ Pj.V.
005C3EF0 CF E8 8A F8 FF FF 5D 5B 5F 8B C6 5E 83 C4 08 C2 ......][_..^....
005C3F00 0C 00 8B 2E 39 6B 0C 76 53 8D 4C 24 24 89 5C 24 ....9k.vS.L$$.\$
005C3F10 24 E8 8A FE 0D 00 8B 44 24 24 39 68 0C 73 3A 8B $......D$$9h.s:.
005C3F20 50 08 80 7A 15 00 56 8B 74 24 20 8B CF 74 15 50 P..z..V.t$ ..t.P
005C3F30 6A 00 56 E8 48 F8 FF FF 5D 5B 5F 8B C6 5E 83 C4 j.V.H...][_..^..
005C3F40 08 C2 0C 00 53 6A 01 56 E8 33 F8 FF FF 5D 5B 5F ....Sj.V.3...][_
005C3F50 8B C6 5E 83 C4 08 C2 0C 00 39 6B 0C 73 55 8D 4C ..^......9k.sU.L
005C3F60 24 24 89 5C 24 24 E8 C5 F2 0D 00 8B 44 24 24 3B $$.\$$......D$$;
005C3F70 47 04 74 05 3B 68 0C 73 3A 8B 4B 08 80 79 15 00 G.t.;h.s:.K..y..
005C3F80 56 8B 74 24 20 8B CF 74 15 53 6A 00 56 E8 EE F7 V.t$ ..t.Sj.V...
005C3F90 FF FF 5D 5B 5F 8B C6 5E 83 C4 08 C2 0C 00 50 6A ..][_..^......Pj
005C3FA0 01 56 E8 D9 F7 FF FF 5D 5B 5F 8B C6 5E 83 C4 08 .V.....][_..^...
005C3FB0 C2 0C 00 56 8D 54 24 14 52 8B CF E8 E0 FC FF FF ...V.T$.R.......
005C3FC0 8B 08 8B 44 24 1C 5D 5B 5F 89 08 5E 83 C4 08 C2 ...D$.][_..^....
005C3FD0 0C 00 CC CC CC CC CC CC CC CC CC CC CC CC CC CC ................
005C3FE0 53 8B 5C 24 10 56 8B 74 24 10 57 8B F9 8B 47 04 S.\$.V.t$.W...G.
005C3FF0 3B 30 75 36 3B D8 75 32 8B 40 04 50 E8 3F FC FF ;0u6;.u2.@.P.?..
005C4000 FF 8B 47 04 89 40 04 8B 47 04 C7 47 08 00 00 00 ..G..@..G..G....
005C4010 00 89 00 8B 47 04 89 40 08 8B 4F 04 8B 11 8B 44 ....G..@..O....D
005C4020 24 10 5F 5E 89 10 5B C2 0C 00 3B F3 74 5A 8B FF $._^..[...;.tZ..
005C4030 80 7E 15 00 8B CE 75 3F 8B 46 08 80 78 15 00 75 .~....u?.F..x..u
005C4040 1B 8B F0 8B 06 80 78 15 00 75 2C EB 03 8D 49 00 ......x..u,...I.
005C4050 8B F0 8B 06 80 78 15 00 74 F6 EB 1B 8B 46 04 80 .....x..t....F..
005C4060 78 15 00 75 10 3B 70 08 75 0B 8B F0 8B 40 04 80 x..u.;p.u....@..
005C4070 78 15 00 74 F0 8B F0 51 8D 44 24 18 50 8B CF E8 x..t...Q.D$.P...
005C4080 EC F8 FF FF 3B F3 75 A8 8B 44 24 10 5F 89 30 5E ....;.u..D$._.0^
005C4090 5B C2 0C 00 CC CC CC CC CC CC CC CC CC CC CC CC [...............
005C40A0 51 8B 54 24 10 56 8B 74 24 10 57 8B 7C 24 10 C6 Q.T$.V.t$.W.|$..
005C40B0 44 24 08 00 8B 44 24 08 50 8B 44 24 1C 52 51 50 D$...D$.P.D$.RQP
005C40C0 56 57 E8 D9 1B F0 FF 83 C4 18 8D 04 B7 5F 5E 59 VW..........._^Y
005C40D0 C2 0C 00 CC CC CC CC CC CC CC CC CC CC CC CC CC ................
005C40E0 6A FF 68 D8 EC 85 00 64 A1 00 00 00 00 50 51 53 j.h....d.....PQS
005C40F0 56 57 A1 88 41 A1 00 33 C4 50 8D 44 24 14 64 A3 VW..A..3.P.D$.d.
005C4100 00 00 00 00 8B F1 89 74 24 10 8B 46 0C 33 DB 3B .......t$..F.3.;
005C4110 C3 89 5C 24 1C 74 09 50 E8 A9 0E 0D 00 83 C4 04 ..\$.t.P........
005C4120 89 5E 0C 89 5E 10 89 5E 14 8B 7E 04 3B FB 74 1A .^..^..^..~.;.t.
005C4130 8B CF E8 A9 D9 E3 FF 83 F8 01 75 0E 3B FB 74 0A ..........u.;.t.
005C4140 8B 07 8B 10 6A 01 8B CF FF D2 89 5E 04 8B 3E 3B ....j......^..>;
005C4150 FB C7 44 24 1C FF FF FF FF 74 1A 8B CF E8 7E D9 ..D$.....t....~.
005C4160 E3 FF 83 F8 01 75 0E 3B FB 74 0A 8B 07 8B 10 6A .....u.;.t.....j
005C4170 01 8B CF FF D2 89 1E 8B 4C 24 14 64 89 0D 00 00 ........L$.d....
005C4180 00 00 59 5F 5E 5B 83 C4 10 C3 CC CC CC CC CC CC ..Y_^[..........
005C4190 56 8B F1 8B 46 18 85 C0 74 09 50 E8 26 0E 0D 00 V...F...t.P.&...
005C41A0 83 C4 04 F6 44 24 08 01 C7 46 18 00 00 00 00 C7 ....D$...F......
005C41B0 46 1C 00 00 00 00 C7 46 20 00 00 00 00 C7 06 78 F......F ......x
005C41C0 6D 8A 00 74 09 56 E8 FB 0D 0D 00 83 C4 04 8B C6 m..t.V..........
005C41D0 5E C2 04 00 CC CC CC CC CC CC CC CC CC CC CC CC ^...............
005C41E0 6A FF 68 10 ED 85 00 64 A1 00 00 00 00 50 83 EC j.h....d.....P..
005C41F0 0C 56 57 A1 88 41 A1 00 33 C4 50 8D 44 24 18 64 .VW..A..3.P.D$.d
005C4200 A3 00 00 00 00 8B 51 04 8B 42 04 80 78 15 00 8B ......Q..B..x...
005C4210 74 24 28 75 16 8B 3E 39 78 0C 73 05 8B 40 08 EB t$(u..>9x.s..@..
005C4220 04 8B D0 8B 00 80 78 15 00 74 EC 3B 51 04 74 07 ......x..t.;Q.t.
005C4230 8B 06 3B 42 0C 73 4C C7 44 24 28 00 00 00 00 8B ..;B.sL.D$(.....
005C4240 06 C7 44 24 20 00 00 00 00 89 44 24 10 C7 44 24 ..D$ .....D$..D$
005C4250 14 00 00 00 00 8D 44 24 10 50 52 8D 54 24 14 52 ......D$.PR.T$.R
005C4260 C6 44 24 2C 01 E8 06 FC FF FF 8B 00 83 C0 10 8B .D$,............
005C4270 4C 24 18 64 89 0D 00 00 00 00 59 5F 5E 83 C4 18 L$.d......Y_^...
005C4280 C2 04 00 8D 42 10 8B 4C 24 18 64 89 0D 00 00 00 ....B..L$.d.....
005C4290 00 59 5F 5E 83 C4 18 C2 04 00 CC CC CC CC CC CC .Y_^............
005C42A0 8B 54 24 08 8B 44 24 04 83 EC 10 56 8B 74 24 20 .T$..D$....V.t$ 
005C42B0 89 41 08 89 51 0C 89 71 10 8B 51 18 83 C1 14 85 .A..Q..q..Q.....
005C42C0 D2 75 04 33 C0 EB 08 8B 41 08 2B C2 C1 F8 04 3B .u.3....A.+....;
005C42D0 C6 73 26 8B 54 24 04 83 EC 10 8B C4 89 10 8B 54 .s&.T$.........T
005C42E0 24 18 89 50 04 8B 54 24 1C 89 50 08 8B 54 24 20 $..P..T$..P..T$ 
005C42F0 56 89 50 0C E8 F7 FA FF FF 5E 83 C4 10 C2 0C 00 V.P......^......
005C4300 55 8B EC 6A FF 68 38 ED 85 00 64 A1 00 00 00 00 U..j.h8...d.....
005C4310 50 83 EC 18 53 56 57 A1 88 41 A1 00 33 C5 50 8D P...SVW..A..3.P.
005C4320 45 F4 64 A3 00 00 00 00 89 65 F0 8B F1 89 75 E4 E.d......e....u.
005C4330 8B 45 10 8B 00 85 C0 89 45 EC 74 04 83 40 04 01 .E......E.t..@..
005C4340 8B 4E 04 85 C9 C7 45 FC 00 00 00 00 75 04 33 FF .N....E.....u.3.
005C4350 EB 08 8B 7E 0C 2B F9 C1 FF 02 8B 55 0C 85 D2 89 ...~.+.....U....
005C4360 7D 10 0F 84 2B 02 00 00 85 C9 75 04 33 C0 EB 08 }...+.....u.3...
005C4370 8B 46 08 2B C1 C1 F8 02 BB FF FF FF 3F 2B D8 3B .F.+........?+.;
005C4380 DA 73 05 E8 18 E1 FF FF 85 C9 75 04 33 C0 EB 08 .s........u.3...
005C4390 8B 46 08 2B C1 C1 F8 02 03 C2 3B F8 0F 83 25 01 .F.+......;...%.
005C43A0 00 00 8B C7 D1 E8 BF FF FF FF 3F 2B F8 3B 7D 10 ..........?+.;}.
005C43B0 73 09 C7 45 10 00 00 00 00 EB 03 01 45 10 85 C9 s..E........E...
005C43C0 75 04 33 C0 EB 08 8B 46 08 2B C1 C1 F8 02 03 C2 u.3....F.+......
005C43D0 39 45 10 73 15 85 C9 75 04 33 C0 EB 08 8B 46 08 9E.s...u.3....F.
005C43E0 2B C1 C1 F8 02 03 C2 89 45 10 8B 4D 10 6A 00 51 +.......E..M.j.Q
005C43F0 E8 8B E0 1E 00 8B 4D 0C 8B 5D 08 C6 45 E0 00 8B ......M..]..E...
005C4400 55 E0 52 51 8B F8 8B 46 04 56 57 53 50 89 7D DC U.RQ...F.VWSP.}.
005C4410 89 7D E8 C6 45 FC 01 E8 D4 7A F9 FF 8B 4D 0C 83 .}..E....z...M..
005C4420 C4 20 8D 55 EC 52 51 50 8B CE 89 45 E8 E8 6E FC . .U.RQP...E..n.
005C4430 FF FF 8B 4E 08 C6 45 08 00 8B 55 08 52 8B 55 0C ...N..E...U.R.U.
005C4440 52 56 50 51 53 89 45 E8 E8 A3 7A F9 FF 8B 4E 04 RVPQS.E...z...N.
005C4450 83 C4 18 85 C9 C7 45 FC 00 00 00 00 75 04 33 C0 ......E.....u.3.
005C4460 EB 08 8B 46 08 2B C1 C1 F8 02 8B 5D 0C 03 D8 85 ...F.+.....]....
005C4470 C9 74 1B 8B 55 0C 8B 46 08 52 56 50 51 E8 FE 57 .t..U..F.RVPQ..W
005C4480 E4 FF 8B 46 04 50 E8 3B 0B 0D 00 83 C4 14 8B 45 ...F.P.;.......E
005C4490 10 8D 0C 87 8D 14 9F 89 4E 0C 89 56 08 89 7E 04 ........N..V..~.
005C44A0 E9 EB 00 00 00 8B 45 E8 8B 75 DC 8B 4D E4 50 56 ......E..u..M.PV
005C44B0 E8 4B 04 FD FF 56 E8 0B 0B 0D 00 83 C4 04 6A 00 .K...V........j.
005C44C0 6A 00 E8 05 0B 0D 00 8B 5E 08 8B 7D 08 8B CB 2B j.......^..}...+
005C44D0 CF C1 F9 02 3B CA 73 7C 8D 04 95 00 00 00 00 89 ....;.s|........
005C44E0 45 10 03 C7 50 53 57 8B CE E8 B2 DF F2 FF 8B 46 E...PSW........F
005C44F0 08 8B 4D 0C 8D 55 EC 52 8B D0 2B D7 C1 FA 02 2B ..M..U.R..+....+
005C4500 CA 51 50 8B CE C6 45 FC 03 E8 92 FB FF FF 8B 45 .QP...E........E
005C4510 10 01 46 08 8B 76 08 2B F0 8D 45 EC 50 56 57 C7 ..F..v.+..E.PVW.
005C4520 45 FC 00 00 00 00 E8 15 58 FB FF 83 C4 0C EB 60 E.......X......`
005C4530 8B 45 0C 8B 4D E4 8B 51 08 03 C0 03 C0 03 D0 52 .E..M..Q.......R
005C4540 8B 55 08 03 C2 50 E8 B5 03 FD FF 6A 00 6A 00 E8 .U...P.....j.j..
005C4550 78 0A 0D 00 8D 0C 95 00 00 00 00 53 8B C3 2B C1 x..........S..+.
005C4560 53 89 4D 10 50 8B CE 89 45 0C E8 31 DF F2 FF 89 S.M.P...E..1....
005C4570 46 08 8B 45 0C 53 50 57 E8 13 ED FF FF 8B 55 10 F..E.SPW......U.
005C4580 8D 4D EC 51 03 D7 52 57 E8 B3 57 FB FF 83 C4 18 .M.Q..RW..W.....
005C4590 8B 45 EC 83 C9 FF 85 C0 89 4D FC 74 0F 01 48 04 .E.......M.t..H.
005C45A0 75 0A 8B 10 8B C8 8B 02 6A 01 FF D0 8B 4D F4 64 u.......j....M.d
005C45B0 89 0D 00 00 00 00 59 5F 5E 5B 8B E5 5D C2 0C 00 ......Y_^[..]...
005C45C0 55 8B EC 6A FF 68 68 ED 85 00 64 A1 00 00 00 00 U..j.hh...d.....
005C45D0 50 83 EC 18 53 56 57 A1 88 41 A1 00 33 C5 50 8D P...SVW..A..3.P.
005C45E0 45 F4 64 A3 00 00 00 00 89 65 F0 8B F1 89 75 E4 E.d......e....u.
005C45F0 8B 45 10 8B 00 85 C0 89 45 EC 74 04 83 40 04 01 .E......E.t..@..
005C4600 8B 4E 04 85 C9 C7 45 FC 00 00 00 00 75 04 33 FF .N....E.....u.3.
005C4610 EB 08 8B 7E 0C 2B F9 C1 FF 02 8B 55 0C 85 D2 89 ...~.+.....U....
005C4620 7D 10 0F 84 2B 02 00 00 85 C9 75 04 33 C0 EB 08 }...+.....u.3...
005C4630 8B 46 08 2B C1 C1 F8 02 BB FF FF FF 3F 2B D8 3B .F.+........?+.;
005C4640 DA 73 05 E8 B8 DE FF FF 85 C9 75 04 33 C0 EB 08 .s........u.3...
005C4650 8B 46 08 2B C1 C1 F8 02 03 C2 3B F8 0F 83 25 01 .F.+......;...%.
005C4660 00 00 8B C7 D1 E8 BF FF FF FF 3F 2B F8 3B 7D 10 ..........?+.;}.
005C4670 73 09 C7 45 10 00 00 00 00 EB 03 01 45 10 85 C9 s..E........E...
005C4680 75 04 33 C0 EB 08 8B 46 08 2B C1 C1 F8 02 03 C2 u.3....F.+......
005C4690 39 45 10 73 15 85 C9 75 04 33 C0 EB 08 8B 46 08 9E.s...u.3....F.
005C46A0 2B C1 C1 F8 02 03 C2 89 45 10 8B 4D 10 6A 00 51 +.......E..M.j.Q
005C46B0 E8 CB DD 1E 00 8B 4D 0C 8B 5D 08 C6 45 E0 00 8B ......M..]..E...
005C46C0 55 E0 52 51 8B F8 8B 46 04 56 57 53 50 89 7D DC U.RQ...F.VWSP.}.
005C46D0 89 7D E8 C6 45 FC 01 E8 14 78 F9 FF 8B 4D 0C 83 .}..E....x...M..
005C46E0 C4 20 8D 55 EC 52 51 50 8B CE 89 45 E8 E8 AE F9 . .U.RQP...E....
005C46F0 FF FF 8B 4E 08 C6 45 08 00 8B 55 08 52 8B 55 0C ...N..E...U.R.U.
005C4700 52 56 50 51 53 89 45 E8 E8 E3 77 F9 FF 8B 4E 04 RVPQS.E...w...N.
005C4710 83 C4 18 85 C9 C7 45 FC 00 00 00 00 75 04 33 C0 ......E.....u.3.
005C4720 EB 08 8B 46 08 2B C1 C1 F8 02 8B 5D 0C 03 D8 85 ...F.+.....]....
005C4730 C9 74 1B 8B 55 0C 8B 46 08 52 56 50 51 E8 3E 55 .t..U..F.RVPQ.>U
005C4740 E4 FF 8B 46 04 50 E8 7B 08 0D 00 83 C4 14 8B 45 ...F.P.{.......E
005C4750 10 8D 0C 87 8D 14 9F 89 4E 0C 89 56 08 89 7E 04 ........N..V..~.
005C4760 E9 EB 00 00 00 8B 45 E8 8B 75 DC 8B 4D E4 50 56 ......E..u..M.PV
005C4770 E8 8B 01 FD FF 56 E8 4B 08 0D 00 83 C4 04 6A 00 .....V.K......j.
005C4780 6A 00 E8 45 08 0D 00 8B 5E 08 8B 7D 08 8B CB 2B j..E....^..}...+
005C4790 CF C1 F9 02 3B CA 73 7C 8D 04 95 00 00 00 00 89 ....;.s|........
005C47A0 45 10 03 C7 50 53 57 8B CE E8 F2 DC F2 FF 8B 46 E...PSW........F
005C47B0 08 8B 4D 0C 8D 55 EC 52 8B D0 2B D7 C1 FA 02 2B ..M..U.R..+....+
005C47C0 CA 51 50 8B CE C6 45 FC 03 E8 D2 F8 FF FF 8B 45 .QP...E........E
005C47D0 10 01 46 08 8B 76 08 2B F0 8D 45 EC 50 56 57 C7 ..F..v.+..E.PVW.
005C47E0 45 FC 00 00 00 00 E8 55 55 FB FF 83 C4 0C EB 60 E......UU......`
005C47F0 8B 45 0C 8B 4D E4 8B 51 08 03 C0 03 C0 03 D0 52 .E..M..Q.......R
005C4800 8B 55 08 03 C2 50 E8 F5 00 FD FF 6A 00 6A 00 E8 .U...P.....j.j..
005C4810 B8 07 0D 00 8D 0C 95 00 00 00 00 53 8B C3 2B C1 ...........S..+.
005C4820 53 89 4D 10 50 8B CE 89 45 0C E8 71 DC F2 FF 89 S.M.P...E..q....
005C4830 46 08 8B 45 0C 53 50 57 E8 53 EA FF FF 8B 55 10 F..E.SPW.S....U.
005C4840 8D 4D EC 51 03 D7 52 57 E8 F3 54 FB FF 83 C4 18 .M.Q..RW..T.....
005C4850 8B 45 EC 83 C9 FF 85 C0 89 4D FC 74 0F 01 48 04 .E.......M.t..H.
005C4860 75 0A 8B 10 8B C8 8B 02 6A 01 FF D0 8B 4D F4 64 u.......j....M.d
005C4870 89 0D 00 00 00 00 59 5F 5E 5B 8B E5 5D C2 0C 00 ......Y_^[..]...
005C4880 55 8B EC 6A FF 68 98 ED 85 00 64 A1 00 00 00 00 U..j.h....d.....
005C4890 50 83 EC 18 53 56 57 A1 88 41 A1 00 33 C5 50 8D P...SVW..A..3.P.
005C48A0 45 F4 64 A3 00 00 00 00 89 65 F0 8B F1 89 75 E4 E.d......e....u.
005C48B0 8B 45 10 8B 00 85 C0 89 45 EC 74 04 83 40 04 01 .E......E.t..@..
005C48C0 8B 4E 04 85 C9 C7 45 FC 00 00 00 00 75 04 33 FF .N....E.....u.3.
005C48D0 EB 08 8B 7E 0C 2B F9 C1 FF 02 8B 55 0C 85 D2 89 ...~.+.....U....
005C48E0 7D 10 0F 84 2B 02 00 00 85 C9 75 04 33 C0 EB 08 }...+.....u.3...
005C48F0 8B 46 08 2B C1 C1 F8 02 BB FF FF FF 3F 2B D8 3B .F.+........?+.;
005C4900 DA 73 05 E8 68 E1 FF FF 85 C9 75 04 33 C0 EB 08 .s..h.....u.3...
005C4910 8B 46 08 2B C1 C1 F8 02 03 C2 3B F8 0F 83 25 01 .F.+......;...%.
005C4920 00 00 8B C7 D1 E8 BF FF FF FF 3F 2B F8 3B 7D 10 ..........?+.;}.
005C4930 73 09 C7 45 10 00 00 00 00 EB 03 01 45 10 85 C9 s..E........E...
005C4940 75 04 33 C0 EB 08 8B 46 08 2B C1 C1 F8 02 03 C2 u.3....F.+......
005C4950 39 45 10 73 15 85 C9 75 04 33 C0 EB 08 8B 46 08 9E.s...u.3....F.
005C4960 2B C1 C1 F8 02 03 C2 89 45 10 8B 4D 10 6A 00 51 +.......E..M.j.Q
005C4970 E8 0B DB 1E 00 8B 4D 0C 8B 5D 08 C6 45 E0 00 8B ......M..]..E...
005C4980 55 E0 52 51 8B F8 8B 46 04 56 57 53 50 89 7D DC U.RQ...F.VWSP.}.
005C4990 89 7D E8 C6 45 FC 01 E8 54 75 F9 FF 8B 4D 0C 83 .}..E...Tu...M..
005C49A0 C4 20 8D 55 EC 52 51 50 8B CE 89 45 E8 E8 EE F6 . .U.RQP...E....
005C49B0 FF FF 8B 4E 08 C6 45 08 00 8B 55 08 52 8B 55 0C ...N..E...U.R.U.
005C49C0 52 56 50 51 53 89 45 E8 E8 23 75 F9 FF 8B 4E 04 RVPQS.E..#u...N.
005C49D0 83 C4 18 85 C9 C7 45 FC 00 00 00 00 75 04 33 C0 ......E.....u.3.
005C49E0 EB 08 8B 46 08 2B C1 C1 F8 02 8B 5D 0C 03 D8 85 ...F.+.....]....
005C49F0 C9 74 1B 8B 55 0C 8B 46 08 52 56 50 51 E8 7E 52 .t..U..F.RVPQ.~R
005C4A00 E4 FF 8B 46 04 50 E8 BB 05 0D 00 83 C4 14 8B 45 ...F.P.........E
005C4A10 10 8D 0C 87 8D 14 9F 89 4E 0C 89 56 08 89 7E 04 ........N..V..~.
005C4A20 E9 EB 00 00 00 8B 45 E8 8B 75 DC 8B 4D E4 50 56 ......E..u..M.PV
005C4A30 E8 CB FE FC FF 56 E8 8B 05 0D 00 83 C4 04 6A 00 .....V........j.
005C4A40 6A 00 E8 85 05 0D 00 8B 5E 08 8B 7D 08 8B CB 2B j.......^..}...+
005C4A50 CF C1 F9 02 3B CA 73 7C 8D 04 95 00 00 00 00 89 ....;.s|........
005C4A60 45 10 03 C7 50 53 57 8B CE E8 32 DA F2 FF 8B 46 E...PSW...2....F
005C4A70 08 8B 4D 0C 8D 55 EC 52 8B D0 2B D7 C1 FA 02 2B ..M..U.R..+....+
005C4A80 CA 51 50 8B CE C6 45 FC 03 E8 12 F6 FF FF 8B 45 .QP...E........E
005C4A90 10 01 46 08 8B 76 08 2B F0 8D 45 EC 50 56 57 C7 ..F..v.+..E.PVW.
005C4AA0 45 FC 00 00 00 00 E8 95 52 FB FF 83 C4 0C EB 60 E.......R......`
005C4AB0 8B 45 0C 8B 4D E4 8B 51 08 03 C0 03 C0 03 D0 52 .E..M..Q.......R
005C4AC0 8B 55 08 03 C2 50 E8 35 FE FC FF 6A 00 6A 00 E8 .U...P.5...j.j..
005C4AD0 F8 04 0D 00 8D 0C 95 00 00 00 00 53 8B C3 2B C1 ...........S..+.
005C4AE0 53 89 4D 10 50 8B CE 89 45 0C E8 B1 D9 F2 FF 89 S.M.P...E.......
005C4AF0 46 08 8B 45 0C 53 50 57 E8 93 E7 FF FF 8B 55 10 F..E.SPW......U.
005C4B00 8D 4D EC 51 03 D7 52 57 E8 33 52 FB FF 83 C4 18 .M.Q..RW.3R.....
005C4B10 8B 45 EC 83 C9 FF 85 C0 89 4D FC 74 0F 01 48 04 .E.......M.t..H.
005C4B20 75 0A 8B 10 8B C8 8B 02 6A 01 FF D0 8B 4D F4 64 u.......j....M.d
005C4B30 89 0D 00 00 00 00 59 5F 5E 5B 8B E5 5D C2 0C 00 ......Y_^[..]...
005C4B40 55 8B EC 6A FF 68 C8 ED 85 00 64 A1 00 00 00 00 U..j.h....d.....
005C4B50 50 83 EC 18 53 56 57 A1 88 41 A1 00 33 C5 50 8D P...SVW..A..3.P.
005C4B60 45 F4 64 A3 00 00 00 00 89 65 F0 8B F1 89 75 E4 E.d......e....u.
005C4B70 8B 45 10 8B 00 85 C0 89 45 EC 74 04 83 40 04 01 .E......E.t..@..
005C4B80 8B 4E 04 85 C9 C7 45 FC 00 00 00 00 75 04 33 FF .N....E.....u.3.
005C4B90 EB 08 8B 7E 0C 2B F9 C1 FF 02 8B 55 0C 85 D2 89 ...~.+.....U....
005C4BA0 7D 10 0F 84 2B 02 00 00 85 C9 75 04 33 C0 EB 08 }...+.....u.3...
005C4BB0 8B 46 08 2B C1 C1 F8 02 BB FF FF FF 3F 2B D8 3B .F.+........?+.;
005C4BC0 DA 73 05 E8 C8 D7 FF FF 85 C9 75 04 33 C0 EB 08 .s........u.3...
005C4BD0 8B 46 08 2B C1 C1 F8 02 03 C2 3B F8 0F 83 25 01 .F.+......;...%.
005C4BE0 00 00 8B C7 D1 E8 BF FF FF FF 3F 2B F8 3B 7D 10 ..........?+.;}.
005C4BF0 73 09 C7 45 10 00 00 00 00 EB 03 01 45 10 85 C9 s..E........E...
005C4C00 75 04 33 C0 EB 08 8B 46 08 2B C1 C1 F8 02 03 C2 u.3....F.+......
005C4C10 39 45 10 73 15 85 C9 75 04 33 C0 EB 08 8B 46 08 9E.s...u.3....F.
005C4C20 2B C1 C1 F8 02 03 C2 89 45 10 8B 4D 10 6A 00 51 +.......E..M.j.Q
005C4C30 E8 4B D8 1E 00 8B 4D 0C 8B 5D 08 C6 45 E0 00 8B .K....M..]..E...
005C4C40 55 E0 52 51 8B F8 8B 46 04 56 57 53 50 89 7D DC U.RQ...F.VWSP.}.
005C4C50 89 7D E8 C6 45 FC 01 E8 94 72 F9 FF 8B 4D 0C 83 .}..E....r...M..
005C4C60 C4 20 8D 55 EC 52 51 50 8B CE 89 45 E8 E8 2E F4 . .U.RQP...E....
005C4C70 FF FF 8B 4E 08 C6 45 08 00 8B 55 08 52 8B 55 0C ...N..E...U.R.U.
005C4C80 52 56 50 51 53 89 45 E8 E8 63 72 F9 FF 8B 4E 04 RVPQS.E..cr...N.
005C4C90 83 C4 18 85 C9 C7 45 FC 00 00 00 00 75 04 33 C0 ......E.....u.3.
005C4CA0 EB 08 8B 46 08 2B C1 C1 F8 02 8B 5D 0C 03 D8 85 ...F.+.....]....
005C4CB0 C9 74 1B 8B 55 0C 8B 46 08 52 56 50 51 E8 BE 4F .t..U..F.RVPQ..O
005C4CC0 E4 FF 8B 46 04 50 E8 FB 02 0D 00 83 C4 14 8B 45 ...F.P.........E
005C4CD0 10 8D 0C 87 8D 14 9F 89 4E 0C 89 56 08 89 7E 04 ........N..V..~.
005C4CE0 E9 EB 00 00 00 8B 45 E8 8B 75 DC 8B 4D E4 50 56 ......E..u..M.PV
005C4CF0 E8 0B FC FC FF 56 E8 CB 02 0D 00 83 C4 04 6A 00 .....V........j.
005C4D00 6A 00 E8 C5 02 0D 00 8B 5E 08 8B 7D 08 8B CB 2B j.......^..}...+
005C4D10 CF C1 F9 02 3B CA 73 7C 8D 04 95 00 00 00 00 89 ....;.s|........
005C4D20 45 10 03 C7 50 53 57 8B CE E8 72 D7 F2 FF 8B 46 E...PSW...r....F
005C4D30 08 8B 4D 0C 8D 55 EC 52 8B D0 2B D7 C1 FA 02 2B ..M..U.R..+....+
005C4D40 CA 51 50 8B CE C6 45 FC 03 E8 52 F3 FF FF 8B 45 .QP...E...R....E
005C4D50 10 01 46 08 8B 76 08 2B F0 8D 45 EC 50 56 57 C7 ..F..v.+..E.PVW.
005C4D60 45 FC 00 00 00 00 E8 D5 4F FB FF 83 C4 0C EB 60 E.......O......`
005C4D70 8B 45 0C 8B 4D E4 8B 51 08 03 C0 03 C0 03 D0 52 .E..M..Q.......R
005C4D80 8B 55 08 03 C2 50 E8 75 FB FC FF 6A 00 6A 00 E8 .U...P.u...j.j..
005C4D90 38 02 0D 00 8D 0C 95 00 00 00 00 53 8B C3 2B C1 8..........S..+.
005C4DA0 53 89 4D 10 50 8B CE 89 45 0C E8 F1 D6 F2 FF 89 S.M.P...E.......
005C4DB0 46 08 8B 45 0C 53 50 57 E8 D3 E4 FF FF 8B 55 10 F..E.SPW......U.
005C4DC0 8D 4D EC 51 03 D7 52 57 E8 73 4F FB FF 83 C4 18 .M.Q..RW.sO.....
005C4DD0 8B 45 EC 83 C9 FF 85 C0 89 4D FC 74 0F 01 48 04 .E.......M.t..H.
005C4DE0 75 0A 8B 10 8B C8 8B 02 6A 01 FF D0 8B 4D F4 64 u.......j....M.d
005C4DF0 89 0D 00 00 00 00 59 5F 5E 5B 8B E5 5D C2 0C 00 ......Y_^[..]...
005C4E00 55 8B EC 6A FF 68 F8 ED 85 00 64 A1 00 00 00 00 U..j.h....d.....
005C4E10 50 83 EC 18 53 56 57 A1 88 41 A1 00 33 C5 50 8D P...SVW..A..3.P.
005C4E20 45 F4 64 A3 00 00 00 00 89 65 F0 8B F1 89 75 E4 E.d......e....u.
005C4E30 8B 45 10 8B 00 85 C0 89 45 EC 74 04 83 40 04 01 .E......E.t..@..
005C4E40 8B 4E 04 85 C9 C7 45 FC 00 00 00 00 75 04 33 FF .N....E.....u.3.
005C4E50 EB 08 8B 7E 0C 2B F9 C1 FF 02 8B 55 0C 85 D2 89 ...~.+.....U....
005C4E60 7D 10 0F 84 2B 02 00 00 85 C9 75 04 33 C0 EB 08 }...+.....u.3...
005C4E70 8B 46 08 2B C1 C1 F8 02 BB FF FF FF 3F 2B D8 3B .F.+........?+.;
005C4E80 DA 73 05 E8 68 D5 FF FF 85 C9 75 04 33 C0 EB 08 .s..h.....u.3...
005C4E90 8B 46 08 2B C1 C1 F8 02 03 C2 3B F8 0F 83 25 01 .F.+......;...%.
005C4EA0 00 00 8B C7 D1 E8 BF FF FF FF 3F 2B F8 3B 7D 10 ..........?+.;}.
005C4EB0 73 09 C7 45 10 00 00 00 00 EB 03 01 45 10 85 C9 s..E........E...
005C4EC0 75 04 33 C0 EB 08 8B 46 08 2B C1 C1 F8 02 03 C2 u.3....F.+......
005C4ED0 39 45 10 73 15 85 C9 75 04 33 C0 EB 08 8B 46 08 9E.s...u.3....F.
005C4EE0 2B C1 C1 F8 02 03 C2 89 45 10 8B 4D 10 6A 00 51 +.......E..M.j.Q
005C4EF0 E8 8B D5 1E 00 8B 4D 0C 8B 5D 08 C6 45 E0 00 8B ......M..]..E...
005C4F00 55 E0 52 51 8B F8 8B 46 04 56 57 53 50 89 7D DC U.RQ...F.VWSP.}.
005C4F10 89 7D E8 C6 45 FC 01 E8 D4 6F F9 FF 8B 4D 0C 83 .}..E....o...M..
005C4F20 C4 20 8D 55 EC 52 51 50 8B CE 89 45 E8 E8 6E F1 . .U.RQP...E..n.
005C4F30 FF FF 8B 4E 08 C6 45 08 00 8B 55 08 52 8B 55 0C ...N..E...U.R.U.
005C4F40 52 56 50 51 53 89 45 E8 E8 A3 6F F9 FF 8B 4E 04 RVPQS.E...o...N.
005C4F50 83 C4 18 85 C9 C7 45 FC 00 00 00 00 75 04 33 C0 ......E.....u.3.
005C4F60 EB 08 8B 46 08 2B C1 C1 F8 02 8B 5D 0C 03 D8 85 ...F.+.....]....
005C4F70 C9 74 1B 8B 55 0C 8B 46 08 52 56 50 51 E8 FE 4C .t..U..F.RVPQ..L
005C4F80 E4 FF 8B 46 04 50 E8 3B 00 0D 00 83 C4 14 8B 45 ...F.P.;.......E
005C4F90 10 8D 0C 87 8D 14 9F 89 4E 0C 89 56 08 89 7E 04 ........N..V..~.
005C4FA0 E9 EB 00 00 00 8B 45 E8 8B 75 DC 8B 4D E4 50 56 ......E..u..M.PV
005C4FB0 E8 4B F9 FC FF 56 E8 0B 00 0D 00 83 C4 04 6A 00 .K...V........j.
005C4FC0 6A 00 E8 05 00 0D 00 8B 5E 08 8B 7D 08 8B CB 2B j.......^..}...+
005C4FD0 CF C1 F9 02 3B CA 73 7C 8D 04 95 00 00 00 00 89 ....;.s|........
005C4FE0 45 10 03 C7 50 53 57 8B CE E8 B2 D4 F2 FF 8B 46 E...PSW........F
005C4FF0 08 8B 4D 0C 8D 55 EC 52 8B D0 2B D7 C1 FA 02 2B ..M..U.R..+....+
005C5000 CA 51 50 8B CE C6 45 FC 03 E8 92 F0 FF FF 8B 45 .QP...E........E
005C5010 10 01 46 08 8B 76 08 2B F0 8D 45 EC 50 56 57 C7 ..F..v.+..E.PVW.
005C5020 45 FC 00 00 00 00 E8 15 4D FB FF 83 C4 0C EB 60 E.......M......`
005C5030 8B 45 0C 8B 4D E4 8B 51 08 03 C0 03 C0 03 D0 52 .E..M..Q.......R
005C5040 8B 55 08 03 C2 50 E8 B5 F8 FC FF 6A 00 6A 00 E8 .U...P.....j.j..
005C5050 78 FF 0C 00 8D 0C 95 00 00 00 00 53 8B C3 2B C1 x..........S..+.
005C5060 53 89 4D 10 50 8B CE 89 45 0C E8 31 D4 F2 FF 89 S.M.P...E..1....
005C5070 46 08 8B 45 0C 53 50 57 E8 13 E2 FF FF 8B 55 10 F..E.SPW......U.
005C5080 8D 4D EC 51 03 D7 52 57 E8 B3 4C FB FF 83 C4 18 .M.Q..RW..L.....
005C5090 8B 45 EC 83 C9 FF 85 C0 89 4D FC 74 0F 01 48 04 .E.......M.t..H.
005C50A0 75 0A 8B 10 8B C8 8B 02 6A 01 FF D0 8B 4D F4 64 u.......j....M.d
005C50B0 89 0D 00 00 00 00 59 5F 5E 5B 8B E5 5D C2 0C 00 ......Y_^[..]...
005C50C0 55 8B EC 6A FF 68 28 EE 85 00 64 A1 00 00 00 00 U..j.h(...d.....
005C50D0 50 83 EC 18 53 56 57 A1 88 41 A1 00 33 C5 50 8D P...SVW..A..3.P.
005C50E0 45 F4 64 A3 00 00 00 00 89 65 F0 8B F1 89 75 E4 E.d......e....u.
005C50F0 8B 45 10 8B 00 85 C0 89 45 EC 74 04 83 40 04 01 .E......E.t..@..
005C5100 8B 4E 04 85 C9 C7 45 FC 00 00 00 00 75 04 33 FF .N....E.....u.3.
005C5110 EB 08 8B 7E 0C 2B F9 C1 FF 02 8B 55 0C 85 D2 89 ...~.+.....U....
005C5120 7D 10 0F 84 2B 02 00 00 85 C9 75 04 33 C0 EB 08 }...+.....u.3...
005C5130 8B 46 08 2B C1 C1 F8 02 BB FF FF FF 3F 2B D8 3B .F.+........?+.;
005C5140 DA 73 05 E8 F8 D5 FF FF 85 C9 75 04 33 C0 EB 08 .s........u.3...
005C5150 8B 46 08 2B C1 C1 F8 02 03 C2 3B F8 0F 83 25 01 .F.+......;...%.
005C5160 00 00 8B C7 D1 E8 BF FF FF FF 3F 2B F8 3B 7D 10 ..........?+.;}.
005C5170 73 09 C7 45 10 00 00 00 00 EB 03 01 45 10 85 C9 s..E........E...
005C5180 75 04 33 C0 EB 08 8B 46 08 2B C1 C1 F8 02 03 C2 u.3....F.+......
005C5190 39 45 10 73 15 85 C9 75 04 33 C0 EB 08 8B 46 08 9E.s...u.3....F.
005C51A0 2B C1 C1 F8 02 03 C2 89 45 10 8B 4D 10 6A 00 51 +.......E..M.j.Q
005C51B0 E8 CB D2 1E 00 8B 4D 0C 8B 5D 08 C6 45 E0 00 8B ......M..]..E...
005C51C0 55 E0 52 51 8B F8 8B 46 04 56 57 53 50 89 7D DC U.RQ...F.VWSP.}.
005C51D0 89 7D E8 C6 45 FC 01 E8 14 6D F9 FF 8B 4D 0C 83 .}..E....m...M..
005C51E0 C4 20 8D 55 EC 52 51 50 8B CE 89 45 E8 E8 AE EE . .U.RQP...E....
005C51F0 FF FF 8B 4E 08 C6 45 08 00 8B 55 08 52 8B 55 0C ...N..E...U.R.U.
005C5200 52 56 50 51 53 89 45 E8 E8 E3 6C F9 FF 8B 4E 04 RVPQS.E...l...N.
005C5210 83 C4 18 85 C9 C7 45 FC 00 00 00 00 75 04 33 C0 ......E.....u.3.
005C5220 EB 08 8B 46 08 2B C1 C1 F8 02 8B 5D 0C 03 D8 85 ...F.+.....]....
005C5230 C9 74 1B 8B 55 0C 8B 46 08 52 56 50 51 E8 3E 4A .t..U..F.RVPQ.>J
005C5240 E4 FF 8B 46 04 50 E8 7B FD 0C 00 83 C4 14 8B 45 ...F.P.{.......E
005C5250 10 8D 0C 87 8D 14 9F 89 4E 0C 89 56 08 89 7E 04 ........N..V..~.
005C5260 E9 EB 00 00 00 8B 45 E8 8B 75 DC 8B 4D E4 50 56 ......E..u..M.PV
005C5270 E8 8B F6 FC FF 56 E8 4B FD 0C 00 83 C4 04 6A 00 .....V.K......j.
005C5280 6A 00 E8 45 FD 0C 00 8B 5E 08 8B 7D 08 8B CB 2B j..E....^..}...+
005C5290 CF C1 F9 02 3B CA 73 7C 8D 04 95 00 00 00 00 89 ....;.s|........
005C52A0 45 10 03 C7 50 53 57 8B CE E8 F2 D1 F2 FF 8B 46 E...PSW........F
005C52B0 08 8B 4D 0C 8D 55 EC 52 8B D0 2B D7 C1 FA 02 2B ..M..U.R..+....+
005C52C0 CA 51 50 8B CE C6 45 FC 03 E8 D2 ED FF FF 8B 45 .QP...E........E
005C52D0 10 01 46 08 8B 76 08 2B F0 8D 45 EC 50 56 57 C7 ..F..v.+..E.PVW.
005C52E0 45 FC 00 00 00 00 E8 55 4A FB FF 83 C4 0C EB 60 E......UJ......`
005C52F0 8B 45 0C 8B 4D E4 8B 51 08 03 C0 03 C0 03 D0 52 .E..M..Q.......R
005C5300 8B 55 08 03 C2 50 E8 F5 F5 FC FF 6A 00 6A 00 E8 .U...P.....j.j..
005C5310 B8 FC 0C 00 8D 0C 95 00 00 00 00 53 8B C3 2B C1 ...........S..+.
005C5320 53 89 4D 10 50 8B CE 89 45 0C E8 71 D1 F2 FF 89 S.M.P...E..q....
005C5330 46 08 8B 45 0C 53 50 57 E8 53 DF FF FF 8B 55 10 F..E.SPW.S....U.
005C5340 8D 4D EC 51 03 D7 52 57 E8 F3 49 FB FF 83 C4 18 .M.Q..RW..I.....
005C5350 8B 45 EC 83 C9 FF 85 C0 89 4D FC 74 0F 01 48 04 .E.......M.t..H.
005C5360 75 0A 8B 10 8B C8 8B 02 6A 01 FF D0 8B 4D F4 64 u.......j....M.d
005C5370 89 0D 00 00 00 00 59 5F 5E 5B 8B E5 5D C2 0C 00 ......Y_^[..]...
005C5380 51 56 8B F1 8B 46 04 8B 08 50 51 8D 44 24 0C 50 QV...F...PQ.D$.P
005C5390 8B CE E8 49 EC FF FF 8B 4E 04 51 E8 26 FC 0C 00 ...I....N.Q.&...
005C53A0 83 C4 04 33 C0 89 46 04 89 46 08 5E 59 C3 CC CC ...3..F..F.^Y...
005C53B0 6A FF 68 5B EE 85 00 64 A1 00 00 00 00 50 83 EC j.h[...d.....P..
005C53C0 08 53 56 57 A1 88 41 A1 00 33 C4 50 8D 44 24 18 .SVW..A..3.P.D$.
005C53D0 64 A3 00 00 00 00 8B F9 89 7C 24 10 8B 47 64 8B d........|$..Gd.
005C53E0 08 8D 77 60 50 51 8D 44 24 1C 33 DB 50 8B CE 89 ..w`PQ.D$.3.P...
005C53F0 5C 24 2C E8 E8 EB FF FF 8B 46 04 50 E8 C5 FB 0C \$,......F.P....
005C5400 00 89 5E 04 89 5E 08 8B 47 5C 83 C4 04 3B C3 C7 ..^..^..G\...;..
005C5410 44 24 20 FF FF FF FF C7 47 58 C4 40 8C 00 74 08 D$ .....GX.@..t.
005C5420 8B 08 8B 51 08 50 FF D2 89 5F 5C 8B 4C 24 18 64 ...Q.P..._\.L$.d
005C5430 89 0D 00 00 00 00 59 5F 5E 5B 83 C4 14 C3 CC CC ......Y_^[......
005C5440 6A FF 68 FA F0 85 00 64 A1 00 00 00 00 50 83 EC j.h....d.....P..
005C5450 28 53 55 56 57 A1 88 41 A1 00 33 C4 50 8D 44 24 (SUVW..A..3.P.D$
005C5460 3C 64 A3 00 00 00 00 8B E9 89 6C 24 14 6A 40 33 <d........l$.j@3
005C5470 FF 8D 75 10 57 56 E8 A5 FB 0C 00 F3 0F 10 05 1C ..u.WV..........
005C5480 79 8A 00 F3 0F 11 45 50 C6 45 54 00 C6 45 55 01 y.....EP.ET..EU.
005C5490 C6 45 56 00 C6 45 57 01 83 C4 0C C7 45 58 C4 40 .EV..EW.....EX.@
005C54A0 8C 00 89 7D 5C 83 C5 60 8B CD 89 7C 24 44 E8 1D ...}\..`...|$D..
005C54B0 EA 09 00 89 45 04 C6 40 15 01 8B 45 04 89 40 04 ....E..@...E..@.
005C54C0 8B 45 04 89 00 8B 45 04 89 40 08 89 7D 08 0F 57 .E....E..@..}..W
005C54D0 C0 F3 0F 11 46 38 F3 0F 11 46 34 F3 0F 11 46 30 ....F8...F4...F0
005C54E0 F3 0F 11 46 2C F3 0F 11 46 24 F3 0F 11 46 20 F3 ...F,...F$...F .
005C54F0 0F 11 46 1C F3 0F 11 46 18 F3 0F 11 46 10 F3 0F ..F....F....F...
005C5500 11 46 0C F3 0F 11 46 08 F3 0F 11 46 04 F3 0F 10 .F....F....F....
005C5510 05 1C 79 8A 00 6A 08 C6 44 24 48 01 F3 0F 11 46 ..y..j..D$H....F
005C5520 3C F3 0F 11 46 28 F3 0F 11 46 14 F3 0F 11 06 E8 <...F(...F......
005C5530 A4 FA 0C 00 83 C4 04 3B C7 74 0D 89 78 04 C7 00 .......;.t..x...
005C5540 04 41 8C 00 8B F0 EB 02 33 F6 3B F7 89 74 24 1C .A......3.;..t$.
005C5550 74 04 83 46 04 01 B3 02 68 8C 44 8C 00 8D 4C 24 t..F....h.D...L$
005C5560 24 88 5C 24 48 FF 15 34 43 8A 00 8D 44 24 20 6A $.\$H..4C...D$ j
005C5570 01 50 C6 44 24 4C 03 E8 64 27 03 00 83 C4 08 8D .P.D$L..d'......
005C5580 4C 24 18 51 8B CD 89 44 24 1C E8 51 EC FF FF 8B L$.Q...D$..Q....
005C5590 08 3B CE 74 1C 3B F7 89 30 74 04 83 46 04 01 3B .;.t.;..0t..F..;
005C55A0 CF 74 0E 83 41 04 FF 75 08 8B 11 8B 02 6A 01 FF .t..A..u.....j..
005C55B0 D0 8D 4C 24 20 88 5C 24 44 FF 15 38 43 8A 00 3B ..L$ .\$D..8C..;
005C55C0 F7 C6 44 24 44 01 74 10 83 46 04 FF 75 0A 8B 16 ..D$D.t..F..u...
005C55D0 8B 02 6A 01 8B CE FF D0 6A 08 E8 F9 F9 0C 00 83 ..j.....j.......
005C55E0 C4 04 3B C7 74 0D 89 78 04 C7 00 10 41 8C 00 8B ..;.t..x....A...
005C55F0 F0 EB 02 33 F6 3B F7 89 74 24 1C 74 04 83 46 04 ...3.;..t$.t..F.
005C5600 01 B3 04 68 E8 85 8A 00 8D 4C 24 24 88 5C 24 48 ...h.....L$$.\$H
005C5610 FF 15 34 43 8A 00 8D 4C 24 20 6A 01 51 C6 44 24 ..4C...L$ j.Q.D$
005C5620 4C 05 E8 B9 26 03 00 83 C4 08 8D 54 24 18 52 8B L...&......T$.R.
005C5630 CD 89 44 24 1C E8 A6 EB FF FF 8B 08 3B CE 74 1C ..D$........;.t.
005C5640 3B F7 89 30 74 04 83 46 04 01 3B CF 74 0E 83 41 ;..0t..F..;.t..A
005C5650 04 FF 75 08 8B 01 8B 10 6A 01 FF D2 8D 4C 24 20 ..u.....j....L$ 
005C5660 88 5C 24 44 FF 15 38 43 8A 00 3B F7 C6 44 24 44 .\$D..8C..;..D$D
005C5670 01 74 10 83 46 04 FF 75 0A 8B 06 8B 10 6A 01 8B .t..F..u.....j..
005C5680 CE FF D2 6A 08 E8 4E F9 0C 00 83 C4 04 3B C7 74 ...j..N......;.t
005C5690 0D 89 78 04 C7 00 1C 41 8C 00 8B F0 EB 02 33 F6 ..x....A......3.
005C56A0 3B F7 89 74 24 1C 74 04 83 46 04 01 B3 06 68 84 ;..t$.t..F....h.
005C56B0 44 8C 00 8D 4C 24 24 88 5C 24 48 FF 15 34 43 8A D...L$$.\$H..4C.
005C56C0 00 8D 44 24 20 6A 01 50 C6 44 24 4C 07 E8 0E 26 ..D$ j.P.D$L...&
005C56D0 03 00 83 C4 08 8D 4C 24 18 51 8B CD 89 44 24 1C ......L$.Q...D$.
005C56E0 E8 FB EA FF FF 8B 08 3B CE 74 1C 3B F7 89 30 74 .......;.t.;..0t
005C56F0 04 83 46 04 01 3B CF 74 0E 83 41 04 FF 75 08 8B ..F..;.t..A..u..
005C5700 11 8B 02 6A 01 FF D0 8D 4C 24 20 88 5C 24 44 FF ...j....L$ .\$D.
005C5710 15 38 43 8A 00 83 CB FF 3B F7 C6 44 24 44 01 74 .8C.....;..D$D.t
005C5720 0F 01 5E 04 75 0A 8B 16 8B 02 6A 01 8B CE FF D0 ..^.u.....j.....
005C5730 6A 08 E8 A1 F8 0C 00 83 C4 04 3B C7 74 0D 89 78 j.........;.t..x
005C5740 04 C7 00 28 41 8C 00 8B F0 EB 02 33 F6 3B F7 89 ...(A......3.;..
005C5750 74 24 1C 74 04 83 46 04 01 68 74 44 8C 00 8D 4C t$.t..F..htD...L
005C5760 24 24 C6 44 24 48 08 FF 15 34 43 8A 00 8D 4C 24 $$.D$H...4C...L$
005C5770 20 6A 01 51 C6 44 24 4C 09 E8 62 25 03 00 83 C4  j.Q.D$L..b%....
005C5780 08 8D 54 24 18 52 8B CD 89 44 24 1C E8 4F EA FF ..T$.R...D$..O..
005C5790 FF 8B 08 3B CE 74 1B 3B F7 89 30 74 04 83 46 04 ...;.t.;..0t..F.
005C57A0 01 3B CF 74 0D 01 59 04 75 08 8B 01 8B 10 6A 01 .;.t..Y.u.....j.
005C57B0 FF D2 8D 4C 24 20 C6 44 24 44 08 FF 15 38 43 8A ...L$ .D$D...8C.
005C57C0 00 3B F7 C6 44 24 44 01 74 0F 01 5E 04 75 0A 8B .;..D$D.t..^.u..
005C57D0 06 8B 10 6A 01 8B CE FF D2 6A 08 E8 F8 F7 0C 00 ...j.....j......
005C57E0 83 C4 04 3B C7 74 0D 89 78 04 C7 00 34 41 8C 00 ...;.t..x...4A..
005C57F0 8B F0 EB 02 33 F6 3B F7 89 74 24 1C 74 04 83 46 ....3.;..t$.t..F
005C5800 04 01 B3 0A 68 80 53 8B 00 8D 4C 24 24 88 5C 24 ....h.S...L$$.\$
005C5810 48 FF 15 34 43 8A 00 8D 44 24 20 6A 01 50 C6 44 H..4C...D$ j.P.D
005C5820 24 4C 0B E8 B8 24 03 00 83 C4 08 8D 4C 24 18 51 $L...$......L$.Q
005C5830 8B CD 89 44 24 1C E8 A5 E9 FF FF 8B 08 3B CE 74 ...D$........;.t
005C5840 1C 3B F7 89 30 74 04 83 46 04 01 3B CF 74 0E 83 .;..0t..F..;.t..
005C5850 41 04 FF 75 08 8B 11 8B 02 6A 01 FF D0 8D 4C 24 A..u.....j....L$
005C5860 20 88 5C 24 44 FF 15 38 43 8A 00 83 CB FF 3B F7  .\$D..8C.....;.
005C5870 C6 44 24 44 01 74 0F 01 5E 04 75 0A 8B 16 8B 02 .D$D.t..^.u.....
005C5880 6A 01 8B CE FF D0 6A 08 E8 4B F7 0C 00 83 C4 04 j.....j..K......
005C5890 3B C7 74 0D 89 78 04 C7 00 40 41 8C 00 8B F0 EB ;.t..x...@A.....
005C58A0 02 33 F6 3B F7 89 74 24 1C 74 04 83 46 04 01 68 .3.;..t$.t..F..h
005C58B0 6C 44 8C 00 8D 4C 24 24 C6 44 24 48 0C FF 15 34 lD...L$$.D$H...4
005C58C0 43 8A 00 8D 4C 24 20 6A 01 51 C6 44 24 4C 0D E8 C...L$ j.Q.D$L..
005C58D0 0C 24 03 00 83 C4 08 8D 54 24 18 52 8B CD 89 44 .$......T$.R...D
005C58E0 24 1C E8 F9 E8 FF FF 8B 08 3B CE 74 1B 3B F7 89 $........;.t.;..
005C58F0 30 74 04 83 46 04 01 3B CF 74 0D 01 59 04 75 08 0t..F..;.t..Y.u.
005C5900 8B 01 8B 10 6A 01 FF D2 8D 4C 24 20 C6 44 24 44 ....j....L$ .D$D
005C5910 0C FF 15 38 43 8A 00 3B F7 C6 44 24 44 01 74 0F ...8C..;..D$D.t.
005C5920 01 5E 04 75 0A 8B 06 8B 10 6A 01 8B CE FF D2 6A .^.u.....j.....j
005C5930 08 E8 A2 F6 0C 00 83 C4 04 3B C7 74 0D 89 78 04 .........;.t..x.
005C5940 C7 00 4C 41 8C 00 8B F0 EB 02 33 F6 3B F7 89 74 ..LA......3.;..t
005C5950 24 1C 74 04 83 46 04 01 B3 0E 68 60 44 8C 00 8D $.t..F....h`D...
005C5960 4C 24 24 88 5C 24 48 FF 15 34 43 8A 00 8D 44 24 L$$.\$H..4C...D$
005C5970 20 6A 01 50 C6 44 24 4C 0F E8 62 23 03 00 83 C4  j.P.D$L..b#....
005C5980 08 8D 4C 24 18 51 8B CD 89 44 24 1C E8 4F E8 FF ..L$.Q...D$..O..
005C5990 FF 8B 08 3B CE 74 1C 3B F7 89 30 74 04 83 46 04 ...;.t.;..0t..F.
005C59A0 01 3B CF 74 0E 83 41 04 FF 75 08 8B 11 8B 02 6A .;.t..A..u.....j
005C59B0 01 FF D0 8D 4C 24 20 88 5C 24 44 FF 15 38 43 8A ....L$ .\$D..8C.
005C59C0 00 3B F7 C6 44 24 44 01 74 10 83 46 04 FF 75 0A .;..D$D.t..F..u.
005C59D0 8B 16 8B 02 6A 01 8B CE FF D0 6A 08 E8 F7 F5 0C ....j.....j.....
005C59E0 00 83 C4 04 3B C7 74 0D 89 78 04 C7 00 58 41 8C ....;.t..x...XA.
005C59F0 00 8B F0 EB 02 33 F6 3B F7 89 74 24 1C 74 04 83 .....3.;..t$.t..
005C5A00 46 04 01 B3 10 68 54 44 8C 00 8D 4C 24 24 88 5C F....hTD...L$$.\
005C5A10 24 48 FF 15 34 43 8A 00 8D 4C 24 20 6A 01 51 C6 $H..4C...L$ j.Q.
005C5A20 44 24 4C 11 E8 B7 22 03 00 83 C4 08 8D 54 24 18 D$L..."......T$.
005C5A30 52 8B CD 89 44 24 1C E8 A4 E7 FF FF 8B 08 3B CE R...D$........;.
005C5A40 74 1C 3B F7 89 30 74 04 83 46 04 01 3B CF 74 0E t.;..0t..F..;.t.
005C5A50 83 41 04 FF 75 08 8B 01 8B 10 6A 01 FF D2 8D 4C .A..u.....j....L
005C5A60 24 20 88 5C 24 44 FF 15 38 43 8A 00 3B F7 C6 44 $ .\$D..8C..;..D
005C5A70 24 44 01 74 10 83 46 04 FF 75 0A 8B 06 8B 10 6A $D.t..F..u.....j
005C5A80 01 8B CE FF D2 6A 08 E8 4C F5 0C 00 83 C4 04 3B .....j..L......;
005C5A90 C7 74 0D 89 78 04 C7 00 64 41 8C 00 8B F0 EB 02 .t..x...dA......
005C5AA0 33 F6 3B F7 89 74 24 1C 74 04 83 46 04 01 B3 12 3.;..t$.t..F....
005C5AB0 68 4C 44 8C 00 8D 4C 24 24 88 5C 24 48 FF 15 34 hLD...L$$.\$H..4
005C5AC0 43 8A 00 8D 44 24 20 6A 01 50 C6 44 24 4C 13 E8 C...D$ j.P.D$L..
005C5AD0 0C 22 03 00 83 C4 08 8D 4C 24 18 51 8B CD 89 44 ."......L$.Q...D
005C5AE0 24 1C E8 F9 E6 FF FF 8B 08 3B CE 74 1C 3B F7 89 $........;.t.;..
005C5AF0 30 74 04 83 46 04 01 3B CF 74 0E 83 41 04 FF 75 0t..F..;.t..A..u
005C5B00 08 8B 11 8B 02 6A 01 FF D0 8D 4C 24 20 88 5C 24 .....j....L$ .\$
005C5B10 44 FF 15 38 43 8A 00 3B F7 C6 44 24 44 01 74 10 D..8C..;..D$D.t.
005C5B20 83 46 04 FF 75 0A 8B 16 8B 02 6A 01 8B CE FF D0 .F..u.....j.....
005C5B30 6A 08 E8 A1 F4 0C 00 83 C4 04 3B C7 74 0D 89 78 j.........;.t..x
005C5B40 04 C7 00 70 41 8C 00 8B F0 EB 02 33 F6 3B F7 89 ...pA......3.;..
005C5B50 74 24 1C 74 04 83 46 04 01 B3 14 68 34 44 8C 00 t$.t..F....h4D..
005C5B60 8D 4C 24 24 88 5C 24 48 FF 15 34 43 8A 00 8D 4C .L$$.\$H..4C...L
005C5B70 24 20 6A 01 51 C6 44 24 4C 15 E8 61 21 03 00 83 $ j.Q.D$L..a!...
005C5B80 C4 08 8D 54 24 18 52 8B CD 89 44 24 1C E8 4E E6 ...T$.R...D$..N.
005C5B90 FF FF 8B 08 3B CE 74 1C 3B F7 89 30 74 04 83 46 ....;.t.;..0t..F
005C5BA0 04 01 3B CF 74 0E 83 41 04 FF 75 08 8B 01 8B 10 ..;.t..A..u.....
005C5BB0 6A 01 FF D2 8D 4C 24 20 88 5C 24 44 FF 15 38 43 j....L$ .\$D..8C
005C5BC0 8A 00 3B F7 C6 44 24 44 01 74 10 83 46 04 FF 75 ..;..D$D.t..F..u
005C5BD0 0A 8B 06 8B 10 6A 01 8B CE FF D2 6A 08 E8 F6 F3 .....j.....j....
005C5BE0 0C 00 83 C4 04 3B C7 74 0D 89 78 04 C7 00 7C 41 .....;.t..x...|A
005C5BF0 8C 00 8B F0 EB 02 33 F6 3B F7 89 74 24 1C 74 04 ......3.;..t$.t.
005C5C00 83 46 04 01 B3 16 68 2C 44 8C 00 8D 4C 24 24 88 .F....h,D...L$$.
005C5C10 5C 24 48 FF 15 34 43 8A 00 8D 44 24 20 6A 01 50 \$H..4C...D$ j.P
005C5C20 C6 44 24 4C 17 E8 B6 20 03 00 83 C4 08 8D 4C 24 .D$L... ......L$
005C5C30 18 51 8B CD 89 44 24 1C E8 A3 E5 FF FF 8B 08 3B .Q...D$........;
005C5C40 CE 74 1C 3B F7 89 30 74 04 83 46 04 01 3B CF 74 .t.;..0t..F..;.t
005C5C50 0E 83 41 04 FF 75 08 8B 11 8B 02 6A 01 FF D0 8D ..A..u.....j....
005C5C60 4C 24 20 88 5C 24 44 FF 15 38 43 8A 00 3B F7 C6 L$ .\$D..8C..;..
005C5C70 44 24 44 01 74 10 83 46 04 FF 75 0A 8B 16 8B 02 D$D.t..F..u.....
005C5C80 6A 01 8B CE FF D0 6A 0C E8 4B F3 0C 00 83 C4 04 j.....j..K......
005C5C90 3B C7 74 15 89 78 04 C7 00 0C 42 8C 00 C6 40 08 ;.t..x....B...@.
005C5CA0 00 C6 40 09 01 8B F0 EB 02 33 F6 3B F7 89 74 24 ..@......3.;..t$
005C5CB0 1C 74 04 83 46 04 01 B3 18 68 18 44 8C 00 8D 4C .t..F....h.D...L
005C5CC0 24 24 88 5C 24 48 FF 15 34 43 8A 00 8D 4C 24 20 $$.\$H..4C...L$ 
005C5CD0 6A 01 51 C6 44 24 4C 19 E8 03 20 03 00 83 C4 08 j.Q.D$L... .....
005C5CE0 8D 54 24 18 52 8B CD 89 44 24 1C E8 F0 E4 FF FF .T$.R...D$......
005C5CF0 8B 08 3B CE 74 1C 3B F7 89 30 74 04 83 46 04 01 ..;.t.;..0t..F..
005C5D00 3B CF 74 0E 83 41 04 FF 75 08 8B 01 8B 10 6A 01 ;.t..A..u.....j.
005C5D10 FF D2 8D 4C 24 20 88 5C 24 44 FF 15 38 43 8A 00 ...L$ .\$D..8C..
005C5D20 3B F7 C6 44 24 44 01 74 10 83 46 04 FF 75 0A 8B ;..D$D.t..F..u..
005C5D30 06 8B 10 6A 01 8B CE FF D2 6A 0C E8 98 F2 0C 00 ...j.....j......
005C5D40 83 C4 04 3B C7 74 15 89 78 04 C7 00 C8 40 8C 00 ...;.t..x....@..
005C5D50 C6 40 08 00 C6 40 09 01 8B F0 EB 02 33 F6 3B F7 .@...@......3.;.
005C5D60 89 74 24 1C 74 04 83 46 04 01 B3 1A 68 0C 44 8C .t$.t..F....h.D.
005C5D70 00 8D 4C 24 24 88 5C 24 48 FF 15 34 43 8A 00 8D ..L$$.\$H..4C...
005C5D80 44 24 20 6A 01 50 C6 44 24 4C 1B E8 50 1F 03 00 D$ j.P.D$L..P...
005C5D90 83 C4 08 8D 4C 24 18 51 8B CD 89 44 24 1C E8 3D ....L$.Q...D$..=
005C5DA0 E4 FF FF 8B 08 3B CE 74 1C 3B F7 89 30 74 04 83 .....;.t.;..0t..
005C5DB0 46 04 01 3B CF 74 0E 83 41 04 FF 75 08 8B 11 8B F..;.t..A..u....
005C5DC0 02 6A 01 FF D0 8D 4C 24 20 88 5C 24 44 FF 15 38 .j....L$ .\$D..8
005C5DD0 43 8A 00 3B F7 C6 44 24 44 01 74 10 83 46 04 FF C..;..D$D.t..F..
005C5DE0 75 0A 8B 16 8B 02 6A 01 8B CE FF D0 6A 0C E8 E5 u.....j.....j...
005C5DF0 F1 0C 00 83 C4 04 3B C7 74 11 89 78 04 C7 00 D4 ......;.t..x....
005C5E00 40 8C 00 C6 40 08 00 8B F0 EB 02 33 F6 3B F7 89 @...@......3.;..
005C5E10 74 24 1C 74 04 83 46 04 01 B3 1C 68 00 44 8C 00 t$.t..F....h.D..
005C5E20 8D 4C 24 24 88 5C 24 48 FF 15 34 43 8A 00 8D 4C .L$$.\$H..4C...L
005C5E30 24 20 6A 01 51 C6 44 24 4C 1D E8 A1 1E 03 00 83 $ j.Q.D$L.......
005C5E40 C4 08 8D 54 24 18 52 8B CD 89 44 24 1C E8 8E E3 ...T$.R...D$....
005C5E50 FF FF 8B 08 3B CE 74 1C 3B F7 89 30 74 04 83 46 ....;.t.;..0t..F
005C5E60 04 01 3B CF 74 0E 83 41 04 FF 75 08 8B 01 8B 10 ..;.t..A..u.....
005C5E70 6A 01 FF D2 8D 4C 24 20 88 5C 24 44 FF 15 38 43 j....L$ .\$D..8C
005C5E80 8A 00 3B F7 C6 44 24 44 01 74 10 83 46 04 FF 75 ..;..D$D.t..F..u
005C5E90 0A 8B 06 8B 10 6A 01 8B CE FF D2 6A 0C E8 36 F1 .....j.....j..6.
005C5EA0 0C 00 83 C4 04 3B C7 74 15 89 78 04 C7 00 0C 42 .....;.t..x....B
005C5EB0 8C 00 C6 40 08 00 C6 40 09 00 8B F0 EB 02 33 F6 ...@...@......3.
005C5EC0 3B F7 89 74 24 1C 74 04 83 46 04 01 B3 1E 68 E4 ;..t$.t..F....h.
005C5ED0 43 8C 00 8D 4C 24 24 88 5C 24 48 FF 15 34 43 8A C...L$$.\$H..4C.
005C5EE0 00 8D 44 24 20 6A 01 50 C6 44 24 4C 1F E8 EE 1D ..D$ j.P.D$L....
005C5EF0 03 00 83 C4 08 8D 4C 24 18 51 8B CD 89 44 24 1C ......L$.Q...D$.
005C5F00 E8 DB E2 FF FF 8B 08 3B CE 74 1C 3B F7 89 30 74 .......;.t.;..0t
005C5F10 04 83 46 04 01 3B CF 74 0E 83 41 04 FF 75 08 8B ..F..;.t..A..u..
005C5F20 11 8B 02 6A 01 FF D0 8D 4C 24 20 88 5C 24 44 FF ...j....L$ .\$D.
005C5F30 15 38 43 8A 00 3B F7 C6 44 24 44 01 74 10 83 46 .8C..;..D$D.t..F
005C5F40 04 FF 75 0A 8B 16 8B 02 6A 01 8B CE FF D0 6A 0C ..u.....j.....j.
005C5F50 E8 83 F0 0C 00 83 C4 04 3B C7 74 15 89 78 04 C7 ........;.t..x..
005C5F60 00 C8 40 8C 00 C6 40 08 00 C6 40 09 00 8B F0 EB ..@...@...@.....
005C5F70 02 33 F6 3B F7 89 74 24 1C 74 04 83 46 04 01 B3 .3.;..t$.t..F...
005C5F80 20 68 D0 43 8C 00 8D 4C 24 24 88 5C 24 48 FF 15  h.C...L$$.\$H..
005C5F90 34 43 8A 00 8D 4C 24 20 6A 01 51 C6 44 24 4C 21 4C...L$ j.Q.D$L!
005C5FA0 E8 3B 1D 03 00 83 C4 08 8D 54 24 18 52 8B CD 89 .;.......T$.R...
005C5FB0 44 24 1C E8 28 E2 FF FF 8B 08 3B CE 74 1C 3B F7 D$..(.....;.t.;.
005C5FC0 89 30 74 04 83 46 04 01 3B CF 74 0E 83 41 04 FF .0t..F..;.t..A..
005C5FD0 75 08 8B 01 8B 10 6A 01 FF D2 8D 4C 24 20 88 5C u.....j....L$ .\
005C5FE0 24 44 FF 15 38 43 8A 00 3B F7 C6 44 24 44 01 74 $D..8C..;..D$D.t
005C5FF0 10 83 46 04 FF 75 0A 8B 06 8B 10 6A 01 8B CE FF ..F..u.....j....
005C6000 D2 6A 0C E8 D0 EF 0C 00 83 C4 04 3B C7 74 11 89 .j.........;.t..
005C6010 78 04 C7 00 E0 40 8C 00 C6 40 08 00 8B F0 EB 02 x....@...@......
005C6020 33 F6 3B F7 89 74 24 1C 74 04 83 46 04 01 B3 22 3.;..t$.t..F..."
005C6030 68 C4 43 8C 00 8D 4C 24 24 88 5C 24 48 FF 15 34 h.C...L$$.\$H..4
005C6040 43 8A 00 8D 44 24 20 6A 01 50 C6 44 24 4C 23 E8 C...D$ j.P.D$L#.
005C6050 8C 1C 03 00 83 C4 08 8D 4C 24 18 51 8B CD 89 44 ........L$.Q...D
005C6060 24 1C E8 79 E1 FF FF 8B 08 3B CE 74 1C 3B F7 89 $..y.....;.t.;..
005C6070 30 74 04 83 46 04 01 3B CF 74 0E 83 41 04 FF 75 0t..F..;.t..A..u
005C6080 08 8B 11 8B 02 6A 01 FF D0 8D 4C 24 20 88 5C 24 .....j....L$ .\$
005C6090 44 FF 15 38 43 8A 00 3B F7 C6 44 24 44 01 74 10 D..8C..;..D$D.t.
005C60A0 83 46 04 FF 75 0A 8B 16 8B 02 6A 01 8B CE FF D0 .F..u.....j.....
005C60B0 6A 0C E8 21 EF 0C 00 83 C4 04 3B C7 74 11 89 78 j..!......;.t..x
005C60C0 04 C7 00 E0 40 8C 00 C6 40 08 00 8B F0 EB 02 33 ....@...@......3
005C60D0 F6 3B F7 89 74 24 1C 74 04 83 46 04 01 B3 24 68 .;..t$.t..F...$h
005C60E0 B0 43 8C 00 8D 4C 24 24 88 5C 24 48 FF 15 34 43 .C...L$$.\$H..4C
005C60F0 8A 00 8D 4C 24 20 6A 01 51 C6 44 24 4C 25 E8 DD ...L$ j.Q.D$L%..
005C6100 1B 03 00 83 C4 08 8D 54 24 18 52 8B CD 89 44 24 .......T$.R...D$
005C6110 1C E8 CA E0 FF FF 8B 08 3B CE 74 1C 3B F7 89 30 ........;.t.;..0
005C6120 74 04 83 46 04 01 3B CF 74 0E 83 41 04 FF 75 08 t..F..;.t..A..u.
005C6130 8B 01 8B 10 6A 01 FF D2 8D 4C 24 20 88 5C 24 44 ....j....L$ .\$D
005C6140 FF 15 38 43 8A 00 3B F7 C6 44 24 44 01 74 10 83 ..8C..;..D$D.t..
005C6150 46 04 FF 75 0A 8B 06 8B 10 6A 01 8B CE FF D2 6A F..u.....j.....j
005C6160 0C E8 72 EE 0C 00 83 C4 04 3B C7 74 15 89 78 04 ..r......;.t..x.
005C6170 C7 00 0C 42 8C 00 C6 40 08 01 C6 40 09 01 8B F0 ...B...@...@....
005C6180 EB 02 33 F6 3B F7 89 74 24 1C 74 04 83 46 04 01 ..3.;..t$.t..F..
005C6190 B3 26 68 90 43 8C 00 8D 4C 24 24 88 5C 24 48 FF .&h.C...L$$.\$H.
005C61A0 15 34 43 8A 00 8D 44 24 20 6A 01 50 C6 44 24 4C .4C...D$ j.P.D$L
005C61B0 27 E8 2A 1B 03 00 83 C4 08 8D 4C 24 18 51 8B CD '.*.......L$.Q..
005C61C0 89 44 24 1C E8 17 E0 FF FF 8B 08 3B CE 74 1C 3B .D$........;.t.;
005C61D0 F7 89 30 74 04 83 46 04 01 3B CF 74 0E 83 41 04 ..0t..F..;.t..A.
005C61E0 FF 75 08 8B 11 8B 02 6A 01 FF D0 8D 4C 24 20 88 .u.....j....L$ .
005C61F0 5C 24 44 FF 15 38 43 8A 00 3B F7 C6 44 24 44 01 \$D..8C..;..D$D.
005C6200 74 10 83 46 04 FF 75 0A 8B 16 8B 02 6A 01 8B CE t..F..u.....j...
005C6210 FF D0 6A 0C E8 BF ED 0C 00 83 C4 04 3B C7 74 15 ..j.........;.t.
005C6220 89 78 04 C7 00 C8 40 8C 00 C6 40 08 01 C6 40 09 .x....@...@...@.
005C6230 01 8B F0 EB 02 33 F6 3B F7 89 74 24 1C 74 04 83 .....3.;..t$.t..
005C6240 46 04 01 B3 28 68 78 43 8C 00 8D 4C 24 24 88 5C F...(hxC...L$$.\
005C6250 24 48 FF 15 34 43 8A 00 8D 4C 24 20 6A 01 51 C6 $H..4C...L$ j.Q.
005C6260 44 24 4C 29 E8 77 1A 03 00 83 C4 08 8D 54 24 18 D$L).w.......T$.
005C6270 52 8B CD 89 44 24 1C E8 64 DF FF FF 8B 08 3B CE R...D$..d.....;.
005C6280 74 1C 3B F7 89 30 74 04 83 46 04 01 3B CF 74 0E t.;..0t..F..;.t.
005C6290 83 41 04 FF 75 08 8B 01 8B 10 6A 01 FF D2 8D 4C .A..u.....j....L
005C62A0 24 20 88 5C 24 44 FF 15 38 43 8A 00 3B F7 C6 44 $ .\$D..8C..;..D
005C62B0 24 44 01 74 10 83 46 04 FF 75 0A 8B 06 8B 10 6A $D.t..F..u.....j
005C62C0 01 8B CE FF D2 6A 0C E8 0C ED 0C 00 83 C4 04 3B .....j.........;
005C62D0 C7 74 11 89 78 04 C7 00 D4 40 8C 00 C6 40 08 01 .t..x....@...@..
005C62E0 8B F0 EB 02 33 F6 3B F7 89 74 24 1C 74 04 83 46 ....3.;..t$.t..F
005C62F0 04 01 B3 2A 68 60 43 8C 00 8D 4C 24 24 88 5C 24 ...*h`C...L$$.\$
005C6300 48 FF 15 34 43 8A 00 8D 44 24 20 6A 01 50 C6 44 H..4C...D$ j.P.D
005C6310 24 4C 2B E8 C8 19 03 00 83 C4 08 8D 4C 24 18 51 $L+.........L$.Q
005C6320 8B CD 89 44 24 1C E8 B5 DE FF FF 8B 08 3B CE 74 ...D$........;.t
005C6330 1C 3B F7 89 30 74 04 83 46 04 01 3B CF 74 0E 83 .;..0t..F..;.t..
005C6340 41 04 FF 75 08 8B 11 8B 02 6A 01 FF D0 8D 4C 24 A..u.....j....L$
005C6350 20 88 5C 24 44 FF 15 38 43 8A 00 3B F7 C6 44 24  .\$D..8C..;..D$
005C6360 44 01 74 10 83 46 04 FF 75 0A 8B 16 8B 02 6A 01 D.t..F..u.....j.
005C6370 8B CE FF D0 6A 0C E8 5D EC 0C 00 83 C4 04 3B C7 ....j..]......;.
005C6380 74 15 89 78 04 C7 00 0C 42 8C 00 C6 40 08 01 C6 t..x....B...@...
005C6390 40 09 00 8B F0 EB 02 33 F6 3B F7 89 74 24 1C 74 @......3.;..t$.t
005C63A0 04 83 46 04 01 B3 2C 68 38 43 8C 00 8D 4C 24 24 ..F...,h8C...L$$
005C63B0 88 5C 24 48 FF 15 34 43 8A 00 8D 4C 24 20 6A 01 .\$H..4C...L$ j.
005C63C0 51 C6 44 24 4C 2D E8 15 19 03 00 83 C4 08 8D 54 Q.D$L-.........T
005C63D0 24 18 52 8B CD 89 44 24 1C E8 02 DE FF FF 8B 08 $.R...D$........
005C63E0 3B CE 74 1C 3B F7 89 30 74 04 83 46 04 01 3B CF ;.t.;..0t..F..;.
005C63F0 74 0E 83 41 04 FF 75 08 8B 01 8B 10 6A 01 FF D2 t..A..u.....j...
005C6400 8D 4C 24 20 88 5C 24 44 FF 15 38 43 8A 00 3B F7 .L$ .\$D..8C..;.
005C6410 C6 44 24 44 01 74 10 83 46 04 FF 75 0A 8B 06 8B .D$D.t..F..u....
005C6420 10 6A 01 8B CE FF D2 6A 0C E8 AA EB 0C 00 83 C4 .j.....j........
005C6430 04 3B C7 74 15 89 78 04 C7 00 C8 40 8C 00 C6 40 .;.t..x....@...@
005C6440 08 01 C6 40 09 00 8B F0 EB 02 33 F6 3B F7 89 74 ...@......3.;..t
005C6450 24 1C 74 04 83 46 04 01 B3 2E 68 18 43 8C 00 8D $.t..F....h.C...
005C6460 4C 24 24 88 5C 24 48 FF 15 34 43 8A 00 8D 44 24 L$$.\$H..4C...D$
005C6470 20 6A 01 50 C6 44 24 4C 2F E8 62 18 03 00 83 C4  j.P.D$L/.b.....
005C6480 08 8D 4C 24 18 51 8B CD 89 44 24 1C E8 4F DD FF ..L$.Q...D$..O..
005C6490 FF 8B 08 3B CE 74 1C 3B F7 89 30 74 04 83 46 04 ...;.t.;..0t..F.
005C64A0 01 3B CF 74 0E 83 41 04 FF 75 08 8B 11 8B 02 6A .;.t..A..u.....j
005C64B0 01 FF D0 8D 4C 24 20 88 5C 24 44 FF 15 38 43 8A ....L$ .\$D..8C.
005C64C0 00 3B F7 C6 44 24 44 01 74 10 83 46 04 FF 75 0A .;..D$D.t..F..u.
005C64D0 8B 16 8B 02 6A 01 8B CE FF D0 6A 0C E8 F7 EA 0C ....j.....j.....
005C64E0 00 83 C4 04 3B C7 74 11 89 78 04 C7 00 E0 40 8C ....;.t..x....@.
005C64F0 00 C6 40 08 01 8B F0 EB 02 33 F6 3B F7 89 74 24 ..@......3.;..t$
005C6500 1C 74 04 83 46 04 01 B3 30 68 00 43 8C 00 8D 4C .t..F...0h.C...L
005C6510 24 24 88 5C 24 48 FF 15 34 43 8A 00 8D 4C 24 20 $$.\$H..4C...L$ 
005C6520 6A 01 51 C6 44 24 4C 31 E8 B3 17 03 00 83 C4 08 j.Q.D$L1........
005C6530 8D 54 24 18 52 8B CD 89 44 24 1C E8 A0 DC FF FF .T$.R...D$......
005C6540 8B 08 3B CE 74 1C 3B F7 89 30 74 04 83 46 04 01 ..;.t.;..0t..F..
005C6550 3B CF 74 0E 83 41 04 FF 75 08 8B 01 8B 10 6A 01 ;.t..A..u.....j.
005C6560 FF D2 8D 4C 24 20 88 5C 24 44 FF 15 38 43 8A 00 ...L$ .\$D..8C..
005C6570 3B F7 C6 44 24 44 01 74 10 83 46 04 FF 75 0A 8B ;..D$D.t..F..u..
005C6580 06 8B 10 6A 01 8B CE FF D2 6A 08 E8 48 EA 0C 00 ...j.....j..H...
005C6590 83 C4 04 3B C7 74 0D 89 78 04 C7 00 88 41 8C 00 ...;.t..x....A..
005C65A0 8B F0 EB 02 33 F6 3B F7 89 74 24 1C 74 04 83 46 ....3.;..t$.t..F
005C65B0 04 01 B3 32 68 E8 42 8C 00 8D 4C 24 24 88 5C 24 ...2h.B...L$$.\$
005C65C0 48 FF 15 34 43 8A 00 8D 44 24 20 6A 01 50 C6 44 H..4C...D$ j.P.D
005C65D0 24 4C 33 E8 08 17 03 00 83 C4 08 8D 4C 24 18 51 $L3.........L$.Q
005C65E0 8B CD 89 44 24 1C E8 F5 DB FF FF 8B 08 3B CE 74 ...D$........;.t
005C65F0 1C 3B F7 89 30 74 04 83 46 04 01 3B CF 74 0E 83 .;..0t..F..;.t..
005C6600 41 04 FF 75 08 8B 11 8B 02 6A 01 FF D0 8D 4C 24 A..u.....j....L$
005C6610 20 88 5C 24 44 FF 15 38 43 8A 00 3B F7 C6 44 24  .\$D..8C..;..D$
005C6620 44 01 74 10 83 46 04 FF 75 0A 8B 16 8B 02 6A 01 D.t..F..u.....j.
005C6630 8B CE FF D0 6A 08 E8 9D E9 0C 00 83 C4 04 3B C7 ....j.........;.
005C6640 74 0D 89 78 04 C7 00 9C 41 8C 00 8B F0 EB 02 33 t..x....A......3
005C6650 F6 3B F7 89 74 24 1C 74 04 83 46 04 01 B3 34 68 .;..t$.t..F...4h
005C6660 D8 42 8C 00 8D 4C 24 24 88 5C 24 48 FF 15 34 43 .B...L$$.\$H..4C
005C6670 8A 00 8D 4C 24 20 6A 01 51 C6 44 24 4C 35 E8 5D ...L$ j.Q.D$L5.]
005C6680 16 03 00 83 C4 08 8D 54 24 18 52 8B CD 89 44 24 .......T$.R...D$
005C6690 1C E8 4A DB FF FF 8B 08 3B CE 74 1C 3B F7 89 30 ..J.....;.t.;..0
005C66A0 74 04 83 46 04 01 3B CF 74 0E 83 41 04 FF 75 08 t..F..;.t..A..u.
005C66B0 8B 01 8B 10 6A 01 FF D2 8D 4C 24 20 88 5C 24 44 ....j....L$ .\$D
005C66C0 FF 15 38 43 8A 00 3B F7 C6 44 24 44 01 74 10 83 ..8C..;..D$D.t..
005C66D0 46 04 FF 75 0A 8B 06 8B 10 6A 01 8B CE FF D2 6A F..u.....j.....j
005C66E0 08 E8 F2 E8 0C 00 83 C4 04 3B C7 74 0D 89 78 04 .........;.t..x.
005C66F0 C7 00 A8 41 8C 00 8B F0 EB 02 33 F6 3B F7 89 74 ...A......3.;..t
005C6700 24 1C 74 04 83 46 04 01 B3 36 68 C8 42 8C 00 8D $.t..F...6h.B...
005C6710 4C 24 24 88 5C 24 48 FF 15 34 43 8A 00 8D 44 24 L$$.\$H..4C...D$
005C6720 20 6A 01 50 C6 44 24 4C 37 E8 B2 15 03 00 83 C4  j.P.D$L7.......
005C6730 08 8D 4C 24 18 51 8B CD 89 44 24 1C E8 9F DA FF ..L$.Q...D$.....
005C6740 FF 8B 08 3B CE 74 1C 3B F7 89 30 74 04 83 46 04 ...;.t.;..0t..F.
005C6750 01 3B CF 74 0E 83 41 04 FF 75 08 8B 11 8B 02 6A .;.t..A..u.....j
005C6760 01 FF D0 8D 4C 24 20 88 5C 24 44 FF 15 38 43 8A ....L$ .\$D..8C.
005C6770 00 3B F7 C6 44 24 44 01 74 10 83 46 04 FF 75 0A .;..D$D.t..F..u.
005C6780 8B 16 8B 02 6A 01 8B CE FF D0 6A 08 E8 47 E8 0C ....j.....j..G..
005C6790 00 83 C4 04 3B C7 74 0D 89 78 04 C7 00 B4 41 8C ....;.t..x....A.
005C67A0 00 8B F0 EB 02 33 F6 3B F7 89 74 24 1C 74 04 83 .....3.;..t$.t..
005C67B0 46 04 01 B3 38 68 A8 42 8C 00 8D 4C 24 24 88 5C F...8h.B...L$$.\
005C67C0 24 48 FF 15 34 43 8A 00 8D 4C 24 20 6A 01 51 C6 $H..4C...L$ j.Q.
005C67D0 44 24 4C 39 E8 07 15 03 00 83 C4 08 8D 54 24 18 D$L9.........T$.
005C67E0 52 8B CD 89 44 24 1C E8 F4 D9 FF FF 8B 08 3B CE R...D$........;.
005C67F0 74 1C 3B F7 89 30 74 04 83 46 04 01 3B CF 74 0E t.;..0t..F..;.t.
005C6800 83 41 04 FF 75 08 8B 01 8B 10 6A 01 FF D2 8D 4C .A..u.....j....L
005C6810 24 20 88 5C 24 44 FF 15 38 43 8A 00 3B F7 C6 44 $ .\$D..8C..;..D
005C6820 24 44 01 74 10 83 46 04 FF 75 0A 8B 06 8B 10 6A $D.t..F..u.....j
005C6830 01 8B CE FF D2 6A 08 E8 9C E7 0C 00 83 C4 04 3B .....j.........;
005C6840 C7 74 0D 89 78 04 C7 00 C0 41 8C 00 8B F0 EB 02 .t..x....A......
005C6850 33 F6 3B F7 89 74 24 1C 74 04 83 46 04 01 B3 3A 3.;..t$.t..F...:
005C6860 68 90 42 8C 00 8D 4C 24 24 88 5C 24 48 FF 15 34 h.B...L$$.\$H..4
005C6870 43 8A 00 8D 44 24 20 6A 01 50 C6 44 24 4C 3B E8 C...D$ j.P.D$L;.
005C6880 5C 14 03 00 83 C4 08 8D 4C 24 18 51 8B CD 89 44 \.......L$.Q...D
005C6890 24 1C E8 49 D9 FF FF 8B 08 3B CE 74 1C 3B F7 89 $..I.....;.t.;..
005C68A0 30 74 04 83 46 04 01 3B CF 74 0E 83 41 04 FF 75 0t..F..;.t..A..u
005C68B0 08 8B 11 8B 02 6A 01 FF D0 8D 4C 24 20 88 5C 24 .....j....L$ .\$
005C68C0 44 FF 15 38 43 8A 00 3B F7 C6 44 24 44 01 74 10 D..8C..;..D$D.t.
005C68D0 83 46 04 FF 75 0A 8B 16 8B 02 6A 01 8B CE FF D0 .F..u.....j.....
005C68E0 6A 08 E8 F1 E6 0C 00 83 C4 04 3B C7 74 0D 89 78 j.........;.t..x
005C68F0 04 C7 00 CC 41 8C 00 8B F0 EB 02 33 F6 3B F7 89 ....A......3.;..
005C6900 74 24 1C 74 04 83 46 04 01 B3 3C 68 88 42 8C 00 t$.t..F...<h.B..
005C6910 8D 4C 24 24 88 5C 24 48 FF 15 34 43 8A 00 8D 4C .L$$.\$H..4C...L
005C6920 24 20 6A 01 51 C6 44 24 4C 3D E8 B1 13 03 00 83 $ j.Q.D$L=......
005C6930 C4 08 8D 54 24 18 52 8B CD 89 44 24 1C E8 9E D8 ...T$.R...D$....
005C6940 FF FF 8B 08 3B CE 74 1C 3B F7 89 30 74 04 83 46 ....;.t.;..0t..F
005C6950 04 01 3B CF 74 0E 83 41 04 FF 75 08 8B 01 8B 10 ..;.t..A..u.....
005C6960 6A 01 FF D2 8D 4C 24 20 88 5C 24 44 FF 15 38 43 j....L$ .\$D..8C
005C6970 8A 00 3B F7 C6 44 24 44 01 74 10 83 46 04 FF 75 ..;..D$D.t..F..u
005C6980 0A 8B 06 8B 10 6A 01 8B CE FF D2 6A 08 E8 46 E6 .....j.....j..F.
005C6990 0C 00 83 C4 04 3B C7 74 0D 89 78 04 C7 00 D8 41 .....;.t..x....A
005C69A0 8C 00 8B F0 EB 02 33 F6 3B F7 89 74 24 1C 74 04 ......3.;..t$.t.
005C69B0 83 46 04 01 B3 3E 68 78 42 8C 00 8D 4C 24 24 88 .F...>hxB...L$$.
005C69C0 5C 24 48 FF 15 34 43 8A 00 8D 44 24 20 6A 01 50 \$H..4C...D$ j.P
005C69D0 C6 44 24 4C 3F E8 06 13 03 00 83 C4 08 8D 4C 24 .D$L?.........L$
005C69E0 18 51 8B CD 89 44 24 1C E8 F3 D7 FF FF 8B 08 3B .Q...D$........;
005C69F0 CE 74 1C 3B F7 89 30 74 04 83 46 04 01 3B CF 74 .t.;..0t..F..;.t
005C6A00 0E 83 41 04 FF 75 08 8B 11 8B 02 6A 01 FF D0 8D ..A..u.....j....
005C6A10 4C 24 20 88 5C 24 44 FF 15 38 43 8A 00 83 CB FF L$ .\$D..8C.....
005C6A20 3B F7 C6 44 24 44 01 74 0F 01 5E 04 75 0A 8B 16 ;..D$D.t..^.u...
005C6A30 8B 02 6A 01 8B CE FF D0 6A 0C E8 99 E5 0C 00 83 ..j.....j.......
005C6A40 C4 04 3B C7 74 11 89 78 04 C7 00 F8 40 8C 00 C6 ..;.t..x....@...
005C6A50 40 08 01 8B F0 EB 02 33 F6 3B F7 89 74 24 1C 74 @......3.;..t$.t
005C6A60 04 83 46 04 01 68 6C 42 8C 00 8D 4C 24 24 C6 44 ..F..hlB...L$$.D
005C6A70 24 48 40 FF 15 34 43 8A 00 8D 4C 24 20 6A 01 51 $H@..4C...L$ j.Q
005C6A80 C6 44 24 4C 41 E8 56 12 03 00 83 C4 08 8D 54 24 .D$LA.V.......T$
005C6A90 18 52 8B CD 89 44 24 1C E8 43 D7 FF FF 8B 08 3B .R...D$..C.....;
005C6AA0 CE 74 1B 3B F7 89 30 74 04 83 46 04 01 3B CF 74 .t.;..0t..F..;.t
005C6AB0 0D 01 59 04 75 08 8B 01 8B 10 6A 01 FF D2 8D 4C ..Y.u.....j....L
005C6AC0 24 20 C6 44 24 44 40 FF 15 38 43 8A 00 3B F7 C6 $ .D$D@..8C..;..
005C6AD0 44 24 44 01 74 0F 01 5E 04 75 0A 8B 06 8B 10 6A D$D.t..^.u.....j
005C6AE0 01 8B CE FF D2 6A 0C E8 EC E4 0C 00 83 C4 04 3B .....j.........;
005C6AF0 C7 74 11 89 78 04 C7 00 F8 40 8C 00 C6 40 08 00 .t..x....@...@..
005C6B00 8B F0 EB 02 33 F6 3B F7 89 74 24 1C 74 04 83 46 ....3.;..t$.t..F
005C6B10 04 01 B3 42 68 64 42 8C 00 8D 4C 24 24 88 5C 24 ...BhdB...L$$.\$
005C6B20 48 FF 15 34 43 8A 00 8D 44 24 20 6A 01 50 C6 44 H..4C...D$ j.P.D
005C6B30 24 4C 43 E8 A8 11 03 00 83 C4 08 8D 4C 24 18 51 $LC.........L$.Q
005C6B40 8B CD 89 44 24 1C E8 95 D6 FF FF 8B 08 3B CE 74 ...D$........;.t
005C6B50 1C 3B F7 89 30 74 04 83 46 04 01 3B CF 74 0E 83 .;..0t..F..;.t..
005C6B60 41 04 FF 75 08 8B 11 8B 02 6A 01 FF D0 8D 4C 24 A..u.....j....L$
005C6B70 20 88 5C 24 44 FF 15 38 43 8A 00 3B F7 C6 44 24  .\$D..8C..;..D$
005C6B80 44 01 74 10 83 46 04 FF 75 0A 8B 16 8B 02 6A 01 D.t..F..u.....j.
005C6B90 8B CE FF D0 6A 08 E8 3D E4 0C 00 83 C4 04 3B C7 ....j..=......;.
005C6BA0 74 0D 89 78 04 C7 00 E4 41 8C 00 8B F0 EB 02 33 t..x....A......3
005C6BB0 F6 3B F7 89 74 24 1C 74 04 83 46 04 01 B3 44 68 .;..t$.t..F...Dh
005C6BC0 58 42 8C 00 8D 4C 24 24 88 5C 24 48 FF 15 34 43 XB...L$$.\$H..4C
005C6BD0 8A 00 8D 4C 24 20 6A 01 51 C6 44 24 4C 45 E8 FD ...L$ j.Q.D$LE..
005C6BE0 10 03 00 83 C4 08 8D 54 24 18 52 8B CD 89 44 24 .......T$.R...D$
005C6BF0 1C E8 EA D5 FF FF 8B 08 3B CE 74 1C 3B F7 89 30 ........;.t.;..0
005C6C00 74 04 83 46 04 01 3B CF 74 0E 83 41 04 FF 75 08 t..F..;.t..A..u.
005C6C10 8B 01 8B 10 6A 01 FF D2 8D 4C 24 20 88 5C 24 44 ....j....L$ .\$D
005C6C20 FF 15 38 43 8A 00 3B F7 C6 44 24 44 01 74 10 83 ..8C..;..D$D.t..
005C6C30 46 04 FF 75 0A 8B 06 8B 10 6A 01 8B CE FF D2 6A F..u.....j.....j
005C6C40 08 E8 92 E3 0C 00 83 C4 04 3B C7 74 0D 89 78 04 .........;.t..x.
005C6C50 C7 00 F0 41 8C 00 8B F0 EB 02 33 F6 3B F7 89 74 ...A......3.;..t
005C6C60 24 1C 74 04 83 46 04 01 B3 46 68 4C 42 8C 00 8D $.t..F...FhLB...
005C6C70 4C 24 24 88 5C 24 48 FF 15 34 43 8A 00 8D 44 24 L$$.\$H..4C...D$
005C6C80 20 6A 01 50 C6 44 24 4C 47 E8 52 10 03 00 83 C4  j.P.D$LG.R.....
005C6C90 08 8D 4C 24 18 51 8B CD 89 44 24 1C E8 3F D5 FF ..L$.Q...D$..?..
005C6CA0 FF 8B 08 3B CE 74 1C 3B F7 89 30 74 04 83 46 04 ...;.t.;..0t..F.
005C6CB0 01 3B CF 74 0E 83 41 04 FF 75 08 8B 11 8B 02 6A .;.t..A..u.....j
005C6CC0 01 FF D0 8D 4C 24 20 88 5C 24 44 FF 15 38 43 8A ....L$ .\$D..8C.
005C6CD0 00 3B F7 C6 44 24 44 01 74 10 83 46 04 FF 75 0A .;..D$D.t..F..u.
005C6CE0 8B 16 8B 02 6A 01 8B CE FF D0 8B 4C 24 14 E8 BD ....j......L$...
005C6CF0 BF FF FF 6A 08 E8 DE E2 0C 00 83 C4 04 3B C7 74 ...j.........;.t
005C6D00 0D 89 78 04 C7 00 EC 40 8C 00 8B F0 EB 02 33 F6 ..x....@......3.
005C6D10 3B F7 89 74 24 1C 74 04 83 46 04 01 B3 48 68 38 ;..t$.t..F...Hh8
005C6D20 42 8C 00 8D 4C 24 24 88 5C 24 48 FF 15 34 43 8A B...L$$.\$H..4C.
005C6D30 00 8D 4C 24 20 6A 01 51 C6 44 24 4C 49 E8 9E 0F ..L$ j.Q.D$LI...
005C6D40 03 00 83 C4 08 8D 54 24 18 52 8B CD 89 44 24 1C ......T$.R...D$.
005C6D50 E8 8B D4 FF FF 8B 08 3B CE 74 1C 3B F7 89 30 74 .......;.t.;..0t
005C6D60 04 83 46 04 01 3B CF 74 0E 83 41 04 FF 75 08 8B ..F..;.t..A..u..
005C6D70 01 8B 10 6A 01 FF D2 8D 4C 24 20 88 5C 24 44 FF ...j....L$ .\$D.
005C6D80 15 38 43 8A 00 3B F7 C6 44 24 44 01 74 10 83 46 .8C..;..D$D.t..F
005C6D90 04 FF 75 0A 8B 06 8B 10 6A 01 8B CE FF D2 8B 44 ..u.....j......D
005C6DA0 24 14 8B 4C 24 3C 64 89 0D 00 00 00 00 59 5F 5E $..L$<d......Y_^
005C6DB0 5D 5B 83 C4 34 C3 CC CC CC CC CC CC CC CC CC CC ][..4...........
005C6DC0 51 56 8B F1 8B 56 04 85 D2 75 04 33 C9 EB 08 8B QV...V...u.3....
005C6DD0 4E 08 2B CA C1 F9 02 85 D2 74 3C 8B 46 0C 2B C2 N.+......t<.F.+.
005C6DE0 C1 F8 02 3B C8 73 30 8B 4C 24 0C 8B 54 24 0C 57 ...;.s0.L$..T$.W
005C6DF0 8B 7E 08 C6 44 24 08 00 8B 44 24 08 50 51 56 52 .~..D$...D$.PQVR
005C6E00 6A 01 57 E8 98 EE EF FF 83 C4 18 83 C7 04 89 7E j.W............~
005C6E10 08 5F 5E 59 C2 04 00 8B 4C 24 0C 8B 46 08 51 6A ._^Y....L$..F.Qj
005C6E20 01 50 8B CE E8 D7 D4 FF FF 5E 59 C2 04 00 CC CC .P.......^Y.....
005C6E30 51 56 8B F1 8B 56 04 85 D2 75 04 33 C9 EB 08 8B QV...V...u.3....
005C6E40 4E 08 2B CA C1 F9 02 85 D2 74 3C 8B 46 0C 2B C2 N.+......t<.F.+.
005C6E50 C1 F8 02 3B C8 73 30 8B 4C 24 0C 8B 54 24 0C 57 ...;.s0.L$..T$.W
005C6E60 8B 7E 08 C6 44 24 08 00 8B 44 24 08 50 51 56 52 .~..D$...D$.PQVR
005C6E70 6A 01 57 E8 28 EE EF FF 83 C4 18 83 C7 04 89 7E j.W.(..........~
005C6E80 08 5F 5E 59 C2 04 00 8B 4C 24 0C 8B 46 08 51 6A ._^Y....L$..F.Qj
005C6E90 01 50 8B CE E8 27 D7 FF FF 5E 59 C2 04 00 CC CC .P...'...^Y.....
005C6EA0 51 56 8B F1 8B 56 04 85 D2 75 04 33 C9 EB 08 8B QV...V...u.3....
005C6EB0 4E 08 2B CA C1 F9 02 85 D2 74 3C 8B 46 0C 2B C2 N.+......t<.F.+.
005C6EC0 C1 F8 02 3B C8 73 30 8B 4C 24 0C 8B 54 24 0C 57 ...;.s0.L$..T$.W
005C6ED0 8B 7E 08 C6 44 24 08 00 8B 44 24 08 50 51 56 52 .~..D$...D$.PQVR
005C6EE0 6A 01 57 E8 B8 ED EF FF 83 C4 18 83 C7 04 89 7E j.W............~
005C6EF0 08 5F 5E 59 C2 04 00 8B 4C 24 0C 8B 46 08 51 6A ._^Y....L$..F.Qj
005C6F00 01 50 8B CE E8 77 D9 FF FF 5E 59 C2 04 00 CC CC .P...w...^Y.....
005C6F10 51 56 8B F1 8B 56 04 85 D2 75 04 33 C9 EB 08 8B QV...V...u.3....
005C6F20 4E 08 2B CA C1 F9 02 85 D2 74 3C 8B 46 0C 2B C2 N.+......t<.F.+.
005C6F30 C1 F8 02 3B C8 73 30 8B 4C 24 0C 8B 54 24 0C 57 ...;.s0.L$..T$.W
005C6F40 8B 7E 08 C6 44 24 08 00 8B 44 24 08 50 51 56 52 .~..D$...D$.PQVR
005C6F50 6A 01 57 E8 48 ED EF FF 83 C4 18 83 C7 04 89 7E j.W.H..........~
005C6F60 08 5F 5E 59 C2 04 00 8B 4C 24 0C 8B 46 08 51 6A ._^Y....L$..F.Qj
005C6F70 01 50 8B CE E8 C7 DB FF FF 5E 59 C2 04 00 CC CC .P.......^Y.....
005C6F80 51 56 8B F1 8B 56 04 85 D2 75 04 33 C9 EB 08 8B QV...V...u.3....
005C6F90 4E 08 2B CA C1 F9 02 85 D2 74 3C 8B 46 0C 2B C2 N.+......t<.F.+.
005C6FA0 C1 F8 02 3B C8 73 30 8B 4C 24 0C 8B 54 24 0C 57 ...;.s0.L$..T$.W
005C6FB0 8B 7E 08 C6 44 24 08 00 8B 44 24 08 50 51 56 52 .~..D$...D$.PQVR
005C6FC0 6A 01 57 E8 D8 EC EF FF 83 C4 18 83 C7 04 89 7E j.W............~
005C6FD0 08 5F 5E 59 C2 04 00 8B 4C 24 0C 8B 46 08 51 6A ._^Y....L$..F.Qj
005C6FE0 01 50 8B CE E8 17 DE FF FF 5E 59 C2 04 00 CC CC .P.......^Y.....
005C6FF0 51 56 8B F1 8B 56 04 85 D2 75 04 33 C9 EB 08 8B QV...V...u.3....
005C7000 4E 08 2B CA C1 F9 02 85 D2 74 3C 8B 46 0C 2B C2 N.+......t<.F.+.
005C7010 C1 F8 02 3B C8 73 30 8B 4C 24 0C 8B 54 24 0C 57 ...;.s0.L$..T$.W
005C7020 8B 7E 08 C6 44 24 08 00 8B 44 24 08 50 51 56 52 .~..D$...D$.PQVR
005C7030 6A 01 57 E8 68 EC EF FF 83 C4 18 83 C7 04 89 7E j.W.h..........~
005C7040 08 5F 5E 59 C2 04 00 8B 4C 24 0C 8B 46 08 51 6A ._^Y....L$..F.Qj
005C7050 01 50 8B CE E8 67 E0 FF FF 5E 59 C2 04 00 CC CC .P...g...^Y.....
005C7060 6A FF 68 2E F1 85 00 64 A1 00 00 00 00 50 A1 88 j.h....d.....P..
005C7070 41 A1 00 33 C4 50 8D 44 24 04 64 A3 00 00 00 00 A..3.P.D$.d.....
005C7080 B8 01 00 00 00 84 05 40 33 A6 00 75 25 09 05 40 .......@3..u%..@
005C7090 33 A6 00 B9 D0 32 A6 00 C7 44 24 0C 00 00 00 00 3....2...D$.....
005C70A0 E8 9B E3 FF FF 68 B0 07 8A 00 E8 DD DB 0C 00 83 .....h..........
005C70B0 C4 04 B8 D0 32 A6 00 8B 4C 24 04 64 89 0D 00 00 ....2...L$.d....
005C70C0 00 00 59 83 C4 0C C3 CC CC CC CC CC CC CC CC CC ..Y.............
005C70D0 55 8B EC 83 E4 F0 83 EC 44 53 56 8B 75 0C 57 C7 U.......DSV.u.W.
005C70E0 06 00 00 00 00 E8 76 FF FF FF 8B 00 8B 78 08 E8 ......v......x..
005C70F0 6C FF FF FF 8B 08 8B 59 0C 6A 40 8D 54 24 14 6A l......Y.j@.T$.j
005C7100 00 52 89 5C 24 18 E8 15 DF 0C 00 83 C4 0C 3B FB .R.\$.........;.
005C7110 0F 84 9C 00 00 00 8B 5D 08 8D A4 24 00 00 00 00 .......]...$....
005C7120 8B 07 83 C0 50 50 8D 4C 24 14 51 E8 DC FB 0C 00 ....PP.L$.Q.....
005C7130 8B 06 8B 54 24 10 C1 E0 04 89 14 18 8B 4C 24 14 ...T$........L$.
005C7140 89 4C 18 04 8B 54 24 18 89 54 18 08 8B 4C 24 1C .L...T$..T...L$.
005C7150 89 4C 18 0C 83 06 01 8B 54 24 20 03 C3 8B 06 C1 .L......T$ .....
005C7160 E0 04 89 14 18 8B 4C 24 24 89 4C 18 04 8B 54 24 ......L$$.L...T$
005C7170 28 03 C3 89 50 08 8B 4C 24 2C 89 48 0C 83 06 01 (...P..L$,.H....
005C7180 8B 06 8B 54 24 30 C1 E0 04 03 C3 89 10 8B 4C 24 ...T$0........L$
005C7190 34 89 48 04 8B 54 24 38 89 50 08 8B 4C 24 3C 89 4.H..T$8.P..L$<.
005C71A0 48 0C 83 06 01 83 C7 04 3B 7C 24 0C 0F 85 6E FF H.......;|$...n.
005C71B0 FF FF 5F 5E 5B 8B E5 5D C2 08 00 CC CC CC CC CC .._^[..]........
005C71C0 51 56 8B F1 E8 97 FE FF FF 83 38 00 74 5A F6 05 QV........8.tZ..
005C71D0 48 63 A6 00 01 75 07 83 0D 48 63 A6 00 01 53 57 Hc...u...Hc...SW
005C71E0 8D 44 24 0C 50 68 48 33 A6 00 8B CE C7 44 24 14 .D$.PhH3.....D$.
005C71F0 00 00 00 00 E8 D7 FE FF FF 8B 7C 24 0C 8B 74 24 ..........|$..t$
005C7200 14 8B 5C 24 18 8B 0E 8B 91 90 00 00 00 57 68 48 ..\$.........WhH
005C7210 33 A6 00 53 56 FF D2 8B 06 8B 88 E0 00 00 00 57 3..SV..........W
005C7220 6A 00 53 56 FF D1 5F 5B B0 01 5E 59 C2 08 00 CC j.SV.._[..^Y....
005C7230 E8 2B FE FF FF 83 38 00 74 35 E8 21 FE FF FF 8B .+....8.t5.!....
005C7240 00 80 38 00 75 29 E8 15 FE FF FF 8B 00 8B 40 08 ..8.u)........@.
005C7250 8B 00 8B 4C 24 04 8B 11 83 C0 50 50 8B 44 24 0C ...L$.....PP.D$.
005C7260 50 51 8B 8A 98 00 00 00 FF D1 B0 01 C2 08 00 8B PQ..............
005C7270 0D F0 38 A5 00 8B 44 24 04 8B 10 8B 92 98 00 00 ..8...D$........
005C7280 00 51 8B 4C 24 0C 51 50 FF D2 B0 01 C2 08 00 CC .Q.L$.QP........
005C7290 55 8B EC 83 E4 F0 83 EC 48 56 57 6A 40 8D 44 24 U.......HVWj@.D$
005C72A0 14 6A 00 50 E8 77 DD 0C 00 83 C4 0C E8 AF FD FF .j.P.w..........
005C72B0 FF 83 38 00 74 1D E8 A5 FD FF FF 8B 08 80 39 00 ..8.t.........9.
005C72C0 75 11 E8 99 FD FF FF 8B 10 8B 42 08 8B 00 8D 70 u.........B....p
005C72D0 50 EB 06 8B 35 F0 38 A5 00 B9 10 00 00 00 8D 7C P...5.8........|
005C72E0 24 10 F3 A5 8D 4C 24 10 51 6A 00 8B D1 52 E8 B3 $....L$.Qj...R..
005C72F0 F9 0C 00 8B 45 08 8B 08 8D 54 24 10 52 8B 55 0C ....E....T$.R.U.
005C7300 52 50 8B 81 98 00 00 00 FF D0 5F B0 01 5E 8B E5 RP........_..^..
005C7310 5D C2 08 00 CC CC CC CC CC CC CC CC CC CC CC CC ]...............
005C7320 55 8B EC 83 E4 F0 83 EC 4C 56 E8 31 FD FF FF 83 U.......LV.1....
005C7330 38 00 74 65 E8 27 FD FF FF 8B 00 80 38 00 75 59 8.te.'......8.uY
005C7340 6A 40 8D 4C 24 14 6A 00 51 E8 D2 DC 0C 00 83 C4 j@.L$.j.Q.......
005C7350 0C E8 9A 01 FE FF 8B F0 E8 03 FD FF FF 8B 10 8B ................
005C7360 42 08 8B 08 81 C6 20 01 00 00 56 83 C1 50 51 8D B..... ...V..PQ.
005C7370 54 24 18 52 E8 33 F9 0C 00 8B 45 08 8B 08 8D 54 T$.R.3....E....T
005C7380 24 10 52 8B 55 0C 52 50 8B 81 98 00 00 00 FF D0 $.R.U.RP........
005C7390 B0 01 5E 8B E5 5D C2 08 00 E8 52 01 FE FF 8B 4D ..^..]....R....M
005C73A0 08 8B 11 05 20 01 00 00 50 8B 45 0C 50 51 8B 8A .... ...P.E.PQ..
005C73B0 98 00 00 00 FF D1 B0 01 5E 8B E5 5D C2 08 00 CC ........^..]....
005C73C0 55 8B EC 83 E4 F0 83 EC 4C 56 E8 91 FC FF FF 83 U.......LV......
005C73D0 38 00 74 65 E8 87 FC FF FF 8B 00 80 38 00 75 59 8.te........8.uY
005C73E0 6A 40 8D 4C 24 14 6A 00 51 E8 32 DC 0C 00 83 C4 j@.L$.j.Q.2.....
005C73F0 0C E8 FA 00 FE FF 8B F0 E8 63 FC FF FF 8B 10 8B .........c......
005C7400 42 08 8B 08 81 C6 60 01 00 00 56 83 C1 50 51 8D B.....`...V..PQ.
005C7410 54 24 18 52 E8 93 F8 0C 00 8B 45 08 8B 08 8D 54 T$.R......E....T
005C7420 24 10 52 8B 55 0C 52 50 8B 81 98 00 00 00 FF D0 $.R.U.RP........
005C7430 B0 01 5E 8B E5 5D C2 08 00 E8 B2 00 FE FF 8B 4D ..^..].........M
005C7440 08 8B 11 05 60 01 00 00 50 8B 45 0C 50 51 8B 8A ....`...P.E.PQ..
005C7450 98 00 00 00 FF D1 B0 01 5E 8B E5 5D C2 08 00 CC ........^..]....
005C7460 6A FF 68 68 F1 85 00 64 A1 00 00 00 00 50 83 EC j.hh...d.....P..
005C7470 24 53 55 56 57 A1 88 41 A1 00 33 C4 50 8D 44 24 $SUVW..A..3.P.D$
005C7480 38 64 A3 00 00 00 00 8B F1 89 74 24 20 F6 05 68 8d........t$ ..h
005C7490 63 A6 00 01 75 07 83 0D 68 63 A6 00 01 E8 BE FB c...u...hc......
005C74A0 FF FF 83 C0 10 33 FF 89 44 24 24 33 DB 89 7C 24 .....3..D$$3..|$
005C74B0 18 80 7E 09 00 89 5C 24 40 74 49 E8 30 00 FE FF ..~...\$@tI.0...
005C74C0 8D 4C 24 1C 51 8B C8 E8 44 B7 E5 FF 8B 00 3B C3 .L$.Q...D.....;.
005C74D0 74 0E 8B F8 3B FB 89 7C 24 18 74 04 83 47 04 01 t...;..|$.t..G..
005C74E0 8B 44 24 1C 3B C3 C6 44 24 40 00 74 62 83 40 04 .D$.;..D$@.tb.@.
005C74F0 FF 8B C8 83 C0 04 39 18 75 55 8B 11 8B 02 6A 01 ......9.uU....j.
005C7500 FF D0 EB 4B E8 E7 FF FD FF 8D 4C 24 1C 51 8B C8 ...K......L$.Q..
005C7510 E8 AB B7 E5 FF 8B 00 3B C3 74 0E 8B F8 3B FB 89 .......;.t...;..
005C7520 7C 24 18 74 04 83 47 04 01 8B 44 24 1C 3B C3 C6 |$.t..G...D$.;..
005C7530 44 24 40 00 74 15 83 40 04 FF 8B C8 83 C0 04 39 D$@.t..@.......9
005C7540 18 75 08 8B 11 8B 02 6A 01 FF D0 89 5C 24 1C 3B .u.....j....\$.;
005C7550 FB 0F 84 32 01 00 00 8B 47 28 83 F8 02 76 0B BE ...2....G(...v..
005C7560 02 00 00 00 89 74 24 14 EB 06 89 44 24 14 8B F0 .....t$....D$...
005C7570 3B F3 8B 6C 24 48 0F 86 F9 00 00 00 8D 64 24 00 ;..l$H.......d$.
005C7580 8B 54 24 4C 8B 4D 00 8B 41 2C 53 52 55 FF D0 8B .T$L.M..A,SRU...
005C7590 C8 85 C9 89 4C 24 48 0F 84 CD 00 00 00 8B 54 24 ....L$H.......T$
005C75A0 20 80 7A 08 00 8D 34 9D 00 00 00 00 74 2E 8B 47  .z...4.....t..G
005C75B0 1C 8B 04 06 8B 4C 24 24 51 83 C0 14 50 68 4C 63 .....L$$Q...PhLc
005C75C0 A6 00 E8 0F F7 0C 00 68 4C 63 A6 00 68 4C 63 A6 .......hLc..hLc.
005C75D0 00 E8 F4 F6 0C 00 8B 4C 24 48 EB 20 8B 57 1C 8B .......L$H. .W..
005C75E0 04 16 8B 50 14 89 15 4C 63 A6 00 8B 50 18 89 15 ...P...Lc...P...
005C75F0 50 63 A6 00 8B 40 1C A3 54 63 A6 00 8B 47 1C 03 Pc...@..Tc...G..
005C7600 C6 8B 00 F3 0F 10 40 20 F3 0F 10 48 24 F3 0F 10 ......@ ...H$...
005C7610 50 28 F3 0F 10 58 2C F3 0F 11 44 24 28 8B 54 24 P(...X,...D$(.T$
005C7620 28 F3 0F 11 4C 24 2C 8B 44 24 2C A3 5C 63 A6 00 (...L$,.D$,.\c..
005C7630 6A 1C 89 15 58 63 A6 00 F3 0F 11 54 24 34 8B 54 j...Xc.....T$4.T
005C7640 24 34 F3 0F 11 5C 24 38 8B 44 24 38 68 4C 63 A6 $4...\$8.D$8hLc.
005C7650 00 A3 64 63 A6 00 89 15 60 63 A6 00 8B 55 00 8B ..dc....`c...U..
005C7660 42 50 51 55 FF D0 8B 74 24 14 83 C3 01 3B DE 0F BPQU...t$....;..
005C7670 82 0B FF FF FF 8B 54 24 4C 8B 4D 00 8B 81 E0 00 ......T$L.M.....
005C7680 00 00 56 6A 00 52 55 FF D0 83 C8 FF 85 FF 89 44 ..Vj.RU........D
005C7690 24 40 74 0F 01 47 04 75 0A 8B 17 8B 02 6A 01 8B $@t..G.u.....j..
005C76A0 CF FF D0 B0 01 8B 4C 24 38 64 89 0D 00 00 00 00 ......L$8d......
005C76B0 59 5F 5E 5D 5B 83 C4 30 C2 08 00 CC CC CC CC CC Y_^][..0........
005C76C0 6A FF 68 A8 F1 85 00 64 A1 00 00 00 00 50 83 EC j.h....d.....P..
005C76D0 30 53 55 56 57 A1 88 41 A1 00 33 C4 50 8D 44 24 0SUVW..A..3.P.D$
005C76E0 44 64 A3 00 00 00 00 8B F9 89 7C 24 20 F6 05 90 Dd........|$ ...
005C76F0 63 A6 00 01 75 07 83 0D 90 63 A6 00 01 E8 5E F9 c...u....c....^.
005C7700 FF FF 83 C0 10 89 44 24 28 E8 52 F9 FF FF F3 0F ......D$(.R.....
005C7710 10 40 50 33 F6 F3 0F 11 44 24 24 33 DB 89 74 24 .@P3....D$$3..t$
005C7720 18 80 7F 09 00 89 5C 24 4C 74 4E BF 04 00 00 00 ......\$LtN.....
005C7730 E8 BB FD FD FF 8D 4C 24 1C 51 8B C8 E8 CF B4 E5 ......L$.Q......
005C7740 FF 8B 00 3B C3 74 0E 8B F0 3B F3 89 74 24 18 74 ...;.t...;..t$.t
005C7750 04 83 46 04 01 8B 44 24 1C 3B C3 C6 44 24 4C 00 ..F...D$.;..D$L.
005C7760 74 67 83 40 04 FF 8B C8 83 C0 04 39 18 75 5A 8B tg.@.......9.uZ.
005C7770 11 8B 02 6A 01 FF D0 EB 50 BF 02 00 00 00 E8 6D ...j....P......m
005C7780 FD FD FF 8D 4C 24 1C 51 8B C8 E8 31 B5 E5 FF 8B ....L$.Q...1....
005C7790 00 3B C3 74 0E 8B F0 3B F3 89 74 24 18 74 04 83 .;.t...;..t$.t..
005C77A0 46 04 01 8B 44 24 1C 3B C3 C6 44 24 4C 00 74 15 F...D$.;..D$L.t.
005C77B0 83 40 04 FF 8B C8 83 C0 04 39 18 75 08 8B 11 8B .@.......9.u....
005C77C0 02 6A 01 FF D0 89 5C 24 1C 3B F3 0F 84 6D 01 00 .j....\$.;...m..
005C77D0 00 8B 46 3C 3B F8 73 06 89 7C 24 14 EB 06 89 44 ..F<;.s..|$....D
005C77E0 24 14 8B F8 3B FB 8B 6C 24 54 0F 86 3A 01 00 00 $...;..l$T..:...
005C77F0 8B 54 24 58 8B 4D 00 8B 41 2C 53 52 55 FF D0 8B .T$X.M..A,SRU...
005C7800 C8 85 C9 89 4C 24 30 0F 84 12 01 00 00 8B 56 30 ....L$0.......V0
005C7810 8D 3C 9D 00 00 00 00 8B 04 17 F3 0F 10 68 38 F3 .<...........h8.
005C7820 0F 10 40 3C 8B 44 24 20 80 78 08 00 74 44 F3 0F ..@<.D$ .x..tD..
005C7830 10 4C 24 24 8B CA 8B 04 0F 8B 54 24 28 52 83 C0 .L$$......T$(R..
005C7840 2C 50 F3 0F 59 E9 F3 0F 59 C1 68 6C 63 A6 00 F3 ,P..Y...Y.hlc...
005C7850 0F 11 6C 24 38 F3 0F 11 44 24 60 E8 70 F4 0C 00 ..l$8...D$`.p...
005C7860 F3 0F 10 44 24 54 F3 0F 10 6C 24 2C 8B 4C 24 30 ...D$T...l$,.L$0
005C7870 EB 1F 8B C2 8B 04 07 8B 50 2C 89 15 6C 63 A6 00 ........P,..lc..
005C7880 8B 50 30 89 15 70 63 A6 00 8B 40 34 A3 74 63 A6 .P0..pc...@4.tc.
005C7890 00 8B 46 30 03 C7 8B 00 F3 0F 10 48 1C F3 0F 10 ..F0.......H....
005C78A0 50 20 F3 0F 10 58 24 F3 0F 10 60 28 F3 0F 11 4C P ...X$...`(...L
005C78B0 24 34 8B 54 24 34 F3 0F 10 0D 1C 79 8A 00 F3 0F $4.T$4.....y....
005C78C0 11 54 24 38 8B 44 24 38 A3 7C 63 A6 00 6A 24 89 .T$8.D$8.|c..j$.
005C78D0 15 78 63 A6 00 F3 0F 11 05 88 63 A6 00 F3 0F 11 .xc.......c.....
005C78E0 5C 24 40 8B 54 24 40 F3 0F 11 64 24 44 8B 44 24 \$@.T$@...d$D.D$
005C78F0 44 F3 0F 5C C5 68 6C 63 A6 00 A3 84 63 A6 00 F3 D..\.hlc....c...
005C7900 0F 5E C8 89 15 80 63 A6 00 F3 0F 11 0D 8C 63 A6 .^....c.......c.
005C7910 00 8B 55 00 8B 42 50 51 55 FF D0 8B 7C 24 14 83 ..U..BPQU...|$..
005C7920 C3 01 3B DF 0F 82 C6 FE FF FF 8B 54 24 58 8B 4D ..;........T$X.M
005C7930 00 8B 81 E0 00 00 00 57 6A 00 52 55 FF D0 83 C8 .......Wj.RU....
005C7940 FF 85 F6 89 44 24 4C 74 0F 01 46 04 75 0A 8B 16 ....D$Lt..F.u...
005C7950 8B 02 6A 01 8B CE FF D0 B0 01 8B 4C 24 44 64 89 ..j........L$Dd.
005C7960 0D 00 00 00 00 59 5F 5E 5D 5B 83 C4 3C C2 08 00 .....Y_^][..<...
005C7970 6A FF 68 D8 F1 85 00 64 A1 00 00 00 00 50 83 EC j.h....d.....P..
005C7980 44 53 55 56 57 A1 88 41 A1 00 33 C4 50 8D 44 24 DSUVW..A..3.P.D$
005C7990 58 64 A3 00 00 00 00 89 4C 24 24 F6 05 C8 63 A6 Xd......L$$...c.
005C79A0 00 01 75 07 83 0D C8 63 A6 00 01 E8 B0 F6 FF FF ..u....c........
005C79B0 83 C0 10 89 44 24 14 E8 A4 F6 FF FF F3 0F 10 40 ....D$.........@
005C79C0 50 F3 0F 11 44 24 28 E8 24 FB FD FF 8D 4C 24 20 P...D$(.$....L$ 
005C79D0 51 8B C8 E8 38 B2 E5 FF 8B 7C 24 20 85 FF C7 44 Q...8....|$ ...D
005C79E0 24 60 00 00 00 00 0F 84 FC 01 00 00 8B 47 50 83 $`...........GP.
005C79F0 F8 02 C7 44 24 1C 02 00 00 00 77 04 89 44 24 1C ...D$.....w..D$.
005C7A00 8B 5C 24 68 33 F6 89 74 24 18 3B 77 50 0F 83 BE .\$h3..t$.;wP...
005C7A10 01 00 00 8B 44 24 6C 8B 13 8B 4A 2C 56 50 53 FF ....D$l...J,VPS.
005C7A20 D1 8B E8 85 ED 0F 84 96 01 00 00 8B 57 44 03 F6 ............WD..
005C7A30 03 F6 8B 04 16 F3 0F 10 68 54 F3 0F 10 40 58 8B ........hT...@X.
005C7A40 44 24 24 80 78 08 00 75 45 8B CA 8B 04 0E 8B 50 D$$.x..uE......P
005C7A50 3C 89 15 94 63 A6 00 8B 48 40 89 0D 98 63 A6 00 <...c...H@...c..
005C7A60 8B 50 44 89 15 9C 63 A6 00 8B 47 44 8B 04 06 8B .PD...c...GD....
005C7A70 48 48 89 0D BC 63 A6 00 8B 50 4C 89 15 C0 63 A6 HH...c...PL...c.
005C7A80 00 8B 40 50 A3 C4 63 A6 00 E9 93 00 00 00 8B 4C ..@P..c........L
005C7A90 24 14 F3 0F 10 4C 24 28 8B C2 03 C6 8B 00 51 83 $....L$(......Q.
005C7AA0 C0 3C 50 8D 54 24 38 F3 0F 59 E9 F3 0F 59 C1 52 .<P.T$8..Y...Y.R
005C7AB0 F3 0F 11 6C 24 38 F3 0F 11 44 24 74 E8 0F F2 0C ...l$8...D$t....
005C7AC0 00 8B 44 24 30 8B 4C 24 34 8B 54 24 38 A3 94 63 ..D$0.L$4.T$8..c
005C7AD0 A6 00 89 0D 98 63 A6 00 8B 4C 24 14 89 15 9C 63 .....c...L$....c
005C7AE0 A6 00 8B 47 44 03 C6 8B 00 51 83 C0 48 50 8D 54 ...GD....Q..HP.T
005C7AF0 24 44 52 E8 DE F1 0C 00 8B 44 24 3C 8B 4C 24 40 $DR......D$<.L$@
005C7B00 8B 54 24 44 F3 0F 10 44 24 68 F3 0F 10 6C 24 2C .T$D...D$h...l$,
005C7B10 A3 BC 63 A6 00 89 0D C0 63 A6 00 89 15 C4 63 A6 ..c.....c.....c.
005C7B20 00 8B 47 44 03 C6 8B 00 F3 0F 10 48 2C F3 0F 10 ..GD.......H,...
005C7B30 50 30 F3 0F 10 58 34 F3 0F 10 60 38 F3 0F 11 4C P0...X4...`8...L
005C7B40 24 48 8B 44 24 48 A3 A0 63 A6 00 F3 0F 11 54 24 $H.D$H..c.....T$
005C7B50 4C 8B 4C 24 4C F3 0F 10 15 1C 79 8A 00 F3 0F 11 L.L$L.....y.....
005C7B60 5C 24 50 8B 54 24 50 F3 0F 11 64 24 54 8B 44 24 \$P.T$P...d$T.D$
005C7B70 54 A3 AC 63 A6 00 89 0D A4 63 A6 00 89 15 A8 63 T..c.....c.....c
005C7B80 A6 00 8B 4F 44 8B 34 0E F3 0F 10 4E 28 6A 34 F3 ...OD.4....N(j4.
005C7B90 0F 11 05 B0 63 A6 00 F3 0F 5C C5 68 94 63 A6 00 ....c....\.h.c..
005C7BA0 F3 0F 5E D0 F3 0F 11 15 B4 63 A6 00 F3 0F 11 0D ..^......c......
005C7BB0 B8 63 A6 00 8B 13 8B 42 50 55 53 FF D0 8B 74 24 .c.....BPUS...t$
005C7BC0 18 83 C6 01 83 FE 02 89 74 24 18 0F 8C 39 FE FF ........t$...9..
005C7BD0 FF 8B 54 24 1C 8B 44 24 6C 8B 0B 8B 89 E0 00 00 ..T$..D$l.......
005C7BE0 00 52 6A 00 50 53 FF D1 83 C8 FF 85 FF 89 44 24 .Rj.PS........D$
005C7BF0 60 74 0F 01 47 04 75 0A 8B 17 8B 02 6A 01 8B CF `t..G.u.....j...
005C7C00 FF D0 B0 01 8B 4C 24 58 64 89 0D 00 00 00 00 59 .....L$Xd......Y
005C7C10 5F 5E 5D 5B 83 C4 50 C2 08 00 CC CC CC CC CC CC _^][..P.........
005C7C20 E8 3B F4 FF FF 0F B6 40 54 8B 4C 24 04 8B 11 50 .;.....@T.L$...P
005C7C30 8B 44 24 0C 50 51 8B 4A 58 FF D1 B0 01 C2 08 00 .D$.PQ.JX.......
005C7C40 83 EC 1C 80 79 08 00 74 3D 56 E8 A1 F8 FD FF 8B ....y..t=V......
005C7C50 F0 E8 0A F4 FF FF 83 C0 10 50 81 C6 D0 01 00 00 .........P......
005C7C60 56 8D 44 24 0C 50 E8 65 F0 0C 00 8B 4C 24 04 8B V.D$.P.e....L$..
005C7C70 54 24 08 8B 44 24 0C 89 4C 24 10 89 54 24 14 89 T$..D$..L$..T$..
005C7C80 44 24 18 5E EB 2D E8 65 F8 FD FF 8B 88 D0 01 00 D$.^.-.e........
005C7C90 00 89 4C 24 0C 8B 90 D4 01 00 00 89 54 24 10 8B ..L$........T$..
005C7CA0 88 D8 01 00 00 89 4C 24 14 8B 90 DC 01 00 00 89 ......L$........
005C7CB0 54 24 18 8B 44 24 20 8B 08 8D 54 24 0C 52 8B 54 T$..D$ ...T$.R.T
005C7CC0 24 28 52 50 8B 81 88 00 00 00 FF D0 B0 01 83 C4 $(RP............
005C7CD0 1C C2 08 00 CC CC CC CC CC CC CC CC CC CC CC CC ................
005C7CE0 6A FF 68 08 F2 85 00 64 A1 00 00 00 00 50 83 EC j.h....d.....P..
005C7CF0 08 A1 88 41 A1 00 33 C4 50 8D 44 24 0C 64 A3 00 ...A..3.P.D$.d..
005C7D00 00 00 00 8D 44 24 04 50 E8 53 F3 FF FF 8B C8 E8 ....D$.P.S......
005C7D10 EC AD FF FF 8B 40 04 8B 4C 24 1C 8B 11 50 8B 44 .....@..L$...P.D
005C7D20 24 24 50 51 8B 8A D0 00 00 00 C7 44 24 20 00 00 $$PQ.......D$ ..
005C7D30 00 00 FF D1 8B 44 24 08 85 C0 C7 44 24 14 FF FF .....D$....D$...
005C7D40 FF FF C7 44 24 04 C4 40 8C 00 74 08 8B 10 50 8B ...D$..@..t...P.
005C7D50 42 08 FF D0 B0 01 8B 4C 24 0C 64 89 0D 00 00 00 B......L$.d.....
005C7D60 00 59 83 C4 14 C2 08 00 CC CC CC CC CC CC CC CC .Y..............
005C7D70 E8 EB F2 FF FF 0F B6 40 57 8B 4C 24 04 8B 11 50 .......@W.L$...P
005C7D80 8B 44 24 0C 50 51 8B 4A 58 FF D1 B0 01 C2 08 00 .D$.PQ.JX.......
005C7D90 6A FF 68 3E F2 85 00 64 A1 00 00 00 00 50 A1 88 j.h>...d.....P..
005C7DA0 41 A1 00 33 C4 50 8D 44 24 04 64 A3 00 00 00 00 A..3.P.D$.d.....
005C7DB0 B8 01 00 00 00 84 05 E0 63 A6 00 75 29 09 05 E0 ........c..u)...
005C7DC0 63 A6 00 33 C0 68 50 09 8A 00 A3 D0 63 A6 00 A3 c..3.hP.....c...
005C7DD0 D4 63 A6 00 A3 D8 63 A6 00 A3 DC 63 A6 00 E8 A9 .c....c....c....
005C7DE0 CE 0C 00 83 C4 04 B8 CC 63 A6 00 8B 4C 24 04 64 ........c...L$.d
005C7DF0 89 0D 00 00 00 00 59 83 C4 0C C3 CC CC CC CC CC ......Y.........
005C7E00 6A FF 68 73 F2 85 00 64 A1 00 00 00 00 50 51 56 j.hs...d.....PQV
005C7E10 57 A1 88 41 A1 00 33 C4 50 8D 44 24 10 64 A3 00 W..A..3.P.D$.d..
005C7E20 00 00 00 8B F9 E8 C6 F6 FD FF 8B 80 18 02 00 00 ................
005C7E30 39 05 D4 15 A1 00 A3 D4 15 A1 00 0F 94 C1 84 C9 9...............
005C7E40 75 07 C7 47 10 00 00 00 00 8B 4F 04 85 C9 75 04 u..G......O...u.
005C7E50 33 C0 EB 08 8B 47 08 2B C1 C1 F8 02 39 47 10 72 3....G.+....9G.r
005C7E60 61 6A 24 E8 70 D1 0C 00 83 C4 04 89 44 24 0C 85 aj$.p.......D$..
005C7E70 C0 C7 44 24 18 00 00 00 00 74 0B 8B C8 E8 DE BE ..D$.....t......
005C7E80 FF FF 8B F0 EB 02 33 F6 85 F6 89 74 24 0C 74 04 ......3....t$.t.
005C7E90 83 46 04 01 8D 44 24 0C 50 8B CF C7 44 24 1C 01 .F...D$.P...D$..
005C7EA0 00 00 00 E8 18 EF FF FF 83 C8 FF 85 F6 89 44 24 ..............D$
005C7EB0 18 74 0F 01 46 04 75 0A 8B 16 8B 02 6A 01 8B CE .t..F.u.....j...
005C7EC0 FF D0 8B 47 10 8B 57 04 8D 48 01 89 4F 10 8B 04 ...G..W..H..O...
005C7ED0 82 8B 4C 24 10 64 89 0D 00 00 00 00 59 5F 5E 83 ..L$.d......Y_^.
005C7EE0 C4 10 C3 CC CC CC CC CC CC CC CC CC CC CC CC CC ................
005C7EF0 6A FF 68 9E F2 85 00 64 A1 00 00 00 00 50 A1 88 j.h....d.....P..
005C7F00 41 A1 00 33 C4 50 8D 44 24 04 64 A3 00 00 00 00 A..3.P.D$.d.....
005C7F10 B8 01 00 00 00 84 05 F8 63 A6 00 75 29 09 05 F8 ........c..u)...
005C7F20 63 A6 00 33 C0 68 00 09 8A 00 A3 E8 63 A6 00 A3 c..3.h......c...
005C7F30 EC 63 A6 00 A3 F0 63 A6 00 A3 F4 63 A6 00 E8 49 .c....c....c...I
005C7F40 CD 0C 00 83 C4 04 B8 E4 63 A6 00 8B 4C 24 04 64 ........c...L$.d
005C7F50 89 0D 00 00 00 00 59 83 C4 0C C3 CC CC CC CC CC ......Y.........
005C7F60 6A FF 68 C8 F2 85 00 64 A1 00 00 00 00 50 51 56 j.h....d.....PQV
005C7F70 57 A1 88 41 A1 00 33 C4 50 8D 44 24 10 64 A3 00 W..A..3.P.D$.d..
005C7F80 00 00 00 8B F9 E8 66 F5 FD FF 8B 80 18 02 00 00 ......f.........
005C7F90 39 05 D8 15 A1 00 A3 D8 15 A1 00 0F 94 C1 84 C9 9...............
005C7FA0 75 07 C7 47 10 00 00 00 00 8B 4F 04 85 C9 75 04 u..G......O...u.
005C7FB0 33 C0 EB 08 8B 47 08 2B C1 C1 F8 02 39 47 10 72 3....G.+....9G.r
005C7FC0 6E 6A 10 6A 50 FF 15 24 46 8A 00 8B F0 83 C4 08 nj.jP..$F.......
005C7FD0 85 F6 74 1F 6A 40 8D 46 10 6A 00 50 C7 46 04 00 ..t.j@.F.j.P.F..
005C7FE0 00 00 00 C7 06 04 42 8C 00 E8 32 D0 0C 00 83 C4 ......B...2.....
005C7FF0 0C EB 02 33 F6 85 F6 89 74 24 0C 74 04 83 46 04 ...3....t$.t..F.
005C8000 01 8D 44 24 0C 50 8B CF C7 44 24 1C 00 00 00 00 ..D$.P...D$.....
005C8010 E8 1B EE FF FF 83 C8 FF 85 F6 89 44 24 18 74 0F ...........D$.t.
005C8020 01 46 04 75 0A 8B 16 8B 02 6A 01 8B CE FF D0 8B .F.u.....j......
005C8030 47 10 8B 57 04 8D 48 01 89 4F 10 8B 04 82 8B 4C G..W..H..O.....L
005C8040 24 10 64 89 0D 00 00 00 00 59 5F 5E 83 C4 10 C3 $.d......Y_^....
005C8050 6A FF 68 FE F2 85 00 64 A1 00 00 00 00 50 A1 88 j.h....d.....P..
005C8060 41 A1 00 33 C4 50 8D 44 24 04 64 A3 00 00 00 00 A..3.P.D$.d.....
005C8070 B8 01 00 00 00 84 05 10 64 A6 00 75 29 09 05 10 ........d..u)...
005C8080 64 A6 00 33 C0 68 B0 08 8A 00 A3 00 64 A6 00 A3 d..3.h......d...
005C8090 04 64 A6 00 A3 08 64 A6 00 A3 0C 64 A6 00 E8 E9 .d....d....d....
005C80A0 CB 0C 00 83 C4 04 B8 FC 63 A6 00 8B 4C 24 04 64 ........c...L$.d
005C80B0 89 0D 00 00 00 00 59 83 C4 0C C3 CC CC CC CC CC ......Y.........
005C80C0 6A FF 68 28 F3 85 00 64 A1 00 00 00 00 50 51 56 j.h(...d.....PQV
005C80D0 57 A1 88 41 A1 00 33 C4 50 8D 44 24 10 64 A3 00 W..A..3.P.D$.d..
005C80E0 00 00 00 8B F9 E8 06 F4 FD FF 8B 80 18 02 00 00 ................
005C80F0 39 05 DC 15 A1 00 A3 DC 15 A1 00 0F 94 C1 84 C9 9...............
005C8100 75 07 C7 47 10 00 00 00 00 8B 4F 04 85 C9 75 04 u..G......O...u.
005C8110 33 C0 EB 08 8B 47 08 2B C1 C1 F8 02 39 47 10 72 3....G.+....9G.r
005C8120 71 6A 54 E8 B0 CE 0C 00 83 C4 04 85 C0 74 27 C7 qjT..........t'.
005C8130 40 04 00 00 00 00 C7 00 18 42 8C 00 8D 48 0C BA @........B...H..
005C8140 01 00 00 00 C7 01 00 00 00 00 83 C1 20 83 EA 01 ............ ...
005C8150 79 F2 8B F0 EB 02 33 F6 85 F6 89 74 24 0C 74 04 y.....3....t$.t.
005C8160 83 46 04 01 8D 44 24 0C 50 8B CF C7 44 24 1C 00 .F...D$.P...D$..
005C8170 00 00 00 E8 28 ED FF FF 83 C8 FF 85 F6 89 44 24 ....(.........D$
005C8180 18 74 0F 01 46 04 75 0A 8B 16 8B 02 6A 01 8B CE .t..F.u.....j...
005C8190 FF D0 8B 47 10 8B 57 04 8D 48 01 89 4F 10 8B 04 ...G..W..H..O...
005C81A0 82 8B 4C 24 10 64 89 0D 00 00 00 00 59 5F 5E 83 ..L$.d......Y_^.
005C81B0 C4 10 C3 CC CC CC CC CC CC CC CC CC CC CC CC CC ................
005C81C0 6A FF 68 5E F3 85 00 64 A1 00 00 00 00 50 A1 88 j.h^...d.....P..
005C81D0 41 A1 00 33 C4 50 8D 44 24 04 64 A3 00 00 00 00 A..3.P.D$.d.....
005C81E0 B8 01 00 00 00 84 05 28 64 A6 00 75 29 09 05 28 .......(d..u)..(
005C81F0 64 A6 00 33 C0 68 60 08 8A 00 A3 18 64 A6 00 A3 d..3.h`.....d...
005C8200 1C 64 A6 00 A3 20 64 A6 00 A3 24 64 A6 00 E8 79 .d... d...$d...y
005C8210 CA 0C 00 83 C4 04 B8 14 64 A6 00 8B 4C 24 04 64 ........d...L$.d
005C8220 89 0D 00 00 00 00 59 83 C4 0C C3 CC CC CC CC CC ......Y.........
005C8230 6A FF 68 88 F3 85 00 64 A1 00 00 00 00 50 51 56 j.h....d.....PQV
005C8240 57 A1 88 41 A1 00 33 C4 50 8D 44 24 10 64 A3 00 W..A..3.P.D$.d..
005C8250 00 00 00 8B F9 E8 96 F2 FD FF 8B 80 18 02 00 00 ................
005C8260 39 05 E0 15 A1 00 A3 E0 15 A1 00 0F 94 C1 84 C9 9...............
005C8270 75 07 C7 47 10 00 00 00 00 8B 4F 04 85 C9 75 04 u..G......O...u.
005C8280 33 C0 EB 08 8B 47 08 2B C1 C1 F8 02 39 47 10 72 3....G.+....9G.r
005C8290 7D 68 B4 00 00 00 E8 3D CD 0C 00 83 C4 04 85 C0 }h.....=........
005C82A0 74 30 C7 40 04 00 00 00 00 C7 00 20 42 8C 00 8D t0.@....... B...
005C82B0 48 0C BA 03 00 00 00 EB 07 8D A4 24 00 00 00 00 H..........$....
005C82C0 C7 01 00 00 00 00 83 C1 28 83 EA 01 79 F2 8B F0 ........(...y...
005C82D0 EB 02 33 F6 85 F6 89 74 24 0C 74 04 83 46 04 01 ..3....t$.t..F..
005C82E0 8D 44 24 0C 50 8B CF C7 44 24 1C 00 00 00 00 E8 .D$.P...D$......
005C82F0 1C EC FF FF 83 C8 FF 85 F6 89 44 24 18 74 0F 01 ..........D$.t..
005C8300 46 04 75 0A 8B 16 8B 02 6A 01 8B CE FF D0 8B 47 F.u.....j......G
005C8310 10 8B 57 04 8D 48 01 89 4F 10 8B 04 82 8B 4C 24 ..W..H..O.....L$
005C8320 10 64 89 0D 00 00 00 00 59 5F 5E 83 C4 10 C3 CC .d......Y_^.....
005C8330 6A FF 68 BE F3 85 00 64 A1 00 00 00 00 50 A1 88 j.h....d.....P..
005C8340 41 A1 00 33 C4 50 8D 44 24 04 64 A3 00 00 00 00 A..3.P.D$.d.....
005C8350 B8 01 00 00 00 84 05 40 64 A6 00 75 29 09 05 40 .......@d..u)..@
005C8360 64 A6 00 33 C0 68 10 08 8A 00 A3 30 64 A6 00 A3 d..3.h.....0d...
005C8370 34 64 A6 00 A3 38 64 A6 00 A3 3C 64 A6 00 E8 09 4d...8d...<d....
005C8380 C9 0C 00 83 C4 04 B8 2C 64 A6 00 8B 4C 24 04 64 .......,d...L$.d
005C8390 89 0D 00 00 00 00 59 83 C4 0C C3 CC CC CC CC CC ......Y.........
005C83A0 6A FF 68 E8 F3 85 00 64 A1 00 00 00 00 50 51 56 j.h....d.....PQV
005C83B0 57 A1 88 41 A1 00 33 C4 50 8D 44 24 10 64 A3 00 W..A..3.P.D$.d..
005C83C0 00 00 00 8B F9 E8 26 F1 FD FF 8B 80 18 02 00 00 ......&.........
005C83D0 39 05 E4 15 A1 00 A3 E4 15 A1 00 0F 94 C1 84 C9 9...............
005C83E0 75 07 C7 47 10 00 00 00 00 8B 4F 04 85 C9 75 04 u..G......O...u.
005C83F0 33 C0 EB 08 8B 47 08 2B C1 C1 F8 02 39 47 10 72 3....G.+....9G.r
005C8400 7D 68 84 00 00 00 E8 CD CB 0C 00 83 C4 04 85 C0 }h..............
005C8410 74 30 C7 40 04 00 00 00 00 C7 00 28 42 8C 00 8D t0.@.......(B...
005C8420 48 0C BA 01 00 00 00 EB 07 8D A4 24 00 00 00 00 H..........$....
005C8430 C7 01 00 00 00 00 83 C1 38 83 EA 01 79 F2 8B F0 ........8...y...
005C8440 EB 02 33 F6 85 F6 89 74 24 0C 74 04 83 46 04 01 ..3....t$.t..F..
005C8450 8D 44 24 0C 50 8B CF C7 44 24 1C 00 00 00 00 E8 .D$.P...D$......
005C8460 1C EB FF FF 83 C8 FF 85 F6 89 44 24 18 74 0F 01 ..........D$.t..
005C8470 46 04 75 0A 8B 16 8B 02 6A 01 8B CE FF D0 8B 47 F.u.....j......G
005C8480 10 8B 57 04 8D 48 01 89 4F 10 8B 04 82 8B 4C 24 ..W..H..O.....L$
005C8490 10 64 89 0D 00 00 00 00 59 5F 5E 83 C4 10 C3 CC .d......Y_^.....
005C84A0 6A FF 68 1E F4 85 00 64 A1 00 00 00 00 50 A1 88 j.h....d.....P..
005C84B0 41 A1 00 33 C4 50 8D 44 24 04 64 A3 00 00 00 00 A..3.P.D$.d.....
005C84C0 B8 01 00 00 00 84 05 58 64 A6 00 75 29 09 05 58 .......Xd..u)..X
005C84D0 64 A6 00 33 C0 68 C0 07 8A 00 A3 48 64 A6 00 A3 d..3.h.....Hd...
005C84E0 4C 64 A6 00 A3 50 64 A6 00 A3 54 64 A6 00 E8 99 Ld...Pd...Td....
005C84F0 C7 0C 00 83 C4 04 B8 44 64 A6 00 8B 4C 24 04 64 .......Dd...L$.d
005C8500 89 0D 00 00 00 00 59 83 C4 0C C3 CC CC CC CC CC ......Y.........
005C8510 6A FF 68 48 F4 85 00 64 A1 00 00 00 00 50 51 56 j.hH...d.....PQV
005C8520 57 A1 88 41 A1 00 33 C4 50 8D 44 24 10 64 A3 00 W..A..3.P.D$.d..
005C8530 00 00 00 8B F9 E8 B6 EF FD FF 8B 80 18 02 00 00 ................
005C8540 39 05 E8 15 A1 00 A3 E8 15 A1 00 0F 94 C1 84 C9 9...............
005C8550 75 07 C7 47 10 00 00 00 00 8B 4F 04 85 C9 75 04 u..G......O...u.
005C8560 33 C0 EB 08 8B 47 08 2B C1 C1 F8 02 39 47 10 72 3....G.+....9G.r
005C8570 5B 6A 14 E8 60 CA 0C 00 83 C4 04 85 C0 74 11 C7 [j..`........t..
005C8580 40 04 00 00 00 00 C7 00 94 41 8C 00 8B F0 EB 02 @........A......
005C8590 33 F6 85 F6 89 74 24 0C 74 04 83 46 04 01 8D 44 3....t$.t..F...D
005C85A0 24 0C 50 8B CF C7 44 24 1C 00 00 00 00 E8 3E EA $.P...D$......>.
005C85B0 FF FF 83 C8 FF 85 F6 89 44 24 18 74 0F 01 46 04 ........D$.t..F.
005C85C0 75 0A 8B 16 8B 02 6A 01 8B CE FF D0 8B 47 10 8B u.....j......G..
005C85D0 57 04 8D 48 01 89 4F 10 8B 04 82 8B 4C 24 10 64 W..H..O.....L$.d
005C85E0 89 0D 00 00 00 00 59 5F 5E 83 C4 10 C3 CC CC CC ......Y_^.......
005C85F0 51 53 56 8B D9 33 F6 E8 64 EA FF FF 39 30 74 56 QSV..3..d...90tV
005C8600 E8 5B EA FF FF 8B 00 8B 48 08 83 C0 04 85 C9 75 .[......H......u
005C8610 04 33 C0 EB 08 8B 40 08 2B C1 C1 F8 02 57 8D 3C .3....@.+....W.<
005C8620 40 89 7C 24 0C E8 66 F7 FF FF 8B C8 E8 CF F7 FF @.|$..f.........
005C8630 FF 8B 4C 24 14 8B F0 8B 44 24 18 57 50 51 8B CE ..L$....D$.WPQ..
005C8640 E8 5B BC FF FF 8B 46 18 8D 54 24 0C 52 50 8B CB .[....F..T$.RP..
005C8650 E8 7B EA FF FF 5F 8B C6 5E 5B 59 C2 08 00 CC CC .{..._..^[Y.....
005C8660 56 57 E8 89 EE FD FF 8B F0 E8 82 F8 FF FF 8B C8 VW..............
005C8670 E8 EB F8 FF FF 8B 4C 24 0C 8B 54 24 10 89 48 08 ......L$..T$..H.
005C8680 81 C6 60 01 00 00 8D 78 10 B9 10 00 00 00 89 50 ..`....x.......P
005C8690 0C F3 A5 5F 5E C2 08 00 CC CC CC CC CC CC CC CC ..._^...........
005C86A0 56 57 E8 B9 E9 FF FF 83 38 00 74 29 E8 AF E9 FF VW......8.t)....
005C86B0 FF 8B 00 80 38 00 75 1D E8 A3 E9 FF FF 8B 08 8B ....8.u.........
005C86C0 51 08 8B 32 E8 27 F8 FF FF 8B C8 E8 90 F8 FF FF Q..2.'..........
005C86D0 83 C6 50 EB 12 8B 35 F0 38 A5 00 E8 10 F8 FF FF ..P...5.8.......
005C86E0 8B C8 E8 79 F8 FF FF 8B 4C 24 0C 8B 54 24 10 89 ...y....L$..T$..
005C86F0 48 08 B9 10 00 00 00 8D 78 10 89 50 0C F3 A5 5F H.......x..P..._
005C8700 5E C2 08 00 CC CC CC CC CC CC CC CC CC CC CC CC ^...............
005C8710 55 8B EC 83 E4 F0 83 EC 48 56 57 6A 40 8D 44 24 U.......HVWj@.D$
005C8720 14 6A 00 50 E8 F7 C8 0C 00 83 C4 0C E8 2F E9 FF .j.P........./..
005C8730 FF 83 38 00 74 1D E8 25 E9 FF FF 8B 08 80 39 00 ..8.t..%......9.
005C8740 75 11 E8 19 E9 FF FF 8B 10 8B 42 08 8B 00 8D 70 u.........B....p
005C8750 50 EB 06 8B 35 F0 38 A5 00 B9 10 00 00 00 8D 7C P...5.8........|
005C8760 24 10 F3 A5 8D 4C 24 10 51 6A 00 8B D1 52 E8 33 $....L$.Qj...R.3
005C8770 E5 0C 00 E8 78 F7 FF FF 8B C8 E8 E1 F7 FF FF 8B ....x...........
005C8780 4D 08 8B 55 0C 89 48 08 8D 78 10 B9 10 00 00 00 M..U..H..x......
005C8790 8D 74 24 10 89 50 0C F3 A5 5F 5E 8B E5 5D C2 08 .t$..P..._^..]..
005C87A0 00 CC CC CC CC CC CC CC CC CC CC CC CC CC CC CC ................
005C87B0 55 8B EC 83 E4 F0 83 EC 48 56 57 E8 A0 E8 FF FF U.......HVW.....
005C87C0 83 38 00 74 57 E8 96 E8 FF FF 8B 00 80 38 00 75 .8.tW........8.u
005C87D0 4B 6A 40 8D 4C 24 14 6A 00 51 E8 41 C8 0C 00 83 Kj@.L$.j.Q.A....
005C87E0 C4 0C E8 09 ED FD FF 8B F0 E8 72 E8 FF FF 8B 10 ..........r.....
005C87F0 8B 42 08 8B 08 81 C6 20 01 00 00 56 83 C1 50 51 .B..... ...V..PQ
005C8800 8D 54 24 18 52 E8 A2 E4 0C 00 E8 E1 F6 FF FF 8B .T$.R...........
005C8810 C8 E8 4A F7 FF FF 8D 74 24 10 EB 19 E8 CF EC FD ..J....t$.......
005C8820 FF 8B F0 E8 C8 F6 FF FF 8B C8 E8 31 F7 FF FF 81 ...........1....
005C8830 C6 20 01 00 00 8B 4D 08 8B 55 0C 89 48 08 B9 10 . ....M..U..H...
005C8840 00 00 00 8D 78 10 89 50 0C F3 A5 5F 5E 8B E5 5D ....x..P..._^..]
005C8850 C2 08 00 CC CC CC CC CC CC CC CC CC CC CC CC CC ................
005C8860 55 8B EC 83 E4 F0 83 EC 48 56 57 E8 F0 E7 FF FF U.......HVW.....
005C8870 83 38 00 74 57 E8 E6 E7 FF FF 8B 00 80 38 00 75 .8.tW........8.u
005C8880 4B 6A 40 8D 4C 24 14 6A 00 51 E8 91 C7 0C 00 83 Kj@.L$.j.Q......
005C8890 C4 0C E8 59 EC FD FF 8B F0 E8 C2 E7 FF FF 8B 10 ...Y............
005C88A0 8B 42 08 8B 08 81 C6 60 01 00 00 56 83 C1 50 51 .B.....`...V..PQ
005C88B0 8D 54 24 18 52 E8 F2 E3 0C 00 E8 31 F6 FF FF 8B .T$.R......1....
005C88C0 C8 E8 9A F6 FF FF 8D 74 24 10 EB 19 E8 1F EC FD .......t$.......
005C88D0 FF 8B F0 E8 18 F6 FF FF 8B C8 E8 81 F6 FF FF 81 ................
005C88E0 C6 60 01 00 00 8B 4D 08 8B 55 0C 89 48 08 B9 10 .`....M..U..H...
005C88F0 00 00 00 8D 78 10 89 50 0C F3 A5 5F 5E 8B E5 5D ....x..P..._^..]
005C8900 C2 08 00 CC CC CC CC CC CC CC CC CC CC CC CC CC ................
005C8910 55 8B EC 83 E4 F0 83 EC 58 56 57 E8 D0 EB FD FF U.......XVW.....
005C8920 0F 57 C0 8D B0 20 01 00 00 B9 10 00 00 00 8D 7C .W... .........|
005C8930 24 20 F3 A5 F3 0F 11 44 24 14 8B 44 24 14 F3 0F $ .....D$..D$...
005C8940 11 44 24 18 8B 4C 24 18 F3 0F 11 44 24 1C 8B 54 .D$..L$....D$..T
005C8950 24 1C F3 0F 10 05 1C 79 8A 00 89 44 24 50 89 4C $......y...D$P.L
005C8960 24 54 89 54 24 58 F3 0F 11 44 24 5C E8 7F EB FD $T.T$X...D$\....
005C8970 FF 05 E0 00 00 00 50 8D 44 24 24 50 8B C8 51 E8 ......P.D$$P..Q.
005C8980 28 E3 0C 00 E8 67 F5 FF FF 8B C8 E8 D0 F5 FF FF (....g..........
005C8990 8B 4D 0C 8B 55 08 89 48 0C 8D 78 10 B9 10 00 00 .M..U..H..x.....
005C89A0 00 8D 74 24 20 89 50 08 F3 A5 5F 5E 8B E5 5D C2 ..t$ .P..._^..].
005C89B0 08 00 CC CC CC CC CC CC CC CC CC CC CC CC CC CC ................
005C89C0 6A FF 68 88 F4 85 00 64 A1 00 00 00 00 50 83 EC j.h....d.....P..
005C89D0 24 53 55 56 57 A1 88 41 A1 00 33 C4 50 8D 44 24 $SUVW..A..3.P.D$
005C89E0 38 64 A3 00 00 00 00 8B F1 33 FF 80 7E 08 00 0F 8d.......3..~...
005C89F0 84 C0 01 00 00 E8 66 E6 FF FF 83 C0 10 33 DB 89 ......f......3..
005C8A00 44 24 24 89 5C 24 18 38 5E 09 89 7C 24 40 74 49 D$$.\$.8^..|$@tI
005C8A10 E8 DB EA FD FF 8D 4C 24 20 51 8B C8 E8 EF A1 E5 ......L$ Q......
005C8A20 FF 8B 00 3B C7 74 0E 8B D8 3B DF 89 5C 24 18 74 ...;.t...;..\$.t
005C8A30 04 83 43 04 01 8B 44 24 20 3B C7 C6 44 24 40 00 ..C...D$ ;..D$@.
005C8A40 74 62 83 40 04 FF 8B C8 83 C0 04 39 38 75 55 8B tb.@.......98uU.
005C8A50 11 8B 02 6A 01 FF D0 EB 4B E8 92 EA FD FF 8D 4C ...j....K......L
005C8A60 24 1C 51 8B C8 E8 56 A2 E5 FF 8B 00 3B C7 74 0E $.Q...V.....;.t.
005C8A70 8B D8 3B DF 89 5C 24 18 74 04 83 43 04 01 8B 44 ..;..\$.t..C...D
005C8A80 24 1C 3B C7 C6 44 24 40 00 74 15 83 40 04 FF 8B $.;..D$@.t..@...
005C8A90 C8 83 C0 04 39 38 75 08 8B 11 8B 02 6A 01 FF D0 ....98u.....j...
005C8AA0 89 7C 24 1C 3B DF 0F 84 EF 00 00 00 8B 43 28 3B .|$.;........C(;
005C8AB0 C7 0F 86 E4 00 00 00 83 F8 02 76 0B BE 02 00 00 ..........v.....
005C8AC0 00 89 74 24 14 EB 06 89 44 24 14 8B F0 E8 7E F5 ..t$....D$....~.
005C8AD0 FF FF 8B C8 E8 E7 F5 FF FF 3B F7 8B 4C 24 48 8B .........;..L$H.
005C8AE0 54 24 4C 89 48 08 89 70 4C 89 50 50 89 44 24 20 T$L.H..pL.PP.D$ 
005C8AF0 0F 86 A1 00 00 00 8D 70 10 8D A4 24 00 00 00 00 .......p...$....
005C8B00 8B 43 1C 8B 04 B8 8B 4C 24 24 8D 2C BD 00 00 00 .C.....L$$.,....
005C8B10 00 51 83 C0 14 50 56 E8 BA E1 0C 00 56 56 E8 A7 .Q...PV.....VV..
005C8B20 E1 0C 00 8B 43 1C 03 C5 8B 00 F3 0F 10 40 20 F3 ....C........@ .
005C8B30 0F 10 48 24 F3 0F 10 50 28 F3 0F 10 58 2C F3 0F ..H$...P(...X,..
005C8B40 11 44 24 28 8B 54 24 28 89 56 0C F3 0F 11 4C 24 .D$(.T$(.V....L$
005C8B50 2C 8B 44 24 2C 89 46 10 8B 44 24 48 F3 0F 11 54 ,.D$,.F..D$H...T
005C8B60 24 30 8B 4C 24 30 F3 0F 11 5C 24 34 8B 54 24 34 $0.L$0...\$4.T$4
005C8B70 89 4E 14 89 56 18 8B 54 24 4C 8B 08 57 52 50 8B .N..V..T$L..WRP.
005C8B80 41 2C FF D0 89 46 FC 83 C7 01 83 C6 20 3B 7C 24 A,...F...... ;|$
005C8B90 14 0F 82 69 FF FF FF 8B 7C 24 20 83 C8 FF 85 DB ...i....|$ .....
005C8BA0 89 44 24 40 74 0F 01 43 04 75 0A 8B 13 8B 02 6A .D$@t..C.u.....j
005C8BB0 01 8B CB FF D0 8B C7 8B 4C 24 38 64 89 0D 00 00 ........L$8d....
005C8BC0 00 00 59 5F 5E 5D 5B 83 C4 30 C2 08 00 CC CC CC ..Y_^][..0......
005C8BD0 6A FF 68 C8 F4 85 00 64 A1 00 00 00 00 50 83 EC j.h....d.....P..
005C8BE0 34 53 55 56 57 A1 88 41 A1 00 33 C4 50 8D 44 24 4SUVW..A..3.P.D$
005C8BF0 48 64 A3 00 00 00 00 8B F1 89 74 24 24 E8 5E E4 Hd........t$$.^.
005C8C00 FF FF 83 C0 10 89 44 24 2C E8 52 E4 FF FF F3 0F ......D$,.R.....
005C8C10 10 40 50 33 ED F3 0F 11 44 24 28 33 DB 89 6C 24 .@P3....D$(3..l$
005C8C20 18 80 7E 09 00 89 5C 24 50 74 4E BE 04 00 00 00 ..~...\$PtN.....
005C8C30 E8 BB E8 FD FF 8D 4C 24 20 51 8B C8 E8 CF 9F E5 ......L$ Q......
005C8C40 FF 8B 00 3B C3 74 0E 8B E8 3B EB 89 6C 24 18 74 ...;.t...;..l$.t
005C8C50 04 83 45 04 01 8B 44 24 20 3B C3 C6 44 24 50 00 ..E...D$ ;..D$P.
005C8C60 74 67 83 40 04 FF 8B C8 83 C0 04 39 18 75 5A 8B tg.@.......9.uZ.
005C8C70 11 8B 02 6A 01 FF D0 EB 50 BE 02 00 00 00 E8 6D ...j....P......m
005C8C80 E8 FD FF 8D 4C 24 1C 51 8B C8 E8 31 A0 E5 FF 8B ....L$.Q...1....
005C8C90 00 3B C3 74 0E 8B E8 3B EB 89 6C 24 18 74 04 83 .;.t...;..l$.t..
005C8CA0 45 04 01 8B 44 24 1C 3B C3 C6 44 24 50 00 74 15 E...D$.;..D$P.t.
005C8CB0 83 40 04 FF 8B C8 83 C0 04 39 18 75 08 8B 11 8B .@.......9.u....
005C8CC0 02 6A 01 FF D0 89 5C 24 1C 33 FF 3B EB 0F 84 5B .j....\$.3.;...[
005C8CD0 01 00 00 8B 45 3C 3B F0 73 06 89 74 24 14 EB 06 ....E<;.s..t$...
005C8CE0 89 44 24 14 8B F0 3B F3 0F 86 40 01 00 00 E8 CD .D$...;...@.....
005C8CF0 F4 FF FF 8B C8 E8 36 F5 FF FF 3B F3 8B 7C 24 58 ......6...;..|$X
005C8D00 8B 4C 24 5C 89 78 08 89 B0 AC 00 00 00 89 88 B0 .L$\.x..........
005C8D10 00 00 00 89 44 24 20 0F 86 0D 01 00 00 8D 70 1C ....D$ .......p.
005C8D20 8B 44 24 5C 8B 17 8B 4A 2C 53 50 57 FF D1 85 C0 .D$\...J,SPW....
005C8D30 89 46 F0 0F 84 E1 00 00 00 8B 55 30 8D 3C 9D 00 .F........U0.<..
005C8D40 00 00 00 8B 04 17 F3 0F 10 68 38 F3 0F 10 40 3C .........h8...@<
005C8D50 8B 44 24 24 80 78 08 00 8B CA 8B 04 0F 74 3A 8B .D$$.x.......t:.
005C8D60 54 24 2C F3 0F 10 4C 24 28 52 83 C0 2C 50 8D 46 T$,...L$(R..,P.F
005C8D70 F4 F3 0F 59 E9 F3 0F 59 C1 50 F3 0F 11 6C 24 40 ...Y...Y.P...l$@
005C8D80 F3 0F 11 44 24 3C E8 45 DF 0C 00 F3 0F 10 44 24 ...D$<.E......D$
005C8D90 30 F3 0F 10 6C 24 34 EB 15 8B 50 2C 83 C0 2C 89 0...l$4...P,..,.
005C8DA0 56 F4 8B 48 04 89 4E F8 8B 50 08 89 56 FC 8B 45 V..H..N..P..V..E
005C8DB0 30 03 C7 8B 00 F3 0F 10 48 1C F3 0F 10 50 20 F3 0.......H....P .
005C8DC0 0F 10 58 24 F3 0F 10 60 28 8B 7C 24 58 F3 0F 11 ..X$...`(.|$X...
005C8DD0 4C 24 38 8B 44 24 38 F3 0F 10 0D 1C 79 8A 00 89 L$8.D$8.....y...
005C8DE0 06 F3 0F 11 54 24 3C 8B 4C 24 3C 89 4E 04 F3 0F ....T$<.L$<.N...
005C8DF0 11 5C 24 40 8B 54 24 40 F3 0F 11 64 24 44 8B 44 .\$@.T$@...d$D.D
005C8E00 24 44 89 56 08 89 46 0C F3 0F 11 46 10 F3 0F 5C $D.V..F....F...\
005C8E10 C5 F3 0F 5E C8 F3 0F 11 4E 14 83 C3 01 83 C6 28 ...^....N......(
005C8E20 3B 5C 24 14 0F 82 F6 FE FF FF 8B 7C 24 20 83 C8 ;\$........|$ ..
005C8E30 FF 85 ED 89 44 24 50 74 10 01 45 04 75 0B 8B 55 ....D$Pt..E.u..U
005C8E40 00 8B 02 6A 01 8B CD FF D0 8B C7 8B 4C 24 48 64 ...j........L$Hd
005C8E50 89 0D 00 00 00 00 59 5F 5E 5D 5B 83 C4 40 C2 08 ......Y_^][..@..
005C8E60 00 CC CC CC CC CC CC CC CC CC CC CC CC CC CC CC ................
005C8E70 6A FF 68 F8 F4 85 00 64 A1 00 00 00 00 50 83 EC j.h....d.....P..
005C8E80 44 53 55 56 57 A1 88 41 A1 00 33 C4 50 8D 44 24 DSUVW..A..3.P.D$
005C8E90 58 64 A3 00 00 00 00 89 4C 24 1C E8 C0 E1 FF FF Xd......L$......
005C8EA0 83 C0 10 89 44 24 14 E8 B4 E1 FF FF F3 0F 10 40 ....D$.........@
005C8EB0 50 F3 0F 11 44 24 20 33 ED 33 DB E8 30 E6 FD FF P...D$ 3.3..0...
005C8EC0 8D 4C 24 18 51 8B C8 E8 44 9D E5 FF 8B 7C 24 18 .L$.Q...D....|$.
005C8ED0 3B FD 89 6C 24 60 0F 84 C6 01 00 00 8B 77 50 83 ;..l$`.......wP.
005C8EE0 FE 02 76 05 BE 02 00 00 00 3B F5 0F 86 B1 01 00 ..v......;......
005C8EF0 00 E8 3A F4 FF FF 8B C8 E8 A3 F4 FF FF 8B 5C 24 ..:...........\$
005C8F00 68 8B 54 24 6C 89 70 7C 89 58 08 89 90 80 00 00 h.T$l.p|.X......
005C8F10 00 89 44 24 2C 8D 70 38 3B 6F 50 0F 83 7D 01 00 ..D$,.p8;oP..}..
005C8F20 00 8B 4C 24 6C 8B 03 8B 50 2C 55 51 53 FF D2 85 ..L$l...P,UQS...
005C8F30 C0 89 46 D4 0F 84 55 01 00 00 8B 47 44 8B 4C 24 ..F...U....GD.L$
005C8F40 1C 80 79 08 00 8D 1C AD 00 00 00 00 8B 04 03 F3 ..y.............
005C8F50 0F 10 68 54 F3 0F 10 40 58 75 34 8B 57 44 8B 04 ..hT...@Xu4.WD..
005C8F60 13 8B 48 3C 89 4E D8 8B 50 40 83 C0 3C 89 56 DC ..H<.N..P@..<.V.
005C8F70 8B 40 08 89 46 E0 8B 4F 44 8B 04 0B 8B 50 48 89 .@..F..OD....PH.
005C8F80 16 8B 48 4C 89 4E 04 8B 50 50 E9 80 00 00 00 8B ..HL.N..PP......
005C8F90 47 44 8B 4C 24 14 F3 0F 10 4C 24 20 03 C3 8B 00 GD.L$....L$ ....
005C8FA0 51 83 C0 3C 50 8D 54 24 38 F3 0F 59 E9 F3 0F 59 Q..<P.T$8..Y...Y
005C8FB0 C1 52 F3 0F 11 6C 24 34 F3 0F 11 44 24 30 E8 0D .R...l$4...D$0..
005C8FC0 DD 0C 00 8B 44 24 30 8B 4C 24 34 8B 54 24 38 89 ....D$0.L$4.T$8.
005C8FD0 46 D8 89 4E DC 8B 4C 24 14 89 56 E0 8B 47 44 03 F..N..L$..V..GD.
005C8FE0 C3 8B 00 51 83 C0 48 50 8D 54 24 44 52 E8 E4 DC ...Q..HP.T$DR...
005C8FF0 0C 00 8B 44 24 3C 8B 4C 24 40 8B 54 24 44 F3 0F ...D$<.L$@.T$D..
005C9000 10 44 24 24 F3 0F 10 6C 24 28 89 06 89 4E 04 89 .D$$...l$(...N..
005C9010 56 08 8B 47 44 03 C3 8B 00 F3 0F 10 48 2C F3 0F V..GD.......H,..
005C9020 10 50 30 F3 0F 10 58 34 F3 0F 10 60 38 F3 0F 11 .P0...X4...`8...
005C9030 4C 24 48 8B 44 24 48 89 46 E4 F3 0F 11 54 24 4C L$H.D$H.F....T$L
005C9040 8B 4C 24 4C F3 0F 10 15 1C 79 8A 00 89 4E E8 F3 .L$L.....y...N..
005C9050 0F 11 5C 24 50 8B 54 24 50 89 56 EC F3 0F 11 64 ..\$P.T$P.V....d
005C9060 24 54 8B 44 24 54 89 46 F0 8B 4F 44 8B 1C 0B F3 $T.D$T.F..OD....
005C9070 0F 10 4B 28 8B 5C 24 68 F3 0F 11 46 F4 F3 0F 5C ..K(.\$h...F...\
005C9080 C5 F3 0F 5E D0 F3 0F 11 56 F8 F3 0F 11 4E FC 83 ...^....V....N..
005C9090 C5 01 83 C6 38 83 FD 02 0F 8C 7A FE FF FF 8B 5C ....8.....z....\
005C90A0 24 2C 83 C8 FF 85 FF 89 44 24 60 74 0F 01 47 04 $,......D$`t..G.
005C90B0 75 0A 8B 17 8B 02 6A 01 8B CF FF D0 8B C3 8B 4C u.....j........L
005C90C0 24 58 64 89 0D 00 00 00 00 59 5F 5E 5D 5B 83 C4 $Xd......Y_^][..
005C90D0 50 C2 08 00 CC CC CC CC CC CC CC CC CC CC CC CC P...............
005C90E0 6A FF 68 28 F5 85 00 64 A1 00 00 00 00 50 51 53 j.h(...d.....PQS
005C90F0 56 57 A1 88 41 A1 00 33 C4 50 8D 44 24 14 64 A3 VW..A..3.P.D$.d.
005C9100 00 00 00 00 E8 E7 E3 FD FF 8D 4C 24 10 51 8B C8 ..........L$.Q..
005C9110 E8 FB 9A E5 FF 8B 74 24 10 33 FF 3B F7 89 7C 24 ......t$.3.;..|$
005C9120 1C 74 4F 8B 5E 28 E8 75 F3 FF FF 8B C8 E8 DE F3 .tO.^(.u........
005C9130 FF FF 8B 54 24 24 8B F8 8B 44 24 28 89 47 0C 83 ...T$$...D$(.G..
005C9140 C8 FF 89 57 08 89 5F 10 01 46 04 89 44 24 1C 75 ...W.._..F..D$.u
005C9150 0A 8B 16 8B 02 6A 01 8B CE FF D0 8B C7 8B 4C 24 .....j........L$
005C9160 14 64 89 0D 00 00 00 00 59 5F 5E 5B 83 C4 10 C2 .d......Y_^[....
005C9170 08 00 E8 29 F3 FF FF 8B C8 E8 92 F3 FF FF 8B 4C ...)...........L
005C9180 24 24 8B 54 24 28 89 48 08 89 50 0C 89 78 10 8B $$.T$(.H..P..x..
005C9190 4C 24 14 64 89 0D 00 00 00 00 59 5F 5E 5B 83 C4 L$.d......Y_^[..
005C91A0 10 C2 08 00 CC CC CC CC CC CC CC CC CC CC CC CC ................
005C91B0 6A FF 68 58 F5 85 00 64 A1 00 00 00 00 50 51 53 j.hX...d.....PQS
005C91C0 56 57 A1 88 41 A1 00 33 C4 50 8D 44 24 14 64 A3 VW..A..3.P.D$.d.
005C91D0 00 00 00 00 E8 17 E3 FD FF 8D 4C 24 10 51 8B C8 ..........L$.Q..
005C91E0 E8 2B 9A E5 FF 8B 74 24 10 33 FF 3B F7 89 7C 24 .+....t$.3.;..|$
005C91F0 1C 74 4F 8B 5E 3C E8 A5 F2 FF FF 8B C8 E8 0E F3 .tO.^<..........
005C9200 FF FF 8B 54 24 24 8B F8 8B 44 24 28 89 47 0C 83 ...T$$...D$(.G..
005C9210 C8 FF 89 57 08 89 5F 10 01 46 04 89 44 24 1C 75 ...W.._..F..D$.u
005C9220 0A 8B 16 8B 02 6A 01 8B CE FF D0 8B C7 8B 4C 24 .....j........L$
005C9230 14 64 89 0D 00 00 00 00 59 5F 5E 5B 83 C4 10 C2 .d......Y_^[....
005C9240 08 00 E8 59 F2 FF FF 8B C8 E8 C2 F2 FF FF 8B 4C ...Y...........L
005C9250 24 24 8B 54 24 28 89 48 08 89 50 0C 89 78 10 8B $$.T$(.H..P..x..
005C9260 4C 24 14 64 89 0D 00 00 00 00 59 5F 5E 5B 83 C4 L$.d......Y_^[..
005C9270 10 C2 08 00 CC CC CC CC CC CC CC CC CC CC CC CC ................
005C9280 6A FF 68 88 F5 85 00 64 A1 00 00 00 00 50 51 53 j.h....d.....PQS
005C9290 56 57 A1 88 41 A1 00 33 C4 50 8D 44 24 14 64 A3 VW..A..3.P.D$.d.
005C92A0 00 00 00 00 E8 47 E2 FD FF 8D 4C 24 10 51 8B C8 .....G....L$.Q..
005C92B0 E8 5B 99 E5 FF 8B 74 24 10 33 FF 3B F7 89 7C 24 .[....t$.3.;..|$
005C92C0 1C 74 4F 8B 5E 50 E8 D5 F1 FF FF 8B C8 E8 3E F2 .tO.^P........>.
005C92D0 FF FF 8B 54 24 24 8B F8 8B 44 24 28 89 47 0C 83 ...T$$...D$(.G..
005C92E0 C8 FF 89 57 08 89 5F 10 01 46 04 89 44 24 1C 75 ...W.._..F..D$.u
005C92F0 0A 8B 16 8B 02 6A 01 8B CE FF D0 8B C7 8B 4C 24 .....j........L$
005C9300 14 64 89 0D 00 00 00 00 59 5F 5E 5B 83 C4 10 C2 .d......Y_^[....
005C9310 08 00 E8 89 F1 FF FF 8B C8 E8 F2 F1 FF FF 8B 4C ...............L
005C9320 24 24 8B 54 24 28 89 48 08 89 50 0C 89 78 10 8B $$.T$(.H..P..x..
005C9330 4C 24 14 64 89 0D 00 00 00 00 59 5F 5E 5B 83 C4 L$.d......Y_^[..
005C9340 10 C2 08 00 CC CC CC CC CC CC CC CC CC CC CC CC ................
005C9350 6A FF 68 B8 F5 85 00 64 A1 00 00 00 00 50 51 53 j.h....d.....PQS
005C9360 56 57 A1 88 41 A1 00 33 C4 50 8D 44 24 14 64 A3 VW..A..3.P.D$.d.
005C9370 00 00 00 00 E8 77 E1 FD FF 8D 4C 24 10 51 8B C8 .....w....L$.Q..
005C9380 E8 3B 99 E5 FF 8B 74 24 10 33 FF 3B F7 89 7C 24 .;....t$.3.;..|$
005C9390 1C 74 4F 8B 5E 28 E8 05 F1 FF FF 8B C8 E8 6E F1 .tO.^(........n.
005C93A0 FF FF 8B 54 24 24 8B F8 8B 44 24 28 89 47 0C 83 ...T$$...D$(.G..
005C93B0 C8 FF 89 57 08 89 5F 10 01 46 04 89 44 24 1C 75 ...W.._..F..D$.u
005C93C0 0A 8B 16 8B 02 6A 01 8B CE FF D0 8B C7 8B 4C 24 .....j........L$
005C93D0 14 64 89 0D 00 00 00 00 59 5F 5E 5B 83 C4 10 C2 .d......Y_^[....
005C93E0 08 00 E8 B9 F0 FF FF 8B C8 E8 22 F1 FF FF 8B 4C .........."....L
005C93F0 24 24 8B 54 24 28 89 48 08 89 50 0C 89 78 10 8B $$.T$(.H..P..x..
005C9400 4C 24 14 64 89 0D 00 00 00 00 59 5F 5E 5B 83 C4 L$.d......Y_^[..
005C9410 10 C2 08 00 CC CC CC CC CC CC CC CC CC CC CC CC ................
005C9420 6A FF 68 E8 F5 85 00 64 A1 00 00 00 00 50 51 53 j.h....d.....PQS
005C9430 56 57 A1 88 41 A1 00 33 C4 50 8D 44 24 14 64 A3 VW..A..3.P.D$.d.
005C9440 00 00 00 00 E8 A7 E0 FD FF 8D 4C 24 10 51 8B C8 ..........L$.Q..
005C9450 E8 6B 98 E5 FF 8B 74 24 10 33 FF 3B F7 89 7C 24 .k....t$.3.;..|$
005C9460 1C 74 4F 8B 5E 3C E8 35 F0 FF FF 8B C8 E8 9E F0 .tO.^<.5........
005C9470 FF FF 8B 54 24 24 8B F8 8B 44 24 28 89 47 0C 83 ...T$$...D$(.G..
005C9480 C8 FF 89 57 08 89 5F 10 01 46 04 89 44 24 1C 75 ...W.._..F..D$.u
005C9490 0A 8B 16 8B 02 6A 01 8B CE FF D0 8B C7 8B 4C 24 .....j........L$
005C94A0 14 64 89 0D 00 00 00 00 59 5F 5E 5B 83 C4 10 C2 .d......Y_^[....
005C94B0 08 00 E8 E9 EF FF FF 8B C8 E8 52 F0 FF FF 8B 4C ..........R....L
005C94C0 24 24 8B 54 24 28 89 48 08 89 50 0C 89 78 10 8B $$.T$(.H..P..x..
005C94D0 4C 24 14 64 89 0D 00 00 00 00 59 5F 5E 5B 83 C4 L$.d......Y_^[..
005C94E0 10 C2 08 00 CC CC CC CC CC CC CC CC CC CC CC CC ................
005C94F0 56 8B 74 24 08 57 8B 7C 24 10 3B F7 74 10 8B FF V.t$.W.|$.;.t...
005C9500 8B CE E8 D9 AB FF FF 83 C6 18 3B F7 75 F2 5F 5E ..........;.u._^
005C9510 C2 08 00 CC CC CC CC CC CC CC CC CC CC CC CC CC ................
005C9520 53 8B D9 56 8B 73 04 85 F6 74 23 57 8B 7B 08 3B S..V.s...t#W.{.;
005C9530 F7 74 0E 8B CE E8 A6 AB FF FF 83 C6 18 3B F7 75 .t...........;.u
005C9540 F2 8B 43 04 50 E8 7C BA 0C 00 83 C4 04 5F 5E C7 ..C.P.|......_^.
005C9550 43 04 00 00 00 00 C7 43 08 00 00 00 00 C7 43 0C C......C......C.
005C9560 00 00 00 00 5B C3 CC CC CC CC CC CC CC CC CC CC ....[...........
005C9570 6A FF 68 1B F6 85 00 64 A1 00 00 00 00 50 51 56 j.h....d.....PQV
005C9580 57 A1 88 41 A1 00 33 C4 50 8D 44 24 10 64 A3 00 W..A..3.P.D$.d..
005C9590 00 00 00 8B F1 89 74 24 0C 33 FF 8D 4E 14 89 7C ......t$.3..N..|
005C95A0 24 18 E8 79 FF FF FF 8B 46 08 83 C6 04 3B C7 C7 $..y....F....;..
005C95B0 44 24 18 FF FF FF FF 74 1C 8B 4C 24 0C 8B 56 08 D$.....t..L$..V.
005C95C0 51 56 52 50 E8 B7 06 E4 FF 8B 46 04 50 E8 F4 B9 QVRP......F.P...
005C95D0 0C 00 83 C4 14 89 7E 04 89 7E 08 89 7E 0C 8B 4C ......~..~..~..L
005C95E0 24 10 64 89 0D 00 00 00 00 59 5F 5E 83 C4 10 C3 $.d......Y_^....
005C95F0 56 57 8B F9 8B 37 85 F6 74 11 8B CE E8 6F FF FF VW...7..t....o..
005C9600 FF 56 FF 15 28 46 8A 00 83 C4 04 83 7F 5C 00 74 .V..(F.......\.t
005C9610 21 8B 47 5C 85 C0 8D 77 58 74 17 8B 08 8B 51 08 !.G\...wXt....Q.
005C9620 50 FF D2 8B 06 8B 10 8B CE C7 46 04 00 00 00 00 P.........F.....
005C9630 FF D2 8B 47 64 8B 48 04 8D 77 60 51 8B CE E8 FD ...Gd.H..w`Q....
005C9640 A5 FF FF 8B 46 04 89 40 04 8B 46 04 C7 46 08 00 ....F..@..F..F..
005C9650 00 00 00 89 00 8B 76 04 5F 89 76 08 5E C3 CC CC ......v._.v.^...
005C9660 D9 44 24 04 DC 0D 68 A5 8B 00 E8 07 BA 0C 00 01 .D$...h.........
005C9670 05 60 64 A6 00 11 15 64 64 A6 00 C3 CC CC CC CC .`d....dd.......
005C9680 8D 41 08 C3 CC CC CC CC CC CC CC CC CC CC CC CC .A..............
005C9690 83 EC 08 56 8B F1 E8 55 DE FD FF 8B 80 18 02 00 ...V...U........
005C96A0 00 39 46 44 89 46 44 0F 94 C1 33 C0 3A C8 75 77 .9FD.FD...3.:.uw
005C96B0 8B 0D 60 64 A6 00 2B 4E 38 8B 15 64 64 A6 00 1B ..`d..+N8..dd...
005C96C0 56 3C 89 4C 24 04 89 54 24 08 DF 6C 24 04 C7 44 V<.L$..T$..l$..D
005C96D0 24 04 E8 03 00 00 89 44 24 08 DF 6C 24 04 DE F9 $......D$..l$...
005C96E0 D8 4E 34 D8 46 40 D9 5E 40 8B 0D 60 64 A6 00 89 .N4.F@.^@..`d...
005C96F0 4E 38 8B 15 64 64 A6 00 89 56 3C 8B 4E 28 3B C8 N8..dd...V<.N(;.
005C9700 74 08 8B 46 2C 2B C1 C1 F8 02 85 C0 D9 46 40 89 t..F,+.......F@.
005C9710 44 24 04 DB 44 24 04 7D 06 D8 05 98 8B 8A 00 E8 D$..D$.}........
005C9720 06 BB 0C 00 D9 5E 40 5E 83 C4 08 C3 CC CC CC CC .....^@^........
005C9730 6A FF 68 49 F6 85 00 64 A1 00 00 00 00 50 83 EC j.hI...d.....P..
005C9740 44 A1 88 41 A1 00 33 C4 50 8D 44 24 48 64 A3 00 D..A..3.P.D$Hd..
005C9750 00 00 00 68 98 69 8A 00 8D 4C 24 08 FF 15 34 43 ...h.i...L$...4C
005C9760 8A 00 8D 44 24 04 50 8D 4C 24 24 C7 44 24 54 00 ...D$.P.L$$.D$T.
005C9770 00 00 00 E8 68 82 E3 FF 68 68 9C 99 00 8D 4C 24 ....h...hh....L$
005C9780 24 51 C7 44 24 28 30 00 99 00 E8 3D B8 0C 00 CC $Q.D$(0....=....
005C9790 51 53 55 56 57 8B F9 8B 5F 28 8B 57 2C 33 ED 3B QSUVW..._(.W,3.;
005C97A0 DA 8B F3 89 54 24 10 74 3E 8D A4 24 00 00 00 00 ....T$.t>..$....
005C97B0 3B DE 8B C3 74 13 8B 0E 39 08 74 09 83 C0 04 3B ;...t...9.t....;
005C97C0 C6 75 F5 EB 04 3B C6 75 17 8B 0E 8B 01 8B 50 04 .u...;.u......P.
005C97D0 FF D2 50 8B CF E8 16 E7 02 00 8B 54 24 10 03 E8 ..P........T$...
005C97E0 83 C6 04 3B F2 75 C9 5F 5E 8B C5 5D 5B 59 C3 CC ...;.u._^..][Y..
005C97F0 6A FF 68 78 F6 85 00 64 A1 00 00 00 00 50 83 EC j.hx...d.....P..
005C9800 0C 56 57 A1 88 41 A1 00 33 C4 50 8D 44 24 18 64 .VW..A..3.P.D$.d
005C9810 A3 00 00 00 00 8B F1 E8 74 FE FF FF D9 46 40 8B ........t....F@.
005C9820 56 28 D9 7C 24 0E 0F B7 44 24 0E 0D 00 0C 00 00 V(.|$...D$......
005C9830 85 D2 89 44 24 10 C7 44 24 20 00 00 00 00 D9 6C ...D$..D$ .....l
005C9840 24 10 DF 7C 24 10 8B 4C 24 10 D9 6C 24 0E 74 5F $..|$..L$..l$.t_
005C9850 8B 46 2C 2B C2 C1 F8 02 3B C8 73 53 8B C2 8B 34 .F,+....;.sS...4
005C9860 88 85 F6 8D 04 88 74 47 8B CE 89 74 24 10 E8 5D ......tG...t$..]
005C9870 82 E3 FF 8B 16 8B 42 04 8B CE FF D0 8B CE 8B F8 ......B.........
005C9880 C7 44 24 20 FF FF FF FF E8 53 82 E3 FF 83 F8 01 .D$ .....S......
005C9890 75 09 8B 16 50 8B 02 8B CE FF D0 8B C7 8B 4C 24 u...P.........L$
005C98A0 18 64 89 0D 00 00 00 00 59 5F 5E 83 C4 18 C3 33 .d......Y_^....3
005C98B0 C0 8B 4C 24 18 64 89 0D 00 00 00 00 59 5F 5E 83 ..L$.d......Y_^.
005C98C0 C4 18 C3 CC CC CC CC CC CC CC CC CC CC CC CC CC ................
005C98D0 6A FF 68 A8 F6 85 00 64 A1 00 00 00 00 50 83 EC j.h....d.....P..
005C98E0 0C 56 57 A1 88 41 A1 00 33 C4 50 8D 44 24 18 64 .VW..A..3.P.D$.d
005C98F0 A3 00 00 00 00 D9 41 40 8B 71 28 D9 7C 24 0E 0F ......A@.q(.|$..
005C9900 B7 44 24 0E 0D 00 0C 00 00 85 F6 89 44 24 10 C7 .D$.........D$..
005C9910 44 24 20 00 00 00 00 D9 6C 24 10 DF 7C 24 10 8B D$ .....l$..|$..
005C9920 54 24 10 D9 6C 24 0E 74 5F 8B 41 2C 2B C6 C1 F8 T$..l$.t_.A,+...
005C9930 02 3B D0 73 53 8B C6 8B 34 90 85 F6 8D 04 90 74 .;.sS...4......t
005C9940 47 8B CE 89 74 24 10 E8 84 81 E3 FF 8B 16 8B 42 G...t$.........B
005C9950 08 8B CE FF D0 8B CE 8B F8 C7 44 24 20 FF FF FF ..........D$ ...
005C9960 FF E8 7A 81 E3 FF 83 F8 01 75 09 8B 16 50 8B 02 ..z......u...P..
005C9970 8B CE FF D0 8B C7 8B 4C 24 18 64 89 0D 00 00 00 .......L$.d.....
005C9980 00 59 5F 5E 83 C4 18 C3 33 C0 8B 4C 24 18 64 89 .Y_^....3..L$.d.
005C9990 0D 00 00 00 00 59 5F 5E 83 C4 18 C3 CC CC CC CC .....Y_^........
005C99A0 6A FF 68 D8 F6 85 00 64 A1 00 00 00 00 50 83 EC j.h....d.....P..
005C99B0 0C 56 57 A1 88 41 A1 00 33 C4 50 8D 44 24 18 64 .VW..A..3.P.D$.d
005C99C0 A3 00 00 00 00 D9 41 40 8B 71 28 D9 7C 24 0E 0F ......A@.q(.|$..
005C99D0 B7 44 24 0E 0D 00 0C 00 00 85 F6 89 44 24 10 C7 .D$.........D$..
005C99E0 44 24 20 00 00 00 00 D9 6C 24 10 DF 7C 24 10 8B D$ .....l$..|$..
005C99F0 54 24 10 D9 6C 24 0E 74 5F 8B 41 2C 2B C6 C1 F8 T$..l$.t_.A,+...
005C9A00 02 3B D0 73 53 8B C6 8B 34 90 85 F6 8D 04 90 74 .;.sS...4......t
005C9A10 47 8B CE 89 74 24 10 E8 B4 80 E3 FF 8B 16 8B 42 G...t$.........B
005C9A20 0C 8B CE FF D0 8B CE 8B F8 C7 44 24 20 FF FF FF ..........D$ ...
005C9A30 FF E8 AA 80 E3 FF 83 F8 01 75 09 8B 16 50 8B 02 .........u...P..
005C9A40 8B CE FF D0 8B C7 8B 4C 24 18 64 89 0D 00 00 00 .......L$.d.....
005C9A50 00 59 5F 5E 83 C4 18 C3 33 C0 8B 4C 24 18 64 89 .Y_^....3..L$.d.
005C9A60 0D 00 00 00 00 59 5F 5E 83 C4 18 C3 CC CC CC CC .....Y_^........
005C9A70 6A FF 68 08 F7 85 00 64 A1 00 00 00 00 50 83 EC j.h....d.....P..
005C9A80 0C 56 57 A1 88 41 A1 00 33 C4 50 8D 44 24 18 64 .VW..A..3.P.D$.d
005C9A90 A3 00 00 00 00 D9 41 40 8B 71 28 D9 7C 24 0E 0F ......A@.q(.|$..
005C9AA0 B7 44 24 0E 0D 00 0C 00 00 85 F6 89 44 24 10 C7 .D$.........D$..
005C9AB0 44 24 20 00 00 00 00 D9 6C 24 10 DF 7C 24 10 8B D$ .....l$..|$..
005C9AC0 54 24 10 D9 6C 24 0E 74 5F 8B 41 2C 2B C6 C1 F8 T$..l$.t_.A,+...
005C9AD0 02 3B D0 73 53 8B C6 8B 34 90 85 F6 8D 04 90 74 .;.sS...4......t
005C9AE0 47 8B CE 89 74 24 10 E8 E4 7F E3 FF 8B 16 8B 42 G...t$.........B
005C9AF0 10 8B CE FF D0 8B CE 8B F8 C7 44 24 20 FF FF FF ..........D$ ...
005C9B00 FF E8 DA 7F E3 FF 83 F8 01 75 09 8B 16 50 8B 02 .........u...P..
005C9B10 8B CE FF D0 8B C7 8B 4C 24 18 64 89 0D 00 00 00 .......L$.d.....
005C9B20 00 59 5F 5E 83 C4 18 C3 33 C0 8B 4C 24 18 64 89 .Y_^....3..L$.d.
005C9B30 0D 00 00 00 00 59 5F 5E 83 C4 18 C3 CC CC CC CC .....Y_^........
