;;; Segment .text (00401000)

;; fn00721290: 00721290
;;   Called from:
;;     006EAA32 (in fn006EA9D0)
;;     0073D704 (in fn0073D660)
fn00721290 proc
	push	ebx
	push	esi
	mov	esi,[esp+0Ch]
	mov	eax,[esi+4h]
	cmp	eax,0A23B20h
	push	edi
	jnz	7212A6h

l007212A1:
	add	dword ptr [esi],1h
	jmp	7212DBh

l007212A6:
	push	0A23B20h
	push	eax
	call	6D5670h
	add	esp,8h
	test	eax,eax
	jnz	7212C9h

l007212B8:
	push	8D1DC8h
	push	eax
	push	esi
	call	720070h
	add	esp,0Ch
	jmp	7212D9h

l007212C9:
	mov	eax,[esi+8h]
	mov	ecx,[esi+0Ch]
	push	eax
	push	ecx
	call	717A20h
	add	esp,8h

l007212D9:
	mov	esi,eax

l007212DB:
	test	esi,esi
	jz	721368h

l007212E3:
	mov	edx,[esp+14h]
	push	edx
	call	7203E0h
	mov	edi,eax
	add	esp,4h
	test	edi,edi
	jz	721342h

l007212F6:
	mov	eax,[0A6DBB4h]
	cmp	edi,eax
	jnz	721316h

l007212FF:
	add	dword ptr [edi],0FFh
	jnz	721310h

l00721304:
	mov	eax,[edi+4h]
	mov	ecx,[eax+18h]
	push	edi
	call	ecx
	add	esp,4h

l00721310:
	pop	edi
	mov	eax,esi
	pop	esi
	pop	ebx
	ret

l00721316:
	cmp	esi,eax
	jnz	721331h

l0072131A:
	add	dword ptr [esi],0FFh
	jnz	72132Bh

l0072131F:
	mov	edx,[esi+4h]
	mov	eax,[edx+18h]
	push	esi
	call	eax
	add	esp,4h

l0072132B:
	mov	eax,edi
	pop	edi
	pop	esi
	pop	ebx
	ret

l00721331:
	mov	eax,[edi+8h]
	add	eax,[esi+8h]
	call	717740h
	mov	ebx,eax
	test	ebx,ebx
	jnz	72136Eh

l00721342:
	add	dword ptr [esi],0FFh
	jnz	721353h

l00721347:
	mov	ecx,[esi+4h]
	mov	edx,[ecx+18h]
	push	esi
	call	edx
	add	esp,4h

l00721353:
	test	edi,edi
	jz	721368h

l00721357:
	add	dword ptr [edi],0FFh
	jnz	721368h

l0072135C:
	mov	eax,[edi+4h]
	mov	ecx,[eax+18h]
	push	edi
	call	ecx
	add	esp,4h

l00721368:
	pop	edi
	pop	esi
	xor	eax,eax
	pop	ebx
	ret

l0072136E:
	mov	eax,[esi+8h]
	mov	ecx,[ebx+0Ch]
	mov	edx,[esi+0Ch]
	add	eax,eax
	cmp	eax,10h
	push	ebp
	jc	72138Ch

l0072137F:
	push	eax
	push	edx
	push	ecx
	call	695030h
	add	esp,0Ch
	jmp	7213A1h

l0072138C:
	test	eax,eax
	jbe	7213A1h

l00721390:
	sub	edx,ecx
	mov	ebp,eax

l00721394:
	mov	al,[edx+ecx]
	mov	[ecx],al
	add	ecx,1h
	sub	ebp,1h
	jnz	721394h

l007213A1:
	mov	eax,[edi+8h]
	mov	edx,[ebx+0Ch]
	mov	ecx,[esi+8h]
	add	eax,eax
	cmp	eax,10h
	lea	ecx,[edx+ecx*2]
	mov	edx,[edi+0Ch]
	jc	7213C4h

l007213B7:
	push	eax
	push	edx
	push	ecx
	call	695030h
	add	esp,0Ch
	jmp	7213DDh

l007213C4:
	test	eax,eax
	jbe	7213DDh

l007213C8:
	sub	edx,ecx
	mov	ebp,eax
	lea	esp,[esp+0h]

l007213D0:
	mov	al,[edx+ecx]
	mov	[ecx],al
	add	ecx,1h
	sub	ebp,1h
	jnz	7213D0h

l007213DD:
	add	dword ptr [esi],0FFh
	pop	ebp
	jnz	7213EFh

l007213E3:
	mov	ecx,[esi+4h]
	mov	edx,[ecx+18h]
	push	esi
	call	edx
	add	esp,4h

l007213EF:
	add	dword ptr [edi],0FFh
	jnz	721400h

l007213F4:
	mov	eax,[edi+4h]
	mov	ecx,[eax+18h]
	push	edi
	call	ecx
	add	esp,4h

l00721400:
	pop	edi
	pop	esi
	mov	eax,ebx
	pop	ebx
	ret
00721406                   CC CC CC CC CC CC CC CC CC CC       ..........
00721410 83 EC 0C 8D 04 24 50 8B 44 24 18 68 70 7D 70 00 .....$P.D$.hp}p.
00721420 8D 4C 24 0C 51 68 70 7D 70 00 8D 54 24 18 52 68 .L$.Qhp}p..T$.Rh
00721430 D0 49 8D 00 50 C7 44 24 20 00 00 00 00 C7 44 24 .I..P.D$ .....D$
00721440 1C FF FF FF 7F E8 66 68 FC FF 83 C4 1C 85 C0 75 ......fh.......u
00721450 06 33 C0 83 C4 0C C3 8B 4C 24 08 51 E8 7F EF FF .3......L$.Q....
00721460 FF 83 C4 04 85 C0 89 44 24 08 74 E5 56 8B 74 24 .......D$.t.V.t$
00721470 08 85 F6 57 8B 7C 24 18 7D 0F 03 77 08 89 74 24 ...W.|$.}..w..t$
00721480 0C 79 06 33 F6 89 74 24 0C 8B 57 08 8B 4C 24 08 .y.3..t$..W..L$.
00721490 3B CA 7E 06 8B CA 89 4C 24 08 85 C9 7D 0E 03 CA ;.~....L$...}...
007214A0 89 4C 24 08 79 06 33 C9 89 4C 24 08 8B 50 08 2B .L$.y.3..L$..P.+
007214B0 CE 85 D2 75 09 85 C9 7C 1C 8D 41 01 EB 19 6A 00 ...u...|..A...j.
007214C0 52 8B 50 0C 8B 47 0C 52 8D 14 70 52 E8 BF B4 FF R.P..G.R..pR....
007214D0 FF 85 C0 7D 02 33 C0 50 E8 43 3C FE FF 8B F0 8B ...}.3.P.C<.....
007214E0 44 24 14 83 00 FF 8B 44 24 14 83 C4 04 83 38 00 D$.....D$.....8.
007214F0 75 0C 8B 48 04 8B 51 18 50 FF D2 83 C4 04 5F 8B u..H..Q.P....._.
00721500 C6 5E 83 C4 0C C3 CC CC CC CC CC CC CC CC CC CC .^..............
00721510 83 EC 0C 8D 44 24 08 50 8B 44 24 18 68 70 7D 70 ....D$.P.D$.hp}p
00721520 00 8D 4C 24 0C 51 68 70 7D 70 00 8D 54 24 10 52 ..L$.Qhp}p..T$.R
00721530 68 BC 9A 8D 00 50 C7 44 24 20 00 00 00 00 C7 44 h....P.D$ .....D
00721540 24 24 FF FF FF 7F E8 65 67 FC FF 83 C4 1C 85 C0 $$.....eg.......
00721550 75 04 83 C4 0C C3 8B 0C 24 56 51 E8 80 EE FF FF u.......$VQ.....
00721560 8B F0 83 C4 04 85 F6 89 74 24 04 75 05 5E 83 C4 ........t$.u.^..
00721570 0C C3 8B 54 24 08 8B 46 0C 8B 4C 24 14 57 52 8B ...T$..F..L$.WR.
00721580 51 0C 8B 49 08 50 8B 44 24 18 52 8B 56 08 E8 4D Q..I.P.D$.R.V..M
00721590 B6 FF FF 83 06 FF 8B F8 8B 44 24 08 83 38 00 75 .........D$..8.u
007215A0 0C 8B 48 04 8B 51 18 50 FF D2 83 C4 04 57 E8 6D ..H..Q.P.....W.m
007215B0 3B FE FF 83 C4 04 5F 5E 83 C4 0C C3 CC CC CC CC ;....._^........
007215C0 83 EC 0C 8D 44 24 08 50 8B 44 24 18 68 70 7D 70 ....D$.P.D$.hp}p
007215D0 00 8D 4C 24 0C 51 68 70 7D 70 00 8D 54 24 10 52 ..L$.Qhp}p..T$.R
007215E0 68 24 52 8D 00 50 C7 44 24 20 00 00 00 00 C7 44 h$R..P.D$ .....D
007215F0 24 24 FF FF FF 7F E8 B5 66 FC FF 83 C4 1C 85 C0 $$......f.......
00721600 75 04 83 C4 0C C3 8B 0C 24 56 51 E8 D0 ED FF FF u.......$VQ.....
00721610 8B F0 83 C4 04 85 F6 89 74 24 04 75 05 5E 83 C4 ........t$.u.^..
00721620 0C C3 8B 54 24 08 8B 46 0C 8B 4C 24 14 57 52 8B ...T$..F..L$.WR.
00721630 51 0C 8B 49 08 50 8B 44 24 18 52 8B 56 08 E8 9D Q..I.P.D$.R.V...
00721640 B5 FF FF 83 06 FF 8B F8 8B 44 24 08 83 38 00 75 .........D$..8.u
00721650 0C 8B 48 04 8B 51 18 50 FF D2 83 C4 04 85 FF 7D ..H..Q.P.......}
00721660 1B A1 2C 7E A1 00 68 BC 49 8D 00 50 E8 0F F9 FB ..,~..h.I..P....
00721670 FF 83 C4 08 5F 33 C0 5E 83 C4 0C C3 57 E8 9E 3A ...._3.^....W..:
00721680 FE FF 83 C4 04 5F 5E 83 C4 0C C3 CC CC CC CC CC ....._^.........
00721690 E9 DB F0 FF FF CC CC CC CC CC CC CC CC CC CC CC ................
007216A0 83 EC 08 8B 54 24 10 8D 04 24 50 68 10 0E 72 00 ....T$...$Ph..r.
007216B0 8D 4C 24 0C 51 68 C8 9A 8D 00 52 C7 44 24 14 20 .L$.Qh....R.D$. 
007216C0 00 00 00 E8 E8 65 FC FF 83 C4 14 85 C0 75 04 83 .....e.......u..
007216D0 C4 08 C3 8B 44 24 04 53 8B 5C 24 10 8B 4B 08 3B ....D$.S.\$..K.;
007216E0 C8 7C 13 81 7B 04 20 3B A2 00 75 0A 83 03 01 8B .|..{. ;..u.....
007216F0 C3 5B 83 C4 08 C3 8B 54 24 04 2B C1 52 50 33 C0 .[.....T$.+.RP3.
00721700 E8 AB BB FF FF 83 C4 08 5B 83 C4 08 C3 CC CC CC ........[.......
00721710 51 56 8B F0 8B 0C B5 F4 18 A2 00 8D 44 24 04 50 QV..........D$.P
00721720 51 52 C7 44 24 10 00 00 00 00 E8 81 65 FC FF 83 QR.D$.......e...
00721730 C4 0C 85 C0 74 7D 8B 44 24 04 85 C0 0F 84 C7 00 ....t}.D$.......
00721740 00 00 3D B8 63 A1 00 0F 84 BC 00 00 00 81 78 04 ..=.c.........x.
00721750 20 3B A2 00 0F 84 A1 00 00 00 8B 40 04 68 20 3B  ;.........@.h ;
00721760 A2 00 50 E8 08 3F FB FF 83 C4 08 85 C0 8B 44 24 ..P..?........D$
00721770 04 0F 85 84 00 00 00 81 78 04 50 B4 A1 00 74 3C ........x.P...t<
00721780 8B 48 04 68 50 B4 A1 00 51 E8 E2 3E FB FF 83 C4 .H.hP...Q..>....
00721790 08 85 C0 75 23 8B 14 B5 F4 18 A2 00 A1 7C 6B A1 ...u#........|k.
007217A0 00 83 C2 03 52 68 D4 9A 8D 00 50 E8 20 FE FB FF ....Rh....P. ...
007217B0 83 C4 0C 33 C0 5E 59 C3 8B 44 24 04 50 E8 1E EC ...3.^Y..D$.P...
007217C0 FF FF 83 C4 04 85 C0 89 44 24 04 74 E6 50 56 57 ........D$.t.PVW
007217D0 E8 BB D5 FF FF 8B F0 8B 44 24 10 83 00 FF 8B 44 ........D$.....D
007217E0 24 10 83 C4 0C 83 38 00 75 0C 8B 48 04 8B 51 18 $.....8.u..H..Q.
007217F0 50 FF D2 83 C4 04 8B C6 5E 59 C3 50 56 57 E8 8D P.......^Y.PVW..
00721800 D5 FF FF 83 C4 0C 5E 59 C3 56 57 E8 B0 D6 FF FF ......^Y.VW.....
00721810 83 C4 08 5E 59 C3 CC CC CC CC CC CC CC CC CC CC ...^Y...........
00721820 8B 54 24 08 83 7A 08 00 75 0D C7 44 24 08 02 00 .T$..z..u..D$...
00721830 00 00 E9 89 D6 FF FF 57 8B 7C 24 08 B8 02 00 00 .......W.|$.....
00721840 00 E8 CA FE FF FF 5F C3 CC CC CC CC CC CC CC CC ......_.........
00721850 8B 54 24 08 83 7A 08 00 57 75 5A 53 8B 5C 24 0C .T$..z..WuZS.\$.
00721860 8B 7B 08 55 8B 6B 0C 56 33 F6 85 FF 7E 1F 8B FF .{.U.k.V3...~...
00721870 0F B7 44 75 00 50 E8 75 F7 02 00 83 C4 04 85 C0 ..Du.P.u........
00721880 74 07 83 C6 01 3B F7 7C E7 85 F6 75 13 81 7B 04 t....;.|...u..{.
00721890 20 3B A2 00 75 0A 83 03 01 5E 5D 8B C3 5B 5F C3  ;..u....^]..[_.
007218A0 2B FE 8D 4C 75 00 57 51 E8 73 61 FF FF 83 C4 08 +..Lu.WQ.sa.....
007218B0 5E 5D 5B 5F C3 8B 7C 24 08 33 C0 E8 50 FE FF FF ^][_..|$.3..P...
007218C0 5F C3 CC CC CC CC CC CC CC CC CC CC CC CC CC CC _...............
007218D0 8B 54 24 08 83 7A 08 00 57 8B 7C 24 08 75 50 53 .T$..z..W.|$.uPS
007218E0 8B 5F 0C 55 8B 6F 08 56 8B F5 8D 9B 00 00 00 00 ._.U.o.V........
007218F0 83 EE 01 78 11 0F B7 04 73 50 E8 F1 F6 02 00 83 ...x....sP......
00721900 C4 04 85 C0 75 EA 83 C6 01 3B F5 75 13 81 7F 04 ....u....;.u....
00721910 20 3B A2 00 75 0A 83 07 01 5E 5D 5B 8B C7 5F C3  ;..u....^][.._.
00721920 56 53 E8 F9 60 FF FF 83 C4 08 5E 5D 5B 5F C3 B8 VS..`.....^][_..
00721930 01 00 00 00 E8 D7 FD FF FF 5F C3 CC CC CC CC CC ........._......
00721940 56 8B 74 24 08 8B 46 04 3D 20 3B A2 00 75 05 83 V.t$..F.= ;..u..
00721950 06 01 EB 35 68 20 3B A2 00 50 E8 11 3D FB FF 83 ...5h ;..P..=...
00721960 C4 08 85 C0 75 11 68 C8 1D 8D 00 50 56 E8 FE E6 ....u.h....PV...
00721970 FF FF 83 C4 0C EB 10 8B 46 08 8B 4E 0C 50 51 E8 ........F..N.PQ.
00721980 9C 60 FF FF 83 C4 08 8B F0 85 F6 75 04 33 C0 5E .`.........u.3.^
00721990 C3 8B 54 24 0C 57 52 E8 44 EA FF FF 8B F8 83 C4 ..T$.WR.D.......
007219A0 04 85 FF 75 16 83 06 FF 75 0C 8B 46 04 8B 48 18 ...u....u..F..H.
007219B0 56 FF D1 83 C4 04 5F 33 C0 5E C3 8B 54 24 14 53 V....._3.^..T$.S
007219C0 52 E8 1A EA FF FF 8B D8 83 C4 04 85 DB 75 28 83 R............u(.
007219D0 06 FF 75 0C 8B 46 04 8B 48 18 56 FF D1 83 C4 04 ..u..F..H.V.....
007219E0 83 07 FF 75 0C 8B 57 04 8B 42 18 57 FF D0 83 C4 ...u..W..B.W....
007219F0 04 5B 5F 33 C0 5E C3 8B 4C 24 1C 55 51 53 57 56 .[_3.^..L$.UQSWV
00721A00 E8 AB C3 FF FF 83 C4 10 83 06 FF 8B E8 75 0C 8B .............u..
00721A10 56 04 8B 42 18 56 FF D0 83 C4 04 83 07 FF 75 0C V..B.V........u.
00721A20 8B 4F 04 8B 51 18 57 FF D2 83 C4 04 83 03 FF 75 .O..Q.W........u
00721A30 0C 8B 43 04 8B 48 18 53 FF D1 83 C4 04 8B C5 5D ..C..H.S.......]
00721A40 5B 5F 5E C3 CC CC CC CC CC CC CC CC CC CC CC CC [_^.............
00721A50 83 EC 0C 8D 44 24 08 50 8B 44 24 18 8D 4C 24 08 ....D$.P.D$..L$.
00721A60 51 8D 54 24 08 52 68 F0 4D 8D 00 50 C7 44 24 1C Q.T$.Rh.M..P.D$.
00721A70 FF FF FF FF E8 37 62 FC FF 83 C4 14 85 C0 74 42 .....7b.......tB
00721A80 8B 0C 24 51 E8 57 E9 FF FF 83 C4 04 85 C0 89 04 ..$Q.W..........
00721A90 24 74 2F 8B 54 24 04 52 E8 43 E9 FF FF 83 C4 04 $t/.T$.R.C......
00721AA0 85 C0 89 44 24 04 75 20 8B 04 24 83 00 FF 8B 04 ...D$.u ..$.....
00721AB0 24 83 38 00 75 0C 8B 48 04 8B 51 18 50 FF D2 83 $.8.u..H..Q.P...
00721AC0 C4 04 33 C0 83 C4 0C C3 8B 4C 24 08 8B 14 24 56 ..3......L$...$V
00721AD0 51 50 8B 44 24 1C 52 50 E8 D3 C2 FF FF 8B F0 8B QP.D$.RP........
00721AE0 44 24 14 83 00 FF 8B 44 24 14 83 C4 10 83 38 00 D$.....D$.....8.
00721AF0 75 0C 8B 48 04 8B 51 18 50 FF D2 83 C4 04 8B 44 u..H..Q.P......D
00721B00 24 08 83 00 FF 8B 44 24 08 83 38 00 75 0C 8B 48 $.....D$..8.u..H
00721B10 04 8B 51 18 50 FF D2 83 C4 04 8B C6 5E 83 C4 0C ..Q.P.......^...
00721B20 C3 CC CC CC CC CC CC CC CC CC CC CC CC CC CC CC ................
00721B30 83 EC 0C 8D 44 24 04 50 8B 44 24 18 68 70 7D 70 ....D$.P.D$.hp}p
00721B40 00 8D 4C 24 10 51 68 70 7D 70 00 8D 54 24 10 52 ..L$.Qhp}p..T$.R
00721B50 68 F8 9A 8D 00 50 C7 44 24 24 00 00 00 00 C7 44 h....P.D$$.....D
00721B60 24 20 FF FF FF 7F E8 45 61 FC FF 83 C4 1C 85 C0 $ .....Ea.......
00721B70 75 04 83 C4 0C C3 8B 0C 24 56 51 E8 60 E8 FF FF u.......$VQ.`...
00721B80 8B F0 83 C4 04 85 F6 89 74 24 04 75 05 5E 83 C4 ........t$.u.^..
00721B90 0C C3 8B 4C 24 0C 85 C9 8B 44 24 08 57 8B 7C 24 ...L$....D$.W.|$
00721BA0 18 8B 57 08 7D 06 03 CA 79 02 33 C9 3B C2 0F 4F ..W.}...y.3.;..O
00721BB0 C2 85 C0 7D 06 03 C2 79 02 33 C0 8B 56 0C 53 8B ...}...y.3..V.S.
00721BC0 5E 08 51 52 8B 57 0C 2B C1 8D 0C 4A E8 AF AF FF ^.QR.W.+...J....
00721BD0 FF 83 06 FF 8B F8 8B 44 24 0C 83 38 00 5B 75 0C .......D$..8.[u.
00721BE0 8B 48 04 8B 51 18 50 FF D2 83 C4 04 57 E8 2E 35 .H..Q.P.....W..5
00721BF0 FE FF 83 C4 04 5F 5E 83 C4 0C C3 CC CC CC CC CC ....._^.........
00721C00 83 EC 0C 8D 44 24 04 50 8B 44 24 18 68 70 7D 70 ....D$.P.D$.hp}p
00721C10 00 8D 4C 24 10 51 68 70 7D 70 00 8D 54 24 10 52 ..L$.Qhp}p..T$.R
00721C20 68 08 9B 8D 00 50 C7 44 24 24 00 00 00 00 C7 44 h....P.D$$.....D
00721C30 24 20 FF FF FF 7F E8 75 60 FC FF 83 C4 1C 85 C0 $ .....u`.......
00721C40 75 04 83 C4 0C C3 8B 0C 24 56 51 E8 90 E7 FF FF u.......$VQ.....
00721C50 8B F0 83 C4 04 85 F6 89 74 24 04 75 05 5E 83 C4 ........t$.u.^..
00721C60 0C C3 8B 4C 24 0C 85 C9 8B 44 24 08 57 8B 7C 24 ...L$....D$.W.|$
00721C70 18 8B 57 08 7D 06 03 CA 79 02 33 C9 3B C2 0F 4F ..W.}...y.3.;..O
00721C80 C2 85 C0 7D 06 03 C2 79 02 33 C0 8B 56 0C 53 8B ...}...y.3..V.S.
00721C90 5E 08 51 52 8B 57 0C 2B C1 8D 0C 4A E8 DF AE FF ^.QR.W.+...J....
00721CA0 FF 83 06 FF 8B F8 8B 44 24 0C 83 38 00 5B 75 0C .......D$..8.[u.
00721CB0 8B 48 04 8B 51 18 50 FF D2 83 C4 04 85 FF 7D 1B .H..Q.P.......}.
00721CC0 A1 2C 7E A1 00 68 BC 49 8D 00 50 E8 B0 F2 FB FF .,~..h.I..P.....
00721CD0 83 C4 08 5F 33 C0 5E 83 C4 0C C3 57 E8 3F 34 FE ..._3.^....W.?4.
00721CE0 FF 83 C4 04 5F 5E 83 C4 0C C3 CC CC CC CC CC CC ...._^..........
00721CF0 83 EC 08 8B 54 24 10 8D 04 24 50 68 10 0E 72 00 ....T$...$Ph..r.
00721D00 8D 4C 24 0C 51 68 18 9B 8D 00 52 C7 44 24 14 20 .L$.Qh....R.D$. 
00721D10 00 00 00 E8 98 5F FC FF 83 C4 14 85 C0 75 04 83 ....._.......u..
00721D20 C4 08 C3 8B 44 24 04 53 8B 5C 24 10 8B 4B 08 3B ....D$.S.\$..K.;
00721D30 C8 7C 13 81 7B 04 20 3B A2 00 75 0A 83 03 01 8B .|..{. ;..u.....
00721D40 C3 5B 83 C4 08 C3 8B 54 24 04 52 6A 00 2B C1 E8 .[.....T$.Rj.+..
00721D50 5C B5 FF FF 83 C4 08 5B 83 C4 08 C3 CC CC CC CC \......[........
00721D60 53 8B 5C 24 08 8B 43 04 3D 20 3B A2 00 75 05 83 S.\$..C.= ;..u..
00721D70 03 01 EB 35 68 20 3B A2 00 50 E8 F1 38 FB FF 83 ...5h ;..P..8...
00721D80 C4 08 85 C0 75 11 68 C8 1D 8D 00 50 53 E8 DE E2 ....u.h....PS...
00721D90 FF FF 83 C4 0C EB 10 8B 43 08 8B 4B 0C 50 51 E8 ........C..K.PQ.
00721DA0 7C 5C FF FF 83 C4 08 8B D8 85 DB 75 04 33 C0 5B |\.........u.3.[
00721DB0 C3 57 8B 7C 24 10 85 FF 74 25 57 E8 20 E6 FF FF .W.|$...t%W. ...
00721DC0 8B F8 83 C4 04 85 FF 75 16 83 03 FF 75 0C 8B 53 .......u....u..S
00721DD0 04 8B 42 18 53 FF D0 83 C4 04 5F 33 C0 5B C3 8B ..B.S....._3.[..
00721DE0 44 24 14 56 E8 A7 BE FF FF 83 03 FF 8B F0 75 0C D$.V..........u.
00721DF0 8B 4B 04 8B 51 18 53 FF D2 83 C4 04 85 FF 74 11 .K..Q.S.......t.
00721E00 83 07 FF 75 0C 8B 47 04 8B 48 18 57 FF D1 83 C4 ...u..G..H.W....
00721E10 04 8B C6 5E 5F 5B C3 CC CC CC CC CC CC CC CC CC ...^_[..........
00721E20 83 EC 08 8B 54 24 10 8D 44 24 04 50 8D 4C 24 04 ....T$..D$.P.L$.
00721E30 51 68 D4 4C 8D 00 52 C7 44 24 10 B8 63 A1 00 C7 Qh.L..R.D$..c...
00721E40 44 24 14 FF FF FF FF E8 64 5E FC FF 83 C4 10 85 D$......d^......
00721E50 C0 75 04 83 C4 08 C3 57 8B 7C 24 04 81 FF B8 63 .u.....W.|$....c
00721E60 A1 00 75 37 56 8B 74 24 0C 85 F6 7D 05 BE FF FF ..u7V.t$...}....
00721E70 FF 7F 6A 00 E8 D7 07 FD FF 83 C4 04 85 C0 75 06 ..j...........u.
00721E80 5E 5F 83 C4 08 C3 56 50 8B 44 24 1C 50 E8 FE B4 ^_....VP.D$.P...
00721E90 FF FF 83 C4 0C 5E 5F 83 C4 08 C3 81 7F 04 20 3B .....^_....... ;
00721EA0 A2 00 74 35 8B 4F 04 68 20 3B A2 00 51 E8 BE 37 ..t5.O.h ;..Q..7
00721EB0 FB FF 83 C4 08 85 C0 75 1C 8B 54 24 08 8B 44 24 .......u..T$..D$
00721EC0 04 8B 4C 24 10 52 50 51 E8 93 FE FF FF 83 C4 0C ..L$.RPQ........
00721ED0 5F 83 C4 08 C3 8B 7C 24 04 8B 44 24 08 53 8B 5C _.....|$..D$.S.\
00721EE0 24 14 E8 A9 BD FF FF 5B 5F 83 C4 08 C3 CC CC CC $......[_.......
00721EF0 56 8B 74 24 08 8B 46 04 3D 20 3B A2 00 75 05 83 V.t$..F.= ;..u..
00721F00 06 01 EB 35 68 20 3B A2 00 50 E8 61 37 FB FF 83 ...5h ;..P.a7...
00721F10 C4 08 85 C0 75 11 68 C8 1D 8D 00 50 56 E8 4E E1 ....u.h....PV.N.
00721F20 FF FF 83 C4 0C EB 10 8B 46 08 8B 4E 0C 50 51 E8 ........F..N.PQ.
00721F30 EC 5A FF FF 83 C4 08 8B F0 85 F6 75 04 33 C0 5E .Z.........u.3.^
00721F40 C3 8B 54 24 0C 57 52 E8 94 E4 FF FF 8B F8 83 C4 ..T$.WR.........
00721F50 04 85 FF 75 16 83 06 FF 75 0C 8B 46 04 8B 48 18 ...u....u..F..H.
00721F60 56 FF D1 83 C4 04 5F 33 C0 5E C3 8B 57 08 8B 47 V....._3.^..W..G
00721F70 0C 8B 4E 0C 53 52 50 8B 46 08 57 51 56 E8 FE AC ..N.SRP.F.WQV...
00721F80 FF FF 83 07 FF 8B D8 75 0C 8B 57 04 8B 42 18 57 .......u..W..B.W
00721F90 FF D0 83 C4 04 83 06 FF 75 0C 8B 4E 04 8B 51 18 ........u..N..Q.
00721FA0 56 FF D2 83 C4 04 8B C3 5B 5F 5E C3 CC CC CC CC V.......[_^.....
00721FB0 56 8B 74 24 08 8B 46 04 3D 20 3B A2 00 75 05 83 V.t$..F.= ;..u..
00721FC0 06 01 EB 35 68 20 3B A2 00 50 E8 A1 36 FB FF 83 ...5h ;..P..6...
00721FD0 C4 08 85 C0 75 11 68 C8 1D 8D 00 50 56 E8 8E E0 ....u.h....PV...
00721FE0 FF FF 83 C4 0C EB 10 8B 46 08 8B 4E 0C 50 51 E8 ........F..N.PQ.
00721FF0 2C 5A FF FF 83 C4 08 8B F0 85 F6 75 04 33 C0 5E ,Z.........u.3.^
00722000 C3 8B 54 24 0C 57 52 E8 D4 E3 FF FF 8B F8 83 C4 ..T$.WR.........
00722010 04 85 FF 75 16 83 06 FF 75 0C 8B 46 04 8B 48 18 ...u....u..F..H.
00722020 56 FF D1 83 C4 04 5F 33 C0 5E C3 8B 57 08 8B 47 V....._3.^..W..G
00722030 0C 8B 4E 08 53 52 8B 56 0C 50 57 51 52 56 E8 0D ..N.SR.V.PWQRV..
00722040 AD FF FF 83 07 FF 8B D8 75 0C 8B 47 04 8B 48 18 ........u..G..H.
00722050 57 FF D1 83 C4 04 83 06 FF 75 0C 8B 56 04 8B 42 W........u..V..B
00722060 18 56 FF D0 83 C4 04 8B C3 5B 5F 5E C3 CC CC CC .V.......[_^....
00722070 E9 7B FE FF FF CC CC CC CC CC CC CC CC CC CC CC .{..............
00722080 E9 2B FF FF FF CC CC CC CC CC CC CC CC CC CC CC .+..............
00722090 56 8B 74 24 08 8B 46 04 3D 20 3B A2 00 75 05 83 V.t$..F.= ;..u..
007220A0 06 01 EB 35 68 20 3B A2 00 50 E8 C1 35 FB FF 83 ...5h ;..P..5...
007220B0 C4 08 85 C0 75 11 68 C8 1D 8D 00 50 56 E8 AE DF ....u.h....PV...
007220C0 FF FF 83 C4 0C EB 10 8B 46 08 8B 4E 0C 50 51 E8 ........F..N.PQ.
007220D0 4C 59 FF FF 83 C4 08 8B F0 85 F6 75 04 33 C0 5E LY.........u.3.^
007220E0 C3 57 8B 7C 24 10 85 FF 74 25 57 E8 F0 E2 FF FF .W.|$...t%W.....
007220F0 8B F8 83 C4 04 85 FF 75 16 83 06 FF 75 0C 8B 56 .......u....u..V
00722100 04 8B 42 18 56 FF D0 83 C4 04 5F 33 C0 5E C3 8B ..B.V....._3.^..
00722110 44 24 14 53 8B CE E8 05 BC FF FF 83 06 FF 8B D8 D$.S............
00722120 75 0C 8B 4E 04 8B 51 18 56 FF D2 83 C4 04 85 FF u..N..Q.V.......
00722130 74 11 83 07 FF 75 0C 8B 47 04 8B 48 18 57 FF D1 t....u..G..H.W..
00722140 83 C4 04 8B C3 5B 5F 5E C3 CC CC CC CC CC CC CC .....[_^........
00722150 83 EC 08 8B 54 24 10 8D 44 24 04 50 8D 4C 24 04 ....T$..D$.P.L$.
00722160 51 68 E0 4C 8D 00 52 C7 44 24 10 B8 63 A1 00 C7 Qh.L..R.D$..c...
00722170 44 24 14 FF FF FF FF E8 34 5B FC FF 83 C4 10 85 D$......4[......
00722180 C0 75 04 83 C4 08 C3 57 8B 7C 24 04 81 FF B8 63 .u.....W.|$....c
00722190 A1 00 75 38 56 8B 74 24 0C 85 F6 7D 05 BE FF FF ..u8V.t$...}....
007221A0 FF 7F 6A 00 E8 A7 04 FD FF 83 C4 04 85 C0 75 06 ..j...........u.
007221B0 5E 5F 83 C4 08 C3 53 8B 5C 24 18 56 50 E8 3E B6 ^_....S.\$.VP.>.
007221C0 FF FF 83 C4 08 5B 5E 5F 83 C4 08 C3 81 7F 04 20 .....[^_....... 
007221D0 3B A2 00 74 35 8B 47 04 68 20 3B A2 00 50 E8 8D ;..t5.G.h ;..P..
007221E0 34 FB FF 83 C4 08 85 C0 75 1C 8B 4C 24 08 8B 54 4.......u..L$..T
007221F0 24 04 8B 44 24 10 51 52 50 E8 92 FE FF FF 83 C4 $..D$.QRP.......
00722200 0C 5F 83 C4 08 C3 8B 7C 24 04 8B 44 24 08 8B 4C ._.....|$..D$..L
00722210 24 10 E8 09 BB FF FF 5F 83 C4 08 C3 CC CC CC CC $......_........
00722220 51 8B 4C 24 0C 8D 04 24 50 68 54 4E 8D 00 51 C7 Q.L$...$PhTN..Q.
00722230 44 24 0C 00 00 00 00 E8 74 5A FC FF 83 C4 0C 85 D$......tZ......
00722240 C0 75 02 59 C3 8B 14 24 8B 44 24 08 52 50 E8 1D .u.Y...$.D$.RP..
00722250 EA FF FF 83 C4 08 59 C3 CC CC CC CC CC CC CC CC ......Y.........
00722260 83 EC 0C 55 8D 44 24 08 50 8B 44 24 1C 68 70 7D ...U.D$.P.D$.hp}
00722270 70 00 8D 4C 24 14 51 68 70 7D 70 00 8D 54 24 14 p..L$.Qhp}p..T$.
00722280 52 68 E0 49 8D 00 33 ED 50 89 6C 24 28 C7 44 24 Rh.I..3.P.l$(.D$
00722290 24 FF FF FF 7F E8 16 5A FC FF 83 C4 1C 85 C0 75 $......Z.......u
007222A0 05 5D 83 C4 0C C3 8B 44 24 04 81 78 04 88 65 A1 .].....D$..x..e.
007222B0 00 56 57 74 6F 8B 48 04 68 88 65 A1 00 51 E8 AD .VWto.H.h.e..Q..
007222C0 33 FB FF 83 C4 08 85 C0 75 56 8B 54 24 0C 52 E8 3.......uV.T$.R.
007222D0 0C E1 FF FF 8B F0 83 C4 04 3B F5 75 09 5F 5E 33 .........;.u._^3
007222E0 C0 5D 83 C4 0C C3 8B 44 24 10 8B 4C 24 14 8B 54 .].....D$..L$..T
007222F0 24 1C 6A FF 56 E8 46 AB FF FF 83 C4 08 83 06 FF $.j.V.F.........
00722300 8B F8 75 0C 8B 46 04 8B 48 18 56 FF D1 83 C4 04 ..u..F..H.V.....
00722310 57 E8 4A 30 FC FF 83 C4 04 5F 5E 5D 83 C4 0C C3 W.J0....._^]....
00722320 8B 44 24 0C 39 68 08 53 0F 8E 91 00 00 00 BB 0C .D$.9h.S........
00722330 00 00 00 8B 34 03 8B 46 04 3D 20 3B A2 00 75 05 ....4..F.= ;..u.
00722340 83 06 01 EB 35 68 20 3B A2 00 50 E8 20 33 FB FF ....5h ;..P. 3..
00722350 83 C4 08 85 C0 75 11 68 C8 1D 8D 00 50 56 E8 0D .....u.h....PV..
00722360 DD FF FF 83 C4 0C EB 10 8B 56 08 8B 46 0C 52 50 .........V..F.RP
00722370 E8 AB 56 FF FF 83 C4 08 8B F0 85 F6 74 55 8B 44 ..V.........tU.D
00722380 24 14 8B 4C 24 18 8B 54 24 20 6A FF 56 E8 AE AA $..L$..T$ j.V...
00722390 FF FF 83 C4 08 83 06 FF 8B F8 75 0C 8B 4E 04 8B ..........u..N..
007223A0 51 18 56 FF D2 83 C4 04 85 FF 75 31 8B 44 24 10 Q.V.......u1.D$.
007223B0 83 C5 01 83 C3 04 3B 68 08 0F 8C 74 FF FF FF 83 ......;h...t....
007223C0 05 D8 91 A1 00 01 5B 5F 5E B8 D8 91 A1 00 5D 83 ......[_^.....].
007223D0 C4 0C C3 5B 5F 5E 33 C0 5D 83 C4 0C C3 83 05 E4 ...[_^3.].......
007223E0 91 A1 00 01 5B 5F 5E B8 E4 91 A1 00 5D 83 C4 0C ....[_^.....]...
007223F0 C3 CC CC CC CC CC CC CC CC CC CC CC CC CC CC CC ................
00722400 83 EC 0C 55 8D 44 24 08 50 8B 44 24 1C 68 70 7D ...U.D$.P.D$.hp}
00722410 70 00 8D 4C 24 14 51 68 70 7D 70 00 8D 54 24 14 p..L$.Qhp}p..T$.
00722420 52 68 F4 49 8D 00 33 ED 50 89 6C 24 28 C7 44 24 Rh.I..3.P.l$(.D$
00722430 24 FF FF FF 7F E8 76 58 FC FF 83 C4 1C 85 C0 75 $.....vX.......u
00722440 05 5D 83 C4 0C C3 8B 44 24 04 81 78 04 88 65 A1 .].....D$..x..e.
00722450 00 56 57 74 6F 8B 48 04 68 88 65 A1 00 51 E8 0D .VWto.H.h.e..Q..
00722460 32 FB FF 83 C4 08 85 C0 75 56 8B 54 24 0C 52 E8 2.......uV.T$.R.
00722470 6C DF FF FF 8B F0 83 C4 04 3B F5 75 09 5F 5E 33 l........;.u._^3
00722480 C0 5D 83 C4 0C C3 8B 44 24 10 8B 4C 24 14 8B 54 .].....D$..L$..T
00722490 24 1C 6A 01 56 E8 A6 A9 FF FF 83 C4 08 83 06 FF $.j.V...........
007224A0 8B F8 75 0C 8B 46 04 8B 48 18 56 FF D1 83 C4 04 ..u..F..H.V.....
007224B0 57 E8 AA 2E FC FF 83 C4 04 5F 5E 5D 83 C4 0C C3 W........_^]....
007224C0 8B 44 24 0C 39 68 08 53 0F 8E 91 00 00 00 BB 0C .D$.9h.S........
007224D0 00 00 00 8B 34 03 8B 46 04 3D 20 3B A2 00 75 05 ....4..F.= ;..u.
007224E0 83 06 01 EB 35 68 20 3B A2 00 50 E8 80 31 FB FF ....5h ;..P..1..
007224F0 83 C4 08 85 C0 75 11 68 C8 1D 8D 00 50 56 E8 6D .....u.h....PV.m
00722500 DB FF FF 83 C4 0C EB 10 8B 56 08 8B 46 0C 52 50 .........V..F.RP
00722510 E8 0B 55 FF FF 83 C4 08 8B F0 85 F6 74 55 8B 44 ..U.........tU.D
00722520 24 14 8B 4C 24 18 8B 54 24 20 6A 01 56 E8 0E A9 $..L$..T$ j.V...
00722530 FF FF 83 C4 08 83 06 FF 8B F8 75 0C 8B 4E 04 8B ..........u..N..
00722540 51 18 56 FF D2 83 C4 04 85 FF 75 31 8B 44 24 10 Q.V.......u1.D$.
00722550 83 C5 01 83 C3 04 3B 68 08 0F 8C 74 FF FF FF 83 ......;h...t....
00722560 05 D8 91 A1 00 01 5B 5F 5E B8 D8 91 A1 00 5D 83 ......[_^.....].
00722570 C4 0C C3 5B 5F 5E 33 C0 5D 83 C4 0C C3 83 05 E4 ...[_^3.].......
00722580 91 A1 00 01 5B 5F 5E B8 E4 91 A1 00 5D 83 C4 0C ....[_^.....]...
00722590 C3 CC CC CC CC CC CC CC CC CC CC CC CC CC CC CC ................
007225A0 81 EC 40 01 00 00 A1 88 41 A1 00 33 C4 89 84 24 ..@.....A..3...$
007225B0 3C 01 00 00 8B 84 24 44 01 00 00 56 33 F6 3B C6 <.....$D...V3.;.
007225C0 57 8B BC 24 50 01 00 00 89 7C 24 20 89 74 24 44 W..$P....|$ .t$D
007225D0 89 74 24 4C 0F 84 53 0C 00 00 3B FE 0F 84 4B 0C .t$L..S...;...K.
007225E0 00 00 55 50 E8 F7 DD FF FF 8B E8 83 C4 04 3B EE ..UP..........;.
007225F0 89 6C 24 4C 75 1A 5D 5F 33 C0 5E 8B 8C 24 3C 01 .l$Lu.]_3.^..$<.
00722600 00 00 33 CC E8 85 25 F7 FF 81 C4 40 01 00 00 C3 ..3...%....@....
00722610 8B 45 08 8B 75 0C 89 44 24 0C 83 C0 64 53 8B D8 .E..u..D$...dS..
00722620 89 44 24 14 89 5C 24 58 E8 13 51 FF FF 85 C0 89 .D$..\$X..Q.....
00722630 44 24 40 0F 84 78 0B 00 00 8B 68 0C 8B 47 04 3D D$@..x....h..G.=
00722640 88 65 A1 00 89 6C 24 44 74 24 68 88 65 A1 00 50 .e...l$Dt$h.e..P
00722650 E8 1B 30 FB FF 83 C4 08 85 C0 75 12 C7 44 24 3C ..0.......u..D$<
00722660 FF FF FF FF C7 44 24 2C FE FF FF FF EB 15 57 E8 .....D$,......W.
00722670 AC D7 FB FF 83 C4 04 89 44 24 3C C7 44 24 2C 00 ........D$<.D$,.
00722680 00 00 00 8B 47 04 83 78 38 00 74 39 3D 88 65 A1 ....G..x8.t9=.e.
00722690 00 74 32 68 88 65 A1 00 50 E8 D2 2F FB FF 83 C4 .t2h.e..P../....
007226A0 08 85 C0 75 20 8B 47 04 3D 00 B3 A1 00 74 16 68 ...u .G.=....t.h
007226B0 00 B3 A1 00 50 E8 B6 2F FB FF 83 C4 08 85 C0 75 ....P../.......u
007226C0 04 89 7C 24 54 83 6C 24 10 01 0F 88 83 0A 00 00 ..|$T.l$........
007226D0 66 83 3E 25 74 57 83 6C 24 14 01 79 36 8B 7C 24 f.>%tW.l$..y6.|$
007226E0 10 83 C7 64 03 DF 8D 44 24 40 53 50 89 5C 24 60 ...d...D$@SP.\$`
007226F0 E8 0B 52 FF FF 83 C4 08 85 C0 0F 8C 90 0A 00 00 ..R.............
00722700 8B 4C 24 40 8B 51 0C 2B DF 83 EF 01 8D 2C 5A 89 .L$@.Q.+.....,Z.
00722710 7C 24 14 66 8B 06 66 89 45 00 83 C5 02 83 C6 02 |$.f..f.E.......
00722720 89 6C 24 44 89 74 24 34 E9 57 08 00 00 33 FF 83 .l$D.t$4.W...3..
00722730 CD FF 33 C9 83 C6 02 66 83 3E 28 89 4C 24 1C 89 ..3....f.>(.L$..
00722740 6C 24 20 89 6C 24 24 89 7C 24 30 89 7C 24 18 0F l$ .l$$.|$0.|$..
00722750 85 C6 00 00 00 39 7C 24 54 BB 01 00 00 00 8B CB .....9|$T.......
00722760 0F 84 84 08 00 00 83 C6 02 29 5C 24 10 8B D6 90 .........)\$....
00722770 29 5C 24 10 0F 88 88 08 00 00 0F B7 06 66 3D 29 )\$..........f=)
00722780 00 75 04 2B CB EB 08 66 3D 28 00 75 02 03 CB 83 .u.+...f=(.u....
00722790 C6 02 3B CF 7F DA 8B CE 2B CA D1 F9 2B CB 51 52 ..;.....+...+.QR
007227A0 E8 7B 52 FF FF 8B D8 83 C4 08 3B DF 0F 84 DE 09 .{R.......;.....
007227B0 00 00 39 7C 24 4C 74 18 8B 44 24 28 01 28 75 0C ..9|$Lt..D$(.(u.
007227C0 8B 50 04 50 8B 42 18 FF D0 83 C4 04 89 7C 24 4C .P.P.B.......|$L
007227D0 8B 4C 24 54 53 51 E8 45 1A FE FF 83 C4 08 83 03 .L$TSQ.E........
007227E0 FF 8B E8 89 6C 24 28 75 0C 8B 53 04 8B 42 18 53 ....l$(u..S..B.S
007227F0 FF D0 83 C4 04 3B EF 0F 84 93 09 00 00 8B 4C 24 .....;........L$
00722800 1C 83 CD FF BA FE FF FF FF C7 44 24 4C 01 00 00 ..........D$L...
00722810 00 89 6C 24 3C 89 54 24 2C EB 08 8B 54 24 2C 8B ..l$<.T$,...T$,.
00722820 6C 24 3C 83 6C 24 10 01 0F 88 50 08 00 00 8B FF l$<.l$....P.....
00722830 0F B7 1E 0F B7 C3 83 E8 20 83 C6 02 83 F8 10 77 ........ ......w
00722840 2C 0F B6 80 70 32 72 00 FF 24 85 58 32 72 00 83 ,...p2r..$.X2r..
00722850 C9 01 EB 12 83 C9 02 EB 0D 83 C9 04 EB 08 83 C9 ................
00722860 08 EB 03 83 C9 10 83 6C 24 10 01 79 C3 66 83 FB .......l$..y.f..
00722870 2A 89 4C 24 1C 89 74 24 34 0F 85 92 00 00 00 3B *.L$..t$4......;
00722880 D5 8B C2 0F 8D 17 07 00 00 83 C2 01 85 ED 89 54 ...............T
00722890 24 2C 7D 0A 8B 7C 24 28 89 7C 24 30 EB 14 8B 4C $,}..|$(.|$0...L
007228A0 24 28 50 51 E8 B7 D5 FB FF 83 C4 08 8B F8 89 44 $(PQ...........D
007228B0 24 30 85 FF 0F 84 D6 08 00 00 8B 47 04 3D E8 E7 $0.........G.=..
007228C0 A1 00 74 16 68 E8 E7 A1 00 50 E8 A1 2D FB FF 83 ..t.h....P..-...
007228D0 C4 08 85 C0 0F 84 41 07 00 00 57 E8 C0 28 FE FF ......A...W..(..
007228E0 83 C4 04 85 C0 89 44 24 20 7D 0B 83 4C 24 1C 01 ......D$ }..L$..
007228F0 F7 D8 89 44 24 20 83 6C 24 10 01 0F 88 7D 07 00 ...D$ .l$....}..
00722900 00 0F B7 1E 8B 4C 24 1C 83 C6 02 89 74 24 34 EB .....L$.....t$4.
00722910 67 8D 53 D0 66 83 FA 09 77 5E 0F B7 EB 83 ED 30 g.S.f...w^.....0
00722920 83 6C 24 10 01 89 6C 24 20 78 4D EB 03 8D 49 00 .l$...l$ xM...I.
00722930 0F B7 1E 83 C6 02 8D 43 D0 66 3D 09 00 89 74 24 .......C.f=...t$
00722940 34 77 35 8D 7C AD 00 03 FF B8 67 66 66 66 F7 EF 4w5.|.....gfff..
00722950 C1 FA 02 8B C2 C1 E8 1F 03 C2 3B C5 0F 85 D2 06 ..........;.....
00722960 00 00 83 6C 24 10 01 0F B7 D3 8D 6C 3A D0 8B 7C ...l$......l:..|
00722970 24 30 89 6C 24 20 79 B8 66 83 FB 2E 0F 85 BE 00 $0.l$ y.f.......
00722980 00 00 BD 01 00 00 00 29 6C 24 10 C7 44 24 24 00 .......)l$..D$$.
00722990 00 00 00 0F 88 E5 06 00 00 0F B7 1E 83 C6 02 66 ...............f
007229A0 83 FB 2A 89 74 24 34 0F 85 F5 00 00 00 8B 4C 24 ..*.t$4.......L$
007229B0 2C 8B 54 24 3C 3B CA 8B C1 0F 8D F9 05 00 00 03 ,.T$<;..........
007229C0 CD 85 D2 89 4C 24 2C 7D 0A 8B 7C 24 28 89 7C 24 ....L$,}..|$(.|$
007229D0 30 EB 14 50 8B 44 24 2C 50 E8 82 D4 FB FF 83 C4 0..P.D$,P.......
007229E0 08 8B F8 89 44 24 30 85 FF 0F 84 A1 07 00 00 8B ....D$0.........
007229F0 47 04 3D E8 E7 A1 00 74 16 68 E8 E7 A1 00 50 E8 G.=....t.h....P.
00722A00 6C 2C FB FF 83 C4 08 85 C0 0F 84 3D 06 00 00 57 l,.........=...W
00722A10 E8 8B 27 FE FF 83 C4 04 85 C0 89 44 24 24 7D 08 ..'........D$$}.
00722A20 C7 44 24 24 00 00 00 00 29 6C 24 10 0F 88 4C 06 .D$$....)l$...L.
00722A30 00 00 0F B7 1E 8B 4C 24 1C 83 C6 02 89 74 24 34 ......L$.....t$4
00722A40 83 7C 24 10 00 0F 8C 33 06 00 00 66 83 FB 68 74 .|$....3...f..ht
00722A50 0C 66 83 FB 6C 74 06 66 83 FB 4C 75 15 83 6C 24 .f..lt.f..Lu..l$
00722A60 10 01 0F 88 16 06 00 00 0F B7 1E 83 C6 02 89 74 ...............t
00722A70 24 34 66 83 FB 25 0F 84 BA 00 00 00 8B 54 24 2C $4f..%.......T$,
00722A80 8B 7C 24 3C 3B D7 8B C2 0F 8D 43 05 00 00 83 C2 .|$<;.....C.....
00722A90 01 85 FF 89 54 24 2C 7D 7D 8B 7C 24 28 E9 88 00 ....T$,}}.|$(...
00722AA0 00 00 8D 53 D0 66 83 FA 09 77 95 0F B7 C3 83 E8 ...S.f...w......
00722AB0 30 29 6C 24 10 89 44 24 24 0F 88 BF 05 00 00 90 0)l$..D$$.......
00722AC0 0F B6 1E 83 C6 02 8D 43 D0 66 3D 09 00 89 74 24 .......C.f=...t$
00722AD0 34 0F 87 69 FF FF FF 8B 6C 24 24 8D 7C AD 00 03 4..i....l$$.|...
00722AE0 FF B8 67 66 66 66 F7 EF C1 FA 02 8B C2 C1 E8 1F ..gfff..........
00722AF0 03 C2 3B C5 0F 85 6B 05 00 00 83 6C 24 10 01 0F ..;...k....l$...
00722B00 B7 D3 8D 44 3A D0 89 44 24 24 0F 88 6E 05 00 00 ...D:..D$$..n...
00722B10 8B 7C 24 30 EB AA 8B 4C 24 28 50 51 E8 3F D3 FB .|$0...L$(PQ.?..
00722B20 FF 8B 4C 24 24 83 C4 08 8B F8 85 FF 89 7C 24 30 ..L$$........|$0
00722B30 0F 84 5A 06 00 00 0F B7 C3 83 C0 DB 83 F8 53 C7 ..Z...........S.
00722B40 44 24 48 00 00 00 00 C7 44 24 38 20 00 00 00 0F D$H.....D$8 ....
00722B50 87 C6 05 00 00 0F B6 90 9C 32 72 00 FF 24 95 84 .........2r..$..
00722B60 32 72 00 8D 6C 24 5C 66 C7 44 24 5C 25 00 BE 01 2r..l$\f.D$\%...
00722B70 00 00 00 E9 0C 02 00 00 8B 47 04 3D 20 3B A2 00 .........G.= ;..
00722B80 74 12 68 20 3B A2 00 50 E8 E3 2A FB FF 83 C4 08 t.h ;..P..*.....
00722B90 85 C0 74 12 66 83 FB 73 75 20 83 07 01 89 7C 24 ..t.f..su ....|$
00722BA0 18 E9 9D 00 00 00 66 83 FB 73 75 0E 57 E8 2E C4 ......f..su.W...
00722BB0 FB FF 8B F0 89 74 24 1C EB 0C 57 E8 F0 B1 FB FF .....t$...W.....
00722BC0 8B F0 89 44 24 1C 83 C4 04 85 F6 0F 84 BF 05 00 ...D$...........
00722BD0 00 8B 46 04 3D 20 3B A2 00 74 68 68 20 3B A2 00 ..F.= ;..thh ;..
00722BE0 50 E8 8A 2A FB FF 83 C4 08 85 C0 75 56 8B 46 04 P..*.......uV.F.
00722BF0 3D 50 B4 A1 00 74 16 68 50 B4 A1 00 50 E8 6E 2A =P...t.hP...P.n*
00722C00 FB FF 83 C4 08 85 C0 0F 84 89 04 00 00 8B 46 08 ..............F.
00722C10 68 C8 1D 8D 00 6A 00 50 8D 4E 14 51 E8 8F D2 FF h....j.P.N.Q....
00722C20 FF 83 C4 10 83 06 FF 8B F8 75 0C 8B 56 04 8B 42 .........u..V..B
00722C30 18 56 FF D0 83 C4 04 85 FF 89 7C 24 18 0F 84 4D .V........|$...M
00722C40 05 00 00 83 7C 24 24 00 8B 44 24 18 8B 68 0C 8B ....|$$..D$..h..
00722C50 70 08 0F 8C 2C 01 00 00 3B 74 24 24 0F 8E 22 01 p...,...;t$$..".
00722C60 00 00 8B 74 24 24 E9 19 01 00 00 66 83 FB 69 75 ...t$$.....f..iu
00722C70 05 BB 64 00 00 00 8B 47 04 3D 00 F4 A1 00 74 40 ..d....G.=....t@
00722C80 68 00 F4 A1 00 50 E8 E5 29 FB FF 83 C4 08 85 C0 h....P..).......
00722C90 75 2A 8B 54 24 24 8B 44 24 1C 57 52 50 8D 6C 24 u*.T$$.D$.WRP.l$
00722CA0 68 0F B7 CB 6A 78 8B D5 E8 C3 C9 FF FF 8B F0 83 h...jx..........
00722CB0 C4 10 85 F6 0F 8C D6 04 00 00 EB 28 8B 4C 24 1C ...........(.L$.
00722CC0 8B 44 24 24 50 51 0F B7 D3 57 E8 F1 C8 FF FF 83 .D$$PQ...W......
00722CD0 C4 0C 85 C0 89 44 24 18 0F 84 B2 04 00 00 8B 68 .....D$........h
00722CE0 0C 8B 70 08 F6 44 24 1C 10 74 08 C7 44 24 38 30 ..p..D$..t..D$80
00722CF0 00 00 00 0F B7 45 00 66 3D 2D 00 74 7A 66 3D 2B .....E.f=-.tzf=+
00722D00 00 74 74 8A 44 24 1C A8 02 74 5A C7 44 24 48 2B .tt.D$...tZ.D$H+
00722D10 00 00 00 EB 6F 66 83 FB 46 75 05 BB 66 00 00 00 ....of..Fu..f...
00722D20 8B 54 24 1C 57 52 8B 54 24 2C 8D 6C 24 64 8B C5 .T$.WR.T$,.l$d..
00722D30 0F B7 CB 6A 78 50 E8 65 C7 FF FF 8B F0 83 C4 10 ...jxP.e........
00722D40 85 F6 0F 8C 48 04 00 00 EB 9A 8B 74 24 30 8D 6C ....H......t$0.l
00722D50 24 5C 8B FD E8 47 CA FF FF 8B F0 85 F6 0F 8C 2D $\...G.........-
00722D60 04 00 00 EB 1F 0F BE C0 83 E0 04 03 C0 03 C0 03 ................
00722D70 C0 89 44 24 48 EB 0D 0F B7 C8 83 C5 02 89 4C 24 ..D$H.........L$
00722D80 48 83 EE 01 8B 44 24 20 3B C6 7D 06 8B C6 89 44 H....D$ ;.}....D
00722D90 24 20 8B 54 24 14 33 C9 66 39 4C 24 48 8B FA 0F $ .T$.3.f9L$H...
00722DA0 95 C1 2B F9 3B F8 7D 44 8B 7C 24 58 2B FA 8B 54 ..+.;.}D.|$X+..T
00722DB0 24 10 8D 44 10 64 03 F8 89 44 24 14 89 7C 24 58 $..D.d...D$..|$X
00722DC0 0F 88 F9 02 00 00 8D 44 24 40 57 50 E8 2F 4B FF .......D$@WP./K.
00722DD0 FF 83 C4 08 85 C0 0F 8C 19 03 00 00 8B 4C 24 40 .............L$@
00722DE0 2B 7C 24 14 8B 51 0C 8D 3C 7A EB 04 8B 7C 24 44 +|$..Q..<z...|$D
00722DF0 8B 4C 24 48 66 85 C9 8B 44 24 38 74 22 66 3D 20 .L$Hf...D$8t"f= 
00722E00 00 74 06 66 89 0F 83 C7 02 8B 54 24 20 83 6C 24 .t.f......T$ .l$
00722E10 14 01 3B D6 7E 0D 83 EA 01 89 54 24 20 EB 04 8B ..;.~.....T$ ...
00722E20 54 24 20 8B 4C 24 1C 83 E1 08 89 4C 24 38 74 43 T$ .L$.....L$8tC
00722E30 66 83 FB 78 74 06 66 83 FB 58 75 37 66 3D 20 00 f..xt.f..Xu7f= .
00722E40 74 1A 0F B7 4D 00 66 89 0F 0F B7 4D 02 83 C5 02 t...M.f....M....
00722E50 83 C7 02 66 89 0F 83 C7 02 83 C5 02 83 6C 24 14 ...f.........l$.
00722E60 02 83 EA 02 89 54 24 20 79 06 33 D2 89 54 24 20 .....T$ y.3..T$ 
00722E70 83 EE 02 3B D6 7E 23 F6 44 24 1C 01 75 1C 8B 4C ...;.~#.D$..u..L
00722E80 24 14 66 89 07 83 EA 01 83 E9 01 83 C7 02 3B D6 $.f...........;.
00722E90 7F F0 89 54 24 20 89 4C 24 14 66 3D 20 00 75 3C ...T$ .L$.f= .u<
00722EA0 8B 44 24 48 66 85 C0 74 06 66 89 07 83 C7 02 83 .D$Hf..t.f......
00722EB0 7C 24 38 00 74 26 66 83 FB 78 74 06 66 83 FB 58 |$8.t&f..xt.f..X
00722EC0 75 1A 66 8B 45 00 66 89 07 66 8B 4D 02 83 C5 02 u.f.E.f..f.M....
00722ED0 83 C7 02 66 89 0F 83 C7 02 83 C5 02 8D 0C 36 83 ...f..........6.
00722EE0 F9 10 72 14 8D 04 36 50 55 57 E8 41 21 F7 FF 8B ..r...6PUW.A!...
00722EF0 54 24 2C 83 C4 0C EB 1B 85 C9 76 17 8B C7 2B EF T$,.......v...+.
00722F00 89 4C 24 38 8A 0C 28 88 08 83 C0 01 83 6C 24 38 .L$8..(......l$8
00722F10 01 75 F1 29 74 24 14 8D 04 36 83 EA 01 03 F8 3B .u.)t$...6.....;
00722F20 D6 89 7C 24 44 89 54 24 20 7C 22 2B D6 83 C2 01 ..|$D.T$ |"+....
00722F30 8B CA D1 E9 8B F7 B8 20 00 20 00 F3 AB 13 C9 29 ....... . .....)
00722F40 54 24 14 8D 14 56 66 F3 AB 89 54 24 44 83 7C 24 T$...Vf...T$D.|$
00722F50 54 00 74 14 8B 44 24 3C 39 44 24 2C 7D 0A 66 83 T.t..D$<9D$,}.f.
00722F60 FB 25 0F 85 7A 01 00 00 83 7C 24 18 00 74 15 8B .%..z....|$..t..
00722F70 44 24 18 83 00 FF 75 0C 8B 48 04 8B 51 18 50 FF D$....u..H..Q.P.
00722F80 D2 83 C4 04 83 6C 24 10 01 8B 5C 24 58 0F 88 C0 .....l$...\$X...
00722F90 01 00 00 8B 6C 24 44 8B 74 24 34 E9 30 F7 FF FF ....l$D.t$4.0...
00722FA0 A1 7C 6B A1 00 68 C8 4A 8D 00 50 E8 D0 DF FB FF .|k..h.J..P.....
00722FB0 83 C4 08 E9 D8 01 00 00 8B 0D 7C 6B A1 00 68 C8 ..........|k..h.
00722FC0 4A 8D 00 51 E8 B7 DF FB FF 83 C4 08 E9 BF 01 00 J..Q............
00722FD0 00 8B 15 7C 6B A1 00 68 C8 4A 8D 00 52 E8 9E DF ...|k..h.J..R...
00722FE0 FB FF 83 C4 08 E9 A6 01 00 00 A1 7C 6B A1 00 68 ...........|k..h
00722FF0 70 4F 8D 00 50 E8 86 DF FB FF 83 C4 08 E9 8E 01 pO..P...........
00723000 00 00 8B 0D 2C 7E A1 00 68 58 4F 8D 00 51 E8 6D ....,~..hXO..Q.m
00723010 DF FB FF 83 C4 08 E9 75 01 00 00 8B 15 7C 6B A1 .......u.....|k.
00723020 00 68 4C 4F 8D 00 52 E8 54 DF FB FF 83 C4 08 E9 .hLO..R.T.......
00723030 5C 01 00 00 A1 2C 7E A1 00 68 3C 4F 8D 00 50 E8 \....,~..h<O..P.
00723040 3C DF FB FF 83 C4 08 E9 44 01 00 00 8B 0D 7C 6B <.......D.....|k
00723050 A1 00 68 4C 4F 8D 00 51 E8 23 DF FB FF 83 C4 08 ..hLO..Q.#......
00723060 E9 2B 01 00 00 8B 15 2C 7E A1 00 68 2C 4F 8D 00 .+.....,~..h,O..
00723070 52 E8 0A DF FB FF 83 C4 08 E9 12 01 00 00 A1 2C R..............,
00723080 7E A1 00 68 90 4F 8D 00 50 E8 F2 DE FB FF 83 C4 ~..h.O..P.......
00723090 08 E9 FA 00 00 00 83 06 FF 75 0C 8B 4E 04 8B 51 .........u..N..Q
007230A0 18 56 FF D2 83 C4 04 A1 7C 6B A1 00 68 08 4F 8D .V......|k..h.O.
007230B0 00 50 E8 C9 DE FB FF 83 C4 08 E9 D1 00 00 00 8B .P..............
007230C0 44 24 18 85 C0 74 11 83 00 FF 75 0C 8B 48 04 8B D$...t....u..H..
007230D0 51 18 50 FF D2 83 C4 04 E8 33 E1 FB FF E9 AE 00 Q.P......3......
007230E0 00 00 A1 7C 6B A1 00 68 D0 4E 8D 00 50 E8 8E DE ...|k..h.N..P...
007230F0 FB FF 83 C4 08 83 7C 24 18 00 0F 84 90 00 00 00 ......|$........
00723100 8B 44 24 18 83 00 FF 0F 85 83 00 00 00 8B 48 04 .D$...........H.
00723110 8B 51 18 50 FF D2 83 C4 04 EB 75 8D 43 E1 66 3D .Q.P......u.C.f=
00723120 5F 00 0F BE C3 76 05 B8 3F 00 00 00 8B 4C 24 50 _....v..?....L$P
00723130 2B 71 0C 0F B7 D3 83 EE 02 D1 FE 56 52 50 A1 2C +q.........VRP.,
00723140 7E A1 00 68 98 4E 8D 00 50 E8 82 E4 FB FF 83 C4 ~..h.N..P.......
00723150 14 EB 3D 8B 4C 24 3C 39 4C 24 2C 7D 1D 83 7C 24 ..=.L$<9L$,}..|$
00723160 54 00 75 16 8B 15 7C 6B A1 00 68 D0 4E 8D 00 52 T.u...|k..h.N..R
00723170 E8 0B DE FB FF 83 C4 08 EB 16 2B 5C 24 14 8D 44 ..........+\$..D
00723180 24 40 53 50 E8 77 47 FF FF 83 C4 08 85 C0 7D 66 $@SP.wG.......}f
00723190 8B 44 24 40 85 C0 74 11 83 00 FF 75 0C 8B 48 04 .D$@..t....u..H.
007231A0 8B 51 18 50 FF D2 83 C4 04 8B 6C 24 50 8B 7C 24 .Q.P......l$P.|$
007231B0 28 83 45 00 FF 75 0C 8B 45 04 8B 48 18 55 FF D1 (.E..u..E..H.U..
007231C0 83 C4 04 83 7C 24 4C 00 74 11 83 07 FF 75 0C 8B ....|$L.t....u..
007231D0 57 04 8B 42 18 57 FF D0 83 C4 04 33 C0 5B 5D 5F W..B.W.....3.[]_
007231E0 5E 8B 8C 24 3C 01 00 00 33 CC E8 9F 19 F7 FF 81 ^..$<...3.......
007231F0 C4 40 01 00 00 C3 83 7C 24 4C 00 74 15 8B 44 24 .@.....|$L.t..D$
00723200 28 83 00 FF 75 0C 8B 48 04 8B 51 18 50 FF D2 83 (...u..H..Q.P...
00723210 C4 04 8B 44 24 50 83 00 FF 75 0C 8B 48 04 8B 51 ...D$P...u..H..Q
00723220 18 50 FF D2 83 C4 04 8B 44 24 40 EB B0 68 36 1D .P......D$@..h6.
00723230 00 00 68 7C 92 8D 00 E8 84 EB FB FF 8B 8C 24 4C ..h|..........$L
00723240 01 00 00 83 C4 08 5F 5E 33 CC 33 C0 E8 3D 19 F7 ......_^3.3..=..
00723250 FF 81 C4 40 01 00 00 C3 59 28 72 00 5E 28 72 00 ...@....Y(r.^(r.
00723260 54 28 72 00 4F 28 72 00 63 28 72 00 6D 28 72 00 T(r.O(r.c(r.m(r.
00723270 00 05 05 01 05 05 05 05 05 05 05 02 05 03 05 05 ................
00723280 04 8D 49 00 63 2B 72 00 15 2D 72 00 6B 2C 72 00 ..I.c+r..-r.k,r.
00723290 4A 2D 72 00 78 2B 72 00 1B 31 72 00 00 05 05 05 J-r.x+r..1r.....
007232A0 05 05 05 05 05 05 05 05 05 05 05 05 05 05 05 05 ................
007232B0 05 05 05 05 05 05 05 05 05 05 05 05 01 01 01 05 ................
007232C0 05 05 05 05 05 05 05 05 05 05 05 05 05 05 05 02 ................
007232D0 05 05 05 05 05 05 05 05 05 05 03 02 01 01 01 05 ................
007232E0 02 05 05 05 05 05 02 05 05 04 04 05 02 05 05 02 ................
007232F0 56 8B 74 24 08 8B 46 04 3D 20 3B A2 00 74 20 68 V.t$..F.= ;..t h
00723300 20 3B A2 00 50 E8 66 23 FB FF 83 C4 08 85 C0 75  ;..P.f#.......u
00723310 0E 83 05 80 64 A1 00 01 B8 80 64 A1 00 5E C3 8B ....d.....d..^..
00723320 44 24 0C 50 56 E8 76 F2 FF FF 83 C4 08 5E C3 CC D$.PV.v......^..

;; fn00723330: 00723330
;;   Called from:
;;     007236BB (in fn00723540)
fn00723330 proc
	push	ebx
	push	ebp
	mov	ebp,[esp+0Ch]
	push	esi
	push	edi
	mov	edi,[8A459Ch]
	mov	ebx,eax

l00723340:
	movsx	eax,byte ptr [ebx]
	push	eax
	call	edi
	movsx	ecx,byte ptr [ebp+0h]
	push	ecx
	mov	esi,eax
	call	edi
	add	esp,8h
	add	ebx,1h
	add	ebp,1h
	test	esi,esi
	mov	ecx,eax
	jz	723362h

l0072335E:
	cmp	esi,ecx
	jz	723340h

l00723362:
	pop	edi
	mov	eax,esi
	pop	esi
	pop	ebp
	sub	eax,ecx
	pop	ebx
	ret
0072336B                                  CC CC CC CC CC            .....

;; fn00723370: 00723370
;;   Called from:
;;     007236A8 (in fn00723540)
fn00723370 proc
	push	ebp
	mov	ebp,[esp+8h]
	test	ebp,ebp
	jnz	72337Dh

l00723379:
	xor	eax,eax
	pop	ebp
	ret

l0072337D:
	push	edi
	mov	edi,[ebp+3Ch]
	push	ebx
	mov	eax,4h
	mov	ecx,8D9B3Ch
	lea	edx,[edi+ebp]
	push	esi

l00723390:
	mov	esi,[edx]
	cmp	esi,[ecx]
	jnz	7233A8h

l00723396:
	sub	eax,4h
	add	ecx,4h
	add	edx,4h
	cmp	eax,4h
	jnc	723390h

l007233A4:
	test	eax,eax
	jz	723405h

l007233A8:
	movzx	ebx,byte ptr [ecx]
	movzx	esi,byte ptr [edx]
	sub	esi,ebx
	jnz	7233F7h

l007233B2:
	sub	eax,1h
	add	ecx,1h
	add	edx,1h
	test	eax,eax
	jz	723405h

l007233BF:
	movzx	ebx,byte ptr [ecx]
	movzx	esi,byte ptr [edx]
	sub	esi,ebx
	jnz	7233F7h

l007233C9:
	sub	eax,1h
	add	ecx,1h
	add	edx,1h
	test	eax,eax
	jz	723405h

l007233D6:
	movzx	ebx,byte ptr [ecx]
	movzx	esi,byte ptr [edx]
	sub	esi,ebx
	jnz	7233F7h

l007233E0:
	sub	eax,1h
	add	ecx,1h
	add	edx,1h
	test	eax,eax
	jz	723405h

l007233ED:
	movzx	eax,byte ptr [ecx]
	movzx	esi,byte ptr [edx]
	sub	esi,eax
	jz	723405h

l007233F7:
	test	esi,esi
	mov	eax,1h
	jg	723407h

l00723400:
	or	eax,0FFh
	jmp	723407h

l00723405:
	xor	eax,eax

l00723407:
	test	eax,eax
	jnz	7234C5h

l0072340F:
	movzx	eax,word ptr [edi+ebp+18h]
	cmp	ax,10Bh
	jnz	723426h

l0072341A:
	mov	ecx,5Ch
	mov	eax,68h
	jmp	72343Ah

l00723426:
	cmp	ax,20Bh
	jnz	7234C5h

l00723430:
	mov	ecx,6Ch
	mov	eax,78h

l0072343A:
	lea	ecx,[ecx+edi+18h]
	cmp	dword ptr [ecx+ebp],2h
	jc	7234C5h

l00723448:
	lea	edx,[eax+edi+18h]
	cmp	dword ptr [edx+ebp+4h],0h
	lea	eax,[edx+ebp]
	jz	7234C5h

l00723456:
	mov	edi,[eax]
	add	edi,ebp
	cmp	dword ptr [edi],0h
	jz	7234C5h

l0072345F:
	mov	ebx,[8A4614h]

l00723465:
	mov	esi,[edi+0Ch]
	add	esi,ebp
	mov	eax,esi
	lea	edx,[eax+1h]
	nop

l00723470:
	mov	cl,[eax]
	add	eax,1h
	test	cl,cl
	jnz	723470h

l00723479:
	sub	eax,edx
	cmp	eax,6h
	jc	7234BDh

l00723480:
	push	6h
	push	8D3ED8h
	push	esi
	call	ebx
	add	esp,0Ch
	test	eax,eax
	jnz	7234BDh

l00723491:
	mov	al,[esi+6h]
	test	al,al
	lea	ecx,[esi+6h]
	jz	7234B6h

l0072349B:
	jmp	7234A0h
0072349D                                        8D 49 00              .I.

l007234A0:
	cmp	al,2Eh
	jz	7234B6h

l007234A4:
	cmp	al,30h
	jl	7234BDh

l007234A8:
	cmp	al,39h
	jg	7234BDh

l007234AC:
	mov	al,[ecx+1h]
	add	ecx,1h
	test	al,al
	jnz	7234A0h

l007234B6:
	mov	eax,esi
	pop	esi
	pop	ebx
	pop	edi
	pop	ebp
	ret

l007234BD:
	add	edi,14h
	cmp	dword ptr [edi],0h
	jnz	723465h

l007234C5:
	pop	esi
	pop	ebx
	pop	edi
	xor	eax,eax
	pop	ebp
	ret
007234CC                                     CC CC CC CC             ....

;; fn007234D0: 007234D0
;;   Called from:
;;     0065732B (in fn00657290)
fn007234D0 proc
	sub	esp,10Ch
	mov	eax,[0A14188h]
	xor	eax,esp
	mov	[esp+108h],eax
	push	esi
	mov	esi,[esp+114h]
	lea	eax,[esp+4h]
	push	eax
	lea	ecx,[esp+0Ch]
	push	ecx
	push	104h
	push	esi
	call	dword ptr [8A4100h]
	test	eax,eax
	jnz	72351Ch

l00723506:
	pop	esi
	mov	ecx,[esp+108h]
	xor	ecx,esp
	call	694B8Eh
	add	esp,10Ch
	ret

l0072351C:
	push	8h
	push	0h
	push	esi
	call	dword ptr [8A412Ch]
	mov	ecx,[esp+10Ch]
	pop	esi
	xor	ecx,esp
	call	694B8Eh
	add	esp,10Ch
	ret
0072353D                                        CC CC CC              ...

;; fn00723540: 00723540
;;   Called from:
;;     0074FA23 (in fn0074F9E0)
fn00723540 proc
	sub	esp,308h
	mov	eax,[0A14188h]
	xor	eax,esp
	mov	[esp+304h],eax
	mov	eax,[esp+310h]
	push	esi
	mov	esi,[esp+318h]
	push	eax
	push	8D9BC8h
	lea	eax,[esp+20Ch]
	push	102h
	push	eax
	call	724FE0h
	push	0h
	push	esi
	call	657290h
	mov	esi,eax
	add	esp,18h
	test	esi,esi
	jnz	72368Eh

l00723590:
	call	dword ptr [8A4114h]
	push	0h
	push	100h
	lea	ecx,[esp+10Ch]
	push	ecx
	push	0h
	mov	esi,eax
	push	esi
	push	0h
	push	1000h
	call	dword ptr [8A4110h]
	test	eax,eax
	jnz	7235D8h

l007235BB:
	push	esi
	push	8D9BA4h
	lea	edx,[esp+0Ch]
	push	100h
	push	edx
	call	724FE0h
	add	esp,10h
	jmp	723662h

l007235D8:
	cmp	eax,2h
	jl	7235F8h

l007235DD:
	cmp	byte ptr [esp+eax+102h],0Dh
	lea	eax,[esp+eax+104h]
	jnz	7235F8h

l007235EE:
	cmp	byte ptr [eax-1h],0Ah
	jnz	7235F8h

l007235F4:
	mov	byte ptr [eax-2h],0h

l007235F8:
	mov	eax,[8D9B90h]
	mov	ecx,[8D9B94h]
	mov	edx,[8D9B98h]
	mov	[esp+4h],eax
	mov	eax,[8D9B9Ch]
	mov	[esp+8h],ecx
	mov	cx,[8D9BA0h]
	mov	[esp+10h],eax
	lea	eax,[esp+4h]
	mov	[esp+0Ch],edx
	mov	[esp+14h],cx
	lea	edx,[eax+1h]

l00723631:
	mov	cl,[eax]
	add	eax,1h
	test	cl,cl
	jnz	723631h

l0072363A:
	sub	eax,edx
	mov	edx,100h
	sub	edx,eax
	push	edx
	lea	ecx,[esp+108h]
	push	ecx
	lea	edx,[esp+eax+0Ch]
	push	edx
	call	dword ptr [8A45DCh]
	add	esp,0Ch
	mov	byte ptr [esp+103h],0h

l00723662:
	mov	ecx,[0A16F8Ch]
	lea	eax,[esp+4h]
	push	eax
	push	ecx
	call	6E0F80h
	add	esp,8h
	xor	eax,eax
	pop	esi
	mov	ecx,[esp+304h]
	xor	ecx,esp
	call	694B8Eh
	add	esp,308h
	ret

l0072368E:
	push	edi
	push	5h
	push	2h
	push	8D9B80h
	lea	edx,[esp+14h]
	push	100h
	push	edx
	call	724FE0h
	push	esi
	call	723370h
	mov	edi,eax
	add	esp,18h
	test	edi,edi
	jz	723710h

l007236B6:
	push	edi
	lea	eax,[esp+0Ch]
	call	723330h
	add	esp,4h
	test	eax,eax
	jz	723710h

l007236C7:
	push	edi
	push	8D9B44h
	lea	eax,[esp+10h]
	push	100h
	push	eax
	call	724FE0h
	mov	edx,[0A16F8Ch]
	lea	ecx,[esp+18h]
	push	ecx
	push	edx
	call	6E0F80h
	add	esp,18h
	push	esi
	call	dword ptr [8A40A8h]
	pop	edi
	xor	eax,eax
	pop	esi
	mov	ecx,[esp+304h]
	xor	ecx,esp
	call	694B8Eh
	add	esp,308h
	ret

l00723710:
	lea	eax,[esp+208h]
	push	eax
	push	esi
	call	dword ptr [8A4094h]
	mov	ecx,[esp+30Ch]
	pop	edi
	pop	esi
	xor	ecx,esp
	call	694B8Eh
	add	esp,308h
	ret
00723736                   CC CC CC CC CC CC CC CC CC CC       ..........

;; fn00723740: 00723740
;;   Called from:
;;     007238D4 (in fn00723860)
fn00723740 proc
	push	ebx
	push	esi
	mov	esi,[0A6DBC8h]
	test	esi,esi
	push	edi
	jnz	7237E8h

l00723751:
	mov	ebx,[0A6DBC4h]
	test	ebx,ebx
	jz	7237C0h

l0072375B:
	lea	edi,[ebx+ebx]
	cmp	edi,ebx
	jbe	723810h

l00723766:
	cmp	edi,9249249h
	ja	723810h

l00723772:
	mov	ecx,[0A6DBC0h]
	lea	eax,[0000h+edi*8]
	sub	eax,edi
	add	eax,eax
	add	eax,eax
	push	eax
	push	ecx
	call	dword ptr [8A4594h]
	add	esp,8h
	test	eax,eax
	jz	723810h

l00723794:
	cmp	ebx,edi
	mov	[0A6DBC0h],eax
	mov	edx,ebx
	jnc	7237D6h

l0072379F:
	lea	ecx,[0000h+ebx*8]
	sub	ecx,ebx
	push	ebp
	lea	ebp,[edi-1h]
	lea	ecx,[eax+ecx*4+14h]

l007237B0:
	cmp	edx,ebp
	mov	dword ptr [ecx-14h],0h
	jnc	7237C7h

l007237BB:
	lea	esi,[ecx+8h]
	jmp	7237C9h

l007237C0:
	mov	edi,10h
	jmp	723772h

l007237C7:
	xor	esi,esi

l007237C9:
	mov	[ecx],esi
	add	edx,1h
	add	ecx,1Ch
	cmp	edx,edi
	jc	7237B0h

l007237D5:
	pop	ebp

l007237D6:
	lea	edx,[0000h+ebx*8]
	sub	edx,ebx
	lea	esi,[eax+edx*4]
	mov	[0A6DBC4h],edi

l007237E8:
	mov	ebx,[esi+14h]
	lea	edi,[esi+14h]
	push	40000h
	mov	[0A6DBC8h],ebx
	call	dword ptr [8A45BCh]
	add	esp,4h
	test	eax,eax
	mov	[esi],eax
	jnz	723816h

l00723808:
	mov	[edi],ebx
	mov	[0A6DBC8h],esi

l00723810:
	pop	edi
	pop	esi
	xor	eax,eax
	pop	ebx
	ret

l00723816:
	add	dword ptr [0A6DBD0h],1h
	mov	ecx,eax
	and	ecx,0FFFh
	mov	dword ptr [esi+10h],0h
	mov	[esi+4h],eax
	mov	dword ptr [esi+8h],40h
	jz	723849h

l00723838:
	sub	eax,ecx
	add	eax,1000h
	mov	dword ptr [esi+8h],3Fh
	mov	[esi+4h],eax

l00723849:
	mov	eax,[esi+8h]
	mov	[esi+0Ch],eax
	pop	edi
	mov	eax,esi
	pop	esi
	pop	ebx
	ret
00723855                CC CC CC CC CC CC CC CC CC CC CC      ...........

;; fn00723860: 00723860
;;   Called from:
;;     006DDD89 (in fn006DDD80)
;;     006EAA9A (in fn006EA9D0)
;;     006EC9EE (in fn006EC9B0)
;;     006ECB30 (in fn006ECAC0)
;;     006F1B7D (in fn006F1AA0)
;;     006F20C6 (in fn006F2090)
;;     006FEEB9 (in fn006FEEB0)
;;     007105F0 (in fn007105C0)
;;     007106E7 (in fn00710690)
;;     00710776 (in fn00710730)
;;     00710D9E (in fn00710CB0)
;;     007113A5 (in fn00711330)
;;     00711456 (in fn00711400)
;;     0071201B (in fn00711F50)
;;     00712440 (in fn007120F0)
;;     00723B6E (in fn00723B60)
;;     00723BD6 (in fn00723B60)
;;     00727346 (in fn00727340)
;;     00727386 (in fn00727380)
;;     007273D6 (in fn007273D0)
;;     0072742E (in fn00727420)
;;     007279EC (in fn007279E0)
;;     00727A2C (in fn007279E0)
;;     00727D6D (in fn00727D50)
;;     007286AD (in fn00728650)
;;     00728E4D (in fn00728E40)
;;     0072930B (in fn00729300)
;;     00729348 (in fn00729300)
;;     00729820 (in fn00729810)
;;     00729863 (in fn00729810)
;;     007298A4 (in fn00729810)
;;     007298E9 (in fn00729810)
;;     00729F60 (in fn00729F50)
;;     00729FA7 (in fn00729F50)
;;     00729FE8 (in fn00729F50)
;;     0072A029 (in fn00729F50)
;;     0072A06A (in fn00729F50)
;;     0072CC9D (in fn0072CC90)
;;     0072CCE2 (in fn0072CC90)
;;     0072CEEA (in fn0072CEE0)
;;     0072CF2F (in fn0072CEE0)
;;     0072CF74 (in fn0072CEE0)
;;     0072D193 (in fn0072D130)
;;     0072D1D4 (in fn0072D130)
;;     0072D3DB (in fn0072D3D0)
;;     0072D418 (in fn0072D3D0)
;;     0072D45D (in fn0072D3D0)
;;     0072D4A2 (in fn0072D3D0)
;;     0072DDBA (in fn0072DD60)
;;     0072DDFF (in fn0072DD60)
;;     0072E92B (in fn0072E920)
;;     007331D2 (in fn007331D0)
;;     00734DE4 (in fn00734BB0)
;;     007379D4 (in fn007379B0)
;;     00737B7B (in fn007379B0)
;;     0073B662 (in fn0073B660)
;;     0073E5FF (in fn0073E590)
;;     00740781 (in fn007406A0)
;;     007409A7 (in fn007406A0)
;;     007514E1 (in fn007514B0)
;;     00752DC3 (in fn00752DC0)
;;     00755065 (in fn00755020)
fn00723860 proc
	push	ebx
	push	esi
	push	edi
	mov	edi,[esp+10h]
	lea	eax,[edi-1h]
	cmp	eax,100h
	jnc	7239A6h

l00723875:
	shr	eax,3h
	mov	ebx,eax
	mov	ecx,[0A23BE0h+ebx*8]
	mov	edx,[ecx+8h]
	cmp	ecx,edx
	jz	7238CAh

l00723888:
	mov	eax,[ecx+4h]
	add	dword ptr [ecx],1h
	mov	esi,[eax]
	test	esi,esi
	mov	[ecx+4h],esi
	jnz	7239B9h

l0072389B:
	mov	esi,[ecx+18h]
	cmp	esi,[ecx+1Ch]
	ja	7238BDh

l007238A3:
	lea	edx,[esi+ecx]
	mov	[ecx+4h],edx
	lea	edx,[esi+ebx*8+8h]
	pop	edi
	mov	[ecx+18h],edx
	mov	ecx,[ecx+4h]
	pop	esi
	mov	dword ptr [ecx],0h
	pop	ebx
	ret

l007238BD:
	mov	ecx,[ecx+0Ch]
	pop	edi
	pop	esi
	mov	[edx+0Ch],ecx
	mov	[ecx+8h],edx
	pop	ebx
	ret

l007238CA:
	mov	esi,[0A6DBCCh]
	test	esi,esi
	jnz	7238F7h

l007238D4:
	call	723740h
	mov	esi,eax
	test	esi,esi
	mov	[0A6DBCCh],esi
	jz	7239A6h

l007238E9:
	mov	dword ptr [esi+18h],0h
	mov	dword ptr [esi+14h],0h

l007238F7:
	mov	ecx,[esi+10h]
	test	ecx,ecx
	jz	723906h

l007238FE:
	mov	edx,[ecx+8h]
	mov	[esi+10h],edx
	jmp	723935h

l00723906:
	mov	ecx,[esi+4h]
	mov	edi,esi
	sub	edi,[0A6DBC0h]
	mov	eax,92492493h
	imul	edi
	add	edx,edi
	sar	edx,4h
	mov	eax,edx
	shr	eax,1Fh
	add	eax,edx
	mov	[ecx+10h],eax
	mov	dword ptr [ecx+14h],0FFFFh
	add	dword ptr [esi+4h],1000h

l00723935:
	add	dword ptr [esi+8h],0FFh
	jnz	72394Fh

l0072393B:
	mov	esi,[esi+14h]
	test	esi,esi
	mov	[0A6DBCCh],esi
	jz	72394Fh

l00723948:
	mov	dword ptr [esi+18h],0h

l0072394F:
	mov	eax,[0A23BE0h+ebx*8]
	mov	[ecx+8h],eax
	mov	[ecx+0Ch],eax
	mov	[eax+8h],ecx
	mov	[eax+0Ch],ecx
	cmp	[ecx+14h],ebx
	mov	dword ptr [ecx],1h
	jnz	723979h

l0072396D:
	mov	eax,[ecx+4h]
	mov	edx,[eax]
	pop	edi
	pop	esi
	mov	[ecx+4h],edx
	pop	ebx
	ret

l00723979:
	lea	edx,[0008h+ebx*8]
	lea	esi,[edx+edx+20h]
	mov	[ecx+18h],esi
	mov	esi,1000h
	sub	esi,edx
	lea	eax,[ecx+20h]
	pop	edi
	mov	[ecx+1Ch],esi
	add	edx,eax
	mov	[ecx+14h],ebx
	pop	esi
	mov	[ecx+4h],edx
	mov	dword ptr [edx],0h
	pop	ebx
	ret

l007239A6:
	test	edi,edi
	jnz	7239AFh

l007239AA:
	mov	edi,1h

l007239AF:
	push	edi
	call	dword ptr [8A45BCh]
	add	esp,4h

l007239B9:
	pop	edi
	pop	esi
	pop	ebx
	ret
007239BD                                        CC CC CC              ...

;; fn007239C0: 007239C0
;;   Called from:
;;     006E862D (in fn006E8430)
;;     006EC53C (in fn006EC4F0)
;;     006FF006 (in fn006FEFD0)
;;     00717790 (in fn00717740)
;;     00717800 (in fn00717740)
;;     0071FA60 (in fn0071F9C0)
;;     00723BED (in fn00723B60)
;;     00727188 (in fn00727170)
;;     00727193 (in fn00727170)
;;     00727279 (in fn00727170)
;;     0072A50D (in fn0072A350)
;;     0072E8A5 (in fn0072E790)
;;     00737987 (in fn00737950)
;;     00737B5E (in fn007379B0)
;;     00737BCB (in fn007379B0)
;;     0073B7C9 (in fn0073B790)
;;     0073B7D9 (in fn0073B790)
;;     0073B800 (in fn0073B7F0)
;;     0073E628 (in fn0073E590)
;;     007409EC (in fn007406A0)
;;     00752DFF (in fn00752DC0)
fn007239C0 proc
	mov	ecx,[esp+4h]
	test	ecx,ecx
	jz	723AA9h

l007239CC:
	mov	eax,ecx
	and	eax,0FFFFF000h
	mov	edx,[eax+10h]
	cmp	edx,[0A6DBC4h]
	push	esi
	push	edi
	jnc	723B47h

l007239E4:
	mov	esi,[0A6DBC0h]
	lea	edi,[0000h+edx*8]
	sub	edi,edx
	mov	edx,[esi+edi*4]
	mov	edi,ecx
	sub	edi,edx
	cmp	edi,40000h
	jnc	723B47h

l00723A06:
	test	edx,edx
	jz	723B47h

l00723A0E:
	mov	edx,[eax+4h]
	test	edx,edx
	mov	[ecx],edx
	mov	[eax+4h],ecx
	jz	723B28h

l00723A1E:
	add	dword ptr [eax],0FFh
	jnz	723AA7h

l00723A27:
	mov	ecx,[eax+8h]
	mov	edx,[eax+0Ch]
	mov	[ecx+0Ch],edx
	mov	[edx+8h],ecx
	mov	ecx,[eax+10h]
	lea	edx,[0000h+ecx*8]
	sub	edx,ecx
	mov	ecx,[esi+edx*4+10h]
	lea	esi,[esi+edx*4]
	mov	[eax+8h],ecx
	mov	edi,1h
	add	[esi+8h],edi
	mov	ecx,[esi+8h]
	cmp	ecx,[esi+0Ch]
	mov	[esi+10h],eax
	jnz	723AAAh

l00723A5C:
	mov	eax,[esi+18h]
	test	eax,eax
	jnz	723A6Eh

l00723A63:
	mov	edx,[esi+14h]
	mov	[0A6DBCCh],edx
	jmp	723A74h

l00723A6E:
	mov	ecx,[esi+14h]
	mov	[eax+14h],ecx

l00723A74:
	mov	eax,[esi+14h]
	test	eax,eax
	jz	723A81h

l00723A7B:
	mov	edx,[esi+18h]
	mov	[eax+18h],edx

l00723A81:
	mov	eax,[0A6DBC8h]
	mov	ecx,[esi]
	push	ecx
	mov	[esi+14h],eax
	mov	[0A6DBC8h],esi
	call	dword ptr [8A45D4h]
	add	esp,4h
	sub	[0A6DBD0h],edi
	mov	dword ptr [esi],0h

l00723AA7:
	pop	edi
	pop	esi

l00723AA9:
	ret

l00723AAA:
	cmp	ecx,edi
	jnz	723ACDh

l00723AAE:
	mov	eax,[0A6DBCCh]
	test	eax,eax
	mov	[esi+14h],eax
	mov	dword ptr [esi+18h],0h
	jz	723AC4h

l00723AC1:
	mov	[eax+18h],esi

l00723AC4:
	pop	edi
	mov	[0A6DBCCh],esi
	pop	esi
	ret

l00723ACD:
	mov	eax,[esi+14h]
	test	eax,eax
	jz	723AA7h

l00723AD4:
	cmp	ecx,[eax+8h]
	jbe	723AA7h

l00723AD9:
	mov	edx,[esi+18h]
	test	edx,edx
	jz	723AE5h

l00723AE0:
	mov	[edx+14h],eax
	jmp	723AEAh

l00723AE5:
	mov	[0A6DBCCh],eax

l00723AEA:
	mov	edx,[esi+14h]
	mov	eax,[esi+18h]
	mov	[edx+18h],eax
	cmp	dword ptr [esi+14h],0h
	jz	723B15h

l00723AF9:
	lea	esp,[esp+0h]

l00723B00:
	mov	eax,[esi+14h]
	cmp	ecx,[eax+8h]
	jbe	723B15h

l00723B08:
	mov	[esi+18h],eax
	mov	edx,[eax+14h]
	test	edx,edx
	mov	[esi+14h],edx
	jnz	723B00h

l00723B15:
	mov	eax,[esi+18h]
	mov	[eax+14h],esi
	mov	eax,[esi+14h]
	test	eax,eax
	jz	723AA7h

l00723B22:
	pop	edi
	mov	[eax+18h],esi
	pop	esi
	ret

l00723B28:
	add	dword ptr [eax],0FFh
	mov	ecx,[eax+14h]
	mov	ecx,[0A23BE0h+ecx*8]
	mov	edx,[ecx+0Ch]
	mov	[eax+8h],ecx
	mov	[eax+0Ch],edx
	pop	edi
	mov	[ecx+0Ch],eax
	mov	[edx+8h],eax
	pop	esi
	ret

l00723B47:
	pop	edi
	pop	esi
	mov	[esp+4h],ecx
	jmp	dword ptr [8A45D4h]
00723B53          CC CC CC CC CC CC CC CC CC CC CC CC CC    .............

;; fn00723B60: 00723B60
;;   Called from:
;;     006EC52D (in fn006EC4F0)
;;     006FEFB4 (in fn006FEF90)
;;     0072747B (in fn00727420)
;;     0073B732 (in fn0073B6B0)
fn00723B60 proc
	push	esi
	mov	esi,[esp+8h]
	test	esi,esi
	jnz	723B78h

l00723B69:
	mov	eax,[esp+0Ch]
	push	eax
	call	723860h
	add	esp,4h
	pop	esi
	ret

l00723B78:
	mov	eax,esi
	and	eax,0FFFFF000h
	mov	ecx,[eax+10h]
	cmp	ecx,[0A6DBC4h]
	jnc	723BFBh

l00723B8A:
	lea	edx,[0000h+ecx*8]
	sub	edx,ecx
	mov	ecx,[0A6DBC0h]
	mov	ecx,[ecx+edx*4]
	mov	edx,esi
	sub	edx,ecx
	cmp	edx,40000h
	jnc	723BFBh

l00723BA8:
	test	ecx,ecx
	jz	723BFBh

l00723BAC:
	push	edi
	mov	edi,[eax+14h]
	mov	eax,[esp+10h]
	lea	edi,[0008h+edi*8]
	cmp	eax,edi
	ja	723BD4h

l00723BBF:
	lea	ecx,[edi+edi*2]
	lea	edx,[0000h+eax*4]
	cmp	edx,ecx
	jbe	723BD2h

l00723BCD:
	mov	eax,esi
	pop	edi

l00723BD0:
	pop	esi
	ret

l00723BD2:
	mov	edi,eax

l00723BD4:
	push	ebx
	push	eax
	call	723860h
	mov	ebx,eax
	add	esp,4h
	test	ebx,ebx
	jz	723BF5h

l00723BE4:
	push	edi
	push	esi
	push	ebx
	call	695030h
	push	esi
	call	7239C0h
	add	esp,10h

l00723BF5:
	mov	eax,ebx
	pop	ebx
	pop	edi
	pop	esi
	ret

l00723BFB:
	mov	eax,[esp+0Ch]
	test	eax,eax
	jz	723C10h

l00723C03:
	push	eax
	push	esi
	call	dword ptr [8A4594h]
	add	esp,8h
	pop	esi
	ret

l00723C10:
	push	1h
	push	esi
	call	dword ptr [8A4594h]
	add	esp,8h
	test	eax,eax
	jnz	723BD0h

l00723C20:
	mov	eax,esi
	pop	esi
	ret
00723C24             CC CC CC CC CC CC CC CC CC CC CC CC     ............
00723C30 8B 46 0C 85 C0 74 23 8B 40 04 3D 50 B4 A1 00 74 .F...t#.@.=P...t
00723C40 12 68 50 B4 A1 00 50 E8 24 1A FB FF 83 C4 08 85 .hP...P.$.......
00723C50 C0 74 07 8B 46 0C 83 C0 14 C3 B8 38 0E 8D 00 C3 .t..F......8....
00723C60 56 8B 74 24 08 8B 46 0C 85 C0 74 24 8B 40 04 3D V.t$..F...t$.@.=
00723C70 50 B4 A1 00 74 12 68 50 B4 A1 00 50 E8 EF 19 FB P...t.hP...P....
00723C80 FF 83 C4 08 85 C0 74 08 8B 46 0C 83 C0 14 EB 05 ......t..F......
00723C90 B8 38 0E 8D 00 8B 4E 08 8B 51 0C 52 50 68 40 9E .8....N..Q.RPh@.
00723CA0 8D 00 E8 C9 E3 FC FF 83 C4 0C 5E C3 CC CC CC CC ..........^.....
00723CB0 56 8B 74 24 08 8B 46 0C 85 C0 74 24 8B 40 04 3D V.t$..F...t$.@.=
00723CC0 50 B4 A1 00 74 12 68 50 B4 A1 00 50 E8 9F 19 FB P...t.hP...P....
00723CD0 FF 83 C4 08 85 C0 74 08 8B 46 0C 83 C0 14 EB 05 ......t..F......
00723CE0 B8 38 0E 8D 00 8B 4E 08 8B 51 0C 52 50 68 60 9E .8....N..Q.RPh`.
00723CF0 8D 00 E8 79 E3 FC FF 83 C4 0C 5E C3 CC CC CC CC ...y......^.....
00723D00 56 8B 74 24 08 8B 46 0C 85 C0 74 24 8B 40 04 3D V.t$..F...t$.@.=
00723D10 50 B4 A1 00 74 12 68 50 B4 A1 00 50 E8 4F 19 FB P...t.hP...P.O..
00723D20 FF 83 C4 08 85 C0 74 08 8B 46 0C 83 C0 14 EB 05 ......t..F......
00723D30 B8 38 0E 8D 00 8B 4E 08 8B 51 0C 52 50 68 80 9E .8....N..Q.RPh..
00723D40 8D 00 E8 29 E3 FC FF 83 C4 0C 5E C3 CC CC CC CC ...)......^.....
00723D50 56 8B 74 24 08 8B 46 0C 85 C0 74 24 8B 40 04 3D V.t$..F...t$.@.=
00723D60 50 B4 A1 00 74 12 68 50 B4 A1 00 50 E8 FF 18 FB P...t.hP...P....
00723D70 FF 83 C4 08 85 C0 74 08 8B 46 0C 83 C0 14 EB 05 ......t..F......
00723D80 B8 38 0E 8D 00 8B 4E 08 8B 51 0C 52 50 68 A4 9E .8....N..Q.RPh..
00723D90 8D 00 E8 D9 E2 FC FF 83 C4 0C 5E C3 CC CC CC CC ..........^.....
00723DA0 85 FF 56 8B F0 75 0C 83 06 01 89 33 B8 01 00 00 ..V..u.....3....
00723DB0 00 5E C3 8B 47 04 8B 4E 08 3B C1 74 43 51 50 E8 .^..G..N.;.tCQP.
00723DC0 AC 18 FB FF 83 C4 08 85 C0 75 35 8B 47 04 8B 48 .........u5.G..H
00723DD0 0C 8B 56 08 8B 42 0C 51 50 E8 52 FE FF FF 8B 0D ..V..B.QP.R.....
00723DE0 7C 6B A1 00 50 68 C8 9E 8D 00 51 E8 E0 D7 FB FF |k..Ph....Q.....
00723DF0 83 C4 14 C7 03 00 00 00 00 B8 01 00 00 00 5E C3 ..............^.
00723E00 33 C0 5E C3 CC CC CC CC CC CC CC CC CC CC CC CC 3.^.............
00723E10 56 57 8B 7C 24 14 85 FF 75 0B 8B 44 24 10 85 C0 VW.|$...u..D$...
00723E20 74 56 8B 78 04 8B 47 04 3D 80 53 A1 00 0F 84 C5 tV.x..G.=.S.....
00723E30 00 00 00 68 80 53 A1 00 50 E8 32 18 FB FF 83 C4 ...h.S..P.2.....
00723E40 08 85 C0 0F 85 AF 00 00 00 8B 74 24 0C 8B 46 0C ..........t$..F.
00723E50 85 C0 74 78 8B 40 04 3D 50 B4 A1 00 74 12 68 50 ..tx.@.=P...t.hP
00723E60 B4 A1 00 50 E8 07 18 FB FF 83 C4 08 85 C0 74 5C ...P..........t\
00723E70 8B 46 0C 83 C0 14 EB 59 8B 74 24 0C 8B 46 0C 85 .F.....Y.t$..F..
00723E80 C0 74 24 8B 40 04 3D 50 B4 A1 00 74 12 68 50 B4 .t$.@.=P...t.hP.
00723E90 A1 00 50 E8 D8 17 FB FF 83 C4 08 85 C0 74 08 8B ..P..........t..
00723EA0 46 0C 83 C0 14 EB 05 B8 38 0E 8D 00 8B 4E 08 8B F.......8....N..
00723EB0 51 0C 52 50 A1 7C 6B A1 00 68 88 9F 8D 00 50 E8 Q.RP.|k..h....P.
00723EC0 0C D7 FB FF 83 C4 10 5F 33 C0 5E C3 B8 38 0E 8D ......._3.^..8..
00723ED0 00 8B 4F 04 8B 51 0C 8B 4E 08 52 8B 51 0C 52 50 ..O..Q..N.R.Q.RP
00723EE0 A1 7C 6B A1 00 68 48 9F 8D 00 50 E8 E0 D6 FB FF .|k..hH...P.....
00723EF0 83 C4 14 5F 33 C0 5E C3 8B 74 24 0C 8B 4E 08 51 ..._3.^..t$..N.Q
00723F00 57 E8 6A 17 FB FF 83 C4 08 85 C0 75 54 8B 46 0C W.j........uT.F.
00723F10 85 C0 74 24 8B 40 04 3D 50 B4 A1 00 74 12 68 50 ..t$.@.=P...t.hP
00723F20 B4 A1 00 50 E8 47 17 FB FF 83 C4 08 85 C0 74 08 ...P.G........t.
00723F30 8B 46 0C 83 C0 14 EB 05 B8 38 0E 8D 00 8B 57 0C .F.......8....W.
00723F40 8B 4E 08 52 8B 51 0C 52 50 A1 7C 6B A1 00 68 08 .N.R.Q.RP.|k..h.
00723F50 9F 8D 00 50 E8 77 D6 FB FF 83 C4 14 5F 33 C0 5E ...P.w......_3.^
00723F60 C3 8B 4E 10 6A 00 57 51 E8 33 55 FD FF 83 C4 0C ..N.j.WQ.3U.....
00723F70 5F 5E C3 CC CC CC CC CC CC CC CC CC CC CC CC CC _^..............
00723F80 51 53 56 8B 74 24 10 57 8B 7C 24 18 8D 5C 24 0C QSV.t$.W.|$..\$.
00723F90 8B C6 E8 09 FE FF FF 85 C0 74 09 8B 44 24 0C 5F .........t..D$._
00723FA0 5E 5B 59 C3 8B 46 10 6A 00 57 50 E8 F0 54 FD FF ^[Y..F.j.WP..T..
00723FB0 83 C4 0C 5F 5E 5B 59 C3 CC CC CC CC CC CC CC CC ..._^[Y.........
00723FC0 51 53 56 8B 74 24 10 57 8B 7C 24 18 8D 5C 24 0C QSV.t$.W.|$..\$.
00723FD0 8B C6 E8 C9 FD FF FF 85 C0 74 09 8B 44 24 0C 5F .........t..D$._
00723FE0 5E 5B 59 C3 8B 46 10 50 57 E8 22 E5 02 00 83 C4 ^[Y..F.PW.".....
00723FF0 08 5F 5E 5B 59 C3 CC CC CC CC CC CC CC CC CC CC ._^[Y...........
00724000 51 53 56 8B 74 24 10 57 8B 7C 24 18 8D 5C 24 0C QSV.t$.W.|$..\$.
00724010 8B C6 E8 89 FD FF FF 85 C0 74 09 8B 44 24 0C 5F .........t..D$._
00724020 5E 5B 59 C3 8B 46 10 83 78 04 00 74 14 8B F0 8B ^[Y..F..x..t....
00724030 4E 10 8B 56 04 51 57 FF D2 83 C4 08 5F 5E 5B 59 N..V.QW....._^[Y
00724040 C3 8B 46 0C 85 C0 74 24 8B 40 04 3D 50 B4 A1 00 ..F...t$.@.=P...
00724050 74 12 68 50 B4 A1 00 50 E8 13 16 FB FF 83 C4 08 t.hP...P........
00724060 85 C0 74 08 8B 46 0C 83 C0 14 EB 05 B8 38 0E 8D ..t..F.......8..
00724070 00 8B 4E 08 8B 51 0C 52 50 A1 F0 78 A1 00 68 C8 ..N..Q.RP..x..h.
00724080 9F 8D 00 50 E8 47 D5 FB FF 83 C4 10 5F 5E 33 C0 ...P.G......_^3.
00724090 5B 59 C3 CC CC CC CC CC CC CC CC CC CC CC CC CC [Y..............
007240A0 8B 46 08 50 57 E8 46 FE FD FF 83 C4 08 85 C0 75 .F.PW.F........u
007240B0 62 8B 46 0C 85 C0 74 24 8B 40 04 3D 50 B4 A1 00 b.F...t$.@.=P...
007240C0 74 12 68 50 B4 A1 00 50 E8 A3 15 FB FF 83 C4 08 t.hP...P........
007240D0 85 C0 74 08 8B 46 0C 83 C0 14 EB 05 B8 38 0E 8D ..t..F.......8..
007240E0 00 8B 4F 04 8B 51 0C 8B 4E 08 52 8B 51 0C 52 50 ..O..Q..N.R.Q.RP
007240F0 A1 7C 6B A1 00 68 00 A0 8D 00 50 E8 D0 D4 FB FF .|k..h....P.....
00724100 8B 4C 24 18 83 C4 14 C7 01 FF FF FF FF B8 01 00 .L$.............
00724110 00 00 C3 33 C0 C3 CC CC CC CC CC CC CC CC CC CC ...3............
00724120 51 56 8B 74 24 0C 57 8B 7C 24 14 8D 44 24 08 50 QV.t$.W.|$..D$.P
00724130 E8 6B FF FF FF 83 C4 04 85 C0 74 08 8B 44 24 08 .k........t..D$.
00724140 5F 5E 59 C3 8B 4C 24 18 8B 56 10 51 52 57 E8 AD _^Y..L$..V.QRW..
00724150 E5 02 00 83 C4 0C 5F 5E 59 C3 CC CC CC CC CC CC ......_^Y.......
00724160 51 56 8B 74 24 0C 57 8B 7C 24 14 8D 44 24 08 50 QV.t$.W.|$..D$.P
00724170 E8 2B FF FF FF 83 C4 04 85 C0 74 08 8B 44 24 08 .+........t..D$.
00724180 5F 5E 59 C3 8B 4E 10 83 79 08 00 74 18 8B 44 24 _^Y..N..y..t..D$
00724190 18 8B F1 8B 56 10 8B 4E 08 52 50 57 FF D1 83 C4 ....V..N.RPW....
007241A0 0C 5F 5E 59 C3 8B 46 0C 85 C0 74 24 8B 40 04 3D ._^Y..F...t$.@.=
007241B0 50 B4 A1 00 74 12 68 50 B4 A1 00 50 E8 AF 14 FB P...t.hP...P....
007241C0 FF 83 C4 08 85 C0 74 08 8B 46 0C 83 C0 14 EB 05 ......t..F......
007241D0 B8 38 0E 8D 00 8B 56 08 8B 4A 0C 8B 15 F0 78 A1 .8....V..J....x.
007241E0 00 51 50 68 4C A0 8D 00 52 E8 E2 D3 FB FF 83 C4 .QPhL...R.......
007241F0 10 5F 83 C8 FF 5E 59 C3 CC CC CC CC CC CC CC CC ._...^Y.........
00724200 53 8B 5C 24 0C 55 8B 6B 08 83 FD 01 56 8B 74 24 S.\$.U.k....V.t$
00724210 10 7D 51 8B 46 0C 85 C0 74 24 8B 40 04 3D 50 B4 .}Q.F...t$.@.=P.
00724220 A1 00 74 12 68 50 B4 A1 00 50 E8 41 14 FB FF 83 ..t.hP...P.A....
00724230 C4 08 85 C0 74 08 8B 46 0C 83 C0 14 EB 05 B8 38 ....t..F.......8
00724240 0E 8D 00 8B 4E 08 8B 51 0C 52 50 A1 7C 6B A1 00 ....N..Q.RP.|k..
00724250 68 D0 A0 8D 00 50 E8 75 D3 FB FF 83 C4 10 5E 5D h....P.u......^]
00724260 33 C0 5B C3 8B 4E 08 57 8B 7B 0C 51 57 E8 7E FC 3.[..N.W.{.QW.~.
00724270 FD FF 83 C4 08 85 C0 75 5A 8B 46 0C 85 C0 74 24 .......uZ.F...t$
00724280 8B 40 04 3D 50 B4 A1 00 74 12 68 50 B4 A1 00 50 .@.=P...t.hP...P
00724290 E8 DB 13 FB FF 83 C4 08 85 C0 74 08 8B 46 0C 83 ..........t..F..
007242A0 C0 14 EB 05 B8 38 0E 8D 00 8B 57 04 8B 4A 0C 8B .....8....W..J..
007242B0 56 08 51 8B 4A 0C 8B 15 7C 6B A1 00 51 50 68 88 V.Q.J...|k..QPh.
007242C0 A0 8D 00 52 E8 07 D3 FB FF 83 C4 14 5F 5E 5D 33 ...R........_^]3
007242D0 C0 5B C3 8B 46 10 6A 00 57 50 E8 C1 51 FD FF 8B .[..F.j.WP..Q...
007242E0 F8 83 C4 0C 85 FF 74 23 55 6A 01 53 E8 1F C1 FB ......t#Uj.S....
007242F0 FF 8B F0 83 C4 0C 85 F6 75 18 83 07 FF 75 0C 8B ........u....u..
00724300 4F 04 8B 51 18 57 FF D2 83 C4 04 5F 5E 5D 33 C0 O..Q.W....._^]3.
00724310 5B C3 8B 44 24 1C 50 56 57 E8 62 33 FE FF 83 C4 [..D$.PVW.b3....
00724320 0C 83 06 FF 8B D8 75 0C 8B 4E 04 8B 51 18 56 FF ......u..N..Q.V.
00724330 D2 83 C4 04 83 07 FF 75 0C 8B 47 04 8B 48 18 57 .......u..G..H.W
00724340 FF D1 83 C4 04 5F 5E 5D 8B C3 5B C3 CC CC CC CC ....._^]..[.....
00724350 8B 44 24 04 8B 48 08 8B 50 10 56 6A 00 51 52 E8 .D$..H..P.Vj.QR.
00724360 3C 51 FD FF 8B F0 83 C4 0C 85 F6 75 02 5E C3 8B <Q.........u.^..
00724370 44 24 10 8B 4C 24 0C 57 50 51 56 E8 00 33 FE FF D$..L$.WPQV..3..
00724380 83 C4 0C 83 06 FF 8B F8 75 0C 8B 56 04 8B 42 18 ........u..V..B.
00724390 56 FF D0 83 C4 04 8B C7 5F 5E C3 CC CC CC CC CC V......._^......
007243A0 8B 44 24 04 8B 48 10 8B 41 0C 85 C0 75 0D 83 05 .D$..H..A...u...
007243B0 B8 63 A1 00 01 B8 B8 63 A1 00 C3 50 E8 FF 86 FC .c.....c...P....
007243C0 FF 83 C4 04 C3 CC CC CC CC CC CC CC CC CC CC CC ................
007243D0 8B 44 24 04 8B 48 10 8B 41 10 85 C0 75 0D 83 05 .D$..H..A...u...
007243E0 B8 63 A1 00 01 B8 B8 63 A1 00 C3 50 E8 CF 86 FC .c.....c...P....
007243F0 FF 83 C4 04 C3 CC CC CC CC CC CC CC CC CC CC CC ................
00724400 53 8B 5C 24 0C 56 57 8B 3B 6A 00 68 C8 3D A2 00 S.\$.VW.;j.h.=..
00724410 E8 4B 0D FB FF 8B F0 83 C4 08 85 F6 74 3A 8B 44 .K..........t:.D
00724420 24 10 85 C0 74 03 83 00 01 57 89 46 08 E8 3E D6 $...t....W.F..>.
00724430 FC FF 83 C4 04 85 C0 89 46 0C 75 17 83 06 FF 75 ........F.u....u
00724440 0C 8B 46 04 8B 48 18 56 FF D1 83 C4 04 5F 5E 33 ..F..H.V....._^3
00724450 C0 5B C3 89 5E 10 8B C6 5F 5E 5B C3 CC CC CC CC .[..^..._^[.....
00724460 53 8B 5C 24 0C 56 57 8B 3B 6A 00 68 88 3E A2 00 S.\$.VW.;j.h.>..
00724470 E8 EB 0C FB FF 8B F0 83 C4 08 85 F6 74 3A 8B 44 ............t:.D
00724480 24 10 85 C0 74 03 83 00 01 57 89 46 08 E8 DE D5 $...t....W.F....
00724490 FC FF 83 C4 04 85 C0 89 46 0C 75 17 83 06 FF 75 ........F.u....u
007244A0 0C 8B 46 04 8B 48 18 56 FF D1 83 C4 04 5F 5E 33 ..F..H.V....._^3
007244B0 C0 5B C3 89 5E 10 8B C6 5F 5E 5B C3 CC CC CC CC .[..^..._^[.....
007244C0 53 8B 5C 24 0C 56 57 8B 3B 6A 00 68 48 3F A2 00 S.\$.VW.;j.hH?..
007244D0 E8 8B 0C FB FF 8B F0 83 C4 08 85 F6 74 3A 8B 44 ............t:.D
007244E0 24 10 85 C0 74 03 83 00 01 57 89 46 08 E8 7E D5 $...t....W.F..~.
007244F0 FC FF 83 C4 04 85 C0 89 46 0C 75 17 83 06 FF 75 ........F.u....u
00724500 0C 8B 46 04 8B 48 18 56 FF D1 83 C4 04 5F 5E 33 ..F..H.V....._^3
00724510 C0 5B C3 89 5E 10 8B C6 5F 5E 5B C3 CC CC CC CC .[..^..._^[.....
00724520 53 8B 5C 24 0C 56 57 8B 3B 6A 00 68 08 40 A2 00 S.\$.VW.;j.h.@..
00724530 E8 2B 0C FB FF 8B F0 83 C4 08 85 F6 74 3A 8B 44 .+..........t:.D
00724540 24 10 85 C0 74 03 83 00 01 57 89 46 08 E8 1E D5 $...t....W.F....
00724550 FC FF 83 C4 04 85 C0 89 46 0C 75 17 83 06 FF 75 ........F.u....u
00724560 0C 8B 46 04 8B 48 18 56 FF D1 83 C4 04 5F 5E 33 ..F..H.V....._^3
00724570 C0 5B C3 89 5E 10 8B C6 5F 5E 5B C3 CC CC CC CC .[..^..._^[.....
00724580 53 8B 5C 24 0C 56 57 8B 3B 6A 00 68 C8 40 A2 00 S.\$.VW.;j.h.@..
00724590 E8 CB 0B FB FF 8B F0 83 C4 08 85 F6 74 41 8B 44 ............tA.D
007245A0 24 10 85 C0 74 03 83 00 01 57 89 46 08 E8 BE D4 $...t....W.F....
007245B0 FC FF 83 C4 04 85 C0 89 46 0C 75 17 83 06 FF 75 ........F.u....u
007245C0 0C 8B 46 04 8B 48 18 56 FF D1 83 C4 04 5F 5E 33 ..F..H.V....._^3
007245D0 C0 5B C3 8B 54 24 18 89 5E 10 89 56 14 8B C6 5F .[..T$..^..V..._
007245E0 5E 5B C3 CC CC CC CC CC CC CC CC CC CC CC CC CC ^[..............
007245F0 8B 44 24 04 8B 48 08 89 4C 24 04 E9 80 FA FD FF .D$..H..L$......
00724600 8B 4C 24 04 8B 51 08 89 54 24 04 E9 10 FC FD FF .L$..Q..T$......
00724610 8B 4C 24 04 8B 51 08 89 54 24 04 E9 C0 91 FD FF .L$..Q..T$......
00724620 8B 44 24 08 8B 4C 24 04 8B 51 08 50 52 E8 AE 91 .D$..L$..Q.PR...
00724630 FD FF 83 C4 08 85 C0 7D 03 33 C0 C3 50 E8 1E 0D .......}.3..P...
00724640 FC FF 83 C4 04 C3 CC CC CC CC CC CC CC CC CC CC ................
00724650 83 EC 08 8B 54 24 10 8D 04 24 50 8D 4C 24 08 51 ....T$...$P.L$.Q
00724660 6A 02 6A 01 68 3C 18 8B 00 52 C7 44 24 18 B8 63 j.j.h<...R.D$..c
00724670 A1 00 E8 59 14 FC FF 83 C4 18 85 C0 75 04 83 C4 ...Y........u...
00724680 08 C3 8B 04 24 8B 4C 24 04 8B 54 24 0C 50 8B 42 ....$.L$..T$.P.B
00724690 08 51 68 14 16 8D 00 68 3C 18 8B 00 50 E8 3E F2 .Qh....h<...P.>.
007246A0 FD FF 83 C4 14 83 C4 08 C3 CC CC CC CC CC CC CC ................
007246B0 8B 44 24 04 8B 48 08 6A 00 68 10 0A 8B 00 51 E8 .D$..H.j.h....Q.
007246C0 1C F2 FD FF 83 C4 0C C3 CC CC CC CC CC CC CC CC ................
007246D0 8B 44 24 04 8B 48 08 6A 00 68 40 18 8B 00 51 E8 .D$..H.j.h@...Q.
007246E0 FC F1 FD FF 83 C4 0C C3 CC CC CC CC CC CC CC CC ................
007246F0 8B 44 24 04 8B 48 08 6A 00 68 24 CC 8A 00 51 E8 .D$..H.j.h$...Q.
00724700 DC F1 FD FF 83 C4 0C C3 CC CC CC CC CC CC CC CC ................
00724710 8B 44 24 04 8B 48 08 6A 00 68 F4 62 8D 00 51 E8 .D$..H.j.h.b..Q.
00724720 BC F1 FD FF 83 C4 0C C3 CC CC CC CC CC CC CC CC ................
00724730 8B 44 24 04 8B 48 08 6A 00 68 E8 62 8D 00 51 E8 .D$..H.j.h.b..Q.
00724740 9C F1 FD FF 83 C4 0C C3 CC CC CC CC CC CC CC CC ................
00724750 8B 44 24 04 8B 48 08 6A 00 68 B4 10 8D 00 51 E8 .D$..H.j.h....Q.
00724760 7C F1 FD FF 83 C4 0C C3 CC CC CC CC CC CC CC CC |...............
00724770 8B 44 24 04 8B 48 08 6A 00 68 74 05 8B 00 51 E8 .D$..H.j.ht...Q.
00724780 5C F1 FD FF 83 C4 0C C3 CC CC CC CC CC CC CC CC \...............
00724790 56 8B 74 24 08 8B 4E F0 8B 46 F4 C7 46 F8 FE FF V.t$..N..F..F...
007247A0 FF FF 89 08 8B 56 F0 8B 46 F4 89 42 04 C7 46 F0 .....V..F..B..F.
007247B0 00 00 00 00 8B 46 08 83 00 FF 8B 4E 08 83 39 00 .....F.....N..9.
007247C0 75 0E 8B C1 8B 50 04 50 8B 42 18 FF D0 83 C4 04 u....P.P.B......
007247D0 56 E8 FA A7 FD FF 83 C4 04 5E C3 CC CC CC CC CC V........^......
007247E0 8B 44 24 04 8B 48 08 89 4C 24 04 E9 10 03 FE FF .D$..H..L$......
007247F0 8B 44 24 04 8B 48 08 89 4C 24 04 E9 70 97 FB FF .D$..H..L$..p...
00724800 8B 4C 24 04 8B 51 08 89 54 24 04 E9 C0 AB FB FF .L$..Q..T$......
00724810 8B 54 24 04 8B 42 08 89 44 24 04 E9 A0 AC FB FF .T$..B..D$......
00724820 57 68 50 42 A2 00 E8 05 A7 FD FF 8B F8 83 C4 04 WhPB............
00724830 85 FF 74 49 8B 44 24 08 83 00 01 56 8D 77 F0 89 ..tI.D$....V.w..
00724840 47 08 83 7E 08 FE 74 0D 68 04 0E 8D 00 E8 9E 3E G..~..t.h......>
00724850 FC FF 83 C4 04 C7 46 08 FD FF FF FF A1 58 D5 A1 ......F......X..
00724860 00 89 06 8B 0D 58 D5 A1 00 8B 41 04 89 46 04 89 .....X....A..F..
00724870 30 8B 15 58 D5 A1 00 89 72 04 8B C7 5E 5F C3 CC 0..X....r...^_..
00724880 56 8B 74 24 08 56 E8 F5 A5 FD FF 83 C4 04 83 3D V.t$.V.........=
00724890 C4 C4 A6 00 32 7D 6F 83 05 C4 C4 A6 00 01 83 7E ....2}o........~
007248A0 08 00 74 1A 8B 46 08 83 00 FF 8B 46 08 83 38 00 ..t..F.....F..8.
007248B0 75 0C 8B 48 04 8B 51 18 50 FF D2 83 C4 04 83 7E u..H..Q.P......~
007248C0 0C 00 74 1A 8B 46 0C 83 00 FF 8B 46 0C 83 38 00 ..t..F.....F..8.
007248D0 75 0C 8B 48 04 8B 51 18 50 FF D2 83 C4 04 56 E8 u..H..Q.P.....V.
007248E0 EC A6 FD FF 83 2D C4 C4 A6 00 01 83 C4 04 83 3D .....-.........=
007248F0 C8 C4 A6 00 00 74 18 83 3D C4 C4 A6 00 00 7F 0F .....t..=.......
00724900 5E E9 5A A5 FB FF 56 E8 34 A5 FB FF 83 C4 04 5E ^.Z...V.4......^
00724910 C3 CC CC CC CC CC CC CC CC CC CC CC CC CC CC CC ................
00724920 8B 54 24 04 8B 42 08 56 8B 74 24 0C 8B 4E 08 3B .T$..B.V.t$..N.;
00724930 C1 75 14 8B 46 0C 5E 89 44 24 08 8B 4A 0C 89 4C .u..F.^.D$..J..L
00724940 24 04 E9 89 AA FB FF 1B C0 83 E0 FE 83 C0 01 5E $..............^
00724950 C3 CC CC CC CC CC CC CC CC CC CC CC CC CC CC CC ................
00724960 56 57 8B 7C 24 0C 8B 47 08 50 E8 61 99 FB FF 8B VW.|$..G.P.a....
00724970 F0 83 C4 04 83 FE FF 75 06 5F 83 C8 FF 5E C3 8B .......u._...^..
00724980 4F 0C 51 E8 58 99 FB FF 83 C4 04 83 F8 FF 74 E9 O.Q.X.........t.
00724990 33 F0 83 FE FF 75 05 BE FE FF FF FF 5F 8B C6 5E 3....u......_..^
007249A0 C3 CC CC CC CC CC CC CC CC CC CC CC CC CC CC CC ................
007249B0 8B 4C 24 04 8B 41 0C 50 8B 40 04 8B 50 0C 8B 41 .L$..A.P.@..P..A
007249C0 08 8B 48 10 52 8B 11 52 68 0C A1 8D 00 E8 9E D6 ..H.R..Rh.......
007249D0 FC FF 83 C4 10 C3 CC CC CC CC CC CC CC CC CC CC ................
007249E0 8B 44 24 04 8B 48 08 8B 41 08 83 00 01 C3 CC CC .D$..H..A.......
007249F0 8B 44 24 04 8B 48 08 8B 51 10 8B 02 89 44 24 04 .D$..H..Q....D$.
00724A00 E9 BB 80 FC FF CC CC CC CC CC CC CC CC CC CC CC ................
00724A10 8B 44 24 04 8B 48 08 8B 51 10 8B 42 10 85 C0 75 .D$..H..Q..B...u
00724A20 0D 83 05 B8 63 A1 00 01 B8 B8 63 A1 00 C3 89 44 ....c.....c....D
00724A30 24 04 E9 89 80 FC FF CC CC CC CC CC CC CC CC CC $...............
00724A40 53 56 8B 74 24 0C 8B 46 08 8B 40 10 F6 40 14 01 SV.t$..F..@..@..
00724A50 8B 5E 0C 57 8B 78 0C 74 1B 8B 4C 24 18 8B 56 08 .^.W.x.t..L$..V.
00724A60 8B 42 14 51 8B 4C 24 18 50 51 53 FF D7 83 C4 10 .B.Q.L$.PQS.....
00724A70 5F 5E 5B C3 55 8B 6C 24 1C 85 ED 74 4D 8B 45 04 _^[.U.l$...tM.E.
00724A80 3D B8 D1 A1 00 74 12 68 B8 D1 A1 00 50 E8 DE 0B =....t.h....P...
00724A90 FB FF 83 C4 08 85 C0 74 0D 55 E8 81 84 FD FF 83 .......t.U......
00724AA0 C4 04 85 C0 74 24 8B 56 08 8B 42 10 8B 08 8B 15 ....t$.V..B.....
00724AB0 7C 6B A1 00 51 68 38 A1 8D 00 52 E8 10 CB FB FF |k..Qh8...R.....
00724AC0 83 C4 0C 5D 5F 5E 33 C0 5B C3 8B 46 08 8B 48 14 ...]_^3.[..F..H.
00724AD0 8B 54 24 18 51 52 53 FF D7 83 C4 0C 5D 5F 5E 5B .T$.QRS.....]_^[
00724AE0 C3 CC CC CC CC CC CC CC CC CC CC CC CC CC CC CC ................
00724AF0 57 68 88 43 A2 00 E8 35 A4 FD FF 8B F8 83 C4 04 Wh.C...5........
00724B00 85 FF 74 53 8B 44 24 08 83 00 01 89 47 08 8B 44 ..tS.D$.....G..D
00724B10 24 0C 83 00 01 56 8D 77 F0 89 47 0C 83 7E 08 FE $....V.w..G..~..
00724B20 74 0D 68 04 0E 8D 00 E8 C4 3B FC FF 83 C4 04 C7 t.h......;......
00724B30 46 08 FD FF FF FF A1 58 D5 A1 00 89 06 8B 0D 58 F......X.......X
00724B40 D5 A1 00 8B 41 04 89 46 04 89 30 8B 15 58 D5 A1 ....A..F..0..X..
00724B50 00 89 72 04 8B C7 5E 5F C3 CC CC CC CC CC CC CC ..r...^_........
00724B60 56 8B 74 24 08 8B 46 F4 8B 4E F0 C7 46 F8 FE FF V.t$..F..N..F...
00724B70 FF FF 89 08 8B 56 F0 8B 46 F4 89 42 04 C7 46 F0 .....V..F..B..F.
00724B80 00 00 00 00 83 7E 08 00 74 1C 8B 46 08 83 00 FF .....~..t..F....
00724B90 8B 4E 08 83 39 00 75 0E 8B C1 8B 50 04 50 8B 42 .N..9.u....P.P.B
00724BA0 18 FF D0 83 C4 04 83 7E 0C 00 74 1C 8B 46 0C 83 .......~..t..F..
00724BB0 00 FF 8B 4E 0C 83 39 00 75 0E 8B C1 8B 50 04 50 ...N..9.u....P.P
00724BC0 8B 42 18 FF D0 83 C4 04 83 7E 10 00 74 1C 8B 46 .B.......~..t..F
00724BD0 10 83 00 FF 8B 4E 10 83 39 00 75 0E 8B C1 8B 50 .....N..9.u....P
00724BE0 04 50 8B 42 18 FF D0 83 C4 04 83 7E 14 00 74 1C .P.B.......~..t.
00724BF0 8B 46 14 83 00 FF 8B 4E 14 83 39 00 75 0E 8B C1 .F.....N..9.u...
00724C00 8B 50 04 50 8B 42 18 FF D0 83 C4 04 8B 4E 04 8B .P.P.B.......N..
00724C10 91 A0 00 00 00 56 FF D2 83 C4 04 5E C3 CC CC CC .....V.....^....
00724C20 8B 4C 24 08 85 C9 74 3F 81 F9 B8 63 A1 00 74 37 .L$...t?...c..t7
00724C30 8B 44 24 04 8B 40 08 85 C0 75 17 8B 0D F0 78 A1 .D$..@...u....x.
00724C40 00 68 64 A1 8D 00 51 E8 34 C3 FB FF 83 C4 08 33 .hd...Q.4......3
00724C50 C0 C3 89 4C 24 0C C7 44 24 08 4C BE 8A 00 89 44 ...L$..D$.L....D
00724C60 24 04 E9 99 EB FD FF 8B 44 24 04 83 00 01 C3 CC $.......D$......
00724C70 8B 4C 24 0C 85 C9 75 09 8B 44 24 04 8B 40 10 EB .L$...u..D$..@..
00724C80 07 8B 54 24 04 8B 42 0C 85 C0 75 21 85 C9 B8 90 ..T$..B...u!....
00724C90 A1 8D 00 74 05 B8 7C A1 8D 00 50 A1 F0 78 A1 00 ...t..|...P..x..
00724CA0 50 E8 DA C2 FB FF 83 C4 08 83 C8 FF C3 85 C9 75 P..............u
00724CB0 15 8B 4C 24 08 51 68 4C BE 8A 00 50 E8 3F EB FD ..L$.QhL...P.?..
00724CC0 FF 83 C4 0C EB 14 8B 54 24 08 51 52 68 14 16 8D .......T$.QRh...
00724CD0 00 50 E8 29 EB FD FF 83 C4 10 85 C0 74 CB 83 00 .P.)........t...
00724CE0 FF 75 0C 8B 48 04 8B 51 18 50 FF D2 83 C4 04 33 .u..H..Q.P.....3
00724CF0 C0 C3 CC CC CC CC CC CC CC CC CC CC CC CC CC CC ................
00724D00 83 EC 10 57 8D 44 24 04 50 8D 4C 24 14 51 8B 4C ...W.D$.P.L$.Q.L
00724D10 24 28 8D 54 24 14 52 8B 54 24 28 8D 44 24 14 50 $(.T$.R.T$(.D$.P
00724D20 68 AC 44 A2 00 68 A8 A1 8D 00 33 FF 51 52 89 7C h.D..h....3.QR.|
00724D30 24 28 89 7C 24 2C 89 7C 24 30 89 7C 24 24 E8 BD $(.|$,.|$0.|$$..
00724D40 2D FC FF 83 C4 20 85 C0 75 08 83 C8 FF 5F 83 C4 -.... ..u...._..
00724D50 10 C3 8B 44 24 08 BA B8 63 A1 00 3B C2 75 06 33 ...D$...c..;.u.3
00724D60 C0 89 44 24 08 39 54 24 0C 75 04 89 7C 24 0C 39 ..D$.9T$.u..|$.9
00724D70 54 24 10 75 04 89 7C 24 10 3B C7 74 03 83 00 01 T$.u..|$.;.t....
00724D80 8B 44 24 0C 3B C7 74 03 83 00 01 8B 44 24 10 3B .D$.;.t.....D$.;
00724D90 C7 74 03 83 00 01 8B 4C 24 04 3B CF 74 0F 83 01 .t.....L$.;.t...
00724DA0 01 8B 4C 24 04 3B CF 74 04 3B CA 75 4A 8B 44 24 ..L$.;.t.;.uJ.D$
00724DB0 08 3B C7 74 42 56 68 58 0D 8D 00 50 E8 9F A9 FB .;.tBVhX...P....
00724DC0 FF 8B F0 83 C4 08 3B F7 74 23 8B 44 24 08 3B C7 ......;.t#.D$.;.
00724DD0 74 17 83 00 FF 8B 44 24 08 39 38 75 0C 8B 48 04 t.....D$.98u..H.
00724DE0 8B 51 18 50 FF D2 83 C4 04 8B CE EB 09 E8 6E C3 .Q.P..........n.
00724DF0 FB FF 8B 4C 24 08 5E 8B 44 24 18 8B 54 24 08 89 ...L$.^.D$..T$..
00724E00 50 08 8B 54 24 0C 89 50 0C 8B 54 24 10 89 50 10 P..T$..P..T$..P.
00724E10 89 48 14 33 C0 5F 83 C4 10 C3 CC CC CC CC CC CC .H.3._..........
00724E20 51 53 56 8B 74 24 10 57 8B 7C 24 18 8D 5C 24 0C QSV.t$.W.|$..\$.
00724E30 8B C6 E8 69 EF FF FF 85 C0 74 09 8B 44 24 0C 5F ...i.....t..D$._
00724E40 5E 5B 59 C3 57 56 E8 A5 FC FF FF 83 C4 08 5F 5E ^[Y.WV........_^
00724E50 5B 59 C3 CC CC CC CC CC CC CC CC CC CC CC CC CC [Y..............
00724E60 53 8B 5C 24 0C 55 8B 6B 08 83 FD 01 56 8B 74 24 S.\$.U.k....V.t$
00724E70 10 7D 51 8B 46 0C 85 C0 74 24 8B 40 04 3D 50 B4 .}Q.F...t$.@.=P.
00724E80 A1 00 74 12 68 50 B4 A1 00 50 E8 E1 07 FB FF 83 ..t.hP...P......
00724E90 C4 08 85 C0 74 08 8B 46 0C 83 C0 14 EB 05 B8 38 ....t..F.......8
00724EA0 0E 8D 00 8B 4E 08 8B 51 0C 52 50 A1 7C 6B A1 00 ....N..Q.RP.|k..
00724EB0 68 D0 A0 8D 00 50 E8 15 C7 FB FF 83 C4 10 5E 5D h....P........^]
00724EC0 33 C0 5B C3 8B 4E 08 57 8B 7B 0C 51 57 E8 1E F0 3.[..N.W.{.QW...
00724ED0 FD FF 83 C4 08 85 C0 75 5A 8B 46 0C 85 C0 74 24 .......uZ.F...t$
00724EE0 8B 40 04 3D 50 B4 A1 00 74 12 68 50 B4 A1 00 50 .@.=P...t.hP...P
00724EF0 E8 7B 07 FB FF 83 C4 08 85 C0 74 08 8B 46 0C 83 .{........t..F..
00724F00 C0 14 EB 05 B8 38 0E 8D 00 8B 57 04 8B 4A 0C 8B .....8....W..J..
00724F10 56 08 51 8B 4A 0C 8B 15 7C 6B A1 00 51 50 68 88 V.Q.J...|k..QPh.
00724F20 A0 8D 00 52 E8 A7 C6 FB FF 83 C4 14 5F 5E 5D 33 ...R........_^]3
00724F30 C0 5B C3 57 56 E8 B6 FB FF FF 8B F8 83 C4 08 85 .[.WV...........
00724F40 FF 74 23 55 6A 01 53 E8 C4 B4 FB FF 8B F0 83 C4 .t#Uj.S.........
00724F50 0C 85 F6 75 18 83 07 FF 75 0C 8B 47 04 8B 48 18 ...u....u..G..H.
00724F60 57 FF D1 83 C4 04 5F 5E 5D 33 C0 5B C3 8B 54 24 W....._^]3.[..T$
00724F70 1C 52 56 57 E8 07 27 FE FF 83 C4 0C 83 06 FF 8B .RVW..'.........
00724F80 D8 75 0C 8B 46 04 8B 48 18 56 FF D1 83 C4 04 83 .u..F..H.V......
00724F90 07 FF 75 0C 8B 57 04 8B 42 18 57 FF D0 83 C4 04 ..u..W..B.W.....
00724FA0 5F 5E 5D 8B C3 5B C3 CC CC CC CC CC CC CC CC CC _^]..[..........

;; fn00724FB0: 00724FB0
;;   Called from:
;;     00716A7D (in fn00716A00)
fn00724FB0 proc
	mov	eax,[esp+10h]
	mov	ecx,[esp+0Ch]
	push	esi
	mov	esi,[esp+0Ch]
	push	edi
	mov	edi,[esp+0Ch]
	push	eax
	push	ecx
	push	esi
	push	edi
	call	dword ptr [8A4728h]
	add	esp,10h
	mov	byte ptr [edi+esi-1h],0h
	pop	edi
	pop	esi
	ret
00724FD7                      CC CC CC CC CC CC CC CC CC        .........

;; fn00724FE0: 00724FE0
;;   Called from:
;;     006E55E6 (in fn006E5590)
;;     006E5622 (in fn006E5590)
;;     006E5675 (in fn006E5590)
;;     006E56AA (in fn006E5590)
;;     006E56D9 (in fn006E5590)
;;     006E57F1 (in fn006E5710)
;;     006E590A (in fn006E5710)
;;     006E5935 (in fn006E5920)
;;     006E594F (in fn006E5920)
;;     006E6DB6 (in fn006E5C60)
;;     006E77CD (in fn006E7660)
;;     006E7A62 (in fn006E7660)
;;     006E81FF (in fn006E8060)
;;     006FF4C5 (in fn006FF4A0)
;;     00723576 (in fn00723540)
;;     007235CB (in fn00723540)
;;     007236A2 (in fn00723540)
;;     007236D7 (in fn00723540)
;;     00727318 (in fn007272E0)
;;     007279B1 (in fn00727910)
;;     0072FA1E (in fn0072F830)
;;     0073BD79 (in fn0073BBE0)
;;     007479FA (in fn00747960)
;;     00748342 (in fn00748310)
;;     00749668 (in fn00748E50)
;;     0074F2F4 (in fn0074F280)
fn00724FE0 proc
	mov	ecx,[esp+0Ch]
	push	esi
	mov	esi,[esp+0Ch]
	push	edi
	mov	edi,[esp+0Ch]
	lea	eax,[esp+18h]
	push	eax
	push	ecx
	push	esi
	push	edi
	call	dword ptr [8A4728h]
	add	esp,10h
	mov	byte ptr [edi+esi-1h],0h
	pop	edi
	pop	esi
	ret
00725007                      CC CC CC CC CC CC CC CC CC        .........

;; fn00725010: 00725010
;;   Called from:
;;     0070ADCD (in fn00708DC0)
;;     0070AE7F (in fn00708DC0)
fn00725010 proc
	push	ebp
	push	esi
	push	0A249B8h
	call	6FEF30h
	mov	esi,eax
	xor	ebp,ebp
	add	esp,4h
	cmp	esi,ebp
	jz	725146h

l0072502B:
	mov	eax,[esp+0Ch]
	mov	[esi+24h],ebp
	add	dword ptr [eax],1h
	push	ebx
	mov	ebx,[esp+14h]
	mov	[esi+8h],eax
	add	dword ptr [ebx],1h
	mov	[esi+0Ch],ebx
	mov	ecx,[eax+34h]
	mov	[esi+1Ch],ecx
	add	dword ptr [ecx],1h
	push	edi
	mov	[esi+10h],ebp
	mov	[esi+14h],ebp
	mov	edi,[eax+1Ch]
	push	edi
	call	6DFE20h
	add	esp,4h
	cmp	eax,1h
	jl	7250A8h

l00725064:
	push	ebp
	push	edi
	call	6DFE60h
	mov	edi,eax
	mov	eax,[edi+4h]
	add	esp,8h
	cmp	eax,0A1B450h
	jz	7250ADh

l0072507A:
	push	0A1B450h
	push	eax
	call	6D5670h
	add	esp,8h
	test	eax,eax
	jnz	7250ADh

l0072508C:
	mov	eax,[edi+4h]
	cmp	eax,0A23B20h
	jz	7250ADh

l00725096:
	push	0A23B20h
	push	eax
	call	6D5670h
	add	esp,8h
	test	eax,eax
	jnz	7250ADh

l007250A8:
	mov	edi,0A163B8h

l007250AD:
	add	dword ptr [edi],1h
	mov	eax,[0A6DBD4h]
	cmp	eax,ebp
	mov	[esi+18h],edi
	mov	[esi+20h],ebp
	mov	[esi+28h],ebp
	jnz	7250F0h

l007250C2:
	push	8CA818h
	call	6F1A70h
	add	esp,4h
	cmp	eax,ebp
	mov	[0A6DBD4h],eax
	jnz	7250F0h

l007250D8:
	add	dword ptr [esi],0FFh
	jnz	7250E9h

l007250DD:
	mov	eax,[esi+4h]
	mov	ecx,[eax+18h]
	push	esi
	call	ecx
	add	esp,4h

l007250E9:
	pop	edi
	pop	ebx
	pop	esi
	xor	eax,eax
	pop	ebp
	ret

l007250F0:
	push	eax
	push	ebx
	call	6FBCC0h
	add	esp,8h
	cmp	eax,ebp
	jz	725104h

l007250FE:
	add	dword ptr [eax],1h
	mov	[esi+28h],eax

l00725104:
	cmp	dword ptr [esi-8h],0FEh
	lea	edi,[esi-10h]
	jz	72511Ah

l0072510D:
	push	8D0E04h
	call	6E86F0h
	add	esp,4h

l0072511A:
	mov	dword ptr [edi+8h],0FFFFFFFDh
	mov	edx,[0A1D558h]
	mov	[edi],edx
	mov	eax,[0A1D558h]
	mov	eax,[eax+4h]
	mov	[edi+4h],eax
	mov	[eax],edi
	mov	ecx,[0A1D558h]
	mov	[ecx+4h],edi
	pop	edi
	pop	ebx
	mov	eax,esi
	pop	esi
	pop	ebp
	ret

l00725146:
	pop	esi
	xor	eax,eax
	pop	ebp
	ret
0072514B                                  CC CC CC CC CC            .....

;; fn00725150: 00725150
;;   Called from:
;;     0070AE48 (in fn00708DC0)
;;     0070AF1B (in fn00708DC0)
fn00725150 proc
	push	edi
	mov	edi,[esp+8h]
	cmp	dword ptr [edi+4h],0A249B8h
	jz	725172h

l0072515E:
	push	6Bh
	push	8DA24Ch
	call	6E1DC0h
	add	esp,8h
	or	eax,0FFh
	pop	edi
	ret

l00725172:
	push	esi
	mov	esi,[esp+10h]
	cmp	esi,0A163B8h
	jnz	725183h

l0072517F:
	xor	esi,esi
	jmp	7251A6h

l00725183:
	test	esi,esi
	jz	7251CCh

l00725187:
	mov	eax,[esi+4h]
	cmp	eax,0A16588h
	jz	7251A3h

l00725191:
	push	0A16588h
	push	eax
	call	6D5670h
	add	esp,8h
	test	eax,eax
	jz	7251CCh

l007251A3:
	add	dword ptr [esi],1h

l007251A6:
	mov	eax,[edi+10h]
	test	eax,eax
	jz	7251C4h

l007251AD:
	add	dword ptr [eax],0FFh
	mov	eax,[edi+10h]
	cmp	dword ptr [eax],0h
	jnz	7251C4h

l007251B8:
	mov	ecx,[eax+4h]
	mov	edx,[ecx+18h]
	push	eax
	call	edx
	add	esp,4h

l007251C4:
	mov	[edi+10h],esi
	pop	esi
	xor	eax,eax
	pop	edi
	ret

l007251CC:
	mov	eax,[0A18720h]
	push	8DA264h
	push	eax
	call	6E0F80h
	add	esp,8h
	pop	esi
	or	eax,0FFh
	pop	edi
	ret
007251E5                CC CC CC CC CC CC CC CC CC CC CC      ...........

;; fn007251F0: 007251F0
;;   Called from:
;;     0070AEAA (in fn00708DC0)
fn007251F0 proc
	push	edi
	mov	edi,[esp+8h]
	cmp	dword ptr [edi+4h],0A249B8h
	jz	725215h

l007251FE:
	push	8Ah
	push	8DA24Ch
	call	6E1DC0h
	add	esp,8h
	or	eax,0FFh
	pop	edi
	ret

l00725215:
	push	esi
	mov	esi,[esp+10h]
	cmp	esi,0A163B8h
	jnz	725226h

l00725222:
	xor	esi,esi
	jmp	725266h

l00725226:
	mov	eax,[esi+4h]
	cmp	eax,0A16588h
	jz	725263h

l00725230:
	push	0A16588h
	push	eax
	call	6D5670h
	add	esp,8h
	test	eax,eax
	jnz	725263h

l00725242:
	mov	eax,[esi+4h]
	mov	ecx,[eax+0Ch]
	mov	edx,[0A18720h]
	push	ecx
	push	8DA27Ch
	push	edx
	call	6E15D0h
	add	esp,0Ch
	pop	esi
	or	eax,0FFh
	pop	edi
	ret

l00725263:
	add	dword ptr [esi],1h

l00725266:
	mov	eax,[edi+14h]
	test	eax,eax
	jz	725284h

l0072526D:
	add	dword ptr [eax],0FFh
	mov	eax,[edi+14h]
	cmp	dword ptr [eax],0h
	jnz	725284h

l00725278:
	mov	ecx,[eax+4h]
	mov	edx,[ecx+18h]
	push	eax
	call	edx
	add	esp,4h

l00725284:
	mov	[edi+14h],esi
	pop	esi
	xor	eax,eax
	pop	edi
	ret
0072528C                                     CC CC CC CC             ....
00725290 E8 3B 23 FE FF 85 C0 74 16 A1 E0 75 A1 00 68 A8 .;#....t...u..h.
007252A0 A2 8D 00 50 E8 D7 BC FB FF 83 C4 08 33 C0 C3 56 ...P........3..V
007252B0 8B 74 24 08 83 7E 20 00 75 0E E8 01 8A FD FF 85 .t$..~ .u.......
007252C0 C0 89 46 20 75 02 5E C3 8B 46 20 83 00 01 8B 46 ..F u.^..F ....F
007252D0 20 5E C3 CC CC CC CC CC CC CC CC CC CC CC CC CC  ^..............
007252E0 E8 EB 22 FE FF 85 C0 74 17 A1 E0 75 A1 00 68 A8 .."....t...u..h.
007252F0 A2 8D 00 50 E8 87 BC FB FF 83 C4 08 83 C8 FF C3 ...P............
00725300 56 8B 74 24 0C 85 F6 75 19 8B 0D 7C 6B A1 00 68 V.t$...u...|k..h
00725310 0C A3 8D 00 51 E8 66 BC FB FF 83 C4 08 83 C8 FF ....Q.f.........
00725320 5E C3 8B 46 04 3D B8 D1 A1 00 74 2B 68 B8 D1 A1 ^..F.=....t+h...
00725330 00 50 E8 39 03 FB FF 83 C4 08 85 C0 75 19 8B 15 .P.9........u...
00725340 7C 6B A1 00 68 E0 A2 8D 00 52 E8 31 BC FB FF 83 |k..h....R.1....
00725350 C4 08 83 C8 FF 5E C3 8B 4C 24 08 8B 41 20 83 06 .....^..L$..A ..
00725360 01 85 C0 89 71 20 74 11 83 00 FF 75 0C 8B 48 04 ....q t....u..H.
00725370 8B 51 18 50 FF D2 83 C4 04 33 C0 5E C3 CC CC CC .Q.P.....3.^....
00725380 E8 4B 22 FE FF 85 C0 74 16 A1 E0 75 A1 00 68 A8 .K"....t...u..h.
00725390 A2 8D 00 50 E8 E7 BB FB FF 83 C4 08 33 C0 C3 8B ...P........3...
007253A0 4C 24 04 8B 41 08 83 00 01 8B 41 08 C3 CC CC CC L$..A.....A.....
007253B0 E8 1B 22 FE FF 85 C0 74 17 A1 E0 75 A1 00 68 A8 .."....t...u..h.
007253C0 A2 8D 00 50 E8 B7 BB FB FF 83 C4 08 83 C8 FF C3 ...P............
007253D0 8B 44 24 08 85 C0 74 67 81 78 04 58 74 A2 00 75 .D$...tg.x.Xt..u
007253E0 5E 8B 48 28 8B 54 24 04 56 8B 71 08 8B 4A 14 85 ^.H(.T$.V.q..J..
007253F0 C9 74 03 8B 49 08 3B CE 74 27 8B 52 1C 56 51 52 .t..I.;.t'.R.VQR
00725400 E8 4B 78 FC FF 83 C4 04 50 A1 2C 7E A1 00 68 60 .Kx.....P.,~..h`
00725410 A3 8D 00 50 E8 B7 C1 FB FF 83 C4 14 83 C8 FF 5E ...P...........^
00725420 C3 8B 4A 08 83 00 01 89 42 08 83 01 FF 75 0C 8B ..J.....B....u..
00725430 51 04 8B 42 18 51 FF D0 83 C4 04 33 C0 5E C3 8B Q..B.Q.....3.^..
00725440 0D 7C 6B A1 00 68 38 A3 8D 00 51 E8 30 BB FB FF .|k..h8...Q.0...
00725450 83 C4 08 83 C8 FF C3 CC CC CC CC CC CC CC CC CC ................
00725460 8B 4C 24 04 8B 41 1C 83 00 01 8B 41 1C C3 CC CC .L$..A.....A....
00725470 E8 5B 21 FE FF 85 C0 74 17 A1 E0 75 A1 00 68 A8 .[!....t...u..h.
00725480 A2 8D 00 50 E8 F7 BA FB FF 83 C4 08 83 C8 FF C3 ...P............
00725490 56 8B 74 24 0C 85 F6 74 3E 8B 46 04 3D 50 B4 A1 V.t$...t>.F.=P..
007254A0 00 74 12 68 50 B4 A1 00 50 E8 C2 01 FB FF 83 C4 .t.hP...P.......
007254B0 08 85 C0 74 22 8B 4C 24 08 8B 41 1C 83 06 01 89 ...t".L$..A.....
007254C0 71 1C 83 00 FF 75 0C 8B 48 04 8B 51 18 50 FF D2 q....u..H..Q.P..
007254D0 83 C4 04 33 C0 5E C3 A1 7C 6B A1 00 68 98 A3 8D ...3.^..|k..h...
007254E0 00 50 E8 99 BA FB FF 83 C4 08 83 C8 FF 5E C3 CC .P...........^..
007254F0 E8 DB 20 FE FF 85 C0 74 16 A1 E0 75 A1 00 68 A8 .. ....t...u..h.
00725500 A2 8D 00 50 E8 77 BA FB FF 83 C4 08 33 C0 C3 8B ...P.w......3...
00725510 4C 24 04 83 79 10 00 75 0D 83 05 B8 63 A1 00 01 L$..y..u....c...
00725520 B8 B8 63 A1 00 C3 8B 41 10 83 00 01 8B 41 10 C3 ..c....A.....A..
00725530 E8 9B 20 FE FF 85 C0 74 17 A1 E0 75 A1 00 68 A8 .. ....t...u..h.
00725540 A2 8D 00 50 E8 37 BA FB FF 83 C4 08 83 C8 FF C3 ...P.7..........
00725550 56 8B 74 24 0C 81 FE B8 63 A1 00 75 2C 33 F6 85 V.t$....c..u,3..
00725560 F6 8B 4C 24 08 8B 41 10 74 03 83 06 01 85 C0 89 ..L$..A.t.......
00725570 71 10 74 11 83 00 FF 75 0C 8B 50 04 50 8B 42 18 q.t....u..P.P.B.
00725580 FF D0 83 C4 04 33 C0 5E C3 85 F6 74 D2 8B 46 04 .....3.^...t..F.
00725590 3D 88 65 A1 00 74 C8 68 88 65 A1 00 50 E8 CE 00 =.e..t.h.e..P...
007255A0 FB FF 83 C4 08 85 C0 75 B6 8B 0D 7C 6B A1 00 68 .......u...|k..h
007255B0 C4 A3 8D 00 51 E8 C6 B9 FB FF 83 C4 08 83 C8 FF ....Q...........
007255C0 5E C3 CC CC CC CC CC CC CC CC CC CC CC CC CC CC ^...............
007255D0 83 EC 14 53 8D 44 24 04 50 8D 4C 24 10 51 8D 54 ...S.D$.P.L$.Q.T
007255E0 24 10 52 8B 54 24 30 8D 44 24 20 50 8B 44 24 30 $.R.T$0.D$ P.D$0
007255F0 68 B8 D1 A1 00 8D 4C 24 24 51 68 58 74 A2 00 68 h.....L$$QhXt..h
00725600 A0 49 A2 00 68 D8 A4 8D 00 BB B8 63 A1 00 52 50 .I..h......c..RP
00725610 89 5C 24 34 89 5C 24 38 89 5C 24 30 E8 DF 24 FC .\$4.\$8.\$0..$.
00725620 FF 83 C4 2C 85 C0 74 3A 8B 44 24 08 3B C3 74 39 ...,..t:.D$.;.t9
00725630 81 78 04 50 B4 A1 00 74 30 8B 48 04 68 50 B4 A1 .x.P...t0.H.hP..
00725640 00 51 E8 29 00 FB FF 83 C4 08 85 C0 75 1B 8B 15 .Q.)........u...
00725650 7C 6B A1 00 68 B4 A4 8D 00 52 E8 21 B9 FB FF 83 |k..h....R.!....
00725660 C4 08 33 C0 5B 83 C4 14 C3 8B 44 24 0C 3B C3 74 ..3.[.....D$.;.t
00725670 39 81 78 04 88 65 A1 00 74 30 8B 40 04 68 88 65 9.x..e..t0.@.h.e
00725680 A1 00 50 E8 E8 FF FA FF 83 C4 08 85 C0 75 1B 8B ..P..........u..
00725690 0D 7C 6B A1 00 68 8C A4 8D 00 51 E8 E0 B8 FB FF .|k..h....Q.....
007256A0 83 C4 08 33 C0 5B 83 C4 14 C3 8B 54 24 10 8B 42 ...3.[.....T$..B
007256B0 28 8B 54 24 04 81 7A 04 88 65 A1 00 56 8B 70 08 (.T$..z..e..V.p.
007256C0 74 62 8B 4A 04 68 88 65 A1 00 51 E8 A0 FF FA FF tb.J.h.e..Q.....
007256D0 83 C4 08 85 C0 75 49 85 F6 74 22 39 5C 24 08 75 .....uI..t"9\$.u
007256E0 24 8B 15 7C 6B A1 00 68 6C A4 8D 00 52 E8 8E B8 $..|k..hl...R...
007256F0 FB FF 83 C4 08 5E 33 C0 5B 83 C4 14 C3 8B 54 24 .....^3.[.....T$
00725700 08 3B D3 74 23 A1 7C 6B A1 00 68 44 A4 8D 00 50 .;.t#.|k..hD...P
00725710 E8 6B B8 FB FF 83 C4 08 5E 33 C0 5B 83 C4 14 C3 .k......^3.[....
00725720 8B 54 24 08 3B D3 75 04 33 C0 EB 03 8B 42 08 3B .T$.;.u.3....B.;
00725730 F0 74 26 8B 4C 24 14 8B 51 34 50 A1 2C 7E A1 00 .t&.L$..Q4P.,~..
00725740 56 83 C2 14 52 68 18 A4 8D 00 50 E8 80 BE FB FF V...Rh....P.....
00725750 83 C4 14 5E 5B 83 C4 14 C3 85 C0 74 28 33 C9 85 ...^[......t(3..
00725760 C0 7E 22 83 C2 0C EB 08 8D A4 24 00 00 00 00 90 .~".......$.....
00725770 8B 32 81 7E 04 30 F0 A2 00 75 7E 83 C1 01 83 C2 .2.~.0...u~.....
00725780 04 3B C8 7C EB 8B 4C 24 18 8B 54 24 14 51 52 E8 .;.|..L$..T$.QR.
00725790 7C F8 FF FF 8B F0 83 C4 08 85 F6 0F 84 77 FF FF |............w..
007257A0 FF 8B 44 24 0C 3B C3 74 24 83 00 01 8B 46 1C 83 ..D$.;.t$....F..
007257B0 00 FF 8B 46 1C 83 38 00 75 0C 8B 48 04 8B 51 18 ...F..8.u..H..Q.
007257C0 50 FF D2 83 C4 04 8B 44 24 0C 89 46 1C 8B 44 24 P......D$..F..D$
007257D0 10 3B C3 74 0A 83 00 01 8B 4C 24 10 89 4E 10 8B .;.t.....L$..N..
007257E0 44 24 08 3B C3 74 0A 83 00 01 8B 54 24 08 89 56 D$.;.t.....T$..V
007257F0 14 8B C6 5E 5B 83 C4 14 C3 8B 4E 04 8B 51 0C A1 ...^[.....N..Q..
00725800 7C 6B A1 00 52 68 F0 A3 8D 00 50 E8 C0 BD FB FF |k..Rh....P.....
00725810 83 C4 0C 5E 5B 83 C4 14 C3 CC CC CC CC CC CC CC ...^[...........
00725820 56 8B 74 24 08 8B 46 F4 8B 4E F0 C7 46 F8 FE FF V.t$..F..N..F...
00725830 FF FF 89 08 8B 56 F0 8B 46 F4 89 42 04 C7 46 F0 .....V..F..B..F.
00725840 00 00 00 00 83 7E 24 00 74 09 56 E8 40 5D FD FF .....~$.t.V.@]..
00725850 83 C4 04 8B 46 08 83 00 FF 8B 4E 08 83 39 00 75 ....F.....N..9.u
00725860 0E 8B C1 8B 50 04 50 8B 42 18 FF D0 83 C4 04 8B ....P.P.B.......
00725870 46 0C 83 00 FF 8B 4E 0C 83 39 00 75 0E 8B C1 8B F.....N..9.u....
00725880 50 04 50 8B 42 18 FF D0 83 C4 04 83 7E 28 00 74 P.P.B.......~(.t
00725890 1C 8B 46 28 83 00 FF 8B 4E 28 83 39 00 75 0E 8B ..F(....N(.9.u..
007258A0 C1 8B 50 04 50 8B 42 18 FF D0 83 C4 04 8B 46 1C ..P.P.B.......F.
007258B0 83 00 FF 8B 4E 1C 83 39 00 75 0E 8B C1 8B 50 04 ....N..9.u....P.
007258C0 50 8B 42 18 FF D0 83 C4 04 83 7E 10 00 74 1C 8B P.B.......~..t..
007258D0 46 10 83 00 FF 8B 4E 10 83 39 00 75 0E 8B C1 8B F.....N..9.u....
007258E0 50 04 50 8B 42 18 FF D0 83 C4 04 83 7E 18 00 74 P.P.B.......~..t
007258F0 1C 8B 46 18 83 00 FF 8B 4E 18 83 39 00 75 0E 8B ..F.....N..9.u..
00725900 C1 8B 50 04 50 8B 42 18 FF D0 83 C4 04 83 7E 20 ..P.P.B.......~ 
00725910 00 74 1C 8B 46 20 83 00 FF 8B 4E 20 83 39 00 75 .t..F ....N .9.u
00725920 0E 8B C1 8B 50 04 50 8B 42 18 FF D0 83 C4 04 83 ....P.P.B.......
00725930 7E 14 00 74 1C 8B 46 14 83 00 FF 8B 4E 14 83 39 ~..t..F.....N..9
00725940 00 75 0E 8B C1 8B 50 04 50 8B 42 18 FF D0 83 C4 .u....P.P.B.....
00725950 04 56 E8 79 96 FD FF 83 C4 04 5E C3 CC CC CC CC .V.y......^.....
00725960 8B 44 24 04 50 8B 40 1C 50 E8 E2 72 FC FF 83 C4 .D$.P.@.P..r....
00725970 04 50 68 EC A4 8D 00 E8 F4 C6 FC FF 83 C4 0C C3 .Ph.............
00725980 53 8B 5C 24 08 8B 43 08 85 C0 56 8B 74 24 14 57 S.\$..C...V.t$.W
00725990 8B 7C 24 14 74 0F 56 50 FF D7 83 C4 08 85 C0 0F .|$.t.VP........
007259A0 85 80 00 00 00 8B 43 0C 85 C0 74 0B 56 50 FF D7 ......C...t.VP..
007259B0 83 C4 08 85 C0 75 6E 8B 43 28 85 C0 74 0B 56 50 .....un.C(..t.VP
007259C0 FF D7 83 C4 08 85 C0 75 5C 8B 43 10 85 C0 74 0B .......u\.C...t.
007259D0 56 50 FF D7 83 C4 08 85 C0 75 4A 8B 43 18 85 C0 VP.......uJ.C...
007259E0 74 0B 56 50 FF D7 83 C4 08 85 C0 75 38 8B 43 1C t.VP.......u8.C.
007259F0 85 C0 74 0B 56 50 FF D7 83 C4 08 85 C0 75 26 8B ..t.VP.......u&.
00725A00 43 20 85 C0 74 0B 56 50 FF D7 83 C4 08 85 C0 75 C ..t.VP.......u
00725A10 14 8B 43 14 85 C0 74 0B 56 50 FF D7 83 C4 08 85 ..C...t.VP......
00725A20 C0 75 02 33 C0 5F 5E 5B C3 CC CC CC CC CC CC CC .u.3._^[........
00725A30 83 EC 08 53 55 8B 6C 24 14 56 57 8B 7D 10 33 F6 ...SU.l$.VW.}.3.
00725A40 3B FE 74 32 8B 47 04 3D 88 65 A1 00 74 12 68 88 ;.t2.G.=.e..t.h.
00725A50 65 A1 00 50 E8 17 FC FA FF 83 C4 08 85 C0 74 16 e..P..........t.
00725A60 8D 47 0C 57 89 44 24 18 E8 B3 A3 FB FF 83 C4 04 .G.W.D$.........
00725A70 89 44 24 10 EB 08 89 74 24 14 89 74 24 10 8B 5C .D$....t$..t$..\
00725A80 24 24 3B DE 0F 84 A0 00 00 00 8B 43 04 3D B8 D1 $$;........C.=..
00725A90 A1 00 74 16 68 B8 D1 A1 00 50 E8 D1 FB FA FF 83 ..t.h....P......
00725AA0 C4 08 85 C0 0F 84 80 00 00 00 53 E8 70 74 FD FF ..........S.pt..
00725AB0 03 C0 03 C0 03 C0 83 C4 04 3B C6 75 05 B8 01 00 .........;.u....
00725AC0 00 00 50 FF 15 BC 45 8A 00 8B F8 83 C4 04 3B FE ..P...E.......;.
00725AD0 75 0F E8 39 B7 FB FF 5F 5E 5D 33 C0 5B 83 C4 08 u..9..._^]3.[...
00725AE0 C3 8D 4F 04 51 57 8D 54 24 2C 52 53 33 ED 89 74 ..O.QW.T$,RS3..t
00725AF0 24 34 E8 59 65 FD FF 83 C4 10 85 C0 74 1F 8B F7 $4.Ye.......t...
00725B00 83 C6 08 8D 46 04 50 56 8D 4C 24 2C 51 53 83 C5 ....F.PV.L$,QS..
00725B10 02 E8 3A 65 FD FF 83 C4 10 85 C0 75 E3 8B C5 8B ..:e.......u....
00725B20 6C 24 1C 99 2B C2 D1 F8 EB 04 33 FF 33 C0 8B 55 l$..+.....3.3..U
00725B30 14 8B 4C 24 10 8B 74 24 20 52 8B 54 24 18 51 52 ..L$..t$ R.T$.QR
00725B40 50 57 56 E8 D8 A2 FB FF 8B 4D 08 83 C4 04 50 8B PWV......M....P.
00725B50 45 0C 83 C6 0C 56 6A 00 50 51 E8 A1 5A FE FF 83 E....Vj.PQ..Z...
00725B60 C4 28 85 FF 8B F0 74 0A 57 FF 15 D4 45 8A 00 83 .(....t.W...E...
00725B70 C4 04 5F 8B C6 5E 5D 5B 83 C4 08 C3 CC CC CC CC .._..^][........
00725B80 8B 44 24 08 3D B8 63 A1 00 75 02 33 C0 89 44 24 .D$.=.c..u.3..D$
00725B90 08 E9 6A 84 FE FF CC CC CC CC CC CC CC CC CC CC ..j.............
00725BA0 8B 44 24 04 8B 48 08 85 C9 75 17 8B 0D E0 75 A1 .D$..H...u....u.
00725BB0 00 68 00 A5 8D 00 51 E8 C4 B3 FB FF 83 C4 08 33 .h....Q........3
00725BC0 C0 C3 8B 44 24 0C 85 C0 75 07 8B 54 24 08 8B 42 ...D$...u..T$..B
00725BD0 04 8B 50 04 89 54 24 0C 89 44 24 08 89 4C 24 04 ..P..T$..D$..L$.
00725BE0 E9 1B 84 FE FF CC CC CC CC CC CC CC CC CC CC CC ................
00725BF0 51 8B 4C 24 0C 8D 04 24 50 6A 01 6A 01 68 C8 A1 Q.L$...$Pj.j.h..
00725C00 8D 00 51 E8 C8 FE FB FF 83 C4 14 85 C0 74 44 8B ..Q..........tD.
00725C10 54 24 10 52 68 C8 A1 8D 00 E8 E2 FF FB FF 83 C4 T$.Rh...........
00725C20 08 85 C0 74 2E 8B 04 24 50 E8 42 9C FB FF 83 C4 ...t...$P.B.....
00725C30 04 85 C0 75 23 8B 0C 24 8B 51 04 8B 42 0C 8B 0D ...u#..$.Q..B...
00725C40 7C 6B A1 00 50 68 24 A5 8D 00 51 E8 80 B9 FB FF |k..Ph$...Q.....
00725C50 83 C4 0C 83 C8 FF 59 C3 8B 04 24 83 00 01 8B 04 ......Y...$.....
00725C60 24 8B 54 24 08 89 42 08 33 C0 59 C3 CC CC CC CC $.T$..B.3.Y.....
00725C70 56 8B 74 24 08 8B 46 F4 8B 4E F0 C7 46 F8 FE FF V.t$..F..N..F...
00725C80 FF FF 89 08 8B 56 F0 8B 46 F4 89 42 04 C7 46 F0 .....V..F..B..F.
00725C90 00 00 00 00 83 7E 08 00 74 1C 8B 46 08 83 00 FF .....~..t..F....
00725CA0 8B 4E 08 83 39 00 75 0E 8B C1 8B 50 04 50 8B 42 .N..9.u....P.P.B
00725CB0 18 FF D0 83 C4 04 8B 4E 04 8B 91 A0 00 00 00 56 .......N.......V
00725CC0 FF D2 83 C4 04 5E C3 CC CC CC CC CC CC CC CC CC .....^..........
00725CD0 56 8B 74 24 08 8B 46 08 85 C0 74 17 83 00 FF 8B V.t$..F...t.....
00725CE0 46 08 83 38 00 75 0C 8B 48 04 8B 51 18 50 FF D2 F..8.u..H..Q.P..
00725CF0 83 C4 04 C7 46 08 00 00 00 00 33 C0 5E C3 CC CC ....F.....3.^...
00725D00 8B 4C 24 04 83 79 08 00 75 16 A1 E0 75 A1 00 68 .L$..y..u...u..h
00725D10 40 A5 8D 00 50 E8 66 B2 FB FF 83 C4 08 33 C0 C3 @...P.f......3..
00725D20 8B 41 08 83 00 01 8B 41 08 C3 CC CC CC CC CC CC .A.....A........
00725D30 51 8B 4C 24 0C 8D 04 24 50 6A 01 6A 01 68 B8 A1 Q.L$...$Pj.j.h..
00725D40 8D 00 51 E8 88 FD FB FF 83 C4 14 85 C0 75 05 83 ..Q..........u..
00725D50 C8 FF 59 C3 8B 54 24 10 52 68 B8 A1 8D 00 E8 9D ..Y..T$.Rh......
00725D60 FE FB FF 83 C4 08 85 C0 74 E5 8B 04 24 83 00 01 ........t...$...
00725D70 8B 44 24 08 8B 0C 24 89 48 08 33 C0 59 C3 CC CC .D$...$.H.3.Y...
00725D80 6A 00 68 E0 4F A2 00 E8 D4 F3 FA FF 83 C4 08 85 j.h.O...........
00725D90 C0 74 0A 8B 4C 24 04 83 01 01 89 48 08 C3 CC CC .t..L$.....H....

;; fn00725DA0: 00725DA0
;;   Called from:
;;     00704B23 (in fn00704B00)
fn00725DA0 proc
	push	esi
	mov	esi,[esp+8h]
	push	esi
	call	704700h
	add	esp,4h
	test	eax,eax
	jnz	725DC5h

l00725DB2:
	push	11h
	push	8DA584h
	call	6E1DC0h
	add	esp,8h
	xor	eax,eax
	pop	esi
	ret

l00725DC5:
	push	edi
	push	0A250F8h
	call	6FEF30h
	mov	edi,eax
	add	esp,4h
	test	edi,edi
	jnz	725DDCh

l00725DD9:
	pop	edi
	pop	esi
	ret

l00725DDC:
	mov	dword ptr [edi+8h],0h
	add	dword ptr [esi],1h
	mov	[edi+0Ch],esi
	cmp	dword ptr [edi-8h],0FEh
	lea	esi,[edi-10h]
	jz	725DFFh

l00725DF2:
	push	8D0E04h
	call	6E86F0h
	add	esp,4h

l00725DFF:
	mov	dword ptr [esi+8h],0FFFFFFFDh
	mov	eax,[0A1D558h]
	mov	[esi],eax
	mov	ecx,[0A1D558h]
	mov	eax,[ecx+4h]
	mov	[esi+4h],eax
	mov	[eax],esi
	mov	edx,[0A1D558h]
	mov	eax,edi
	pop	edi
	mov	[edx+4h],esi
	pop	esi
	ret
00725E29                            CC CC CC CC CC CC CC          .......
00725E30 56 8B 74 24 08 8B 46 F4 8B 4E F0 C7 46 F8 FE FF V.t$..F..N..F...
00725E40 FF FF 89 08 8B 56 F0 8B 46 F4 89 42 04 C7 46 F0 .....V..F..B..F.
00725E50 00 00 00 00 83 7E 0C 00 74 1C 8B 46 0C 83 00 FF .....~..t..F....
00725E60 8B 4E 0C 83 39 00 75 0E 8B C1 8B 50 04 50 8B 42 .N..9.u....P.P.B
00725E70 18 FF D0 83 C4 04 56 E8 54 91 FD FF 83 C4 04 5E ......V.T......^
00725E80 C3 CC CC CC CC CC CC CC CC CC CC CC CC CC CC CC ................
00725E90 56 57 8B 7C 24 0C 8B 77 0C 85 F6 74 5B 8B 47 08 VW.|$..w...t[.G.
00725EA0 50 56 E8 D9 D2 FD FF 83 C4 08 85 C0 74 07 83 47 PV..........t..G
00725EB0 08 01 5F 5E C3 8B 0D A4 7C A1 00 51 E8 4F B2 FB .._^....|..Q.O..
00725EC0 FF 83 C4 04 85 C0 75 13 8B 15 00 6D A1 00 52 E8 ......u....m..R.
00725ED0 3C B2 FB FF 83 C4 04 85 C0 74 1D E8 80 B2 FB FF <........t......
00725EE0 83 06 FF 75 0C 8B 46 04 8B 48 18 56 FF D1 83 C4 ...u..F..H.V....
00725EF0 04 C7 47 0C 00 00 00 00 5F 33 C0 5E C3 CC CC CC ..G....._3.^....
00725F00 56 8B 74 24 08 8B 46 0C 85 C0 74 21 50 E8 0E D2 V.t$..F...t!P...
00725F10 FD FF 83 C4 04 83 F8 FF 75 04 33 C0 5E C3 2B 46 ........u.3.^.+F
00725F20 08 78 0A 5E 89 44 24 04 E9 F3 F1 FD FF 5E C7 44 .x.^.D$......^.D
00725F30 24 04 00 00 00 00 E9 65 F1 FD FF CC CC CC CC CC $......e........
00725F40 57 68 B8 51 A2 00 E8 E5 8F FD FF 8B F8 83 C4 04 Wh.Q............
00725F50 85 FF 75 02 5F C3 8B 44 24 08 83 00 01 89 47 08 ..u._..D$.....G.
00725F60 8B 44 24 0C 83 00 01 56 8D 77 F0 89 47 0C 83 7E .D$....V.w..G..~
00725F70 08 FE 74 0D 68 04 0E 8D 00 E8 72 27 FC FF 83 C4 ..t.h.....r'....
00725F80 04 C7 46 08 FD FF FF FF A1 58 D5 A1 00 89 06 8B ..F......X......
00725F90 0D 58 D5 A1 00 8B 41 04 89 46 04 89 30 8B 15 58 .X....A..F..0..X
00725FA0 D5 A1 00 89 72 04 5E 8B C7 5F C3 CC CC CC CC CC ....r.^.._......
00725FB0 56 8B 74 24 08 8B 46 F4 8B 4E F0 C7 46 F8 FE FF V.t$..F..N..F...
00725FC0 FF FF 89 08 8B 56 F0 8B 46 F4 89 42 04 C7 46 F0 .....V..F..B..F.
00725FD0 00 00 00 00 83 7E 08 00 74 1C 8B 46 08 83 00 FF .....~..t..F....
00725FE0 8B 4E 08 83 39 00 75 0E 8B C1 8B 50 04 50 8B 42 .N..9.u....P.P.B
00725FF0 18 FF D0 83 C4 04 83 7E 0C 00 74 1C 8B 46 0C 83 .......~..t..F..
00726000 00 FF 8B 4E 0C 83 39 00 75 0E 8B C1 8B 50 04 50 ...N..9.u....P.P
00726010 8B 42 18 FF D0 83 C4 04 56 E8 B2 8F FD FF 83 C4 .B......V.......
00726020 04 5E C3 CC CC CC CC CC CC CC CC CC CC CC CC CC .^..............
00726030 53 8B 5C 24 08 8B 43 08 85 C0 56 8B 74 24 14 57 S.\$..C...V.t$.W
00726040 8B 7C 24 14 74 0B 56 50 FF D7 83 C4 08 85 C0 75 .|$.t.VP.......u
00726050 14 8B 43 0C 85 C0 74 0B 56 50 FF D7 83 C4 08 85 ..C...t.VP......
00726060 C0 75 02 33 C0 5F 5E 5B C3 CC CC CC CC CC CC CC .u.3._^[........
00726070 53 55 56 8B 74 24 10 33 ED 39 6E 08 57 0F 84 B8 SUV.t$.3.9n.W...
00726080 00 00 00 55 E8 97 9C FB FF 8B F8 83 C4 04 3B FD ...U..........;.
00726090 0F 84 A5 00 00 00 8B 46 08 55 57 50 E8 6F D6 FD .......F.UWP.o..
007260A0 FF 83 C4 0C 83 07 FF 8B D8 75 0C 8B 4F 04 8B 51 .........u..O..Q
007260B0 18 57 FF D2 83 C4 04 3B DD 74 33 8B 46 0C 6A 02 .W.....;.t3.F.j.
007260C0 50 53 E8 D9 94 FB FF 8B F8 83 C4 0C 3B FD 75 07 PS..........;.u.
007260D0 5F 5E 5D 8B C3 5B C3 83 03 FF 75 0C 8B 4B 04 8B _^]..[....u..K..
007260E0 51 18 53 FF D2 83 C4 04 3B FD 7E 4F EB 17 A1 00 Q.S.....;.~O....
007260F0 6D A1 00 50 E8 17 B0 FB FF 83 C4 04 85 C0 74 3B m..P..........t;
00726100 E8 5B B0 FB FF 8B 46 08 3B C5 74 14 89 6E 08 83 .[....F.;.t..n..
00726110 00 FF 75 0C 8B 48 04 8B 51 18 50 FF D2 83 C4 04 ..u..H..Q.P.....
00726120 8B 46 0C 3B C5 74 14 89 6E 0C 83 00 FF 75 0C 8B .F.;.t..n....u..
00726130 48 04 8B 51 18 50 FF D2 83 C4 04 5F 5E 5D 33 C0 H..Q.P....._^]3.
00726140 5B C3 CC CC CC CC CC CC CC CC CC CC CC CC CC CC [...............

;; fn00726150: 00726150
;;   Called from:
;;     00728FE9 (in fn00728FE0)
;;     00729562 (in fn00729510)
;;     00729BB3 (in fn00729810)
;;     00729DDC (in fn00729D20)
;;     0072A81A (in fn0072A740)
;;     0072AAA2 (in fn0072A940)
;;     0072AE68 (in fn0072AC20)
;;     0072B8F9 (in fn0072B830)
;;     0072BFB2 (in fn0072BF10)
;;     0072C3D4 (in fn0072C160)
;;     0072C667 (in fn0072C510)
;;     0072C86C (in fn0072C510)
;;     0072DF1A (in fn0072DD60)
;;     0072E09B (in fn0072DD60)
;;     0072E248 (in fn0072DD60)
;;     0072E452 (in fn0072DD60)
;;     00748149 (in fn00748140)
;;     0074819E (in fn00748190)
fn00726150 proc
	push	ebx
	push	esi
	push	edi
	mov	edi,[esp+14h]
	push	edi
	call	6ECC50h
	mov	esi,[esp+14h]
	add	esp,4h
	test	esi,esi
	mov	ebx,eax
	jz	726255h

l0072616E:
	mov	eax,[esi+4h]
	cmp	eax,0A1B450h
	jz	72618Eh

l00726178:
	push	0A1B450h
	push	eax
	call	6D5670h
	add	esp,8h
	test	eax,eax
	jz	726255h

l0072618E:
	test	ebx,ebx
	jz	726255h

l00726196:
	cmp	byte ptr [ebx],5Fh
	jnz	726255h

l0072619F:
	cmp	byte ptr [ebx+1h],5Fh
	jnz	726255h

l007261A9:
	push	ebp
	push	esi
	call	6ECC50h
	mov	ebp,eax
	mov	eax,ebx
	add	esp,4h
	lea	edx,[eax+1h]
	lea	ebx,[ebx+0h]

l007261C0:
	mov	cl,[eax]
	add	eax,1h
	test	cl,cl
	jnz	7261C0h

l007261C9:
	sub	eax,edx
	cmp	byte ptr [eax+ebx-1h],5Fh
	jnz	7261D9h

l007261D2:
	cmp	byte ptr [eax+ebx-2h],5Fh
	jz	7261EFh

l007261D9:
	cmp	byte ptr [ebp+0h],5Fh
	jnz	7261E9h

l007261DF:
	nop

l007261E0:
	add	ebp,1h
	cmp	byte ptr [ebp+0h],5Fh
	jz	7261E0h

l007261E9:
	cmp	byte ptr [ebp+0h],0h
	jnz	7261F9h

l007261EF:
	add	dword ptr [edi],1h
	pop	ebp
	mov	eax,edi
	pop	edi
	pop	esi
	pop	ebx
	ret

l007261F9:
	mov	ecx,ebp
	lea	esi,[ecx+1h]
	mov	edi,edi

l00726200:
	mov	dl,[ecx]
	add	ecx,1h
	test	dl,dl
	jnz	726200h

l00726209:
	sub	ecx,esi
	mov	edi,ecx
	lea	eax,[edi+eax+1h]
	push	eax
	push	0h
	call	6EC9B0h
	mov	esi,eax
	add	esp,8h
	test	esi,esi
	jnz	726227h

l00726222:
	pop	ebp
	pop	edi
	pop	esi
	pop	ebx
	ret

l00726227:
	push	edi
	lea	ecx,[esi+15h]
	push	ebp
	push	ecx
	mov	byte ptr [esi+14h],5Fh
	call	dword ptr [8A45DCh]
	lea	edx,[esi+edi+15h]
	add	esp,0Ch
	mov	eax,ebx
	sub	edx,ebx

l00726242:
	mov	cl,[eax]
	mov	[edx+eax],cl
	add	eax,1h
	test	cl,cl
	jnz	726242h

l0072624E:
	pop	ebp
	pop	edi
	mov	eax,esi
	pop	esi
	pop	ebx
	ret

l00726255:
	add	dword ptr [edi],1h
	mov	eax,edi
	pop	edi
	pop	esi
	pop	ebx
	ret
0072625E                                           CC CC               ..

;; fn00726260: 00726260
;;   Called from:
;;     00728E9F (in fn00728E40)
fn00726260 proc
	push	ecx
	push	ebp
	call	6FDCC0h
	mov	ebp,eax
	test	ebp,ebp
	jnz	726270h

l0072626D:
	pop	ebp
	pop	ecx
	ret

l00726270:
	mov	eax,[esp+0Ch]
	push	ebx
	push	esi
	push	edi
	push	eax
	call	6F2750h
	add	esp,4h
	xor	ebx,ebx
	test	eax,eax
	mov	[esp+10h],eax
	jle	7262FCh

l0072628A:
	lea	ebx,[ebx+0h]

l00726290:
	push	ebx
	call	7050A0h
	mov	edi,eax
	add	esp,4h
	test	edi,edi
	jz	726326h

l007262A3:
	mov	ecx,[esp+18h]
	mov	edx,[ecx+0Ch]
	mov	eax,[edx+ebx*4]
	mov	ecx,[eax+4h]
	push	ecx
	push	eax
	push	2h
	call	6DFF80h
	mov	esi,eax
	add	esp,0Ch
	test	esi,esi
	jz	726315h

l007262C2:
	push	edi
	push	esi
	push	ebp
	call	6FBD90h
	add	esp,0Ch
	test	eax,eax
	jl	726304h

l007262D1:
	add	dword ptr [esi],0FFh
	jnz	7262E2h

l007262D6:
	mov	edx,[esi+4h]
	mov	eax,[edx+18h]
	push	esi
	call	eax
	add	esp,4h

l007262E2:
	add	dword ptr [edi],0FFh
	jnz	7262F3h

l007262E7:
	mov	ecx,[edi+4h]
	mov	edx,[ecx+18h]
	push	edi
	call	edx
	add	esp,4h

l007262F3:
	add	ebx,1h
	cmp	ebx,[esp+10h]
	jl	726290h

l007262FC:
	pop	edi
	pop	esi
	pop	ebx
	mov	eax,ebp
	pop	ebp
	pop	ecx
	ret

l00726304:
	add	dword ptr [esi],0FFh
	jnz	726315h

l00726309:
	mov	edx,[esi+4h]
	mov	eax,[edx+18h]
	push	esi
	call	eax
	add	esp,4h

l00726315:
	add	dword ptr [edi],0FFh
	jnz	726326h

l0072631A:
	mov	ecx,[edi+4h]
	mov	edx,[ecx+18h]
	push	edi
	call	edx
	add	esp,4h

l00726326:
	add	dword ptr [ebp+0h],0FFh
	jnz	726338h

l0072632C:
	mov	eax,[ebp+4h]
	mov	ecx,[eax+18h]
	push	ebp
	call	ecx
	add	esp,4h

l00726338:
	pop	edi
	pop	esi
	pop	ebx
	xor	eax,eax
	pop	ebp
	pop	ecx
	ret

;; fn00726340: 00726340
;;   Called from:
;;     00728EB1 (in fn00728E40)
;;     00728EE1 (in fn00728E40)
fn00726340 proc
	sub	esp,8h
	push	ebx
	push	ebp
	mov	ebp,[esp+20h]
	mov	dword ptr [esp+0Ch],0h
	call	6FDCC0h
	mov	ebx,eax
	test	ebx,ebx
	jnz	726362h

l0072635C:
	pop	ebp
	pop	ebx
	add	esp,8h
	ret

l00726362:
	push	esi
	push	edi
	lea	eax,[esp+28h]
	push	eax
	mov	eax,[esp+20h]
	lea	ecx,[esp+14h]
	push	ecx
	lea	edx,[esp+1Ch]
	push	edx
	push	eax
	call	6FC050h
	add	esp,10h
	test	eax,eax
	jz	72642Dh

l00726388:
	jmp	726390h
0072638A                               8D 9B 00 00 00 00           ......

l00726390:
	mov	ecx,[esp+28h]
	mov	eax,[ecx+8h]
	mov	edx,eax
	sar	edx,0Bh
	and	edx,7h
	cmp	edx,[esp+20h]
	jz	7263ADh

l007263A5:
	mov	ecx,[esp+24h]
	test	ecx,eax
	jz	726409h

l007263AD:
	push	ebp
	call	7050A0h
	mov	edi,eax
	add	esp,4h
	test	edi,edi
	jz	726437h

l007263BC:
	mov	eax,[esp+10h]
	mov	edx,[eax+4h]
	push	edx
	push	eax
	push	2h
	add	ebp,1h
	call	6DFF80h
	mov	esi,eax
	add	esp,0Ch
	test	esi,esi
	jz	726452h

l007263D8:
	push	edi
	push	esi
	push	ebx
	call	6FBD90h
	add	esp,0Ch
	test	eax,eax
	jl	726452h

l007263E7:
	add	dword ptr [edi],0FFh
	jnz	7263F8h

l007263EC:
	mov	eax,[edi+4h]
	mov	ecx,[eax+18h]
	push	edi
	call	ecx
	add	esp,4h

l007263F8:
	add	dword ptr [esi],0FFh
	jnz	726409h

l007263FD:
	mov	edx,[esi+4h]
	mov	eax,[edx+18h]
	push	esi
	call	eax
	add	esp,4h

l00726409:
	lea	ecx,[esp+28h]
	push	ecx
	mov	ecx,[esp+20h]
	lea	edx,[esp+14h]
	push	edx
	lea	eax,[esp+1Ch]
	push	eax
	push	ecx
	call	6FC050h
	add	esp,10h
	test	eax,eax
	jnz	726390h

l0072642D:
	pop	edi
	pop	esi
	pop	ebp
	mov	eax,ebx
	pop	ebx
	add	esp,8h
	ret

l00726437:
	add	dword ptr [ebx],0FFh
	jnz	726489h

l0072643C:
	mov	edx,[ebx+4h]
	mov	eax,[edx+18h]
	push	ebx
	call	eax
	add	esp,4h
	pop	edi
	pop	esi
	pop	ebp
	xor	eax,eax
	pop	ebx
	add	esp,8h
	ret

l00726452:
	add	dword ptr [edi],0FFh
	jnz	726463h

l00726457:
	mov	ecx,[edi+4h]
	mov	edx,[ecx+18h]
	push	edi
	call	edx
	add	esp,4h

l00726463:
	add	dword ptr [ebx],0FFh
	jnz	726474h

l00726468:
	mov	eax,[ebx+4h]
	mov	ecx,[eax+18h]
	push	ebx
	call	ecx
	add	esp,4h

l00726474:
	test	esi,esi
	jz	726489h

l00726478:
	add	dword ptr [esi],0FFh
	jnz	726489h

l0072647D:
	mov	edx,[esi+4h]
	mov	eax,[edx+18h]
	push	esi
	call	eax
	add	esp,4h

l00726489:
	pop	edi
	pop	esi
	pop	ebp
	xor	eax,eax
	pop	ebx
	add	esp,8h
	ret
00726493          CC CC CC CC CC CC CC CC CC CC CC CC CC    .............

;; fn007264A0: 007264A0
;;   Called from:
;;     00726C7A (in fn00726930)
fn007264A0 proc
	push	ecx
	push	ebx
	mov	ebx,[esp+0Ch]
	push	ebp
	mov	ebp,[esp+14h]
	push	esi
	push	ebp
	call	6DFD20h
	mov	esi,eax
	add	esp,4h
	test	esi,esi
	mov	[esp+18h],esi
	jz	72651Bh

l007264BF:
	test	ebp,ebp
	mov	eax,[edi+8h]
	mov	[esp+0Ch],eax
	jle	7264FCh

l007264CA:
	lea	edx,[esi+0Ch]
	lea	ecx,[ebx+1h]
	mov	esi,ebp

l007264D2:
	movzx	eax,byte ptr [ecx+1h]
	movzx	ebx,byte ptr [ecx]
	shl	eax,8h
	add	eax,ebx
	mov	ebx,[edi+0Ch]
	mov	eax,[ebx+eax*4]
	add	dword ptr [eax],1h
	mov	[edx],eax
	add	edx,4h
	add	ecx,3h
	sub	esi,1h
	jnz	7264D2h

l007264F4:
	mov	ebx,[esp+14h]
	mov	esi,[esp+18h]

l007264FC:
	push	esi
	push	edi
	call	6F2A10h
	add	esp,8h
	test	eax,eax
	jz	726522h

l0072650A:
	add	dword ptr [esi],0FFh
	jnz	72651Bh

l0072650F:
	mov	ecx,[esi+4h]
	mov	edx,[ecx+18h]
	push	esi
	call	edx
	add	esp,4h

l0072651B:
	pop	esi
	pop	ebp
	xor	eax,eax
	pop	ebx
	pop	ecx
	ret

l00726522:
	add	dword ptr [esi],0FFh
	jnz	726533h

l00726527:
	mov	eax,[esi+4h]
	mov	ecx,[eax+18h]
	push	esi
	call	ecx
	add	esp,4h

l00726533:
	lea	esi,[ebp+ebp*2+0h]
	push	esi
	push	9h
	push	ebx
	call	695020h
	mov	eax,[esp+18h]
	add	esp,0Ch
	mov	edx,eax
	sar	edx,8h
	mov	[esi+ebx+1h],al
	mov	byte ptr [esi+ebx],64h
	mov	[esi+ebx+2h],dl
	pop	esi
	pop	ebp
	mov	eax,1h
	pop	ebx
	pop	ecx
	ret
00726562       CC CC CC CC CC CC CC CC CC CC CC CC CC CC   ..............

;; fn00726570: 00726570
;;   Called from:
;;     00726D36 (in fn00726930)
fn00726570 proc
	movzx	eax,byte ptr [edi+2h]
	movzx	edx,byte ptr [edi+1h]
	shl	eax,8h
	add	eax,edx
	movzx	edx,byte ptr [edi+5h]
	push	ebp
	mov	ebp,[esp+8h]
	mov	ecx,[ebp+0Ch]
	mov	eax,[ecx+eax*4]
	push	esi
	movzx	esi,byte ptr [edi+4h]
	shl	edx,8h
	add	edx,esi
	movzx	esi,byte ptr [edi+6h]
	mov	ecx,[ecx+edx*4]
	lea	edx,[esi-13h]
	cmp	edx,2Fh
	ja	7266CBh

l007265A9:
	movzx	edx,byte ptr [edx+726724h]
	jmp	dword ptr [7266E8h+edx*4]

l007265B7:
	push	0A163B8h
	push	ecx
	push	eax
	call	702570h
	add	esp,0Ch
	jmp	726635h

l007265C8:
	push	ecx
	push	eax
	call	704560h
	jmp	726632h

l007265D1:
	push	ecx
	push	eax
	call	7024B0h
	jmp	726632h

l007265DA:
	push	ecx
	push	eax
	call	702450h
	jmp	726632h

l007265E3:
	push	ecx
	push	eax
	call	702510h
	jmp	726632h

l007265EC:
	push	ecx
	push	eax
	call	7023D0h
	jmp	726632h

l007265F5:
	push	ecx
	push	eax
	call	7022B0h
	jmp	726632h

l007265FE:
	push	ecx
	push	eax
	call	704220h
	jmp	726632h

l00726607:
	push	ecx
	push	eax
	call	7021F0h
	jmp	726632h

l00726610:
	push	ecx
	push	eax
	call	702250h
	jmp	726632h

l00726619:
	push	ecx
	push	eax
	call	702190h
	jmp	726632h

l00726622:
	push	ecx
	push	eax
	call	702130h
	jmp	726632h

l0072662B:
	push	ecx
	push	eax
	call	7020D0h

l00726632:
	add	esp,8h

l00726635:
	mov	esi,eax
	test	esi,esi
	jnz	726645h

l0072663B:
	call	6E1160h

l00726640:
	pop	esi
	xor	eax,eax
	pop	ebp
	ret

l00726645:
	push	esi
	call	704080h
	add	esp,4h
	cmp	eax,0FFh
	jnz	726681h

l00726653:
	call	6E1160h

l00726658:
	push	ebx
	mov	ebx,[ebp+8h]
	push	esi
	push	ebp
	call	6F2A10h
	add	esp,8h
	test	eax,eax
	jz	72669Ch

l0072666A:
	add	dword ptr [esi],0FFh
	jnz	72667Bh

l0072666F:
	mov	edx,[esi+4h]
	mov	eax,[edx+18h]
	push	esi
	call	eax
	add	esp,4h

l0072667B:
	pop	ebx
	pop	esi
	xor	eax,eax
	pop	ebp
	ret

l00726681:
	cmp	eax,14h
	jle	726658h

l00726686:
	add	dword ptr [esi],0FFh
	jnz	726697h

l0072668B:
	mov	eax,[esi+4h]
	mov	ecx,[eax+18h]
	push	esi
	call	ecx
	add	esp,4h

l00726697:
	pop	esi
	xor	eax,eax
	pop	ebp
	ret

l0072669C:
	add	dword ptr [esi],0FFh
	jnz	7266ADh

l007266A1:
	mov	ecx,[esi+4h]
	mov	edx,[ecx+18h]
	push	esi
	call	edx
	add	esp,4h

l007266AD:
	mov	dword ptr [edi],9090909h
	mov	eax,ebx
	mov	[edi+5h],bl
	pop	ebx
	sar	eax,8h
	pop	esi
	mov	[edi+6h],al
	mov	byte ptr [edi+4h],64h
	mov	eax,1h
	pop	ebp
	ret

l007266CB:
	mov	ecx,[0A18720h]
	push	esi
	push	8DA5F0h
	push	ecx
	call	6E15D0h
	add	esp,0Ch
	pop	esi
	xor	eax,eax
	pop	ebp
	ret
007266E5                8D 49 00                              .I.       
l007266E8	dd	0x007265B7
l007266EC	dd	0x007265C8
l007266F0	dd	0x00726640
l007266F4	dd	0x007265E3
l007266F8	dd	0x007265EC
l007266FC	dd	0x007265F5
l00726700	dd	0x007265FE
l00726704	dd	0x007265DA
l00726708	dd	0x007265D1
l0072670C	dd	0x00726607
l00726710	dd	0x00726610
l00726714	dd	0x00726619
l00726718	dd	0x00726622
l0072671C	dd	0x0072662B
l00726720	dd	0x007266CB
l00726724	db	0x00
l00726725	db	0x01
l00726726	db	0x02
l00726727	db	0x03
l00726728	db	0x04
l00726729	db	0x05
l0072672A	db	0x06
l0072672B	db	0x07
l0072672C	db	0x08
l0072672D	db	0x0E
l0072672E	db	0x0E
l0072672F	db	0x0E
l00726730	db	0x0E
l00726731	db	0x0E
l00726732	db	0x0E
l00726733	db	0x0E
l00726734	db	0x0E
l00726735	db	0x0E
l00726736	db	0x0E
l00726737	db	0x0E
l00726738	db	0x0E
l00726739	db	0x0E
l0072673A	db	0x0E
l0072673B	db	0x0E
l0072673C	db	0x0E
l0072673D	db	0x0E
l0072673E	db	0x0E
l0072673F	db	0x0E
l00726740	db	0x0E
l00726741	db	0x0E
l00726742	db	0x0E
l00726743	db	0x0E
l00726744	db	0x0E
l00726745	db	0x0E
l00726746	db	0x0E
l00726747	db	0x0E
l00726748	db	0x0E
l00726749	db	0x0E
l0072674A	db	0x0E
l0072674B	db	0x0E
l0072674C	db	0x0E
l0072674D	db	0x0E
l0072674E	db	0x0E
l0072674F	db	0x09
l00726750	db	0x0A
l00726751	db	0x0B
l00726752	db	0x0C
l00726753	db	0x0D
00726754             CC CC CC CC CC CC CC CC CC CC CC CC     ............

;; fn00726760: 00726760
;;   Called from:
;;     00726D75 (in fn00726930)
fn00726760 proc
	movzx	eax,byte ptr [esi+2h]
	movzx	ecx,byte ptr [esi+1h]
	shl	eax,8h
	add	eax,ecx
	movzx	ecx,byte ptr [esi+3h]
	push	ebp
	mov	ebp,[esp+8h]
	mov	edx,[ebp+0Ch]
	push	edi
	mov	edi,[edx+eax*4]
	mov	eax,ecx
	sub	eax,0Bh
	jz	7267B7h

l00726784:
	sub	eax,2h
	jz	7267AFh

l00726789:
	sub	eax,2h
	jz	7267A7h

l0072678E:
	mov	eax,[0A18720h]
	push	ecx
	push	8DA620h
	push	eax
	call	6E15D0h
	add	esp,0Ch
	pop	edi
	xor	eax,eax
	pop	ebp
	ret

l007267A7:
	push	edi
	call	7029D0h
	jmp	7267CBh

l007267AF:
	push	edi
	call	6DDDB0h
	jmp	7267CBh

l007267B7:
	push	edi
	call	6DEA90h
	add	esp,4h
	cmp	eax,1h
	jnz	7267D4h

l007267C5:
	push	edi
	call	702910h

l007267CB:
	mov	edi,eax
	add	esp,4h
	test	edi,edi
	jnz	7267DEh

l007267D4:
	call	6E1160h
	pop	edi
	xor	eax,eax
	pop	ebp
	ret

l007267DE:
	push	ebx
	mov	ebx,[ebp+8h]
	push	edi
	push	ebp
	call	6F2A10h
	add	esp,8h
	test	eax,eax
	jz	726807h

l007267F0:
	add	dword ptr [edi],0FFh
	jnz	726801h

l007267F5:
	mov	ecx,[edi+4h]
	mov	edx,[ecx+18h]
	push	edi
	call	edx
	add	esp,4h

l00726801:
	pop	ebx
	pop	edi
	xor	eax,eax
	pop	ebp
	ret

l00726807:
	add	dword ptr [edi],0FFh
	jnz	726818h

l0072680C:
	mov	eax,[edi+4h]
	mov	ecx,[eax+18h]
	push	edi
	call	ecx
	add	esp,4h

l00726818:
	mov	edx,ebx
	mov	[esi+2h],bl
	pop	ebx
	sar	edx,8h
	pop	edi
	mov	byte ptr [esi],9h
	mov	byte ptr [esi+1h],64h
	mov	[esi+3h],dl
	mov	eax,1h
	pop	ebp
	ret
00726833          CC CC CC CC CC CC CC CC CC CC CC CC CC    .............

;; fn00726840: 00726840
;;   Called from:
;;     007269DE (in fn00726930)
fn00726840 proc
	push	ecx
	push	ebp
	mov	ebp,[esp+0Ch]
	push	esi
	push	edi
	lea	edi,[0000h+ebp*4]
	push	edi
	call	6DECD0h
	mov	esi,eax
	add	esp,4h
	test	esi,esi
	mov	dword ptr [esp+0Ch],0h
	jnz	726872h

l00726866:
	call	6E1210h
	pop	edi
	pop	esi
	xor	eax,eax
	pop	ebp
	pop	ecx
	ret

l00726872:
	push	edi
	push	0h
	push	esi
	call	695020h
	add	esp,0Ch
	xor	eax,eax
	test	ebp,ebp
	jle	7268DFh

l00726884:
	mov	cl,[eax+ebx]
	movzx	edi,cl
	lea	edx,[edi-5Dh]
	cmp	edx,1Dh
	ja	7268CDh

l00726892:
	movzx	edx,byte ptr [edx+72690Ch]
	jmp	dword ptr [726904h+edx*4]

l007268A0:
	cmp	cl,71h
	jz	7268AFh

l007268A5:
	cmp	cl,77h
	jz	7268AFh

l007268AA:
	lea	ecx,[eax+3h]
	jmp	7268B1h

l007268AF:
	xor	ecx,ecx

l007268B1:
	movzx	edx,byte ptr [eax+ebx+2h]
	movzx	ebp,byte ptr [eax+ebx+1h]
	shl	edx,8h
	add	edx,ecx
	add	ebp,edx
	mov	dword ptr [esi+ebp*4],1h
	mov	ebp,[esp+14h]

l007268CD:
	xor	ecx,ecx
	cmp	edi,5Ah
	setge	cl
	lea	ecx,[ecx+ecx+1h]
	add	eax,ecx
	cmp	eax,ebp
	jl	726884h

l007268DF:
	xor	eax,eax
	test	ebp,ebp
	jle	7268FAh

l007268E5:
	mov	edx,[esp+0Ch]
	add	[esi+eax*4],edx
	mov	ecx,[esi+eax*4]
	add	eax,1h
	cmp	eax,ebp
	mov	[esp+0Ch],ecx
	jl	7268E5h

l007268FA:
	pop	edi
	mov	eax,esi
	pop	esi
	pop	ebp
	pop	ecx
	ret
00726901    8D 49 00                                      .I.           
l00726904	dd	0x007268A0
l00726908	dd	0x007268CD
l0072690C	db	0x00
l0072690D	db	0x01
l0072690E	db	0x01
l0072690F	db	0x01
l00726910	db	0x01
l00726911	db	0x01
l00726912	db	0x01
l00726913	db	0x01
l00726914	db	0x01
l00726915	db	0x01
l00726916	db	0x01
l00726917	db	0x01
l00726918	db	0x01
l00726919	db	0x01
l0072691A	db	0x01
l0072691B	db	0x01
l0072691C	db	0x01
l0072691D	db	0x00
l0072691E	db	0x00
l0072691F	db	0x00
l00726920	db	0x00
l00726921	db	0x01
l00726922	db	0x01
l00726923	db	0x01
l00726924	db	0x01
l00726925	db	0x01
l00726926	db	0x00
l00726927	db	0x00
l00726928	db	0x00
l00726929	db	0x00
0072692A                               CC CC CC CC CC CC           ......

;; fn00726930: 00726930
;;   Called from:
;;     00728CEF (in fn00728BE0)
fn00726930 proc
	sub	esp,20h
	push	ebx
	push	ebp
	mov	ebp,[esp+2Ch]
	push	esi
	push	edi
	mov	esi,eax
	mov	dword ptr [esp+10h],0h
	call	6E0FC0h
	test	eax,eax
	jnz	726F7Ch

l00726952:
	mov	ecx,[esi+8h]
	push	ecx
	lea	eax,[esi+14h]
	push	0FFh
	push	eax
	mov	[esp+34h],eax
	mov	[esp+38h],ecx
	call	dword ptr [8A46FCh]
	add	esp,0Ch
	test	eax,eax
	jnz	726F7Ch

l00726978:
	push	ebp
	call	6ECC00h
	mov	edi,eax
	add	esp,4h
	cmp	edi,7FBCh
	mov	[esp+14h],edi
	jg	726F7Ch

l00726993:
	push	edi
	call	6DECD0h
	add	esp,4h
	test	eax,eax
	jz	726F7Ch

l007269A4:
	push	edi
	lea	ecx,[ebp+14h]
	push	ecx
	push	eax
	call	695030h
	mov	ebx,eax
	add	esp,0Ch
	cmp	byte ptr [edi+ebx-1h],53h
	jnz	726F6Fh

l007269BF:
	lea	edx,[0000h+edi*4]
	push	edx
	call	6DECD0h
	mov	esi,eax
	add	esp,4h
	test	esi,esi
	mov	[esp+24h],esi
	jz	726F6Fh

l007269DD:
	push	edi
	call	726840h
	add	esp,4h
	test	eax,eax
	mov	[esp+18h],eax
	jz	726F66h

l007269F2:
	xor	ebp,ebp
	test	edi,edi
	jle	726ECAh

l007269FC:
	mov	edi,eax
	jmp	726A04h

l00726A00:
	mov	edi,[esp+18h]

l00726A04:
	mov	cl,[ebx+ebp]
	mov	esi,[esp+10h]
	movzx	edx,cl
	lea	eax,[edx-0Bh]
	cmp	eax,84h
	mov	[esp+20h],edx
	mov	[esp+1Ch],esi
	mov	dword ptr [esp+10h],0h
	ja	726EAAh

l00726A2C:
	movzx	eax,byte ptr [eax+72705Ch]
	jmp	dword ptr [72702Ch+eax*4]

l00726A3A:
	cmp	byte ptr [ebx+ebp+1h],6Fh
	jnz	726EAAh

l00726A45:
	mov	cl,1h
	cmp	[ebx+ebp+4h],cl
	jnz	726EAAh

l00726A51:
	mov	edx,[edi+ebp*4]
	cmp	edx,[edi+ebp*4+10h]
	jnz	726EAAh

l00726A5E:
	movzx	eax,byte ptr [ebx+ebp+3h]
	movzx	edx,byte ptr [ebx+ebp+2h]
	shl	eax,8h
	add	eax,edx
	lea	edx,[eax+ebp+4h]
	cmp	[edx+ebx],cl
	jnz	726EAAh

l00726A7A:
	add	eax,1h
	mov	edx,eax
	sar	edx,8h
	mov	byte ptr [ebx+ebp],70h
	mov	[ebx+ebp+2h],dl
	mov	[ebx+ebp+1h],al
	mov	[ebx+ebp+3h],cl
	mov	byte ptr [ebx+ebp+4h],9h
	jmp	726EAAh

l00726A9C:
	movzx	eax,byte ptr [ebx+ebp+2h]
	movzx	ecx,byte ptr [ebx+ebp+1h]
	shl	eax,8h
	add	eax,ecx
	lea	edx,[eax-6h]
	cmp	edx,3h
	ja	726EAAh

l00726AB7:
	cmp	byte ptr [ebx+ebp+3h],0Ch
	jnz	726EAAh

l00726AC2:
	mov	ecx,[edi+ebp*4]
	cmp	ecx,[edi+ebp*4+0Ch]
	jnz	726EAAh

l00726ACF:
	mov	edx,eax
	sar	edx,8h
	xor	al,1h
	mov	[ebx+ebp+2h],dl
	mov	[ebx+ebp+1h],al
	mov	byte ptr [ebx+ebp+3h],9h
	jmp	726EAAh

l00726AE8:
	movzx	eax,byte ptr [ebx+ebp+2h]
	movzx	ecx,byte ptr [ebx+ebp+1h]
	mov	edx,[esp+3Ch]
	shl	eax,8h
	add	eax,ecx
	mov	eax,[edx+eax*4+0Ch]
	push	eax
	call	6ECC50h
	add	esp,4h
	test	eax,eax
	jz	726EAAh

l00726B10:
	mov	edi,8ABDD0h
	mov	esi,eax
	mov	ecx,5h
	xor	edx,edx

l00726B1E:
	rep cmpsb

l00726B20:
	jnz	726EAAh

l00726B26:
	mov	edx,[esp+38h]
	mov	ecx,[edx+8h]
	xor	eax,eax
	test	ecx,ecx
	mov	[esp+10h],eax
	jle	726B56h

l00726B37:
	mov	edx,[edx+0Ch]
	lea	ebx,[ebx+0h]

l00726B40:
	cmp	dword ptr [edx],0A163B8h
	jz	726B52h

l00726B48:
	add	eax,1h
	add	edx,4h
	cmp	eax,ecx
	jl	726B40h

l00726B52:
	mov	[esp+10h],eax

l00726B56:
	cmp	eax,ecx
	jnz	726B79h

l00726B5A:
	mov	eax,[esp+38h]
	push	0A163B8h
	push	eax
	call	6F2A10h
	add	esp,8h
	cmp	eax,0FFh
	jz	726F51h

l00726B75:
	mov	eax,[esp+10h]

l00726B79:
	mov	edx,[esp+1Ch]
	mov	ecx,eax
	sar	ecx,8h
	add	edx,1h
	mov	byte ptr [ebx+ebp],64h
	mov	[ebx+ebp+2h],cl
	mov	[ebx+ebp+1h],al
	mov	[esp+10h],edx
	jmp	726EAAh

l00726B9A:
	movzx	eax,byte ptr [ebx+ebp+2h]
	movzx	ecx,byte ptr [ebx+ebp+1h]
	shl	eax,8h
	add	esi,1h
	add	eax,ecx
	cmp	byte ptr [ebx+ebp+3h],6Fh
	mov	[esp+10h],esi
	jnz	726EAAh

l00726BBB:
	cmp	byte ptr [ebx+ebp+6h],1h
	jnz	726EAAh

l00726BC6:
	mov	edx,[edi+ebp*4]
	cmp	edx,[edi+ebp*4+18h]
	jnz	726EAAh

l00726BD3:
	mov	ecx,[esp+38h]
	mov	edx,[ecx+0Ch]
	mov	eax,[edx+eax*4]
	push	eax
	call	6DEA90h
	add	esp,4h
	test	eax,eax
	jz	726EAAh

l00726BEE:
	mov	eax,9090909h
	mov	[ebx+ebp],eax
	mov	[ebx+ebp+4h],ax
	mov	[ebx+ebp+6h],al
	mov	dword ptr [esp+10h],0h
	jmp	726EAAh

l00726C0C:
	movzx	esi,byte ptr [ebx+ebp+2h]
	movzx	ecx,byte ptr [ebx+ebp+1h]
	shl	esi,8h
	add	esi,ecx
	lea	ecx,[esi+esi*2]
	mov	eax,ebp
	sub	eax,ecx
	js	726C97h

l00726C24:
	cmp	esi,[esp+1Ch]
	jg	726C97h

l00726C2A:
	cmp	edx,66h
	jnz	726C3Fh

l00726C2F:
	mov	edx,[edi+eax*4]
	lea	ecx,[esi+esi*2]
	add	ecx,eax
	cmp	edx,[edi+ecx*4+8h]
	jz	726C72h

l00726C3D:
	jmp	726C97h

l00726C3F:
	cmp	edx,67h
	jnz	726C97h

l00726C44:
	cmp	byte ptr [ebx+ebp+3h],6Ah
	jnz	726C97h

l00726C4B:
	mov	edx,[edi+eax*4]
	lea	ecx,[esi+esi*2]
	add	ecx,eax
	cmp	edx,[edi+ecx*4+14h]
	jnz	726C97h

l00726C59:
	movzx	ecx,byte ptr [ebx+ebp+5h]
	movzx	edx,byte ptr [ebx+ebp+4h]
	shl	ecx,8h
	add	ecx,edx
	cmp	ecx,6h
	jz	726C72h

l00726C6D:
	cmp	ecx,7h
	jnz	726C97h

l00726C72:
	mov	edi,[esp+38h]
	add	eax,ebx
	push	esi
	push	eax
	call	7264A0h
	add	esp,8h
	test	eax,eax
	jz	726C93h

l00726C86:
	mov	dword ptr [esp+10h],1h
	jmp	726EAAh

l00726C93:
	mov	edi,[esp+18h]

l00726C97:
	cmp	byte ptr [ebx+ebp+3h],5Ch
	jnz	726EAAh

l00726CA2:
	mov	eax,[edi+ebp*4]
	cmp	eax,[edi+ebp*4+14h]
	jnz	726EAAh

l00726CAF:
	movzx	ecx,byte ptr [ebx+ebp+5h]
	movzx	edx,byte ptr [ebx+ebp+4h]
	shl	ecx,8h
	add	ecx,edx
	cmp	esi,ecx
	jnz	726EAAh

l00726CC6:
	cmp	esi,1h
	jnz	726CDDh

l00726CCB:
	mov	eax,9090909h
	mov	[ebx+ebp],eax
	mov	[ebx+ebp+4h],ax
	jmp	726EAAh

l00726CDD:
	cmp	esi,2h
	jnz	726CF8h

l00726CE2:
	mov	eax,9090909h
	mov	byte ptr [ebx+ebp],2h
	mov	[ebx+ebp+1h],eax
	mov	[ebx+ebp+5h],al
	jmp	726EAAh

l00726CF8:
	cmp	esi,3h
	jnz	726EAAh

l00726D01:
	mov	byte ptr [ebx+ebp],3h
	mov	byte ptr [ebx+ebp+1h],2h
	mov	dword ptr [ebx+ebp+2h],9090909h
	jmp	726EAAh

l00726D17:
	cmp	esi,2h
	jl	726EAAh

l00726D20:
	mov	eax,[edi+ebp*4-18h]
	cmp	eax,[edi+ebp*4]
	jnz	726EAAh

l00726D2D:
	mov	ecx,[esp+38h]
	push	ecx
	lea	edi,[ebx+ebp-6h]
	call	726570h

l00726D3B:
	add	esp,4h
	test	eax,eax
	jz	726EAAh

l00726D46:
	sub	ebp,2h
	mov	dword ptr [esp+10h],1h
	jmp	726EAAh

l00726D56:
	cmp	esi,1h
	jl	726EAAh

l00726D5F:
	mov	edx,[edi+ebp*4-0Ch]
	cmp	edx,[edi+ebp*4]
	jnz	726EAAh

l00726D6C:
	mov	eax,[esp+38h]
	push	eax
	lea	esi,[ebx+ebp-3h]
	call	726760h
	jmp	726D3Bh

l00726D7C:
	cmp	cl,71h
	jz	726D8Bh

l00726D81:
	cmp	cl,77h
	jz	726D8Bh

l00726D86:
	lea	edx,[ebp+3h]
	jmp	726D8Dh

l00726D8B:
	xor	edx,edx

l00726D8D:
	movzx	esi,byte ptr [ebx+ebp+2h]
	movzx	eax,byte ptr [ebx+ebp+1h]
	shl	esi,8h
	add	esi,edx
	add	eax,esi
	mov	dl,[eax+ebx]
	movzx	esi,dl
	cmp	esi,6Fh
	jz	726DAEh

l00726DA9:
	cmp	esi,70h
	jnz	726E00h

l00726DAE:
	cmp	esi,[esp+20h]
	jnz	726DECh

l00726DB4:
	cmp	dl,71h
	jz	726DC3h

l00726DB9:
	cmp	dl,77h
	jz	726DC3h

l00726DBE:
	lea	ecx,[eax+3h]
	jmp	726DC5h

l00726DC3:
	xor	ecx,ecx

l00726DC5:
	movzx	edx,byte ptr [ebx+eax+2h]
	movzx	eax,byte ptr [ebx+eax+1h]
	shl	edx,8h
	add	edx,eax
	sub	edx,ebp
	lea	eax,[edx+ecx-3h]
	mov	ecx,eax
	sar	ecx,8h
	mov	[ebx+ebp+2h],cl
	mov	[ebx+ebp+1h],al
	jmp	726EAAh

l00726DEC:
	sub	eax,ebp
	mov	edx,eax
	sar	edx,8h
	mov	[ebx+ebp+2h],dl
	mov	[ebx+ebp+1h],al
	jmp	726EAAh

l00726E00:
	mov	edx,[esp+20h]

l00726E04:
	cmp	cl,71h
	jz	726E13h

l00726E09:
	cmp	cl,77h
	jz	726E13h

l00726E0E:
	lea	ecx,[ebp+3h]
	jmp	726E15h

l00726E13:
	xor	ecx,ecx

l00726E15:
	movzx	esi,byte ptr [ebx+ebp+2h]
	movzx	eax,byte ptr [ebx+ebp+1h]
	shl	esi,8h
	add	esi,ecx
	add	eax,esi
	mov	cl,[eax+ebx]
	cmp	cl,71h
	jz	726E42h

l00726E2E:
	cmp	cl,6Eh
	jnz	726EAAh

l00726E33:
	cmp	cl,71h
	jz	726E42h

l00726E38:
	cmp	cl,77h
	jz	726E42h

l00726E3D:
	lea	ecx,[eax+3h]
	jmp	726E44h

l00726E42:
	xor	ecx,ecx

l00726E44:
	movzx	esi,byte ptr [ebx+eax+2h]
	movzx	eax,byte ptr [ebx+eax+1h]
	shl	esi,8h
	add	esi,ecx
	add	eax,esi
	cmp	edx,6Eh
	jnz	726E61h

l00726E5A:
	mov	edx,71h
	jmp	726E74h

l00726E61:
	cmp	edx,71h
	jz	726E74h

l00726E66:
	cmp	edx,77h
	jz	726E74h

l00726E6B:
	mov	ecx,0FFFFFFFDh
	sub	ecx,ebp
	add	eax,ecx

l00726E74:
	test	eax,eax
	jl	726EAAh

l00726E78:
	mov	[ebx+ebp],dl
	mov	edx,eax
	sar	edx,8h
	mov	[ebx+ebp+2h],dl
	mov	[ebx+ebp+1h],al
	jmp	726EAAh

l00726E8A:
	lea	eax,[ebp+4h]
	cmp	eax,[esp+14h]
	jge	726EAAh

l00726E93:
	cmp	byte ptr [ebx+ebp+4h],53h
	jnz	726EAAh

l00726E9A:
	mov	ecx,[edi+ebp*4]
	cmp	ecx,[edi+eax*4]
	jnz	726EAAh

l00726EA2:
	mov	dword ptr [ebx+ebp+1h],9090909h

l00726EAA:
	cmp	byte ptr [ebx+ebp],5Ah
	sbb	edx,edx
	and	edx,0FEh
	add	edx,3h
	add	ebp,edx
	cmp	ebp,[esp+14h]
	jl	726A00h

l00726EC2:
	mov	esi,[esp+24h]
	mov	edi,[esp+14h]

l00726ECA:
	xor	eax,eax
	xor	edx,edx
	test	edi,edi
	jle	726EF6h

l00726ED2:
	mov	ecx,eax
	sub	ecx,edx
	mov	[esi+eax*4],ecx
	movzx	ecx,byte ptr [eax+ebx]
	cmp	cl,9h
	jnz	726EE5h

l00726EE2:
	add	edx,1h

l00726EE5:
	cmp	cl,5Ah
	sbb	ecx,ecx
	and	ecx,0FEh
	add	ecx,3h
	add	eax,ecx
	cmp	eax,edi
	jl	726ED2h

l00726EF6:
	xor	edi,edi
	xor	ebp,ebp
	xor	ecx,ecx
	cmp	[esp+2Ch],edi
	jle	726F25h

l00726F02:
	mov	edx,[esp+28h]
	movzx	eax,byte ptr [edi+edx]
	add	ebp,eax
	mov	eax,[esi+ebp*4]
	mov	dl,al
	sub	dl,cl
	mov	ecx,[esp+28h]
	mov	[edi+ecx],dl
	add	edi,2h
	cmp	edi,[esp+2Ch]
	mov	ecx,eax
	jl	726F02h

l00726F25:
	xor	ebp,ebp
	xor	eax,eax
	cmp	[esp+14h],ebp
	jle	726FFDh

l00726F33:
	movzx	edi,byte ptr [eax+ebx]
	lea	ecx,[edi-9h]
	cmp	ecx,71h
	ja	726FCBh

l00726F43:
	movzx	edx,byte ptr [ecx+7270F4h]
	jmp	dword ptr [7270E4h+edx*4]

l00726F51:
	mov	eax,[esp+18h]
	push	eax
	call	6DED10h
	mov	esi,[esp+28h]
	mov	ebp,[esp+38h]
	add	esp,4h

l00726F66:
	push	esi
	call	6DED10h
	add	esp,4h

l00726F6F:
	test	ebx,ebx
	jz	726F7Ch

l00726F73:
	push	ebx
	call	6DED10h
	add	esp,4h

l00726F7C:
	add	dword ptr [ebp+0h],1h
	pop	edi
	pop	esi
	mov	eax,ebp
	pop	ebp
	pop	ebx
	add	esp,20h
	ret

l00726F8A:
	add	eax,1h
	jmp	726FF3h

l00726F8F:
	movzx	ecx,byte ptr [eax+ebx+2h]
	movzx	edx,byte ptr [eax+ebx+1h]
	shl	ecx,8h
	add	ecx,edx
	mov	ecx,[esi+ecx*4]
	jmp	726FBEh

l00726FA3:
	movzx	ecx,byte ptr [eax+ebx+2h]
	movzx	edx,byte ptr [eax+ebx+1h]
	shl	ecx,8h
	add	ecx,eax
	add	edx,ecx
	mov	ecx,[esi+edx*4+0Ch]
	sub	ecx,[esi+eax*4]
	sub	ecx,3h

l00726FBE:
	mov	edx,ecx
	sar	edx,8h
	mov	[eax+ebx+1h],cl
	mov	[eax+ebx+2h],dl

l00726FCB:
	xor	ecx,ecx
	cmp	edi,5Ah
	setge	cl
	lea	ecx,[ecx+ecx+1h]
	mov	edi,ecx
	test	edi,edi
	jz	726FF3h

l00726FDD:
	lea	ecx,[ecx+0h]

l00726FE0:
	mov	dl,[eax+ebx]
	sub	edi,1h
	mov	[ebx+ebp],dl
	add	ebp,1h
	add	eax,1h
	test	edi,edi
	jnz	726FE0h

l00726FF3:
	cmp	eax,[esp+14h]
	jl	726F33h

l00726FFD:
	push	ebp
	push	ebx
	call	6EC9B0h
	push	esi
	mov	edi,eax
	call	6DED10h
	push	ebx
	call	6DED10h
	mov	eax,[esp+28h]
	push	eax
	call	6DED10h
	add	esp,14h
	mov	eax,edi
	pop	edi
	pop	esi
	pop	ebp
	pop	ebx
	add	esp,20h
	ret
00727029                            8D 49 00                      .I.   
l0072702C	dd	0x00726D56
l00727030	dd	0x00726A3A
l00727034	dd	0x00726D17
l00727038	dd	0x00726E8A
l0072703C	dd	0x00726E04
l00727040	dd	0x00726B9A
l00727044	dd	0x00726AE8
l00727048	dd	0x00726C0C
l0072704C	dd	0x00726A9C
l00727050	dd	0x00726D7C
l00727054	dd	0x00726F51
l00727058	dd	0x00726EAA
l0072705C	db	0x00
l0072705D	db	0x01
l0072705E	db	0x00
l0072705F	db	0x0B
l00727060	db	0x00
l00727061	db	0x0B
l00727062	db	0x0B
l00727063	db	0x0B
l00727064	db	0x02
l00727065	db	0x02
l00727066	db	0x0B
l00727067	db	0x02
l00727068	db	0x02
l00727069	db	0x02
l0072706A	db	0x02
l0072706B	db	0x02
l0072706C	db	0x02
l0072706D	db	0x0B
l0072706E	db	0x0B
l0072706F	db	0x0B
l00727070	db	0x0B
l00727071	db	0x0B
l00727072	db	0x0B
l00727073	db	0x0B
l00727074	db	0x0B
l00727075	db	0x0B
l00727076	db	0x0B
l00727077	db	0x0B
l00727078	db	0x0B
l00727079	db	0x0B
l0072707A	db	0x0B
l0072707B	db	0x0B
l0072707C	db	0x0B
l0072707D	db	0x0B
l0072707E	db	0x0B
l0072707F	db	0x0B
l00727080	db	0x0B
l00727081	db	0x0B
l00727082	db	0x0B
l00727083	db	0x0B
l00727084	db	0x0B
l00727085	db	0x0B
l00727086	db	0x0B
l00727087	db	0x0B
l00727088	db	0x0B
l00727089	db	0x0B
l0072708A	db	0x0B
l0072708B	db	0x0B
l0072708C	db	0x0B
l0072708D	db	0x0B
l0072708E	db	0x0B
l0072708F	db	0x02
l00727090	db	0x02
l00727091	db	0x02
l00727092	db	0x02
l00727093	db	0x02
l00727094	db	0x0B
l00727095	db	0x0B
l00727096	db	0x0B
l00727097	db	0x0B
l00727098	db	0x0B
l00727099	db	0x0B
l0072709A	db	0x0B
l0072709B	db	0x0B
l0072709C	db	0x0B
l0072709D	db	0x0B
l0072709E	db	0x0B
l0072709F	db	0x0B
l007270A0	db	0x0B
l007270A1	db	0x0B
l007270A2	db	0x0B
l007270A3	db	0x0B
l007270A4	db	0x03
l007270A5	db	0x0B
l007270A6	db	0x0B
l007270A7	db	0x0B
l007270A8	db	0x0B
l007270A9	db	0x0B
l007270AA	db	0x0B
l007270AB	db	0x0B
l007270AC	db	0x0B
l007270AD	db	0x0B
l007270AE	db	0x04
l007270AF	db	0x0B
l007270B0	db	0x0B
l007270B1	db	0x0B
l007270B2	db	0x0B
l007270B3	db	0x0B
l007270B4	db	0x0B
l007270B5	db	0x05
l007270B6	db	0x06
l007270B7	db	0x07
l007270B8	db	0x07
l007270B9	db	0x0B
l007270BA	db	0x0B
l007270BB	db	0x08
l007270BC	db	0x0B
l007270BD	db	0x0B
l007270BE	db	0x0B
l007270BF	db	0x04
l007270C0	db	0x09
l007270C1	db	0x09
l007270C2	db	0x04
l007270C3	db	0x0B
l007270C4	db	0x0B
l007270C5	db	0x06
l007270C6	db	0x0B
l007270C7	db	0x0B
l007270C8	db	0x04
l007270C9	db	0x04
l007270CA	db	0x04
l007270CB	db	0x04
l007270CC	db	0x0B
l007270CD	db	0x0B
l007270CE	db	0x0B
l007270CF	db	0x0B
l007270D0	db	0x0B
l007270D1	db	0x0B
l007270D2	db	0x0B
l007270D3	db	0x0B
l007270D4	db	0x0B
l007270D5	db	0x0B
l007270D6	db	0x0B
l007270D7	db	0x0B
l007270D8	db	0x0B
l007270D9	db	0x0B
l007270DA	db	0x0B
l007270DB	db	0x0B
l007270DC	db	0x0B
l007270DD	db	0x0B
l007270DE	db	0x0B
l007270DF	db	0x0B
l007270E0	db	0x0A
007270E1    8D 49 00                                      .I.           
l007270E4	dd	0x00726F8A
l007270E8	dd	0x00726FA3
l007270EC	dd	0x00726F8F
l007270F0	dd	0x00726FCB
l007270F4	db	0x00
l007270F5	db	0x03
l007270F6	db	0x03
l007270F7	db	0x03
l007270F8	db	0x03
l007270F9	db	0x03
l007270FA	db	0x03
l007270FB	db	0x03
l007270FC	db	0x03
l007270FD	db	0x03
l007270FE	db	0x03
l007270FF	db	0x03
l00727100	db	0x03
l00727101	db	0x03
l00727102	db	0x03
l00727103	db	0x03
l00727104	db	0x03
l00727105	db	0x03
l00727106	db	0x03
l00727107	db	0x03
l00727108	db	0x03
l00727109	db	0x03
l0072710A	db	0x03
l0072710B	db	0x03
l0072710C	db	0x03
l0072710D	db	0x03
l0072710E	db	0x03
l0072710F	db	0x03
l00727110	db	0x03
l00727111	db	0x03
l00727112	db	0x03
l00727113	db	0x03
l00727114	db	0x03
l00727115	db	0x03
l00727116	db	0x03
l00727117	db	0x03
l00727118	db	0x03
l00727119	db	0x03
l0072711A	db	0x03
l0072711B	db	0x03
l0072711C	db	0x03
l0072711D	db	0x03
l0072711E	db	0x03
l0072711F	db	0x03
l00727120	db	0x03
l00727121	db	0x03
l00727122	db	0x03
l00727123	db	0x03
l00727124	db	0x03
l00727125	db	0x03
l00727126	db	0x03
l00727127	db	0x03
l00727128	db	0x03
l00727129	db	0x03
l0072712A	db	0x03
l0072712B	db	0x03
l0072712C	db	0x03
l0072712D	db	0x03
l0072712E	db	0x03
l0072712F	db	0x03
l00727130	db	0x03
l00727131	db	0x03
l00727132	db	0x03
l00727133	db	0x03
l00727134	db	0x03
l00727135	db	0x03
l00727136	db	0x03
l00727137	db	0x03
l00727138	db	0x03
l00727139	db	0x03
l0072713A	db	0x03
l0072713B	db	0x03
l0072713C	db	0x03
l0072713D	db	0x03
l0072713E	db	0x03
l0072713F	db	0x03
l00727140	db	0x03
l00727141	db	0x03
l00727142	db	0x03
l00727143	db	0x03
l00727144	db	0x03
l00727145	db	0x03
l00727146	db	0x03
l00727147	db	0x03
l00727148	db	0x01
l00727149	db	0x03
l0072714A	db	0x03
l0072714B	db	0x03
l0072714C	db	0x03
l0072714D	db	0x03
l0072714E	db	0x03
l0072714F	db	0x03
l00727150	db	0x03
l00727151	db	0x03
l00727152	db	0x03
l00727153	db	0x03
l00727154	db	0x03
l00727155	db	0x03
l00727156	db	0x03
l00727157	db	0x03
l00727158	db	0x03
l00727159	db	0x01
l0072715A	db	0x01
l0072715B	db	0x01
l0072715C	db	0x02
l0072715D	db	0x03
l0072715E	db	0x03
l0072715F	db	0x03
l00727160	db	0x03
l00727161	db	0x03
l00727162	db	0x02
l00727163	db	0x01
l00727164	db	0x01
l00727165	db	0x01
00727166                   CC CC CC CC CC CC CC CC CC CC       ..........

;; fn00727170: 00727170
;;   Called from:
;;     00727298 (in fn00727290)
;;     00728FA3 (in fn00728E40)
;;     0072C2A4 (in fn0072C160)
fn00727170 proc
	push	ebp
	push	edi
	mov	edi,[esi+24h]
	xor	ebp,ebp
	cmp	edi,ebp
	jz	7271A2h

l0072717B:
	push	ebx
	lea	esp,[esp+0h]

l00727180:
	mov	eax,[edi+0Ch]
	cmp	eax,ebp
	jz	727190h

l00727187:
	push	eax
	call	7239C0h
	add	esp,4h

l00727190:
	mov	ebx,[edi]
	push	edi
	call	7239C0h
	add	esp,4h
	cmp	ebx,ebp
	mov	edi,ebx
	jnz	727180h

l007271A1:
	pop	ebx

l007271A2:
	mov	eax,[esi]
	cmp	eax,ebp
	jz	7271BBh

l007271A8:
	mov	[esi],ebp
	add	dword ptr [eax],0FFh
	jnz	7271BBh

l007271AF:
	mov	ecx,[eax+4h]
	mov	edx,[ecx+18h]
	push	eax
	call	edx
	add	esp,4h

l007271BB:
	mov	eax,[esi+4h]
	cmp	eax,ebp
	jz	7271D6h

l007271C2:
	mov	[esi+4h],ebp
	add	dword ptr [eax],0FFh
	jnz	7271D6h

l007271CA:
	mov	ecx,[eax+4h]
	mov	edx,[ecx+18h]
	push	eax
	call	edx
	add	esp,4h

l007271D6:
	mov	eax,[esi+8h]
	cmp	eax,ebp
	jz	7271F1h

l007271DD:
	mov	[esi+8h],ebp
	add	dword ptr [eax],0FFh
	jnz	7271F1h

l007271E5:
	mov	ecx,[eax+4h]
	mov	edx,[ecx+18h]
	push	eax
	call	edx
	add	esp,4h

l007271F1:
	mov	eax,[esi+0Ch]
	cmp	eax,ebp
	jz	72720Ch

l007271F8:
	mov	[esi+0Ch],ebp
	add	dword ptr [eax],0FFh
	jnz	72720Ch

l00727200:
	mov	ecx,[eax+4h]
	mov	edx,[ecx+18h]
	push	eax
	call	edx
	add	esp,4h

l0072720C:
	mov	eax,[esi+10h]
	cmp	eax,ebp
	jz	727227h

l00727213:
	mov	[esi+10h],ebp
	add	dword ptr [eax],0FFh
	jnz	727227h

l0072721B:
	mov	ecx,[eax+4h]
	mov	edx,[ecx+18h]
	push	eax
	call	edx
	add	esp,4h

l00727227:
	mov	eax,[esi+18h]
	cmp	eax,ebp
	jz	727242h

l0072722E:
	mov	[esi+18h],ebp
	add	dword ptr [eax],0FFh
	jnz	727242h

l00727236:
	mov	ecx,[eax+4h]
	mov	edx,[ecx+18h]
	push	eax
	call	edx
	add	esp,4h

l00727242:
	mov	eax,[esi+14h]
	cmp	eax,ebp
	jz	72725Dh

l00727249:
	mov	[esi+14h],ebp
	add	dword ptr [eax],0FFh
	jnz	72725Dh

l00727251:
	mov	ecx,[eax+4h]
	mov	edx,[ecx+18h]
	push	eax
	call	edx
	add	esp,4h

l0072725D:
	mov	eax,[esi+1Ch]
	cmp	eax,ebp
	jz	727278h

l00727264:
	mov	[esi+1Ch],ebp
	add	dword ptr [eax],0FFh
	jnz	727278h

l0072726C:
	mov	ecx,[eax+4h]
	mov	edx,[ecx+18h]
	push	eax
	call	edx
	add	esp,4h

l00727278:
	push	esi
	call	7239C0h
	add	esp,4h
	pop	edi
	pop	ebp
	ret
00727284             CC CC CC CC CC CC CC CC CC CC CC CC     ............

;; fn00727290: 00727290
;;   Called from:
;;     0072A6F0 (in fn0072A5D0)
;;     0072A702 (in fn0072A5D0)
;;     0072B2F5 (in fn0072B360)
;;     0072C2E5 (in fn0072C160)
;;     0072C7D7 (in fn0072C510)
;;     0072C98F (in fn0072C510)
;;     0072C9AF (in fn0072C510)
;;     0072E6D2 (in fn0072E660)
;;     0072E733 (in fn0072E660)
fn00727290 proc
	add	dword ptr [edi+14h],0FFh
	push	esi
	mov	esi,[edi+18h]
	call	727170h
	mov	eax,[edi+1Ch]
	mov	esi,[eax+8h]
	sub	esi,1h
	js	7272D7h

l007272A8:
	mov	eax,[eax+0Ch]
	mov	eax,[eax+esi*4]
	push	eax
	call	72E9C0h
	mov	ecx,[edi+1Ch]
	push	esi
	push	ecx
	mov	[edi+18h],eax
	call	703390h
	add	esp,0Ch
	test	eax,eax
	jge	7272DEh

l007272C8:
	push	8DA64Ch
	call	6E86F0h
	add	esp,4h
	pop	esi
	ret

l007272D7:
	mov	dword ptr [edi+18h],0h

l007272DE:
	pop	esi
	ret

;; fn007272E0: 007272E0
;;   Called from:
;;     00729D61 (in fn00729D20)
;;     0072DE4A (in fn0072DD60)
;;     0072DE76 (in fn0072DD60)
fn007272E0 proc
	sub	esp,104h
	mov	eax,[0A14188h]
	xor	eax,esp
	mov	[esp+100h],eax
	mov	eax,[esp+108h]
	mov	ecx,[eax+18h]
	add	dword ptr [ecx+2Ch],1h
	mov	eax,[eax+18h]
	mov	ecx,[eax+2Ch]
	push	ecx
	push	8DA664h
	lea	edx,[esp+8h]
	push	100h
	push	edx
	call	724FE0h
	lea	eax,[esp+10h]
	push	eax
	call	6ECAC0h
	mov	ecx,[esp+114h]
	add	esp,14h
	xor	ecx,esp
	call	694B8Eh
	add	esp,104h
	ret
0072733F                                              CC                .

;; fn00727340: 00727340
;;   Called from:
;;     00728076 (in fn00728030)
;;     0072822E (in fn00728030)
;;     0072D21B (in fn0072D130)
;;     0072D23D (in fn0072D130)
;;     0072D667 (in fn0072D3D0)
;;     0072D87C (in fn0072D830)
fn00727340 proc
	push	esi
	mov	esi,[eax+18h]
	push	20h
	call	723860h
	add	esp,4h
	test	eax,eax
	jnz	72735Bh

l00727352:
	call	6E1210h
	xor	eax,eax
	pop	esi
	ret

l0072735B:
	xor	ecx,ecx
	mov	[eax],ecx
	mov	[eax+4h],ecx
	mov	[eax+8h],ecx
	mov	[eax+0Ch],ecx
	mov	[eax+10h],ecx
	mov	[eax+14h],ecx
	mov	[eax+18h],ecx
	mov	[eax+1Ch],ecx
	mov	ecx,[esi+24h]
	mov	[eax],ecx
	mov	[esi+24h],eax
	pop	esi
	ret
0072737E                                           CC CC               ..

;; fn00727380: 00727380
;;   Called from:
;;     00728F82 (in fn00728E40)
fn00727380 proc
	push	esi
	mov	esi,[edi+18h]
	push	20h
	call	723860h
	add	esp,4h
	test	eax,eax
	jnz	72739Bh

l00727392:
	call	6E1210h
	xor	eax,eax
	pop	esi
	ret

l0072739B:
	xor	ecx,ecx
	mov	[eax],ecx
	mov	[eax+4h],ecx
	mov	[eax+8h],ecx
	mov	[eax+0Ch],ecx
	mov	[eax+10h],ecx
	mov	[eax+14h],ecx
	mov	[eax+18h],ecx
	mov	[eax+1Ch],ecx
	mov	ecx,[esi+24h]
	mov	[eax],ecx
	mov	[esi+24h],eax
	mov	edx,[edi+18h]
	mov	[edx+28h],eax
	pop	esi
	ret
007273C4             CC CC CC CC CC CC CC CC CC CC CC CC     ............

;; fn007273D0: 007273D0
;;   Called from:
;;     0072819B (in fn00728030)
;;     007299B4 (in fn00729810)
;;     00729A2A (in fn00729810)
;;     0072A163 (in fn00729F50)
;;     0072A1CA (in fn00729F50)
;;     0072A370 (in fn0072A350)
fn007273D0 proc
	push	esi
	mov	esi,[edi+18h]
	push	20h
	call	723860h
	add	esp,4h
	test	eax,eax
	jnz	7273EBh

l007273E2:
	call	6E1210h
	xor	eax,eax
	pop	esi
	ret

l007273EB:
	xor	ecx,ecx
	mov	[eax],ecx
	mov	[eax+4h],ecx
	mov	[eax+8h],ecx
	mov	[eax+0Ch],ecx
	mov	[eax+10h],ecx
	mov	[eax+14h],ecx
	mov	[eax+18h],ecx
	mov	[eax+1Ch],ecx
	mov	ecx,[esi+24h]
	mov	[eax],ecx
	mov	[esi+24h],eax
	mov	edx,[edi+18h]
	mov	ecx,[edx+28h]
	mov	[ecx+10h],eax
	mov	edx,[edi+18h]
	mov	[edx+28h],eax
	pop	esi
	ret
0072741D                                        CC CC CC              ...

;; fn00727420: 00727420
;;   Called from:
;;     0072767A (in fn00727670)
;;     0072781A (in fn00727810)
;;     0072788A (in fn00727880)
;;     00727DEF (in fn00727D50)
;;     00727E49 (in fn00727D50)
;;     007280B6 (in fn00728030)
;;     0072810E (in fn00728030)
;;     00729402 (in fn00729300)
;;     0072A691 (in fn0072A5D0)
;;     0072AFB9 (in fn0072AC20)
;;     0072B107 (in fn0072B040)
;;     0072C344 (in fn0072C160)
;;     0072CA7C (in fn0072CA10)
;;     0072CAE2 (in fn0072CA10)
;;     0072CB5E (in fn0072CA10)
;;     0072CBD0 (in fn0072CA10)
;;     0072CBFB (in fn0072CA10)
;;     0072CC2D (in fn0072CA10)
fn00727420 proc
	mov	ecx,[esi+0Ch]
	test	ecx,ecx
	push	ebx
	push	edi
	jnz	727456h

l00727429:
	push	140h
	call	723860h
	add	esp,4h
	test	eax,eax
	mov	[esi+0Ch],eax
	jnz	727448h

l0072743D:
	call	6E1210h
	pop	edi
	or	eax,0FFh
	pop	ebx
	ret

l00727448:
	mov	dword ptr [esi+8h],10h
	push	140h
	jmp	72748Fh

l00727456:
	mov	eax,[esi+8h]
	cmp	[esi+4h],eax
	jnz	72749Ah

l0072745E:
	lea	ebx,[eax+eax*4]
	add	ebx,ebx
	add	ebx,ebx
	cmp	ebx,7FFFFFFFh
	lea	edi,[ebx+ebx]
	ja	72743Dh

l00727470:
	test	edi,edi
	jz	72743Dh

l00727474:
	add	eax,eax
	push	edi
	push	ecx
	mov	[esi+8h],eax
	call	723B60h
	add	esp,8h
	test	eax,eax
	jz	72743Dh

l00727487:
	sub	edi,ebx
	mov	[esi+0Ch],eax
	push	edi
	add	eax,ebx

l0072748F:
	push	0h
	push	eax
	call	695020h
	add	esp,0Ch

l0072749A:
	mov	eax,[esi+4h]
	lea	ecx,[eax+1h]
	pop	edi
	mov	[esi+4h],ecx
	pop	ebx
	ret
007274A6                   CC CC CC CC CC CC CC CC CC CC       ..........

;; fn007274B0: 007274B0
;;   Called from:
;;     0072858E (in fn00728540)
fn007274B0 proc
	lea	eax,[edx-1h]
	cmp	eax,8Dh
	ja	727578h

l007274BE:
	movzx	eax,byte ptr [eax+7275E0h]
	jmp	dword ptr [7275A0h+eax*4]

l007274CC:
	or	eax,0FFh
	ret

l007274D0:
	mov	eax,1h
	ret

l007274D6:
	mov	eax,0FFFFFFFEh
	ret

l007274DC:
	mov	eax,0FFFFFFFDh
	ret

l007274E2:
	mov	eax,0FFFFFFFCh
	ret

l007274E8:
	lea	eax,[ecx-1h]
	ret

l007274EC:
	mov	eax,ecx
	ret

l007274EF:
	mov	eax,1h
	sub	eax,ecx
	ret

l007274F7:
	mov	eax,3h
	ret

l007274FD:
	mov	eax,ecx
	neg	eax
	ret

l00727502:
	mov	eax,ecx
	cdq
	and	edx,0FFh
	add	eax,edx
	sar	eax,8h
	add	eax,eax
	mov	edx,eax
	mov	eax,ecx
	and	eax,800000FFh
	jns	727524h

l0072751D:
	dec	eax
	or	eax,0FFFFFF00h
	inc	eax

l00727524:
	neg	eax
	sub	eax,edx
	ret

l00727529:
	mov	eax,ecx
	cdq
	and	edx,0FFh
	add	eax,edx
	sar	eax,8h
	add	eax,eax
	mov	edx,eax
	or	eax,0FFh

l0072753E:
	sub	eax,edx
	and	ecx,800000FFh
	jns	727550h

l00727548:
	dec	ecx
	or	ecx,0FFFFFF00h
	inc	ecx

l00727550:
	sub	eax,ecx
	ret

l00727553:
	mov	eax,ecx
	cdq
	and	edx,0FFh
	add	eax,edx
	sar	eax,8h
	add	eax,eax
	mov	edx,eax
	mov	eax,0FFFFFFFEh
	jmp	72753Eh

l0072756C:
	xor	eax,eax
	cmp	ecx,3h
	setnz	al
	add	eax,0FEh
	ret

l00727578:
	push	edx
	push	8DA684h
	call	dword ptr [8A46CCh]
	add	eax,40h
	push	eax
	call	dword ptr [8A45E0h]
	push	8DA66Ch
	call	6E86F0h
	add	esp,10h

l0072759B:
	xor	eax,eax
	ret
0072759E                                           8B FF               ..
l007275A0	dd	0x007274CC
l007275A4	dd	0x0072759B
l007275A8	dd	0x007274D0
l007275AC	dd	0x007274D6
l007275B0	dd	0x007274DC
l007275B4	dd	0x007274E2
l007275B8	dd	0x007274E8
l007275BC	dd	0x007274EC
l007275C0	dd	0x007274EF
l007275C4	dd	0x007274F7
l007275C8	dd	0x007274FD
l007275CC	dd	0x00727502
l007275D0	dd	0x0072756C
l007275D4	dd	0x00727529
l007275D8	dd	0x00727553
l007275DC	dd	0x00727578
l007275E0	db	0x00
l007275E1	db	0x01
l007275E2	db	0x01
l007275E3	db	0x02
l007275E4	db	0x01
l007275E5	db	0x0F
l007275E6	db	0x0F
l007275E7	db	0x0F
l007275E8	db	0x0F
l007275E9	db	0x01
l007275EA	db	0x01
l007275EB	db	0x01
l007275EC	db	0x01
l007275ED	db	0x0F
l007275EE	db	0x01
l007275EF	db	0x0F
l007275F0	db	0x0F
l007275F1	db	0x03
l007275F2	db	0x00
l007275F3	db	0x00
l007275F4	db	0x00
l007275F5	db	0x00
l007275F6	db	0x00
l007275F7	db	0x00
l007275F8	db	0x00
l007275F9	db	0x00
l007275FA	db	0x00
l007275FB	db	0x00
l007275FC	db	0x00
l007275FD	db	0x02
l007275FE	db	0x01
l007275FF	db	0x01
l00727600	db	0x00
l00727601	db	0x0F
l00727602	db	0x0F
l00727603	db	0x0F
l00727604	db	0x0F
l00727605	db	0x0F
l00727606	db	0x0F
l00727607	db	0x03
l00727608	db	0x04
l00727609	db	0x04
l0072760A	db	0x05
l0072760B	db	0x0F
l0072760C	db	0x0F
l0072760D	db	0x0F
l0072760E	db	0x0F
l0072760F	db	0x0F
l00727610	db	0x0F
l00727611	db	0x00
l00727612	db	0x03
l00727613	db	0x03
l00727614	db	0x04
l00727615	db	0x0F
l00727616	db	0x00
l00727617	db	0x00
l00727618	db	0x00
l00727619	db	0x00
l0072761A	db	0x00
l0072761B	db	0x04
l0072761C	db	0x03
l0072761D	db	0x00
l0072761E	db	0x00
l0072761F	db	0x00
l00727620	db	0x00
l00727621	db	0x00
l00727622	db	0x00
l00727623	db	0x01
l00727624	db	0x0F
l00727625	db	0x00
l00727626	db	0x00
l00727627	db	0x01
l00727628	db	0x03
l00727629	db	0x00
l0072762A	db	0x00
l0072762B	db	0x00
l0072762C	db	0x00
l0072762D	db	0x00
l0072762E	db	0x00
l0072762F	db	0x01
l00727630	db	0x00
l00727631	db	0x02
l00727632	db	0x00
l00727633	db	0x00
l00727634	db	0x04
l00727635	db	0x01
l00727636	db	0x01
l00727637	db	0x00
l00727638	db	0x03
l00727639	db	0x00
l0072763A	db	0x01
l0072763B	db	0x06
l0072763C	db	0x02
l0072763D	db	0x0F
l0072763E	db	0x03
l0072763F	db	0x00
l00727640	db	0x00
l00727641	db	0x01
l00727642	db	0x07
l00727643	db	0x02
l00727644	db	0x02
l00727645	db	0x08
l00727646	db	0x08
l00727647	db	0x02
l00727648	db	0x01
l00727649	db	0x00
l0072764A	db	0x01
l0072764B	db	0x02
l0072764C	db	0x0F
l0072764D	db	0x01
l0072764E	db	0x01
l0072764F	db	0x01
l00727650	db	0x01
l00727651	db	0x0F
l00727652	db	0x0F
l00727653	db	0x02
l00727654	db	0x0F
l00727655	db	0x0F
l00727656	db	0x01
l00727657	db	0x01
l00727658	db	0x09
l00727659	db	0x09
l0072765A	db	0x0F
l0072765B	db	0x02
l0072765C	db	0x00
l0072765D	db	0x01
l0072765E	db	0x0F
l0072765F	db	0x0F
l00727660	db	0x0F
l00727661	db	0x0A
l00727662	db	0x0B
l00727663	db	0x0A
l00727664	db	0x0C
l00727665	db	0x0A
l00727666	db	0x02
l00727667	db	0x02
l00727668	db	0x00
l00727669	db	0x0F
l0072766A	db	0x0F
l0072766B	db	0x0D
l0072766C	db	0x0D
l0072766D	db	0x0E
0072766E                                           CC CC               ..

;; fn00727670: 00727670
;;   Called from:
;;     00727A96 (in fn007279E0)
;;     00727AD8 (in fn007279E0)
;;     007281AF (in fn00728030)
;;     00728266 (in fn00728030)
;;     00728276 (in fn00728030)
;;     0072848A (in fn00728420)
;;     0072849A (in fn00728420)
;;     007294E2 (in fn00729300)
;;     0072997B (in fn00729810)
;;     00729A3E (in fn00729810)
;;     00729AC9 (in fn00729810)
;;     00729B25 (in fn00729810)
;;     00729D95 (in fn00729D20)
;;     0072A12F (in fn00729F50)
;;     0072A1DE (in fn00729F50)
;;     0072A24D (in fn00729F50)
;;     0072A261 (in fn00729F50)
;;     0072A2C4 (in fn00729F50)
;;     0072A30E (in fn00729F50)
;;     0072A3B9 (in fn0072A350)
;;     0072AF7D (in fn0072AC20)
;;     0072B331 (in fn0072B360)
;;     0072B3E0 (in fn0072B360)
;;     0072B467 (in fn0072B360)
;;     0072B494 (in fn0072B360)
;;     0072B4C1 (in fn0072B360)
;;     0072B603 (in fn0072B360)
;;     0072B632 (in fn0072B360)
;;     0072B8B2 (in fn0072B830)
;;     0072BA57 (in fn0072B830)
;;     0072BAD0 (in fn0072B830)
;;     0072BC8F (in fn0072BBE0)
;;     0072BCC6 (in fn0072BBE0)
;;     0072BCFC (in fn0072BBE0)
;;     0072C7A7 (in fn0072C510)
;;     0072C7BB (in fn0072C510)
;;     0072C822 (in fn0072C510)
;;     0072CB37 (in fn0072CA10)
;;     0072CDE6 (in fn0072CC90)
;;     0072CE64 (in fn0072CC90)
;;     0072D006 (in fn0072CEE0)
;;     0072D0C3 (in fn0072CEE0)
;;     0072D2CA (in fn0072D130)
;;     0072D34C (in fn0072D130)
;;     0072D360 (in fn0072D130)
;;     0072D582 (in fn0072D3D0)
;;     0072D5EE (in fn0072D3D0)
;;     0072D686 (in fn0072D3D0)
;;     0072D6DB (in fn0072D3D0)
;;     0072D6EF (in fn0072D3D0)
;;     0072D711 (in fn0072D3D0)
;;     0072D725 (in fn0072D3D0)
;;     0072D7A9 (in fn0072D3D0)
;;     0072D8A7 (in fn0072D830)
;;     0072D911 (in fn0072D830)
;;     0072D9CE (in fn0072D920)
;;     0072DA5E (in fn0072D920)
;;     0072DBF7 (in fn0072D920)
;;     0072DC2A (in fn0072D920)
;;     0072DEB4 (in fn0072DD60)
;;     0072E1A3 (in fn0072DD60)
;;     0072E3A1 (in fn0072DD60)
;;     0072E58A (in fn0072DD60)
;;     0072E59E (in fn0072DD60)
fn00727670 proc
	push	esi
	push	edi
	mov	edi,eax
	mov	eax,[edi+18h]
	mov	esi,[eax+28h]
	call	727420h
	test	eax,eax
	jge	727688h

l00727683:
	pop	edi
	xor	eax,eax
	pop	esi
	ret

l00727688:
	mov	ecx,[edi+18h]
	mov	esi,[ecx+28h]
	lea	ecx,[eax+eax*4]
	mov	eax,[esi+0Ch]
	add	ecx,ecx
	add	ecx,ecx
	and	dword ptr [eax+ecx],0FBh
	add	eax,ecx
	cmp	ebx,53h
	mov	[eax+4h],bl
	jnz	7276AAh

l007276A6:
	or	dword ptr [esi+14h],2h

l007276AA:
	mov	edx,[edi+18h]
	cmp	dword ptr [edx+0DCh],0h
	mov	eax,1h
	jnz	7276D4h

l007276BB:
	mov	[edx+0DCh],eax
	mov	edi,[edi+18h]
	mov	edx,[edi+28h]
	mov	edx,[edx+0Ch]
	mov	esi,[edi+0D8h]
	mov	[edx+ecx+10h],esi

l007276D4:
	pop	edi
	pop	esi
	ret
007276D7                      CC CC CC CC CC CC CC CC CC        .........

;; fn007276E0: 007276E0
;;   Called from:
;;     00728FB5 (in fn00728FB0)
;;     00729001 (in fn00728FE0)
;;     00729062 (in fn00729040)
;;     00729206 (in fn00729040)
;;     00729467 (in fn00729300)
;;     0072A395 (in fn0072A350)
;;     0072A79B (in fn0072A740)
;;     0072A9AB (in fn0072A940)
;;     0072A9E5 (in fn0072A940)
;;     0072AD41 (in fn0072AC20)
;;     0072AD80 (in fn0072AC20)
;;     0072B0EF (in fn0072B040)
;;     0072BB4B (in fn0072BB20)
;;     0072BB8D (in fn0072BB20)
;;     0072BD97 (in fn0072BD40)
;;     0072C22E (in fn0072C160)
;;     0072C525 (in fn0072C510)
fn007276E0 proc
	sub	esp,8h
	push	ebp
	mov	ebp,[esp+10h]
	push	esi
	mov	esi,eax
	mov	eax,[esi+4h]
	cmp	eax,0A1E4B8h
	jz	72770Dh

l007276F5:
	push	0A1E4B8h
	push	eax
	call	6D5670h
	add	esp,8h
	test	eax,eax
	jnz	72770Dh

l00727707:
	mov	eax,[esi+4h]
	push	eax
	jmp	72773Ch

l0072770D:
	fld	double ptr [esi+8h]
	fstp	double ptr [esp+8h]
	cmp	byte ptr [esp+8h],0h
	jnz	727738h

l0072771B:
	cmp	byte ptr [esp+0Fh],0h
	jnz	727738h

l00727722:
	mov	ecx,[esi+4h]
	push	0A163B8h
	push	ecx
	push	esi
	push	3h
	call	6DFF80h
	add	esp,10h
	jmp	727747h

l00727738:
	mov	edx,[esi+4h]
	push	edx

l0072773C:
	push	esi
	push	2h
	call	6DFF80h
	add	esp,0Ch

l00727747:
	mov	esi,eax
	test	esi,esi
	jnz	727756h

l0072774D:
	pop	esi
	or	eax,0FFh
	pop	ebp
	add	esp,8h
	ret

l00727756:
	push	ebx
	push	edi
	push	esi
	push	ebp
	call	6FBCC0h
	add	esp,8h
	test	eax,eax
	jnz	7277E5h

l00727766:
	push	ebp
	call	6FCF20h
	mov	ebx,eax
	push	ebx
	call	7050A0h
	mov	edi,eax
	add	esp,8h
	test	edi,edi
	jnz	727799h

l0072777D:
	add	dword ptr [esi],0FFh
	jnz	7277CAh

l00727782:
	mov	eax,[esi+4h]
	mov	ecx,[eax+18h]
	push	esi
	call	ecx
	add	esp,4h
	pop	edi
	pop	ebx
	pop	esi
	or	eax,0FFh
	pop	ebp
	add	esp,8h
	ret

l00727799:
	push	edi
	push	esi
	push	ebp
	call	6FBD90h
	add	esp,0Ch
	test	eax,eax
	jge	7277D5h

l007277A8:
	add	dword ptr [esi],0FFh
	jnz	7277B9h

l007277AD:
	mov	edx,[esi+4h]
	mov	eax,[edx+18h]
	push	esi
	call	eax
	add	esp,4h

l007277B9:
	add	dword ptr [edi],0FFh
	jnz	7277CAh

l007277BE:
	mov	ecx,[edi+4h]
	mov	edx,[ecx+18h]
	push	edi
	call	edx
	add	esp,4h

l007277CA:
	pop	edi
	pop	ebx
	pop	esi
	or	eax,0FFh
	pop	ebp
	add	esp,8h
	ret

l007277D5:
	add	dword ptr [edi],0FFh
	jnz	7277F0h

l007277DA:
	mov	eax,[edi+4h]
	mov	ecx,[eax+18h]
	push	edi
	call	ecx
	jmp	7277EDh

l007277E5:
	push	eax
	call	7051A0h
	mov	ebx,eax

l007277ED:
	add	esp,4h

l007277F0:
	add	dword ptr [esi],0FFh
	jnz	727801h

l007277F5:
	mov	edx,[esi+4h]
	mov	eax,[edx+18h]
	push	esi
	call	eax
	add	esp,4h

l00727801:
	pop	edi
	mov	eax,ebx
	pop	ebx
	pop	esi
	pop	ebp
	add	esp,8h
	ret
0072780B                                  CC CC CC CC CC            .....

;; fn00727810: 00727810
;;   Called from:
;;     00727F1C (in fn00727EF0)
;;     00727F6E (in fn00727EF0)
;;     00727FBC (in fn00727F90)
;;     0072800E (in fn00727F90)
;;     00728170 (in fn00728030)
;;     0072821B (in fn00728030)
;;     00728443 (in fn00728420)
;;     00728FCE (in fn00728FB0)
;;     0072902D (in fn00728FE0)
;;     00729073 (in fn00729040)
;;     00729093 (in fn00729040)
;;     007291BE (in fn00729040)
;;     007291F1 (in fn00729040)
;;     00729217 (in fn00729040)
;;     00729239 (in fn00729040)
;;     00729478 (in fn00729300)
;;     00729AF7 (in fn00729810)
;;     00729D79 (in fn00729D20)
;;     0072A101 (in fn00729F50)
;;     0072A296 (in fn00729F50)
;;     0072A3A6 (in fn0072A350)
;;     0072A7AC (in fn0072A740)
;;     0072A9BC (in fn0072A940)
;;     0072A9F6 (in fn0072A940)
;;     0072AD56 (in fn0072AC20)
;;     0072AD95 (in fn0072AC20)
;;     0072B1FB (in fn0072B040)
;;     0072B21A (in fn0072B040)
;;     0072B239 (in fn0072B040)
;;     0072B258 (in fn0072B040)
;;     0072B343 (in fn0072B360)
;;     0072B433 (in fn0072B360)
;;     0072BB5C (in fn0072BB20)
;;     0072BB9E (in fn0072BB20)
;;     0072BBD0 (in fn0072BB20)
;;     0072BC5C (in fn0072BBE0)
;;     0072BC74 (in fn0072BBE0)
;;     0072BDA8 (in fn0072BD40)
;;     0072BEBE (in fn0072BDC0)
;;     0072C536 (in fn0072C510)
;;     0072C59B (in fn0072C510)
;;     0072C80B (in fn0072C510)
;;     0072D6AD (in fn0072D3D0)
;;     0072D8EE (in fn0072D830)
;;     0072DB48 (in fn0072D920)
;;     0072E043 (in fn0072DD60)
fn00727810 proc
	push	esi
	push	edi
	mov	edi,eax
	mov	eax,[edi+18h]
	mov	esi,[eax+28h]
	call	727420h
	test	eax,eax
	jge	727828h

l00727823:
	pop	edi
	xor	eax,eax
	pop	esi
	ret

l00727828:
	mov	edx,[edi+18h]
	lea	ecx,[eax+eax*4]
	mov	eax,[edx+28h]
	mov	eax,[eax+0Ch]
	mov	dl,[esp+0Ch]
	add	ecx,ecx
	add	ecx,ecx
	or	dword ptr [eax+ecx],4h
	add	eax,ecx
	mov	[eax+4h],dl
	mov	edx,[esp+10h]
	mov	[eax+8h],edx
	mov	edx,[edi+18h]
	cmp	dword ptr [edx+0DCh],0h
	mov	eax,1h
	jnz	727876h

l0072785D:
	mov	[edx+0DCh],eax
	mov	edi,[edi+18h]
	mov	edx,[edi+28h]
	mov	edx,[edx+0Ch]
	mov	esi,[edi+0D8h]
	mov	[edx+ecx+10h],esi

l00727876:
	pop	edi
	pop	esi
	ret
00727879                            CC CC CC CC CC CC CC          .......

;; fn00727880: 00727880
;;   Called from:
;;     00727A83 (in fn007279E0)
;;     00727ABB (in fn007279E0)
;;     0072818B (in fn00728030)
;;     00728240 (in fn00728030)
;;     007292D9 (in fn0072D920)
;;     00729391 (in fn00729300)
;;     007299A2 (in fn00729810)
;;     00729A18 (in fn00729810)
;;     00729B49 (in fn00729810)
;;     0072A0D1 (in fn00729F50)
;;     0072A157 (in fn00729F50)
;;     0072A1BA (in fn00729F50)
;;     0072A2E4 (in fn00729F50)
;;     0072CDCF (in fn0072CC90)
;;     0072CE3E (in fn0072CC90)
;;     0072CFC4 (in fn0072CEE0)
;;     0072D03A (in fn0072CEE0)
;;     0072D09D (in fn0072CEE0)
;;     0072D25D (in fn0072D130)
;;     0072D2B7 (in fn0072D130)
;;     0072D319 (in fn0072D130)
;;     0072D50F (in fn0072D3D0)
;;     0072D5A1 (in fn0072D3D0)
;;     0072D6C4 (in fn0072D3D0)
;;     0072D776 (in fn0072D3D0)
;;     0072D88E (in fn0072D830)
;;     0072E1B7 (in fn0072DD60)
fn00727880 proc
	push	esi
	push	edi
	mov	edi,eax
	mov	eax,[edi+18h]
	mov	esi,[eax+28h]
	call	727420h
	test	eax,eax
	jge	727898h

l00727893:
	pop	edi
	xor	eax,eax
	pop	esi
	ret

l00727898:
	mov	edx,[edi+18h]
	lea	ecx,[eax+eax*4]
	mov	eax,[edx+28h]
	mov	eax,[eax+0Ch]
	mov	dl,[esp+0Ch]
	add	ecx,ecx
	add	ecx,ecx
	or	dword ptr [eax+ecx],4h
	add	eax,ecx
	cmp	dword ptr [esp+14h],0h
	mov	[eax+4h],dl
	mov	edx,[esp+10h]
	mov	[eax+0Ch],edx
	mov	edx,[eax]
	jz	7278CAh

l007278C5:
	or	edx,1h
	jmp	7278CDh

l007278CA:
	or	edx,2h

l007278CD:
	mov	[eax],edx
	mov	eax,[edi+18h]
	cmp	dword ptr [eax+0DCh],0h
	jnz	7278FAh

l007278DB:
	mov	edx,eax
	mov	dword ptr [edx+0DCh],1h
	mov	edi,[edi+18h]
	mov	eax,[edi+28h]
	mov	edx,[eax+0Ch]
	mov	eax,[edi+0D8h]
	mov	[edx+ecx+10h],eax

l007278FA:
	pop	edi
	mov	eax,1h
	pop	esi
	ret
00727902       CC CC CC CC CC CC CC CC CC CC CC CC CC CC   ..............

;; fn00727910: 00727910
;;   Called from:
;;     007290CD (in fn00729040)
fn00727910 proc
	sub	esp,164h
	mov	eax,[0A14188h]
	xor	eax,esp
	mov	[esp+160h],eax
	mov	eax,[esi+18h]
	push	ebx
	mov	ebx,ecx
	mov	ecx,[eax]
	push	edi
	push	ebx
	push	ecx
	call	7475E0h
	mov	edi,eax
	add	esp,8h
	test	edi,edi
	jnz	7279C5h

l00727941:
	mov	edx,[esi+18h]
	mov	eax,[edx+0Ch]
	push	eax
	call	6DDDB0h
	mov	ecx,[esi+18h]
	mov	edx,[ecx+10h]
	add	esp,4h
	add	eax,14h
	push	eax
	push	edx
	call	6DDDB0h
	add	eax,14h
	add	esp,4h
	push	eax
	mov	eax,[esi+18h]
	mov	ecx,[eax]
	mov	edx,[ecx+0Ch]
	push	edx
	call	6DDDB0h
	mov	ecx,[esi+18h]
	mov	edx,[ecx]
	add	eax,14h
	add	esp,4h
	push	eax
	mov	eax,[esi]
	push	eax
	mov	eax,[edx+8h]
	push	eax
	call	6DDDB0h
	mov	ecx,[esi+18h]
	mov	edx,[ecx+4h]
	add	esp,4h
	add	eax,14h
	push	eax
	add	edx,14h
	push	edx
	add	ebx,14h
	push	ebx
	push	8DA698h
	lea	eax,[esp+28h]
	push	15Eh
	push	eax
	call	724FE0h
	lea	ecx,[esp+30h]
	push	ecx
	call	6E86F0h
	add	esp,2Ch
	mov	eax,edi

l007279C5:
	mov	ecx,[esp+168h]
	pop	edi
	pop	ebx
	xor	ecx,esp
	call	694B8Eh
	add	esp,164h
	ret
007279DC                                     CC CC CC CC             ....

;; fn007279E0: 007279E0
;;   Called from:
;;     0072B421 (in fn0072B360)
fn007279E0 proc
	push	ebp
	mov	ebp,[esp+8h]
	push	esi
	mov	esi,[ebp+18h]
	push	edi
	push	20h
	call	723860h
	mov	edi,eax
	add	esp,4h
	test	edi,edi
	jnz	727A05h

l007279FA:
	call	6E1210h
	pop	edi
	pop	esi
	xor	eax,eax
	pop	ebp
	ret

l00727A05:
	xor	eax,eax
	mov	[edi],eax
	mov	[edi+4h],eax
	mov	[edi+8h],eax
	mov	[edi+0Ch],eax
	mov	[edi+10h],eax
	mov	[edi+14h],eax
	mov	[edi+18h],eax
	mov	[edi+1Ch],eax
	mov	eax,[esi+24h]
	mov	[edi],eax
	push	ebx
	mov	[esi+24h],edi
	mov	ebx,[ebp+18h]
	push	20h
	call	723860h
	mov	esi,eax
	add	esp,4h
	test	esi,esi
	jnz	727A46h

l00727A3A:
	call	6E1210h
	pop	ebx
	pop	edi
	pop	esi
	xor	eax,eax
	pop	ebp
	ret

l00727A46:
	mov	edx,[esp+18h]
	xor	eax,eax
	mov	[esi],eax
	mov	[esi+4h],eax
	mov	[esi+8h],eax
	mov	[esi+0Ch],eax
	mov	[esi+10h],eax
	mov	[esi+14h],eax
	mov	[esi+18h],eax
	mov	[esi+1Ch],eax
	mov	ecx,[ebx+24h]
	mov	[esi],ecx
	mov	[ebx+24h],esi
	mov	eax,[edx+4h]
	push	eax
	push	ebp
	call	72B360h
	add	esp,8h
	test	eax,eax
	jz	727AF6h

l00727A7C:
	push	0h
	push	esi
	push	6Fh
	mov	eax,ebp
	call	727880h
	add	esp,0Ch
	test	eax,eax
	jz	727AF6h

l00727A8F:
	mov	ebx,1h
	mov	eax,ebp
	call	727670h
	test	eax,eax
	jz	727AF6h

l00727A9F:
	mov	ecx,[esp+18h]
	mov	edx,[ecx+8h]
	push	edx
	push	ebp
	call	72B360h
	add	esp,8h
	test	eax,eax
	jz	727AF6h

l00727AB4:
	push	0h
	push	edi
	push	6Eh
	mov	eax,ebp
	call	727880h
	add	esp,0Ch
	test	eax,eax
	jz	727AF6h

l00727AC7:
	mov	eax,[ebp+18h]
	mov	ecx,[eax+28h]
	mov	[ecx+10h],esi
	mov	edx,[ebp+18h]
	mov	eax,ebp
	mov	[edx+28h],esi
	call	727670h
	test	eax,eax
	jz	727AF6h

l00727AE1:
	mov	eax,[esp+18h]
	mov	ecx,[eax+0Ch]
	push	ecx
	push	ebp
	call	72B360h
	add	esp,8h
	test	eax,eax
	jnz	727AFDh

l00727AF6:
	pop	ebx
	pop	edi
	pop	esi
	xor	eax,eax
	pop	ebp
	ret

l00727AFD:
	mov	edx,[ebp+18h]
	mov	eax,[edx+28h]
	mov	[eax+10h],edi
	mov	ecx,[ebp+18h]
	mov	eax,ebx
	pop	ebx
	mov	[ecx+28h],edi
	pop	edi
	pop	esi
	pop	ebp
	ret
00727B13          CC CC CC CC CC CC CC CC CC CC CC CC CC    .............

;; fn00727B20: 00727B20
;;   Called from:
;;     0072B408 (in fn0072B360)
fn00727B20 proc
	add	eax,0FFh
	cmp	eax,3h
	ja	727B47h

l00727B28:
	jmp	dword ptr [727B4Ch+eax*4]

l00727B2F:
	mov	eax,0Fh
	ret

l00727B35:
	mov	eax,0Ch
	ret

l00727B3B:
	mov	eax,0Ah
	ret

l00727B41:
	mov	eax,0Bh
	ret

l00727B47:
	xor	eax,eax
	ret
00727B4A                               8B FF                       ..   
l00727B4C	dd	0x00727B2F
l00727B50	dd	0x00727B35
l00727B54	dd	0x00727B3B
l00727B58	dd	0x00727B41
00727B5C                                     CC CC CC CC             ....

;; fn00727B60: 00727B60
;;   Called from:
;;     0072B3D4 (in fn0072B360)
fn00727B60 proc
	add	eax,0FFh
	cmp	eax,0Bh
	ja	727BD0h

l00727B68:
	jmp	dword ptr [727BD4h+eax*4]

l00727B6F:
	mov	eax,17h
	ret

l00727B75:
	mov	eax,18h
	ret

l00727B7B:
	mov	eax,14h
	ret

l00727B81:
	mov	eax,[esp+4h]
	mov	eax,[eax+0Ch]
	test	eax,eax
	jz	727B9Ah

l00727B8C:
	test	dword ptr [eax],2000h
	jz	727B9Ah

l00727B94:
	mov	eax,1Bh
	ret

l00727B9A:
	mov	eax,15h
	ret

l00727BA0:
	mov	eax,16h
	ret

l00727BA6:
	mov	eax,13h
	ret

l00727BAC:
	mov	eax,3Eh
	ret

l00727BB2:
	mov	eax,3Fh
	ret

l00727BB8:
	mov	eax,42h
	ret

l00727BBE:
	mov	eax,41h
	ret

l00727BC4:
	mov	eax,40h
	ret

l00727BCA:
	mov	eax,1Ah
	ret

l00727BD0:
	xor	eax,eax
	ret
00727BD3          90                                        .           
l00727BD4	dd	0x00727B6F
l00727BD8	dd	0x00727B75
l00727BDC	dd	0x00727B7B
l00727BE0	dd	0x00727B81
l00727BE4	dd	0x00727BA0
l00727BE8	dd	0x00727BA6
l00727BEC	dd	0x00727BAC
l00727BF0	dd	0x00727BB2
l00727BF4	dd	0x00727BB8
l00727BF8	dd	0x00727BBE
l00727BFC	dd	0x00727BC4
l00727C00	dd	0x00727BCA
00727C04             CC CC CC CC CC CC CC CC CC CC CC CC     ............

;; fn00727C10: 00727C10
;;   Called from:
;;     00728166 (in fn00728030)
;;     00728211 (in fn00728030)
fn00727C10 proc
	add	eax,0FFh
	cmp	eax,9h
	ja	727C58h

l00727C18:
	jmp	dword ptr [727C60h+eax*4]

l00727C1F:
	mov	eax,2h
	ret

l00727C25:
	mov	eax,3h
	ret

l00727C2B:
	xor	eax,eax
	ret

l00727C2E:
	mov	eax,1h
	ret

l00727C34:
	mov	eax,4h
	ret

l00727C3A:
	mov	eax,5h
	ret

l00727C40:
	mov	eax,8h
	ret

l00727C46:
	mov	eax,9h
	ret

l00727C4C:
	mov	eax,6h
	ret

l00727C52:
	mov	eax,7h
	ret

l00727C58:
	mov	eax,0Bh
	ret
00727C5E                                           8B FF               ..
l00727C60	dd	0x00727C1F
l00727C64	dd	0x00727C25
l00727C68	dd	0x00727C2B
l00727C6C	dd	0x00727C2E
l00727C70	dd	0x00727C34
l00727C74	dd	0x00727C3A
l00727C78	dd	0x00727C40
l00727C7C	dd	0x00727C46
l00727C80	dd	0x00727C4C
l00727C84	dd	0x00727C52
00727C88                         CC CC CC CC CC CC CC CC         ........

;; fn00727C90: 00727C90
;;   Called from:
;;     0072B8A6 (in fn0072B830)
;;     0072BA4B (in fn0072B830)
;;     0072BAC4 (in fn0072B830)
fn00727C90 proc
	lea	eax,[ecx-1h]
	cmp	eax,0Bh
	ja	727D00h

l00727C98:
	jmp	dword ptr [727D18h+eax*4]

l00727C9F:
	mov	eax,37h
	ret

l00727CA5:
	mov	eax,38h
	ret

l00727CAB:
	mov	eax,39h
	ret

l00727CB1:
	mov	eax,[esp+4h]
	mov	eax,[eax+0Ch]
	test	eax,eax
	jz	727CCAh

l00727CBC:
	test	dword ptr [eax],2000h
	jz	727CCAh

l00727CC4:
	mov	eax,1Dh
	ret

l00727CCA:
	mov	eax,3Ah
	ret

l00727CD0:
	mov	eax,3Bh
	ret

l00727CD6:
	mov	eax,43h
	ret

l00727CDC:
	mov	eax,4Bh
	ret

l00727CE2:
	mov	eax,4Ch
	ret

l00727CE8:
	mov	eax,4Fh
	ret

l00727CEE:
	mov	eax,4Eh
	ret

l00727CF4:
	mov	eax,4Dh
	ret

l00727CFA:
	mov	eax,1Ch
	ret

l00727D00:
	push	ecx
	mov	ecx,[0A18720h]
	push	8DA6ECh
	push	ecx
	call	6E15D0h
	add	esp,0Ch
	xor	eax,eax
	ret
l00727D18	dd	0x00727C9F
l00727D1C	dd	0x00727CA5
l00727D20	dd	0x00727CAB
l00727D24	dd	0x00727CB1
l00727D28	dd	0x00727CD0
l00727D2C	dd	0x00727CD6
l00727D30	dd	0x00727CDC
l00727D34	dd	0x00727CE2
l00727D38	dd	0x00727CE8
l00727D3C	dd	0x00727CEE
l00727D40	dd	0x00727CF4
l00727D44	dd	0x00727CFA
00727D48                         CC CC CC CC CC CC CC CC         ........

;; fn00727D50: 00727D50
;;   Called from:
;;     0072B3A4 (in fn0072B360)
fn00727D50 proc
	sub	esp,10h
	push	ebx
	mov	ebx,eax
	xor	eax,eax
	cmp	dword ptr [ebx+4h],1h
	push	ebp
	setnz	al
	push	esi
	mov	esi,[edi+18h]
	push	20h
	add	eax,6Fh
	mov	[esp+18h],eax
	call	723860h
	mov	ebp,eax
	add	esp,4h
	test	ebp,ebp
	jnz	727D89h

l00727D7B:
	call	6E1210h

l00727D80:
	pop	esi
	pop	ebp
	xor	eax,eax
	pop	ebx
	add	esp,10h
	ret

l00727D89:
	xor	eax,eax
	mov	[ebp+0h],eax
	mov	[ebp+4h],eax
	mov	[ebp+8h],eax
	mov	[ebp+0Ch],eax
	mov	[ebp+10h],eax
	mov	[ebp+14h],eax
	mov	[ebp+18h],eax
	mov	[ebp+1Ch],eax
	mov	eax,[esi+24h]
	mov	[ebp+0h],eax
	mov	[esi+24h],ebp
	mov	ecx,[ebx+8h]
	test	ecx,ecx
	mov	[esp+18h],ecx
	jnz	727DBBh

l00727DB7:
	xor	eax,eax
	jmp	727DBDh

l00727DBB:
	mov	eax,[ecx]

l00727DBD:
	add	eax,0FFh
	xor	ebx,ebx
	test	eax,eax
	mov	[esp+10h],eax
	jle	727EB5h

l00727DCE:
	add	ecx,4h
	mov	[esp+0Ch],ecx

l00727DD5:
	mov	ecx,[esp+0Ch]
	mov	edx,[ecx]
	push	edx
	push	edi
	call	72B360h
	add	esp,8h
	test	eax,eax
	jz	727D80h

l00727DE9:
	mov	eax,[edi+18h]
	mov	esi,[eax+28h]
	call	727420h
	test	eax,eax
	jl	727D80h

l00727DF8:
	mov	edx,[edi+18h]
	lea	ecx,[eax+eax*4]
	mov	eax,[edx+28h]
	mov	eax,[eax+0Ch]
	mov	dl,[esp+14h]
	add	ecx,ecx
	add	ecx,ecx
	or	dword ptr [eax+ecx],6h
	add	eax,ecx
	mov	[eax+4h],dl
	mov	[eax+0Ch],ebp
	mov	eax,[edi+18h]
	cmp	dword ptr [eax+0DCh],0h
	jnz	727E43h

l00727E24:
	mov	edx,eax
	mov	dword ptr [edx+0DCh],1h
	mov	eax,[edi+18h]
	mov	edx,[eax+28h]
	mov	edx,[edx+0Ch]
	mov	eax,[eax+0D8h]
	mov	[edx+ecx+10h],eax

l00727E43:
	mov	ecx,[edi+18h]
	mov	esi,[ecx+28h]
	call	727420h
	test	eax,eax
	jl	727D80h

l00727E56:
	mov	edx,[edi+18h]
	lea	ecx,[eax+eax*4]
	mov	eax,[edx+28h]
	mov	eax,[eax+0Ch]
	add	ecx,ecx
	add	ecx,ecx
	and	dword ptr [eax+ecx],0FBh
	add	eax,ecx
	mov	byte ptr [eax+4h],1h
	mov	edx,[edi+18h]
	cmp	dword ptr [edx+0DCh],0h
	jnz	727E9Bh

l00727E7C:
	mov	eax,edx
	mov	dword ptr [eax+0DCh],1h
	mov	eax,[edi+18h]
	mov	edx,[eax+28h]
	mov	edx,[edx+0Ch]
	mov	eax,[eax+0D8h]
	mov	[edx+ecx+10h],eax

l00727E9B:
	add	dword ptr [esp+0Ch],4h
	add	ebx,1h
	cmp	ebx,[esp+10h]
	jl	727DD5h

l00727EAD:
	mov	ecx,[esp+18h]
	mov	eax,[esp+10h]

l00727EB5:
	mov	ecx,[ecx+eax*4+4h]
	push	ecx
	push	edi
	call	72B360h
	add	esp,8h
	test	eax,eax
	jz	727D80h

l00727ECB:
	mov	edx,[edi+18h]
	mov	eax,[edx+28h]
	mov	[eax+10h],ebp
	mov	ecx,[edi+18h]
	pop	esi
	mov	[ecx+28h],ebp
	pop	ebp
	mov	eax,1h
	pop	ebx
	add	esp,10h
	ret
00727EE6                   CC CC CC CC CC CC CC CC CC CC       ..........

;; fn00727EF0: 00727EF0
;;   Called from:
;;     0072B791 (in fn0072B360)
fn00727EF0 proc
	push	ebp
	mov	ebp,[esp+0Ch]
	mov	eax,[ebp+4h]
	push	edi
	xor	edi,edi
	cmp	eax,edi
	jnz	727F05h

l00727EFF:
	mov	[esp+10h],edi
	jmp	727F0Bh

l00727F05:
	mov	eax,[eax]
	mov	[esp+10h],eax

l00727F0B:
	cmp	dword ptr [ebp+8h],2h
	jnz	727F2Bh

l00727F11:
	mov	ecx,[esp+10h]
	mov	eax,[esp+0Ch]
	push	ecx
	push	5Ch
	call	727810h
	add	esp,8h
	test	eax,eax
	jnz	727F2Bh

l00727F28:
	pop	edi
	pop	ebp
	ret

l00727F2B:
	push	ebx
	mov	ebx,[ebp+4h]
	push	esi
	lea	esi,[ebx+4h]

l00727F33:
	test	ebx,ebx
	jnz	727F3Bh

l00727F37:
	xor	eax,eax
	jmp	727F3Dh

l00727F3B:
	mov	eax,[ebx]

l00727F3D:
	cmp	edi,eax
	jge	727F5Dh

l00727F41:
	mov	eax,[esi]
	mov	edx,[esp+14h]
	push	eax
	push	edx
	call	72B360h
	add	esp,8h
	test	eax,eax
	jz	727F7Ah

l00727F55:
	add	edi,1h
	add	esi,4h
	jmp	727F33h

l00727F5D:
	cmp	dword ptr [ebp+8h],1h
	jnz	727F81h

l00727F63:
	mov	eax,[esp+18h]
	push	eax
	mov	eax,[esp+18h]
	push	67h
	call	727810h
	add	esp,8h
	test	eax,eax
	jnz	727F81h

l00727F7A:
	pop	esi
	pop	ebx
	pop	edi
	xor	eax,eax
	pop	ebp
	ret

l00727F81:
	pop	esi
	pop	ebx
	pop	edi
	mov	eax,1h
	pop	ebp
	ret
00727F8B                                  CC CC CC CC CC            .....

;; fn00727F90: 00727F90
;;   Called from:
;;     0072B7A0 (in fn0072B360)
fn00727F90 proc
	push	ebp
	mov	ebp,[esp+0Ch]
	mov	eax,[ebp+4h]
	push	edi
	xor	edi,edi
	cmp	eax,edi
	jnz	727FA5h

l00727F9F:
	mov	[esp+10h],edi
	jmp	727FABh

l00727FA5:
	mov	eax,[eax]
	mov	[esp+10h],eax

l00727FAB:
	cmp	dword ptr [ebp+8h],2h
	jnz	727FCBh

l00727FB1:
	mov	ecx,[esp+10h]
	mov	eax,[esp+0Ch]
	push	ecx
	push	5Ch
	call	727810h
	add	esp,8h
	test	eax,eax
	jnz	727FCBh

l00727FC8:
	pop	edi
	pop	ebp
	ret

l00727FCB:
	push	ebx
	mov	ebx,[ebp+4h]
	push	esi
	lea	esi,[ebx+4h]

l00727FD3:
	test	ebx,ebx
	jnz	727FDBh

l00727FD7:
	xor	eax,eax
	jmp	727FDDh

l00727FDB:
	mov	eax,[ebx]

l00727FDD:
	cmp	edi,eax
	jge	727FFDh

l00727FE1:
	mov	eax,[esi]
	mov	edx,[esp+14h]
	push	eax
	push	edx
	call	72B360h
	add	esp,8h
	test	eax,eax
	jz	72801Ah

l00727FF5:
	add	edi,1h
	add	esi,4h
	jmp	727FD3h

l00727FFD:
	cmp	dword ptr [ebp+8h],1h
	jnz	728021h

l00728003:
	mov	eax,[esp+18h]
	push	eax
	mov	eax,[esp+18h]
	push	66h
	call	727810h
	add	esp,8h
	test	eax,eax
	jnz	728021h

l0072801A:
	pop	esi
	pop	ebx
	pop	edi
	xor	eax,eax
	pop	ebp
	ret

l00728021:
	pop	esi
	pop	ebx
	pop	edi
	mov	eax,1h
	pop	ebp
	ret
0072802B                                  CC CC CC CC CC            .....

;; fn00728030: 00728030
;;   Called from:
;;     0072B55D (in fn0072B360)
fn00728030 proc
	sub	esp,8h
	push	ebx
	mov	ebx,[esp+10h]
	push	esi
	push	edi
	mov	edi,eax
	mov	eax,[ebx+4h]
	push	eax
	xor	esi,esi
	push	edi
	mov	[esp+18h],esi
	call	72B360h
	add	esp,8h
	test	eax,eax
	jnz	72805Ch

l00728053:
	pop	edi
	pop	esi
	xor	eax,eax
	pop	ebx
	add	esp,8h
	ret

l0072805C:
	mov	eax,[ebx+8h]
	cmp	eax,esi
	jnz	728069h

l00728063:
	mov	[esp+0Ch],esi
	jmp	72809Fh

l00728069:
	mov	eax,[eax]
	cmp	eax,1h
	mov	[esp+0Ch],eax
	jle	72809Dh

l00728074:
	mov	eax,edi
	call	727340h
	cmp	eax,esi
	mov	[esp+10h],eax
	jz	728053h

l00728083:
	mov	ecx,[ebx+0Ch]
	mov	edx,[ecx+4h]
	push	edx
	push	edi
	call	72B360h
	add	esp,8h
	test	eax,eax
	jz	728053h

l00728097:
	mov	esi,[esp+0Ch]
	jmp	72809Fh

l0072809D:
	mov	esi,eax

l0072809F:
	push	ebp
	mov	ebp,1h
	cmp	esi,ebp
	jle	7281F7h

l007280AD:
	lea	ecx,[ecx+0h]

l007280B0:
	mov	eax,[edi+18h]
	mov	esi,[eax+28h]
	call	727420h
	test	eax,eax
	jl	72827Fh

l007280C3:
	mov	edx,[edi+18h]
	lea	ecx,[eax+eax*4]
	mov	eax,[edx+28h]
	mov	eax,[eax+0Ch]
	add	ecx,ecx
	add	ecx,ecx
	and	dword ptr [eax+ecx],0FBh
	add	eax,ecx
	mov	byte ptr [eax+4h],4h
	mov	edx,[edi+18h]
	cmp	dword ptr [edx+0DCh],0h
	jnz	728108h

l007280E9:
	mov	eax,edx
	mov	dword ptr [eax+0DCh],1h
	mov	eax,[edi+18h]
	mov	edx,[eax+28h]
	mov	edx,[edx+0Ch]
	mov	eax,[eax+0D8h]
	mov	[edx+ecx+10h],eax

l00728108:
	mov	ecx,[edi+18h]
	mov	esi,[ecx+28h]
	call	727420h
	test	eax,eax
	jl	72827Fh

l0072811B:
	mov	edx,[edi+18h]
	lea	ecx,[eax+eax*4]
	mov	eax,[edx+28h]
	mov	eax,[eax+0Ch]
	add	ecx,ecx
	add	ecx,ecx
	and	dword ptr [eax+ecx],0FBh
	add	eax,ecx
	mov	byte ptr [eax+4h],3h
	mov	edx,[edi+18h]
	cmp	dword ptr [edx+0DCh],0h
	jnz	728160h

l00728141:
	mov	eax,edx
	mov	dword ptr [eax+0DCh],1h
	mov	eax,[edi+18h]
	mov	edx,[eax+28h]
	mov	edx,[edx+0Ch]
	mov	eax,[eax+0D8h]
	mov	[edx+ecx+10h],eax

l00728160:
	mov	ecx,[ebx+8h]
	mov	eax,[ecx+ebp*4]
	call	727C10h
	push	eax
	push	6Ah
	mov	eax,edi
	call	727810h
	add	esp,8h
	test	eax,eax
	jz	72827Fh

l00728180:
	mov	edx,[esp+14h]
	push	0h
	push	edx
	push	6Fh
	mov	eax,edi
	call	727880h
	add	esp,0Ch
	test	eax,eax
	jz	72827Fh

l0072819B:
	call	7273D0h
	test	eax,eax
	jz	72827Fh

l007281A8:
	mov	ebx,1h
	mov	eax,edi
	call	727670h
	test	eax,eax
	jz	72827Fh

l007281BC:
	mov	esi,[esp+10h]
	lea	eax,[esi-1h]
	cmp	ebp,eax
	jge	7281E4h

l007281C7:
	mov	ecx,[esp+1Ch]
	mov	edx,[ecx+0Ch]
	mov	eax,[edx+ebp*4+4h]
	push	eax
	push	edi
	call	72B360h
	add	esp,8h
	test	eax,eax
	jz	72827Fh

l007281E4:
	mov	ebx,[esp+1Ch]
	add	ebp,1h
	cmp	ebp,esi
	jl	7280B0h

l007281F3:
	mov	esi,[esp+10h]

l007281F7:
	mov	ecx,[ebx+0Ch]
	mov	edx,[ecx+esi*4]
	push	edx
	push	edi
	call	72B360h
	add	esp,8h
	test	eax,eax
	jz	72827Fh

l0072820B:
	mov	eax,[ebx+8h]
	mov	eax,[eax+esi*4]
	call	727C10h
	push	eax
	push	6Ah
	mov	eax,edi
	call	727810h
	add	esp,8h
	test	eax,eax
	jz	72827Fh

l00728227:
	cmp	esi,1h
	jle	728298h

l0072822C:
	mov	eax,edi
	call	727340h
	mov	esi,eax
	test	esi,esi
	jz	72827Fh

l00728239:
	push	0h
	push	esi
	push	6Eh
	mov	eax,edi
	call	727880h
	add	esp,0Ch
	test	eax,eax
	jz	72827Fh

l0072824C:
	mov	ecx,[edi+18h]
	mov	edx,[ecx+28h]
	mov	eax,[esp+14h]
	mov	[edx+10h],eax
	mov	ecx,[edi+18h]
	mov	[ecx+28h],eax
	mov	ebx,2h
	mov	eax,edi
	call	727670h
	test	eax,eax
	jz	72827Fh

l0072826F:
	mov	ebx,1h
	mov	eax,edi
	call	727670h
	test	eax,eax
	jnz	728289h

l0072827F:
	pop	ebp
	pop	edi
	pop	esi
	xor	eax,eax
	pop	ebx
	add	esp,8h
	ret

l00728289:
	mov	edx,[edi+18h]
	mov	eax,[edx+28h]
	mov	[eax+10h],esi
	mov	ecx,[edi+18h]
	mov	[ecx+28h],esi

l00728298:
	pop	ebp
	pop	edi
	pop	esi
	mov	eax,1h
	pop	ebx
	add	esp,8h
	ret
007282A5                CC CC CC CC CC CC CC CC CC CC CC      ...........

;; fn007282B0: 007282B0
;;   Called from:
;;     0072CD25 (in fn0072CC90)
;;     0072D143 (in fn0072D130)
fn007282B0 proc
	mov	eax,[ecx]
	sub	eax,0Dh
	jz	7282F6h

l007282B7:
	sub	eax,1h
	jz	7282E9h

l007282BC:
	sub	eax,3h
	jnz	7282E5h

l007282C1:
	push	esi
	mov	esi,[ecx+4h]
	push	edi
	add	esi,14h
	mov	edi,8DA718h
	mov	ecx,0Ah
	xor	eax,eax

l007282D5:
	rep cmpsb

l007282D7:
	pop	edi
	pop	esi
	jnz	7282E5h

l007282DB:
	cmp	[0A6DBF4h],eax
	setz	al
	ret

l007282E5:
	or	eax,0FFh
	ret

l007282E9:
	mov	ecx,[ecx+4h]
	push	ecx
	call	6DEA90h
	add	esp,4h
	ret

l007282F6:
	mov	edx,[ecx+4h]
	push	edx
	call	6DEA90h
	add	esp,4h
	ret
00728303          CC CC CC CC CC CC CC CC CC CC CC CC CC    .............

;; fn00728310: 00728310
;;   Called from:
;;     007293B8 (in fn00729300)
;;     0072949C (in fn00729300)
;;     0072A0E2 (in fn00729F50)
;;     0072CFDD (in fn0072CEE0)
;;     0072D280 (in fn0072D130)
;;     0072D533 (in fn0072D3D0)
;;     0072E1DB (in fn0072DD60)
;;     0072E3EB (in fn0072DD60)
fn00728310 proc
	mov	ecx,[eax+18h]
	cmp	dword ptr [ecx+30h],14h
	jl	728330h

l00728319:
	mov	edx,[0A18720h]
	push	8DA724h
	push	edx
	call	6E0F80h
	add	esp,8h
	xor	eax,eax
	ret

l00728330:
	mov	eax,ecx
	mov	ecx,[eax+30h]
	lea	edx,[ecx+1h]
	mov	[eax+30h],edx
	mov	edx,[esp+4h]
	mov	[eax+ecx*8+34h],edx
	mov	edx,[esp+8h]
	mov	[eax+ecx*8+38h],edx
	mov	eax,1h
	ret
00728351    CC CC CC CC CC CC CC CC CC CC CC CC CC CC CC  ...............

;; fn00728360: 00728360
;;   Called from:
;;     0072925F (in fn0072D920)
;;     007292B5 (in fn0072D920)
;;     007292C5 (in fn0072D920)
;;     0072954D (in fn00729510)
;;     00729BA1 (in fn00729810)
;;     00729DC6 (in fn00729D20)
;;     0072A801 (in fn0072A740)
;;     0072AA90 (in fn0072A940)
;;     0072AD24 (in fn0072AC20)
;;     0072AE56 (in fn0072AC20)
;;     0072B50E (in fn0072B360)
;;     0072B8E6 (in fn0072B830)
;;     0072BFA0 (in fn0072BF10)
;;     0072C3BF (in fn0072C160)
;;     0072C651 (in fn0072C510)
;;     0072C85A (in fn0072C510)
;;     0072D7E0 (in fn0072D3D0)
;;     0072D987 (in fn0072D920)
;;     0072DCC6 (in fn0072D920)
;;     0072DF08 (in fn0072DD60)
;;     0072E089 (in fn0072DD60)
;;     0072E236 (in fn0072DD60)
;;     0072E440 (in fn0072DD60)
fn00728360 proc
	push	ebx
	push	esi
	push	edi
	mov	edi,eax
	mov	eax,[edi+18h]
	mov	ecx,[eax+0D8h]
	mov	edx,[edi]
	push	ecx
	push	edx
	xor	ebx,ebx
	call	6E1AB0h
	mov	esi,eax
	add	esp,8h
	test	esi,esi
	jnz	72838Eh

l00728382:
	add	dword ptr [0A163B8h],1h
	mov	esi,0A163B8h

l0072838E:
	mov	eax,[edi+18h]
	mov	ecx,[eax+0D8h]
	mov	edx,[edi]
	push	esi
	push	0A163B8h
	push	ecx
	push	edx
	push	8DA750h
	call	6EA200h
	mov	edi,eax
	add	esp,14h
	test	edi,edi
	jz	7283DDh

l007283B4:
	mov	eax,[esp+10h]
	push	edi
	push	eax
	push	8DA748h
	call	6EA200h
	mov	ebx,eax
	add	esp,0Ch
	test	ebx,ebx
	jz	7283DDh

l007283CD:
	mov	ecx,[0A178F4h]
	push	ebx
	push	ecx
	call	6E0E90h
	add	esp,8h

l007283DD:
	add	dword ptr [esi],0FFh
	jnz	7283EEh

l007283E2:
	mov	edx,[esi+4h]
	mov	eax,[edx+18h]
	push	esi
	call	eax
	add	esp,4h

l007283EE:
	test	edi,edi
	jz	728403h

l007283F2:
	add	dword ptr [edi],0FFh
	jnz	728403h

l007283F7:
	mov	ecx,[edi+4h]
	mov	edx,[ecx+18h]
	push	edi
	call	edx
	add	esp,4h

l00728403:
	test	ebx,ebx
	jz	728418h

l00728407:
	add	dword ptr [ebx],0FFh
	jnz	728418h

l0072840C:
	mov	eax,[ebx+4h]
	mov	ecx,[eax+18h]
	push	ebx
	call	ecx
	add	esp,4h

l00728418:
	pop	edi
	pop	esi
	xor	eax,eax
	pop	ebx
	ret
0072841E                                           CC CC               ..

;; fn00728420: 00728420
;;   Called from:
;;     0072BED5 (in fn0072BDC0)
fn00728420 proc
	push	esi
	lea	eax,[ecx-1h]
	xor	esi,esi
	cmp	eax,5h
	ja	728437h

l0072842B:
	jmp	dword ptr [7284A8h+eax*4]

l00728432:
	mov	esi,19h

l00728437:
	cmp	ecx,4h
	push	ebx
	jnz	72847Eh

l0072843D:
	push	2h
	push	63h
	mov	eax,edi
	call	727810h
	add	esp,8h
	test	eax,eax
	jnz	728496h

l0072844F:
	pop	ebx
	pop	esi
	ret

l00728452:
	mov	esi,3Ch
	jmp	728437h

l00728459:
	mov	esi,3Dh
	jmp	728437h

l00728460:
	mov	eax,[esp+8h]
	push	ecx
	mov	ecx,[0A18720h]
	push	eax
	push	8DA758h
	push	ecx
	call	6E15D0h
	add	esp,10h
	xor	eax,eax
	pop	esi
	ret

l0072847E:
	cmp	ecx,5h
	jnz	728496h

l00728483:
	mov	ebx,3h
	mov	eax,edi
	call	727670h
	test	eax,eax
	jnz	728496h

l00728493:
	pop	ebx
	pop	esi
	ret

l00728496:
	mov	ebx,esi
	mov	eax,edi
	call	727670h
	neg	eax
	sbb	eax,eax
	pop	ebx
	neg	eax
	pop	esi
	ret
l007284A8	dd	0x00728432
l007284AC	dd	0x00728452
l007284B0	dd	0x00728459
l007284B4	dd	0x00728432
l007284B8	dd	0x00728452
l007284BC	dd	0x00728460

;; fn007284C0: 007284C0
;;   Called from:
;;     007284E6 (in fn007284C0)
;;     0072850C (in fn007284C0)
;;     0072A428 (in fn0072A350)
fn007284C0 proc
	push	esi
	mov	esi,[esp+0Ch]
	mov	eax,[esi+14h]
	test	al,1h
	jnz	72852Fh

l007284CC:
	or	eax,1h
	mov	[esi+14h],eax
	mov	eax,[esi+10h]
	test	eax,eax
	push	ebx
	push	ebp
	mov	ebp,[esp+18h]
	jz	7284EEh

l007284DF:
	push	ebp
	push	eax
	mov	eax,[esp+18h]
	push	eax
	call	7284C0h
	add	esp,0Ch

l007284EE:
	xor	ebx,ebx
	cmp	[esi+4h],ebx
	jle	728520h

l007284F5:
	push	edi
	xor	edi,edi

l007284F8:
	mov	eax,[esi+0Ch]
	add	eax,edi
	test	byte ptr [eax],3h
	jz	728514h

l00728502:
	mov	ecx,[eax+0Ch]
	mov	edx,[esp+14h]
	push	ebp
	push	ecx
	push	edx
	call	7284C0h
	add	esp,0Ch

l00728514:
	add	ebx,1h
	add	edi,14h
	cmp	ebx,[esi+4h]
	jl	7284F8h

l0072851F:
	pop	edi

l00728520:
	mov	eax,[ebp+8h]
	mov	ecx,[ebp+0Ch]
	mov	[ecx+eax*4],esi
	add	dword ptr [ebp+8h],1h
	pop	ebp
	pop	ebx

l0072852F:
	pop	esi
	ret
00728531    CC CC CC CC CC CC CC CC CC CC CC CC CC CC CC  ...............

;; fn00728540: 00728540
;;   Called from:
;;     007285AA (in fn00728540)
;;     007285E3 (in fn00728540)
;;     0072863C (in fn00728610)
fn00728540 proc
	push	ecx
	push	ebx
	mov	ebx,[esp+10h]
	mov	eax,[ebx+14h]
	test	al,1h
	push	ebp
	jnz	7285F9h

l00728552:
	mov	ebp,[esp+18h]
	cmp	[ebx+18h],ebp
	jge	7285F9h

l0072855F:
	or	eax,1h
	mov	[ebx+14h],eax
	xor	eax,eax
	cmp	[ebx+4h],eax
	push	esi
	push	edi
	mov	edi,[esp+24h]
	mov	[ebx+18h],ebp
	mov	[esp+10h],eax
	jle	7285D4h

l00728579:
	mov	[esp+1Ch],eax
	lea	ecx,[ecx+0h]

l00728580:
	mov	esi,[ebx+0Ch]
	add	esi,[esp+1Ch]
	movzx	edx,byte ptr [esi+4h]
	mov	ecx,[esi+8h]
	call	7274B0h
	add	ebp,eax
	cmp	ebp,edi
	cmovg	edi,ebp

l0072859A:
	test	byte ptr [esi],3h
	jz	7285BFh

l0072859F:
	mov	eax,[esi+0Ch]
	mov	ecx,[esp+18h]
	push	edi
	push	ebp
	push	eax
	push	ecx
	call	728540h
	mov	edi,eax
	mov	al,[esi+4h]
	add	esp,10h
	cmp	al,71h
	jz	7285EDh

l007285BB:
	cmp	al,6Eh
	jz	7285EDh

l007285BF:
	mov	eax,[esp+10h]
	add	dword ptr [esp+1Ch],14h
	add	eax,1h
	cmp	eax,[ebx+4h]
	mov	[esp+10h],eax
	jl	728580h

l007285D4:
	mov	eax,[ebx+10h]
	test	eax,eax
	jz	7285EDh

l007285DB:
	mov	edx,[esp+18h]
	push	edi
	push	ebp
	push	eax
	push	edx
	call	728540h
	add	esp,10h
	mov	edi,eax

l007285ED:
	and	dword ptr [ebx+14h],0FEh
	mov	eax,edi
	pop	edi
	pop	esi
	pop	ebp
	pop	ebx
	pop	ecx
	ret

l007285F9:
	mov	eax,[esp+1Ch]
	pop	ebp
	pop	ebx
	pop	ecx
	ret
00728601    CC CC CC CC CC CC CC CC CC CC CC CC CC CC CC  ...............

;; fn00728610: 00728610
;;   Called from:
;;     00728D5A (in fn00728BE0)
fn00728610 proc
	mov	eax,[edi+18h]
	mov	eax,[eax+24h]
	test	eax,eax
	jz	728633h

l0072861A:
	mov	edx,80000000h
	nop

l00728620:
	and	dword ptr [eax+14h],0FEh
	mov	[eax+18h],edx
	mov	ecx,eax
	mov	eax,[eax]
	test	eax,eax
	jnz	728620h

l0072862F:
	test	ecx,ecx
	jnz	728636h

l00728633:
	xor	eax,eax
	ret

l00728636:
	push	0h
	push	0h
	push	ecx
	push	edi
	call	728540h
	add	esp,10h
	ret
00728645                CC CC CC CC CC CC CC CC CC CC CC      ...........

;; fn00728650: 00728650
;;   Called from:
;;     0072A413 (in fn0072A350)
fn00728650 proc
	xor	eax,eax
	mov	[esi],eax
	mov	[esi+4h],eax
	mov	[esi+8h],eax
	mov	[esi+0Ch],eax
	mov	[esi+10h],eax
	mov	[esi+14h],eax
	mov	[esi+1Ch],eax
	mov	eax,[esp+4h]
	push	80h
	push	0h
	mov	[esi+18h],eax
	call	6EC9B0h
	add	esp,8h
	test	eax,eax
	mov	[esi],eax
	jz	7286A2h

l00728682:
	push	10h
	push	0h
	call	6EC9B0h
	add	esp,8h
	test	eax,eax
	mov	[esi+10h],eax
	jz	7286A2h

l00728695:
	cmp	edi,3FFFFFFFh
	jbe	7286A5h

l0072869D:
	call	6E1210h

l007286A2:
	xor	eax,eax
	ret

l007286A5:
	lea	ecx,[0000h+edi*4]
	push	ecx
	call	723860h
	add	esp,4h
	test	eax,eax
	mov	[esi+0Ch],eax
	jz	72869Dh

l007286BC:
	mov	eax,1h
	ret
007286C2       CC CC CC CC CC CC CC CC CC CC CC CC CC CC   ..............

;; fn007286D0: 007286D0
;;   Called from:
;;     0072890E (in fn007288B0)
fn007286D0 proc
	sub	esp,8h
	mov	eax,[esp+0Ch]
	mov	ecx,[eax+10h]
	sub	ecx,[esi+18h]
	push	ebx
	mov	ebx,[esi+4h]
	sub	ebx,[esi+1Ch]
	push	ebp
	test	ebx,ebx
	push	edi
	mov	[esp+0Ch],ecx
	jnz	728702h

l007286EE:
	test	ecx,ecx
	jnz	7287A4h

l007286F6:
	pop	edi
	pop	ebp
	mov	eax,1h
	pop	ebx
	add	esp,8h
	ret

l00728702:
	cmp	ebx,0FFh
	jle	7287A4h

l0072870E:
	mov	eax,80808081h
	imul	ebx
	mov	eax,[esi+14h]
	add	edx,ebx
	sar	edx,7h
	mov	edi,edx
	shr	edi,1Fh
	add	edi,edx
	lea	edx,[edi+edi]
	add	eax,edx
	mov	[esp+10h],edx
	mov	edx,[esi+10h]
	mov	edx,[edx+8h]
	cmp	eax,edx
	lea	ebp,[esi+10h]
	jl	728774h

l0072873A:
	cmp	edx,3FFFFFFFh
	jg	728762h

l00728742:
	lea	ecx,[edx+edx]
	cmp	ecx,eax
	jl	72874Bh

l00728749:
	mov	eax,ecx

l0072874B:
	push	eax
	push	ebp
	call	6EC4F0h
	add	esp,8h
	test	eax,eax
	jge	728770h

l00728759:
	pop	edi
	pop	ebp
	xor	eax,eax
	pop	ebx
	add	esp,8h
	ret

l00728762:
	call	6E1210h

l00728767:
	pop	edi
	pop	ebp
	xor	eax,eax
	pop	ebx
	add	esp,8h
	ret

l00728770:
	mov	ecx,[esp+0Ch]

l00728774:
	test	edi,edi
	mov	eax,[esi+14h]
	mov	edx,[ebp+0h]
	lea	eax,[eax+edx+14h]
	jle	728795h

l00728782:
	mov	edx,edi

l00728784:
	mov	byte ptr [eax],0FFh
	add	eax,1h
	mov	byte ptr [eax],0h
	add	eax,1h
	sub	edx,1h
	jnz	728784h

l00728795:
	mov	eax,[esp+10h]
	imul	edi,edi,0FFFFFF01h
	add	ebx,edi
	add	[esi+14h],eax

l007287A4:
	cmp	ecx,0FFh
	jle	72884Ah

l007287B0:
	mov	eax,80808081h
	imul	ecx
	mov	eax,[esi+14h]
	add	edx,ecx
	sar	edx,7h
	mov	edi,edx
	shr	edi,1Fh
	add	edi,edx
	lea	edx,[edi+edi]
	add	eax,edx
	mov	[esp+10h],edx
	mov	edx,[esi+10h]
	mov	edx,[edx+8h]
	cmp	eax,edx
	lea	ebp,[esi+10h]
	jl	728807h

l007287DC:
	cmp	edx,3FFFFFFFh
	jg	728762h

l007287E8:
	lea	ecx,[edx+edx]
	cmp	ecx,eax
	jl	7287F1h

l007287EF:
	mov	eax,ecx

l007287F1:
	push	eax
	push	ebp
	call	6EC4F0h
	add	esp,8h
	test	eax,eax
	jl	728767h

l00728803:
	mov	ecx,[esp+0Ch]

l00728807:
	mov	eax,[esi+14h]
	mov	edx,[ebp+0h]
	lea	eax,[eax+edx+14h]
	mov	[eax],bl
	add	eax,1h
	mov	byte ptr [eax],0FFh
	add	eax,1h
	xor	ebx,ebx
	cmp	edi,1h
	jle	728837h

l00728823:
	lea	edx,[edi-1h]

l00728826:
	mov	byte ptr [eax],0h
	add	eax,1h
	mov	byte ptr [eax],0FFh
	add	eax,1h
	sub	edx,1h
	jnz	728826h

l00728837:
	mov	eax,[esp+10h]
	imul	edi,edi,0FFFFFF01h
	add	ecx,edi
	add	[esi+14h],eax
	mov	[esp+0Ch],ecx

l0072884A:
	mov	edx,[esi+10h]
	mov	eax,[edx+8h]
	mov	edx,[esi+14h]
	lea	edi,[esi+10h]
	add	edx,2h
	cmp	edx,eax
	jl	728875h

l0072885D:
	add	eax,eax
	push	eax
	push	edi
	call	6EC4F0h
	add	esp,8h
	test	eax,eax
	jl	728767h

l00728871:
	mov	ecx,[esp+0Ch]

l00728875:
	mov	eax,[esi+14h]
	mov	edx,[edi]
	lea	edx,[edx+eax+14h]
	add	eax,2h
	test	ebx,ebx
	mov	[esi+14h],eax
	jz	72888Ch

l00728888:
	mov	[edx],bl
	jmp	72888Fh

l0072888C:
	mov	byte ptr [edx],0h

l0072888F:
	mov	eax,[esp+18h]
	mov	[edx+1h],cl
	mov	ecx,[eax+10h]
	mov	edx,[esi+4h]
	pop	edi
	pop	ebp
	mov	[esi+18h],ecx
	mov	[esi+1Ch],edx
	mov	eax,1h
	pop	ebx
	add	esp,8h
	ret
007288AE                                           CC CC               ..

;; fn007288B0: 007288B0
;;   Called from:
;;     0072A45F (in fn0072A350)
fn007288B0 proc
	sub	esp,8h
	push	ebx
	push	ebp
	push	esi
	mov	esi,eax
	mov	eax,[esi]
	mov	edx,[eax+8h]
	mov	eax,[edi]
	xor	ecx,ecx
	shr	eax,2h
	xor	ebx,ebx
	and	eax,1h
	mov	[esp+0Ch],ecx
	mov	[esp+10h],edx
	jnz	7288DAh

l007288D3:
	mov	ebp,1h
	jmp	7288F5h

l007288DA:
	xor	edx,edx
	cmp	dword ptr [edi+8h],0FFFFh
	setle	dl
	sub	edx,1h
	and	edx,3h
	add	edx,3h
	mov	ebp,edx
	mov	edx,[esp+10h]

l007288F5:
	test	eax,eax
	jz	728907h

l007288F9:
	mov	ebx,[edi+8h]
	mov	[esp+0Ch],ebx
	mov	ecx,[esp+0Ch]
	sar	ebx,10h

l00728907:
	cmp	dword ptr [edi+10h],0h
	jz	72892Bh

l0072890D:
	push	edi
	call	7286D0h
	add	esp,4h
	test	eax,eax
	jnz	728923h

l0072891A:
	pop	esi
	pop	ebp
	xor	eax,eax
	pop	ebx
	add	esp,8h
	ret

l00728923:
	mov	ecx,[esp+0Ch]
	mov	edx,[esp+10h]

l0072892B:
	mov	eax,[esi+4h]
	add	eax,ebp
	cmp	eax,edx
	jl	728951h

l00728934:
	cmp	edx,3FFFFFFFh
	jg	72891Ah

l0072893C:
	lea	ecx,[edx+edx]
	push	ecx
	push	esi
	call	6EC4F0h
	add	esp,8h
	test	eax,eax
	jl	72891Ah

l0072894D:
	mov	ecx,[esp+0Ch]

l00728951:
	mov	edx,[esi+4h]
	mov	eax,[esi]
	lea	eax,[eax+edx+14h]
	add	edx,ebp
	cmp	ebp,6h
	mov	[esi+4h],edx
	jnz	72897Dh

l00728964:
	mov	byte ptr [eax],8Fh
	add	eax,1h
	mov	[eax],bl
	add	eax,1h
	sar	ebx,8h
	mov	[eax],bl
	add	eax,1h
	and	ecx,0FFFFh

l0072897D:
	mov	dl,[edi+4h]
	mov	[eax],dl
	add	eax,1h
	test	byte ptr [edi],4h
	jz	728992h

l0072898A:
	mov	[eax],cl
	sar	ecx,8h
	mov	[eax+1h],cl

l00728992:
	pop	esi
	pop	ebp
	mov	eax,1h
	pop	ebx
	add	esp,8h
	ret
0072899E                                           CC CC               ..

;; fn007289A0: 007289A0
;;   Called from:
;;     0072A431 (in fn0072A350)
fn007289A0 proc
	sub	esp,8h
	push	ebx
	push	ebp
	push	esi
	mov	dword ptr [esp+10h],0h
	push	edi
	nop

l007289B0:
	mov	eax,[esp+1Ch]
	mov	ebp,[eax+8h]
	xor	ebx,ebx
	sub	ebp,1h
	js	728A0Ch

l007289BE:
	mov	edi,edi

l007289C0:
	mov	ecx,[esp+1Ch]
	mov	edx,[ecx+0Ch]
	mov	edi,[edx+ebp*4]
	xor	edx,edx
	cmp	[edi+4h],edx
	jle	728A02h

l007289D1:
	mov	eax,[edi+0Ch]
	mov	esi,[edi+4h]

l007289D7:
	test	byte ptr [eax],4h
	jnz	7289E3h

l007289DC:
	mov	ecx,1h
	jmp	7289F8h

l007289E3:
	xor	ecx,ecx
	cmp	dword ptr [eax+8h],0FFFFh
	setle	cl
	sub	ecx,1h
	and	ecx,3h
	add	ecx,3h

l007289F8:
	add	edx,ecx
	add	eax,14h
	sub	esi,1h
	jnz	7289D7h

l00728A02:
	mov	[edi+1Ch],ebx
	add	ebx,edx
	sub	ebp,1h
	jns	7289C0h

l00728A0C:
	mov	ecx,[esp+20h]
	mov	edx,[ecx+18h]
	mov	esi,[edx+24h]
	xor	eax,eax
	test	esi,esi
	mov	[esp+10h],eax
	jz	728A9Ah

l00728A20:
	mov	ebx,[esi+1Ch]
	xor	ebp,ebp
	cmp	[esi+4h],ebp
	jle	728A90h

l00728A2A:
	xor	edi,edi
	lea	esp,[esp+0h]

l00728A30:
	mov	eax,[esi+0Ch]
	mov	ecx,[eax+edi]
	add	eax,edi
	test	cl,4h
	jnz	728A44h

l00728A3D:
	mov	edx,1h
	jmp	728A59h

l00728A44:
	xor	edx,edx
	cmp	dword ptr [eax+8h],0FFFFh
	setle	dl
	sub	edx,1h
	and	edx,3h
	add	edx,3h

l00728A59:
	add	ebx,edx
	test	cl,1h
	jz	728A68h

l00728A60:
	mov	ecx,[eax+0Ch]
	mov	edx,[ecx+1Ch]
	jmp	728A75h

l00728A68:
	test	cl,2h
	jz	728A85h

l00728A6D:
	mov	ecx,[eax+0Ch]
	mov	edx,[ecx+1Ch]
	sub	edx,ebx

l00728A75:
	cmp	edx,0FFFFh
	mov	[eax+8h],edx
	jle	728A85h

l00728A80:
	add	dword ptr [esp+10h],1h

l00728A85:
	add	ebp,1h
	add	edi,14h
	cmp	ebp,[esi+4h]
	jl	728A30h

l00728A90:
	mov	esi,[esi]
	test	esi,esi
	jnz	728A20h

l00728A96:
	mov	eax,[esp+10h]

l00728A9A:
	cmp	[esp+14h],eax
	jz	728AA9h

l00728AA0:
	mov	[esp+14h],eax
	jmp	7289B0h

l00728AA9:
	pop	edi
	pop	esi
	pop	ebp
	pop	ebx
	add	esp,8h
	ret
00728AB1    CC CC CC CC CC CC CC CC CC CC CC CC CC CC CC  ...............

;; fn00728AC0: 00728AC0
;;   Called from:
;;     00728C00 (in fn00728BE0)
;;     00728C33 (in fn00728BE0)
;;     00728C42 (in fn00728BE0)
;;     00728C6D (in fn00728BE0)
;;     00728C91 (in fn00728BE0)
fn00728AC0 proc
	sub	esp,0Ch
	push	esi
	push	edi
	mov	dword ptr [esp+10h],0h
	call	6FCF20h
	push	eax
	call	6DFD20h
	mov	esi,eax
	add	esp,8h
	test	esi,esi
	jnz	728AE6h

l00728AE1:
	pop	esi
	add	esp,0Ch
	ret

l00728AE6:
	lea	eax,[esp+8h]
	push	eax
	lea	ecx,[esp+8h]
	push	ecx
	lea	edx,[esp+14h]
	push	edx
	push	edi
	call	6FC050h
	add	esp,10h
	test	eax,eax
	jz	728B3Dh

l00728B02:
	mov	ecx,[esp+4h]
	mov	eax,[esp+8h]
	mov	eax,[eax+8h]
	mov	ecx,[ecx+0Ch]
	mov	[esp+4h],ecx
	add	dword ptr [ecx],1h
	mov	edx,[esp+4h]
	sub	eax,ebx
	mov	[esi+eax*4+0Ch],edx
	lea	eax,[esp+8h]
	push	eax
	lea	ecx,[esp+8h]
	push	ecx
	lea	edx,[esp+14h]
	push	edx
	push	edi
	call	6FC050h
	add	esp,10h
	test	eax,eax
	jnz	728B02h

l00728B3D:
	mov	eax,esi
	pop	esi
	add	esp,0Ch
	ret
00728B44             CC CC CC CC CC CC CC CC CC CC CC CC     ............

;; fn00728B50: 00728B50
;;   Called from:
;;     00728CCE (in fn00728BE0)
fn00728B50 proc
	mov	edx,[edi+18h]
	mov	ecx,[edx]
	mov	eax,[ecx+1Ch]
	push	esi
	xor	esi,esi
	cmp	eax,2h
	jz	728B65h

l00728B60:
	mov	esi,2h

l00728B65:
	test	eax,eax
	jnz	728B82h

l00728B69:
	cmp	[ecx+20h],eax
	jnz	728B71h

l00728B6E:
	or	esi,1h

l00728B71:
	mov	eax,[ecx+24h]
	test	al,1h
	jz	728B7Bh

l00728B78:
	or	esi,10h

l00728B7B:
	test	al,8h
	jz	728B82h

l00728B7F:
	or	esi,20h

l00728B82:
	mov	ecx,[ecx+24h]
	test	cl,10h
	jz	728B8Dh

l00728B8A:
	or	esi,4h

l00728B8D:
	test	cl,20h
	jz	728B95h

l00728B92:
	or	esi,8h

l00728B95:
	test	cl,8h
	jz	728B9Dh

l00728B9A:
	or	esi,20h

l00728B9D:
	mov	eax,[edi+0Ch]
	mov	ecx,[eax]
	mov	edx,[edx+18h]
	and	ecx,0E000h
	push	edx
	or	esi,ecx
	call	6FCF20h
	add	esp,4h
	test	eax,eax
	jge	728BBFh

l00728BBA:
	or	eax,0FFh
	pop	esi
	ret

l00728BBF:
	jnz	728BD9h

l00728BC1:
	mov	eax,[edi+18h]
	mov	ecx,[eax+14h]
	push	ecx
	call	6FCF20h
	add	esp,4h
	test	eax,eax
	jl	728BBAh

l00728BD4:
	jnz	728BD9h

l00728BD6:
	or	esi,40h

l00728BD9:
	mov	eax,esi
	pop	esi
	ret
00728BDD                                        CC CC CC              ...

;; fn00728BE0: 00728BE0
;;   Called from:
;;     0072A4B7 (in fn0072A350)
fn00728BE0 proc
	sub	esp,24h
	mov	eax,[esi+18h]
	push	ebx
	push	ebp
	xor	ebp,ebp
	push	edi
	mov	edi,[eax+8h]
	xor	ebx,ebx
	mov	[esp+18h],ebp
	mov	[esp+1Ch],ebp
	mov	[esp+20h],ebp
	mov	[esp+24h],ebp
	call	728AC0h
	mov	edi,eax
	cmp	edi,ebp
	jz	728E2Fh

l00728C0F:
	push	edi
	call	7035C0h
	add	esp,4h
	add	dword ptr [edi],0FFh
	mov	ebp,eax
	jnz	728C2Bh

l00728C1F:
	mov	ecx,[edi+4h]
	mov	edx,[ecx+18h]
	push	edi
	call	edx
	add	esp,4h

l00728C2B:
	mov	eax,[esi+18h]
	mov	edi,[eax+0Ch]
	xor	ebx,ebx
	call	728AC0h
	mov	ecx,[esi+18h]
	mov	edi,[ecx+10h]
	mov	[esp+14h],eax
	call	728AC0h
	test	ebp,ebp
	mov	edi,eax
	mov	[esp+10h],edi
	jz	728D96h

l00728C55:
	cmp	[esp+14h],ebx
	jz	728D80h

l00728C5F:
	test	edi,edi
	jz	728D80h

l00728C67:
	mov	edx,[esi+18h]
	mov	edi,[edx+14h]
	call	728AC0h
	mov	ebx,eax
	test	ebx,ebx
	mov	[esp+0Ch],ebx
	jz	728D7Ch

l00728C80:
	push	ebx
	call	6DFE20h
	mov	ecx,[esi+18h]
	mov	edi,[ecx+18h]
	add	esp,4h
	mov	ebx,eax
	call	728AC0h
	test	eax,eax
	mov	[esp+20h],eax
	jz	728D78h

l00728CA2:
	mov	edx,[esi]
	push	edx
	call	6ECAC0h
	add	esp,4h
	test	eax,eax
	mov	[esp+1Ch],eax
	jz	728D78h

l00728CB9:
	mov	eax,[esi+18h]
	mov	ecx,[eax+10h]
	push	ecx
	call	6FCF20h
	add	esp,4h
	mov	edi,esi
	mov	[esp+2Ch],eax
	call	728B50h
	test	eax,eax
	mov	[esp+28h],eax
	jl	728D78h

l00728CDF:
	mov	edx,[esp+14h]
	mov	ebx,[esp+34h]
	mov	eax,[ebx]
	push	edx
	push	ebp
	push	eax
	mov	eax,[ebx+10h]
	call	726930h
	add	esp,0Ch
	test	eax,eax
	mov	[esp+24h],eax
	jz	728D78h

l00728CFF:
	push	ebp
	call	6F4F00h
	mov	edi,eax
	add	esp,4h
	test	edi,edi
	jz	728D78h

l00728D0E:
	add	dword ptr [ebp+0h],0FFh
	jnz	728D20h

l00728D14:
	mov	ecx,[ebp+4h]
	mov	edx,[ecx+18h]
	push	ebp
	call	edx
	add	esp,4h

l00728D20:
	mov	eax,[esi+18h]
	mov	edx,[eax+0D4h]
	mov	ecx,[ebx+10h]
	mov	eax,[eax+4h]
	push	ecx
	mov	ecx,[esp+20h]
	push	edx
	mov	edx,[esp+14h]
	push	eax
	mov	eax,[esp+2Ch]
	push	ecx
	mov	ecx,[esp+20h]
	push	edx
	mov	edx,[esp+28h]
	push	eax
	mov	eax,[esp+3Ch]
	push	ecx
	mov	ecx,[esp+44h]
	push	edx
	push	edi
	push	eax
	mov	ebp,edi
	push	ecx
	mov	edi,esi
	call	728610h
	mov	edx,[esp+58h]
	push	eax
	mov	eax,[esi+18h]
	mov	ecx,[eax+20h]
	push	edx
	push	ecx
	call	734BB0h
	add	esp,38h
	mov	[esp+18h],eax

l00728D78:
	mov	ebx,[esp+0Ch]

l00728D7C:
	mov	edi,[esp+10h]

l00728D80:
	test	ebp,ebp
	jz	728D96h

l00728D84:
	add	dword ptr [ebp+0h],0FFh
	jnz	728D96h

l00728D8A:
	mov	edx,[ebp+4h]
	mov	eax,[edx+18h]
	push	ebp
	call	eax
	add	esp,4h

l00728D96:
	mov	eax,[esp+14h]
	test	eax,eax
	jz	728DAFh

l00728D9E:
	add	dword ptr [eax],0FFh
	jnz	728DAFh

l00728DA3:
	mov	ecx,[eax+4h]
	mov	edx,[ecx+18h]
	push	eax
	call	edx
	add	esp,4h

l00728DAF:
	test	edi,edi
	jz	728DC4h

l00728DB3:
	add	dword ptr [edi],0FFh
	jnz	728DC4h

l00728DB8:
	mov	eax,[edi+4h]
	mov	ecx,[eax+18h]
	push	edi
	call	ecx
	add	esp,4h

l00728DC4:
	mov	eax,[esp+1Ch]
	test	eax,eax
	jz	728DDDh

l00728DCC:
	add	dword ptr [eax],0FFh
	jnz	728DDDh

l00728DD1:
	mov	edx,[eax+4h]
	push	eax
	mov	eax,[edx+18h]
	call	eax
	add	esp,4h

l00728DDD:
	mov	eax,[esp+20h]
	test	eax,eax
	jz	728DF6h

l00728DE5:
	add	dword ptr [eax],0FFh
	jnz	728DF6h

l00728DEA:
	mov	ecx,[eax+4h]
	mov	edx,[ecx+18h]
	push	eax
	call	edx
	add	esp,4h

l00728DF6:
	test	ebx,ebx
	jz	728E0Bh

l00728DFA:
	add	dword ptr [ebx],0FFh
	jnz	728E0Bh

l00728DFF:
	mov	eax,[ebx+4h]
	mov	ecx,[eax+18h]
	push	ebx
	call	ecx
	add	esp,4h

l00728E0B:
	mov	eax,[esp+24h]
	test	eax,eax
	jz	728E24h

l00728E13:
	add	dword ptr [eax],0FFh
	jnz	728E24h

l00728E18:
	mov	edx,[eax+4h]
	push	eax
	mov	eax,[edx+18h]
	call	eax
	add	esp,4h

l00728E24:
	mov	eax,[esp+18h]
	pop	edi
	pop	ebp
	pop	ebx
	add	esp,24h
	ret

l00728E2F:
	pop	edi
	mov	eax,ebp
	pop	ebp
	pop	ebx
	add	esp,24h
	ret
00728E38                         CC CC CC CC CC CC CC CC         ........

;; fn00728E40: 00728E40
;;   Called from:
;;     0072A650 (in fn0072A5D0)
;;     0072B2CC (in fn0072B360)
;;     0072C1E3 (in fn0072C160)
;;     0072C5B5 (in fn0072C510)
;;     0072E69B (in fn0072E660)
fn00728E40 proc
	push	ebx
	push	ebp
	push	esi
	push	edi
	push	0E0h
	mov	ebx,eax
	mov	edi,ecx
	call	723860h
	mov	esi,eax
	xor	ebp,ebp
	add	esp,4h
	cmp	esi,ebp
	jnz	728E69h

l00728E5D:
	call	6E1210h
	pop	edi
	pop	esi
	pop	ebp
	xor	eax,eax
	pop	ebx
	ret

l00728E69:
	push	0E0h
	push	ebp
	push	esi
	call	695020h
	mov	eax,[esp+20h]
	mov	[esi+20h],ebp
	mov	ecx,[edi+4h]
	push	eax
	push	ecx
	call	747580h
	add	esp,14h
	cmp	eax,ebp
	mov	[esi],eax
	jz	728FA3h

l00728E93:
	add	dword ptr [ebx],1h
	mov	edx,[esi]
	mov	[esi+4h],ebx
	mov	eax,[edx+14h]
	push	eax
	call	726260h
	mov	ecx,[esi]
	push	ebp
	push	ebp
	mov	[esi+10h],eax
	mov	edx,[ecx+0Ch]
	push	5h
	push	edx
	call	726340h
	add	esp,14h
	cmp	[esi+10h],ebp
	mov	[esi+14h],eax
	jz	728FA3h

l00728EC5:
	cmp	eax,ebp
	jz	728FA3h

l00728ECD:
	push	eax
	call	6FCF20h
	push	eax
	mov	eax,[esi]
	mov	ecx,[eax+0Ch]
	push	200h
	push	4h
	push	ecx
	call	726340h
	add	esp,14h
	cmp	eax,ebp
	mov	[esi+18h],eax
	jz	728FA3h

l00728EF4:
	mov	edx,[esp+18h]
	mov	[esi+24h],ebp
	mov	[esi+2Ch],ebp
	mov	[esi+30h],ebp
	mov	[esi+0D4h],edx
	mov	[esi+0D8h],ebp
	mov	[esi+0DCh],ebp
	call	6FDCC0h
	cmp	eax,ebp
	mov	[esi+8h],eax
	jz	728FA3h

l00728F23:
	call	6FDCC0h
	cmp	eax,ebp
	mov	[esi+0Ch],eax
	jz	728FA3h

l00728F2F:
	mov	[esi+1Ch],ebp
	mov	eax,[edi+18h]
	cmp	eax,ebp
	jz	728F7Bh

l00728F39:
	push	ebp
	push	eax
	call	72E920h
	mov	ebx,eax
	add	esp,8h
	cmp	ebx,ebp
	jz	728FA3h

l00728F49:
	mov	eax,[edi+1Ch]
	push	ebx
	push	eax
	call	6F2A10h
	add	esp,8h
	test	eax,eax
	jl	728F92h

l00728F5A:
	add	dword ptr [ebx],0FFh
	jnz	728F6Bh

l00728F5F:
	mov	ecx,[ebx+4h]
	mov	edx,[ecx+18h]
	push	ebx
	call	edx
	add	esp,4h

l00728F6B:
	mov	eax,[edi+18h]
	mov	eax,[eax+1Ch]
	cmp	eax,ebp
	mov	[esi+1Ch],eax
	jz	728F7Bh

l00728F78:
	add	dword ptr [eax],1h

l00728F7B:
	add	dword ptr [edi+14h],1h
	mov	[edi+18h],esi
	call	727380h
	pop	edi
	neg	eax
	pop	esi
	sbb	eax,eax
	pop	ebp
	neg	eax
	pop	ebx
	ret

l00728F92:
	add	dword ptr [ebx],0FFh
	jnz	728FA3h

l00728F97:
	mov	ecx,[ebx+4h]
	mov	edx,[ecx+18h]
	push	ebx
	call	edx
	add	esp,4h

l00728FA3:
	call	727170h
	pop	edi
	pop	esi
	pop	ebp
	xor	eax,eax
	pop	ebx
	ret
00728FAF                                              CC                .

;; fn00728FB0: 00728FB0
;;   Called from:
;;     0072B540 (in fn0072B360)
;;     0072B5A4 (in fn0072B360)
;;     0072B5BE (in fn0072B360)
;;     0072BE2C (in fn0072BDC0)
;;     0072D8C0 (in fn0072D830)
;;     0072D9BB (in fn0072D920)
;;     0072DC13 (in fn0072D920)
;;     0072DED0 (in fn0072DD60)
;;     0072E02A (in fn0072DD60)
;;     0072E3C3 (in fn0072DD60)
fn00728FB0 proc
	push	eax
	mov	eax,[esp+10h]
	call	7276E0h
	add	esp,4h
	test	eax,eax
	jge	728FC4h

l00728FC1:
	xor	eax,eax
	ret

l00728FC4:
	mov	ecx,[esp+8h]
	push	eax
	mov	eax,[esp+8h]
	push	ecx
	call	727810h
	add	esp,8h
	ret
00728FD7                      CC CC CC CC CC CC CC CC CC        .........

;; fn00728FE0: 00728FE0
;;   Called from:
;;     0072AA0D (in fn0072A940)
;;     0072ADC8 (in fn0072AC20)
;;     0072AE18 (in fn0072AC20)
;;     0072B61E (in fn0072B360)
;;     0072B64D (in fn0072B360)
;;     0072B668 (in fn0072B360)
fn00728FE0 proc
	mov	ecx,[ebx+18h]
	mov	edx,[ecx+1Ch]
	push	esi
	push	eax
	push	edx
	call	726150h
	mov	esi,eax
	add	esp,8h
	test	esi,esi
	jnz	728FF9h

l00728FF7:
	pop	esi
	ret

l00728FF9:
	mov	eax,[esp+0Ch]
	push	edi
	push	eax
	mov	eax,esi
	call	7276E0h
	add	esp,4h
	add	dword ptr [esi],0FFh
	mov	edi,eax
	jnz	72901Ch

l00729010:
	mov	ecx,[esi+4h]
	mov	edx,[ecx+18h]
	push	esi
	call	edx
	add	esp,4h

l0072901C:
	test	edi,edi
	jge	729025h

l00729020:
	pop	edi
	xor	eax,eax
	pop	esi
	ret

l00729025:
	mov	eax,[esp+0Ch]
	push	edi
	push	eax
	mov	eax,ebx
	call	727810h
	add	esp,8h
	pop	edi
	pop	esi
	ret
00729038                         CC CC CC CC CC CC CC CC         ........

;; fn00729040: 00729040
;;   Called from:
;;     0072A715 (in fn0072A5D0)
;;     0072B303 (in fn0072B360)
;;     0072C30C (in fn0072C160)
;;     0072C7E9 (in fn0072C510)
fn00729040 proc
	sub	esp,10h
	push	esi
	push	edi
	mov	edi,[esp+1Ch]
	mov	esi,eax
	mov	eax,[edi+28h]
	mov	eax,[eax+8h]
	test	eax,eax
	mov	[esp+10h],eax
	jnz	7290A7h

l00729059:
	mov	ecx,[esi+18h]
	mov	eax,[ecx+8h]
	push	eax
	mov	eax,edi
	call	7276E0h
	add	esp,4h
	test	eax,eax
	jl	72907Fh

l0072906E:
	push	eax
	push	64h
	mov	eax,esi
	call	727810h
	add	esp,8h
	test	eax,eax
	jnz	729087h

l0072907F:
	pop	edi
	xor	eax,eax
	pop	esi
	add	esp,10h
	ret

l00729087:
	mov	edx,[esp+20h]
	push	edx
	push	84h
	mov	eax,esi
	call	727810h
	add	esp,8h
	neg	eax
	sbb	eax,eax
	pop	edi
	neg	eax
	pop	esi
	add	esp,10h
	ret

l007290A7:
	test	eax,eax
	push	ebx
	push	ebp
	mov	dword ptr [esp+14h],0h
	jle	7291ECh

l007290B9:
	mov	dword ptr [esp+10h],0Ch

l007290C1:
	mov	eax,[edi+28h]
	mov	ecx,[esp+10h]
	mov	edi,[ecx+eax]
	mov	ecx,edi
	call	727910h
	cmp	eax,5h
	mov	[esp+1Ch],eax
	jnz	729117h

l007290DB:
	mov	eax,[edi+4h]
	mov	edx,[esi+18h]
	mov	ebp,[edx+14h]
	push	eax
	push	edi
	push	2h
	call	6DFF80h
	mov	ebx,eax
	add	esp,0Ch
	test	ebx,ebx
	jnz	7290FBh

l007290F6:
	or	ebx,0FFh
	jmp	729165h

l007290FB:
	push	ebx
	push	ebp
	call	6FBCC0h
	add	esp,8h
	add	dword ptr [ebx],0FFh
	mov	ebp,eax
	jnz	729154h

l0072910C:
	mov	ecx,[ebx+4h]
	mov	edx,[ecx+18h]
	push	ebx
	call	edx
	jmp	729151h

l00729117:
	mov	ecx,[edi+4h]
	mov	eax,[esi+18h]
	mov	ebp,[eax+18h]
	push	ecx
	push	edi
	push	2h
	call	6DFF80h
	mov	ebx,eax
	add	esp,0Ch
	test	ebx,ebx
	jnz	729137h

l00729132:
	or	ebx,0FFh
	jmp	729165h

l00729137:
	push	ebx
	push	ebp
	call	6FBCC0h
	add	esp,8h
	add	dword ptr [ebx],0FFh
	mov	ebp,eax
	jnz	729154h

l00729148:
	mov	edx,[ebx+4h]
	mov	eax,[edx+18h]
	push	ebx
	call	eax

l00729151:
	add	esp,4h

l00729154:
	test	ebp,ebp
	jnz	72915Dh

l00729158:
	or	ebx,0FFh
	jmp	729165h

l0072915D:
	mov	ebx,[ebp+8h]
	cmp	ebx,0FFh
	jnz	7291B6h

l00729165:
	mov	ebp,[esp+24h]
	mov	ecx,[ebp+28h]
	push	ecx
	call	6DDDB0h
	mov	edx,[ebp+34h]
	mov	ecx,[esi+18h]
	add	esp,4h
	add	eax,14h
	push	eax
	mov	eax,[esp+20h]
	add	edx,14h
	push	edx
	mov	edx,[ecx+4h]
	push	0FFh
	push	eax
	add	edx,14h
	push	edx
	push	edi
	call	6DDDB0h
	add	esp,4h
	add	eax,14h
	push	eax
	push	8DA794h
	call	dword ptr [8A4664h]
	push	8DA77Ch
	call	6E86F0h
	add	esp,20h

l007291B6:
	push	ebx
	push	87h
	mov	eax,esi
	call	727810h
	add	esp,8h
	test	eax,eax
	jz	729223h

l007291CA:
	mov	eax,[esp+14h]
	add	dword ptr [esp+10h],4h
	mov	edi,[esp+24h]
	add	eax,1h
	cmp	eax,[esp+18h]
	mov	[esp+14h],eax
	jl	7290C1h

l007291E8:
	mov	eax,[esp+18h]

l007291EC:
	push	eax
	push	66h
	mov	eax,esi
	call	727810h
	add	esp,8h
	test	eax,eax
	jz	729223h

l007291FD:
	mov	eax,[esi+18h]
	mov	eax,[eax+8h]
	push	eax
	mov	eax,edi
	call	7276E0h
	add	esp,4h
	test	eax,eax
	jl	729223h

l00729212:
	push	eax
	push	64h
	mov	eax,esi
	call	727810h
	add	esp,8h
	test	eax,eax
	jnz	72922Dh

l00729223:
	pop	ebp
	pop	ebx
	pop	edi
	xor	eax,eax
	pop	esi
	add	esp,10h
	ret

l0072922D:
	mov	ecx,[esp+28h]
	push	ecx
	push	86h
	mov	eax,esi
	call	727810h
	add	esp,8h
	pop	ebp
	neg	eax
	pop	ebx
	sbb	eax,eax
	pop	edi
	neg	eax
	pop	esi
	add	esp,10h
	ret
0072924F                                              CC                .

l00729250:
	push	edi
	mov	edi,[eax+18h]
	cmp	dword ptr [edi+30h],0h
	jnz	729269h

l0072925A:
	push	8DA59Ch
	call	728360h
	add	esp,4h
	pop	edi
	ret

l00729269:
	mov	edx,edi
	mov	ecx,[edx+30h]
	mov	edx,[edx+ecx*8+2Ch]
	sub	ecx,1h
	cmp	edx,3h
	push	esi
	ja	7292E8h

l0072927B:
	jmp	dword ptr [7292F0h+edx*4]

l00729282:
	mov	ecx,[edi+ecx*8+38h]
	push	1h
	push	ecx
	push	71h
	jmp	7292D9h

l0072928D:
	sub	ecx,1h
	js	7292ABh

l00729292:
	lea	edx,[edi+ecx*8+34h]

l00729296:
	mov	esi,[edx]
	test	esi,esi
	jz	7292ABh

l0072929C:
	cmp	esi,3h
	jz	7292C0h

l007292A1:
	sub	ecx,1h
	sub	edx,8h
	test	ecx,ecx
	jge	729296h

l007292AB:
	cmp	ecx,0FFh
	jnz	7292D0h

l007292B0:
	push	8DA59Ch
	call	728360h
	add	esp,4h
	pop	esi
	pop	edi
	ret

l007292C0:
	push	8DA5BCh
	call	728360h
	add	esp,4h
	pop	esi
	pop	edi
	ret

l007292D0:
	mov	edx,[edi+ecx*8+38h]
	push	1h
	push	edx
	push	77h

l007292D9:
	call	727880h
	add	esp,0Ch
	test	eax,eax
	jnz	7292E8h

l007292E5:
	pop	esi
	pop	edi
	ret

l007292E8:
	pop	esi
	mov	eax,1h
	pop	edi
	ret
l007292F0	dd	0x00729282
l007292F4	dd	0x0072928D
l007292F8	dd	0x0072928D
l007292FC	dd	0x007292C0

;; fn00729300: 00729300
;;   Called from:
;;     0072DB6E (in fn0072D920)
fn00729300 proc
	push	ecx
	push	ebx
	push	esi
	push	edi
	mov	edi,eax
	mov	esi,[edi+18h]
	push	20h
	call	723860h
	add	esp,4h
	test	eax,eax
	jnz	729320h

l00729317:
	call	6E1210h
	xor	ebx,ebx
	jmp	729343h

l00729320:
	xor	ecx,ecx
	mov	[eax],ecx
	mov	[eax+4h],ecx
	mov	[eax+8h],ecx
	mov	[eax+0Ch],ecx
	mov	[eax+10h],ecx
	mov	[eax+14h],ecx
	mov	[eax+18h],ecx
	mov	[eax+1Ch],ecx
	mov	ecx,[esi+24h]
	mov	[eax],ecx
	mov	[esi+24h],eax
	mov	ebx,eax

l00729343:
	mov	esi,[edi+18h]
	push	20h
	call	723860h
	add	esp,4h
	test	eax,eax
	jnz	72935Dh

l00729354:
	call	6E1210h
	xor	eax,eax
	jmp	72937Eh

l0072935D:
	xor	ecx,ecx
	mov	[eax],ecx
	mov	[eax+4h],ecx
	mov	[eax+8h],ecx
	mov	[eax+0Ch],ecx
	mov	[eax+10h],ecx
	mov	[eax+14h],ecx
	mov	[eax+18h],ecx
	mov	[eax+1Ch],ecx
	mov	edx,[esi+24h]
	mov	[eax],edx
	mov	[esi+24h],eax

l0072937E:
	test	ebx,ebx
	mov	[esp+0Ch],eax
	jz	72939Dh

l00729386:
	test	eax,eax
	jz	72939Dh

l0072938A:
	push	0h
	push	eax
	push	7Ah
	mov	eax,edi
	call	727880h
	add	esp,0Ch
	test	eax,eax
	jnz	7293A4h

l0072939D:
	pop	edi
	pop	esi
	xor	eax,eax
	pop	ebx
	pop	ecx
	ret

l007293A4:
	mov	eax,[edi+18h]
	mov	ecx,[eax+28h]
	mov	[ecx+10h],ebx
	mov	edx,[edi+18h]
	push	ebx
	push	2h
	mov	eax,edi
	mov	[edx+28h],ebx
	call	728310h
	add	esp,8h
	test	eax,eax
	jz	72939Dh

l007293C4:
	mov	eax,[esp+14h]
	push	ebp
	mov	ebp,[eax+4h]
	xor	ebx,ebx
	lea	esi,[ebp+4h]

l007293D1:
	test	ebp,ebp
	jnz	7293D9h

l007293D5:
	xor	eax,eax
	jmp	7293DCh

l007293D9:
	mov	eax,[ebp+0h]

l007293DC:
	cmp	ebx,eax
	jge	7293FCh

l007293E0:
	mov	eax,[esi]
	push	eax
	push	edi
	call	72D920h
	add	esp,8h
	test	eax,eax
	jz	7294EBh

l007293F4:
	add	ebx,1h
	add	esi,4h
	jmp	7293D1h

l007293FC:
	mov	ecx,[edi+18h]
	mov	esi,[ecx+28h]
	call	727420h
	test	eax,eax
	jl	7294EBh

l0072940F:
	mov	edx,[edi+18h]
	lea	ecx,[eax+eax*4]
	mov	eax,[edx+28h]
	mov	eax,[eax+0Ch]
	add	ecx,ecx
	add	ecx,ecx
	and	dword ptr [eax+ecx],0FBh
	add	eax,ecx
	mov	byte ptr [eax+4h],57h
	mov	edx,[edi+18h]
	cmp	dword ptr [edx+0DCh],0h
	jnz	729454h

l00729435:
	mov	eax,edx
	mov	dword ptr [eax+0DCh],1h
	mov	eax,[edi+18h]
	mov	edx,[eax+28h]
	mov	edx,[edx+0Ch]
	mov	eax,[eax+0D8h]
	mov	[edx+ecx+10h],eax

l00729454:
	mov	eax,[edi+18h]
	add	dword ptr [eax+30h],0FFh
	mov	ecx,[edi+18h]
	mov	eax,[ecx+8h]
	push	eax
	mov	eax,0A163B8h
	call	7276E0h
	add	esp,4h
	test	eax,eax
	jl	7294EBh

l00729473:
	push	eax
	push	64h
	mov	eax,edi
	call	727810h
	add	esp,8h
	test	eax,eax
	jz	7294EBh

l00729484:
	mov	edx,[edi+18h]
	mov	ecx,[edx+28h]
	mov	eax,[esp+10h]
	mov	[ecx+10h],eax
	mov	edx,[edi+18h]
	push	eax
	mov	[edx+28h],eax
	push	3h
	mov	eax,edi
	call	728310h
	add	esp,8h
	test	eax,eax
	jz	7294EBh

l007294A8:
	mov	eax,[esp+18h]
	mov	ebp,[eax+8h]
	xor	ebx,ebx
	lea	esi,[ebp+4h]

l007294B4:
	test	ebp,ebp
	jnz	7294BCh

l007294B8:
	xor	eax,eax
	jmp	7294BFh

l007294BC:
	mov	eax,[ebp+0h]

l007294BF:
	cmp	ebx,eax
	jge	7294DBh

l007294C3:
	mov	eax,[esi]
	push	eax
	push	edi
	call	72D920h
	add	esp,8h
	test	eax,eax
	jz	7294EBh

l007294D3:
	add	ebx,1h
	add	esi,4h
	jmp	7294B4h

l007294DB:
	mov	ebx,58h
	mov	eax,edi
	call	727670h
	test	eax,eax
	jnz	7294F3h

l007294EB:
	pop	ebp
	pop	edi
	pop	esi
	xor	eax,eax
	pop	ebx
	pop	ecx
	ret

l007294F3:
	mov	edi,[edi+18h]
	add	dword ptr [edi+30h],0FFh
	pop	ebp
	pop	edi
	pop	esi
	mov	eax,1h
	pop	ebx
	pop	ecx
	ret
00729505                CC CC CC CC CC CC CC CC CC CC CC      ...........

;; fn00729510: 00729510
;;   Called from:
;;     00729A9C (in fn00729810)
;;     0072A56C (in fn0072A520)
;;     0072B782 (in fn0072B360)
;;     0072B87D (in fn0072B830)
;;     0072C5F3 (in fn0072C510)
;;     0072E1FE (in fn0072DD60)
;;     0072E404 (in fn0072DD60)
fn00729510 proc
	push	ecx
	mov	eax,[ebx+18h]
	mov	ecx,[eax+0Ch]
	mov	[esp],ecx
	mov	ecx,[esp+0Ch]
	cmp	ecx,2h
	push	esi
	push	edi
	jz	72952Fh

l00729525:
	cmp	ecx,5h
	jz	72952Fh

l0072952A:
	cmp	ecx,3h
	jnz	729559h

l0072952F:
	mov	esi,[esp+10h]
	add	esi,14h
	mov	edi,8DA718h
	mov	ecx,0Ah
	xor	edx,edx

l00729542:
	rep cmpsb

l00729544:
	jnz	729559h

l00729546:
	push	8DA884h
	mov	eax,ebx
	call	728360h
	add	esp,4h
	pop	edi
	pop	esi
	pop	ecx
	ret

l00729559:
	mov	ecx,[esp+10h]
	mov	edx,[eax+1Ch]
	push	ecx
	push	edx
	call	726150h
	mov	edi,eax
	add	esp,8h
	test	edi,edi
	jnz	729574h

l00729570:
	pop	edi
	pop	esi
	pop	ecx
	ret

l00729574:
	mov	eax,[ebx+18h]
	mov	ecx,[eax]
	push	ebp
	push	edi
	push	ecx
	xor	ebp,ebp
	mov	esi,3h
	call	7475E0h
	add	eax,0FFh
	add	esp,8h
	cmp	eax,4h
	ja	7295DEh

l00729593:
	jmp	dword ptr [729794h+eax*4]

l0072959A:
	mov	edx,[ebx+18h]
	mov	eax,[edx+18h]
	mov	[esp+0Ch],eax
	mov	esi,2h
	jmp	7295DEh

l007295AB:
	mov	ecx,[ebx+18h]
	mov	edx,[ecx+14h]
	mov	[esp+0Ch],edx
	mov	esi,2h
	jmp	7295DEh

l007295BC:
	mov	eax,[ebx+18h]
	mov	ecx,[eax]
	cmp	[ecx+1Ch],ebp
	jnz	7295DEh

l007295C6:
	xor	esi,esi
	jmp	7295DEh

l007295CA:
	mov	edx,[ebx+18h]
	mov	eax,[edx]
	cmp	[eax+1Ch],ebp
	jnz	7295DEh

l007295D4:
	cmp	[eax+20h],ebp
	jnz	7295DEh

l007295D9:
	mov	esi,1h

l007295DE:
	jmp	dword ptr [7297A8h+esi*4]
007295E5                8B 44 24 18 83 C0 FF 83 F8 04 0F      .D$........
007295F0 87 86 00 00 00 FF 24 85 B8 97 72 00 BD 88 00 00 ......$...r.....
00729600 00 8B 54 24 0C 52 8B C7 E8 D3 E0 FF FF 83 C4 04 ..T$.R..........
00729610 83 07 FF 8B F0 75 0C 8B 47 04 8B 48 18 57 FF D1 .....u..G..H.W..
00729620 83 C4 04 85 F6 0F 8C 5F 01 00 00 56 55 8B C3 E8 ......._...VU...
00729630 DC E1 FF FF 83 C4 08 5D 5F 5E 59 C3 BD 89 00 00 .......]_^Y.....
00729640 00 EB BE 8B 44 24 14 8B 0D F4 78 A1 00 83 C0 14 ....D$....x.....
00729650 50 68 4C A8 8D 00 51 E8 74 7F FB FF 83 C4 0C 83 PhL...Q.t.......
00729660 07 FF 0F 85 22 01 00 00 8B 57 04 8B 42 18 57 FF ...."....W..B.W.
00729670 D0 83 C4 04 5D 5F 33 C0 5E 59 C3 68 28 A8 8D 00 ....]_3.^Y.h(...
00729680 E9 F6 00 00 00 8B 44 24 18 83 C0 FF 83 F8 04 77 ......D$.......w
00729690 4E FF 24 85 CC 97 72 00 BD 7C 00 00 00 EB 0C BD N.$...r..|......
007296A0 7D 00 00 00 EB 05 BD 7E 00 00 00 8B 53 18 8B 42 }......~....S..B
007296B0 10 57 55 53 E8 F7 F8 FF FF 83 C4 0C 85 C0 0F 84 .WUS............
007296C0 C6 00 00 00 83 07 FF 75 0C 8B 47 04 8B 48 18 57 .......u..G..H.W
007296D0 FF D1 83 C4 04 5D 5F B8 01 00 00 00 5E 59 C3 8B .....]_.....^Y..
007296E0 15 20 87 A1 00 68 04 A8 8D 00 52 E8 90 78 FB FF . ...h....R..x..
007296F0 83 C4 08 5D 5F 33 C0 5E 59 C3 8B 44 24 18 83 C0 ...]_3.^Y..D$...
00729700 FF 83 F8 04 77 25 FF 24 85 E0 97 72 00 BD 74 00 ....w%.$...r..t.
00729710 00 00 E9 EA FE FF FF BD 61 00 00 00 E9 E0 FE FF ........a.......
00729720 FF BD 62 00 00 00 E9 D6 FE FF FF A1 20 87 A1 00 ..b......... ...
00729730 68 E0 A7 8D 00 50 E8 45 78 FB FF 83 C4 08 5D 5F h....P.Ex.....]_
00729740 33 C0 5E 59 C3 8B 44 24 18 83 C0 FF 83 F8 04 77 3.^Y..D$.......w
00729750 25 FF 24 85 F4 97 72 00 BD 65 00 00 00 E9 9F FE %.$...r..e......
00729760 FF FF BD 5A 00 00 00 E9 95 FE FF FF BD 5B 00 00 ...Z.........[..
00729770 00 E9 8B FE FF FF 68 C0 A7 8D 00 8B 0D 20 87 A1 ......h...... ..
00729780 00 51 E8 F9 77 FB FF 83 C4 08 5D 5F 33 C0 5E 59 .Q..w.....]_3.^Y
00729790 C3 8D 49 00                                     ..I.           
l00729794	dd	0x007295BC
l00729798	dd	0x007295D9
l0072979C	dd	0x007295CA
l007297A0	dd	0x0072959A
l007297A4	dd	0x007295AB
007297A8                         85 96 72 00 FA 96 72 00         ..r...r.
007297B0 E5 95 72 00 45 97 72 00 FC 95 72 00 3C 96 72 00 ..r.E.r...r.<.r.
007297C0 43 96 72 00 01 96 72 00 01 96 72 00 98 96 72 00 C.r...r...r...r.
007297D0 9F 96 72 00 A6 96 72 00 AB 96 72 00 AB 96 72 00 ..r...r...r...r.
007297E0 0D 97 72 00 17 97 72 00 21 97 72 00 01 96 72 00 ..r...r.!.r...r.
007297F0 01 96 72 00 58 97 72 00 62 97 72 00 6C 97 72 00 ..r.X.r.b.r.l.r.
00729800 01 96 72 00 01 96 72 00 CC CC CC CC CC CC CC CC ..r...r.........

;; fn00729810: 00729810
;;   Called from:
;;     00729A7D (in fn00729810)
;;     00729EF3 (in fn00729D20)
fn00729810 proc
	sub	esp,14h
	push	ebx
	push	ebp
	mov	ebp,[esp+20h]
	push	esi
	mov	esi,[ebp+18h]
	push	edi
	push	20h
	call	723860h
	xor	edi,edi
	add	esp,4h
	cmp	eax,edi
	jnz	729839h

l0072982E:
	call	6E1210h
	mov	[esp+10h],edi
	jmp	72985Eh

l00729839:
	xor	ecx,ecx
	mov	[eax],ecx
	mov	[eax+4h],ecx
	mov	[eax+8h],ecx
	mov	[eax+0Ch],ecx
	mov	[eax+10h],ecx
	mov	[eax+14h],ecx
	mov	[eax+18h],ecx
	mov	[eax+1Ch],ecx
	mov	ecx,[esi+24h]
	mov	[eax],ecx
	mov	[esi+24h],eax
	mov	[esp+10h],eax

l0072985E:
	mov	esi,[ebp+18h]
	push	20h
	call	723860h
	add	esp,4h
	cmp	eax,edi
	jnz	72987Ah

l0072986F:
	call	6E1210h
	mov	[esp+14h],edi
	jmp	72989Fh

l0072987A:
	xor	ecx,ecx
	mov	[eax],ecx
	mov	[eax+4h],ecx
	mov	[eax+8h],ecx
	mov	[eax+0Ch],ecx
	mov	[eax+10h],ecx
	mov	[eax+14h],ecx
	mov	[eax+18h],ecx
	mov	[eax+1Ch],ecx
	mov	edx,[esi+24h]
	mov	[eax],edx
	mov	[esi+24h],eax
	mov	[esp+14h],eax

l0072989F:
	mov	esi,[ebp+18h]
	push	20h
	call	723860h
	add	esp,4h
	cmp	eax,edi
	jnz	7298BDh

l007298B0:
	call	6E1210h
	xor	ebx,ebx
	mov	[esp+18h],ebx
	jmp	7298E4h

l007298BD:
	xor	ecx,ecx
	mov	[eax],ecx
	mov	[eax+4h],ecx
	mov	[eax+8h],ecx
	mov	[eax+0Ch],ecx
	mov	[eax+10h],ecx
	mov	[eax+14h],ecx
	mov	[eax+18h],ecx
	mov	[eax+1Ch],ecx
	mov	ecx,[esi+24h]
	mov	[eax],ecx
	mov	[esi+24h],eax
	mov	ebx,eax
	mov	[esp+18h],eax

l007298E4:
	mov	esi,[ebp+18h]
	push	20h
	call	723860h
	add	esp,4h
	cmp	eax,edi
	jnz	729902h

l007298F5:
	call	6E1210h
	xor	edi,edi
	mov	[esp+1Ch],edi
	jmp	729929h

l00729902:
	xor	ecx,ecx
	mov	[eax],ecx
	mov	[eax+4h],ecx
	mov	[eax+8h],ecx
	mov	[eax+0Ch],ecx
	mov	[eax+10h],ecx
	mov	[eax+14h],ecx
	mov	[eax+18h],ecx
	mov	[eax+1Ch],ecx
	mov	edx,[esi+24h]
	mov	[eax],edx
	mov	[esi+24h],eax
	mov	edi,eax
	mov	[esp+1Ch],eax

l00729929:
	cmp	dword ptr [esp+10h],0h
	jz	729C62h

l00729934:
	cmp	dword ptr [esp+14h],0h
	jz	729C62h

l0072993F:
	test	ebx,ebx
	jz	729C62h

l00729947:
	test	edi,edi
	jz	729C62h

l0072994F:
	mov	eax,[esp+30h]
	mov	ecx,[esp+34h]
	mov	esi,[eax+ecx*4+4h]
	mov	edx,[esi+4h]
	push	edx
	push	ebp
	mov	[esp+28h],esi
	call	72B360h
	add	esp,8h
	test	eax,eax
	jz	729C62h

l00729974:
	mov	ebx,44h
	mov	eax,ebp
	call	727670h
	test	eax,eax
	jz	729C62h

l00729988:
	mov	eax,[ebp+18h]
	mov	ecx,[eax+28h]
	mov	eax,[esp+10h]
	mov	[ecx+10h],eax
	mov	edx,[ebp+18h]
	push	0h
	mov	[edx+28h],eax
	push	edi
	push	5Dh
	mov	eax,ebp
	call	727880h
	add	esp,0Ch
	test	eax,eax
	jz	729C62h

l007299B2:
	mov	edi,ebp
	call	7273D0h
	test	eax,eax
	jz	729C62h

l007299C1:
	mov	eax,[esi]
	push	eax
	push	ebp
	call	72B360h
	add	esp,8h
	test	eax,eax
	jz	729C62h

l007299D5:
	mov	esi,[esi+8h]
	test	esi,esi
	jnz	7299E2h

l007299DC:
	mov	[esp+28h],esi
	jmp	7299E8h

l007299E2:
	mov	ecx,[esi]
	mov	[esp+28h],ecx

l007299E8:
	xor	esi,esi
	cmp	[esp+28h],esi
	jle	729A53h

l007299F0:
	mov	edx,[esp+20h]
	mov	eax,[edx+8h]
	mov	eax,[eax+esi*4+4h]
	push	eax
	push	ebp
	call	72B360h
	add	esp,8h
	test	eax,eax
	jz	729C62h

l00729A0D:
	mov	ecx,[esp+18h]
	push	0h
	push	ecx
	push	6Fh
	mov	eax,ebp
	call	727880h
	add	esp,0Ch
	test	eax,eax
	jz	729C62h

l00729A28:
	mov	edi,ebp
	call	7273D0h
	test	eax,eax
	jz	729C62h

l00729A37:
	mov	ebx,1h
	mov	eax,ebp
	call	727670h
	test	eax,eax
	jz	729C62h

l00729A4B:
	add	esi,ebx
	cmp	esi,[esp+28h]
	jl	7299F0h

l00729A53:
	mov	ebx,[esp+30h]
	test	ebx,ebx
	jnz	729A5Fh

l00729A5B:
	xor	eax,eax
	jmp	729A61h

l00729A5F:
	mov	eax,[ebx]

l00729A61:
	mov	esi,[esp+34h]
	mov	edi,[esp+2Ch]
	add	esi,1h
	cmp	esi,eax
	mov	[esp+34h],esi
	jge	729A8Dh

l00729A74:
	mov	edx,[esp+38h]
	push	edx
	push	esi
	push	ebx
	push	edi
	push	ebp
	call	729810h
	add	esp,14h
	test	eax,eax
	jz	729C62h

l00729A8D:
	test	ebx,ebx
	jz	729A93h

l00729A91:
	mov	ebx,[ebx]

l00729A93:
	cmp	esi,ebx
	jl	729AE9h

l00729A97:
	push	1h
	push	edi
	mov	ebx,ebp
	call	729510h
	add	esp,8h
	test	eax,eax
	jz	729C62h

l00729AAC:
	mov	eax,[esp+38h]
	push	eax
	push	ebp
	call	72B360h
	add	esp,8h
	test	eax,eax
	jz	729C62h

l00729AC2:
	mov	ebx,12h
	mov	eax,ebp
	call	727670h
	test	eax,eax
	jz	729C62h

l00729AD6:
	mov	ecx,[ebp+18h]
	mov	edx,[ecx+28h]
	mov	eax,[esp+14h]
	mov	[edx+10h],eax
	mov	ecx,[ebp+18h]
	mov	[ecx+28h],eax

l00729AE9:
	xor	edi,edi
	cmp	[esp+28h],edi
	jle	729B3Eh

l00729AF1:
	push	1h
	push	6Eh
	mov	eax,ebp
	call	727810h
	add	esp,8h
	test	eax,eax
	jz	729C62h

l00729B07:
	test	edi,edi
	jnz	729B1Eh

l00729B0B:
	mov	edx,[ebp+18h]
	mov	ecx,[edx+28h]
	mov	eax,[esp+18h]
	mov	[ecx+10h],eax
	mov	edx,[ebp+18h]
	mov	[edx+28h],eax

l00729B1E:
	mov	ebx,1h
	mov	eax,ebp
	call	727670h
	test	eax,eax
	jz	729C62h

l00729B32:
	add	edi,ebx
	cmp	edi,[esp+28h]
	jl	729AF1h

l00729B3A:
	mov	esi,[esp+34h]

l00729B3E:
	mov	eax,[esp+10h]
	push	1h
	push	eax
	push	71h
	mov	eax,ebp
	call	727880h
	add	esp,0Ch
	test	eax,eax
	jz	729C62h

l00729B59:
	cmp	esi,1h
	mov	ecx,[ebp+18h]
	mov	edx,[ecx+28h]
	mov	eax,[esp+1Ch]
	mov	[edx+10h],eax
	mov	ecx,[ebp+18h]
	mov	[ecx+28h],eax
	jnz	729CE2h

l00729B75:
	mov	eax,[ebp+18h]
	mov	edx,[eax+0Ch]
	mov	[esp+28h],edx
	mov	edx,[esp+2Ch]
	lea	esi,[edx+14h]
	mov	edi,8DA718h
	mov	ecx,0Ah
	xor	ebx,ebx
	mov	[esp+20h],esi

l00729B96:
	rep cmpsb

l00729B98:
	jnz	729BAEh

l00729B9A:
	push	8DA884h
	mov	eax,ebp
	call	728360h
	add	esp,4h
	jmp	729CDEh

l00729BAE:
	mov	eax,[eax+1Ch]
	push	edx
	push	eax
	call	726150h
	mov	esi,eax
	add	esp,8h
	test	esi,esi
	jz	729C62h

l00729BC5:
	mov	ecx,[ebp+18h]
	mov	edx,[ecx]
	push	esi
	push	edx
	xor	ebx,ebx
	mov	edi,3h
	call	7475E0h
	add	eax,0FFh
	add	esp,8h
	cmp	eax,4h
	ja	729C31h

l00729BE3:
	jmp	dword ptr [729CF0h+eax*4]

l00729BEA:
	mov	eax,[ebp+18h]
	mov	ecx,[eax+18h]
	mov	[esp+28h],ecx
	mov	edi,2h
	jmp	729C31h

l00729BFB:
	mov	edx,[ebp+18h]
	mov	eax,[edx+14h]
	mov	[esp+28h],eax
	mov	edi,2h
	jmp	729C31h

l00729C0C:
	mov	ecx,[ebp+18h]
	mov	edx,[ecx]
	cmp	dword ptr [edx+1Ch],0h
	jnz	729C31h

l00729C17:
	xor	edi,edi
	jmp	729C31h

l00729C1B:
	mov	eax,[ebp+18h]
	mov	eax,[eax]
	cmp	dword ptr [eax+1Ch],0h
	jnz	729C31h

l00729C26:
	cmp	dword ptr [eax+20h],0h
	jnz	729C31h

l00729C2C:
	mov	edi,1h

l00729C31:
	jmp	dword ptr [729D04h+edi*4]
00729C38                         8B 4C 24 20 8B 15 F4 78         .L$ ...x
00729C40 A1 00 51 68 4C A8 8D 00 52 E8 82 79 FB FF 83 C4 ..QhL...R..y....
00729C50 0C 83 06 FF 75 0C 8B 46 04 8B 48 18 56 FF D1 83 ....u..F..H.V...
00729C60 C4 04                                           ..             

l00729C62:
	pop	edi
	pop	esi
	pop	ebp
	xor	eax,eax
	pop	ebx
	add	esp,14h
	ret
00729C6C                                     8B 55 18 8B             .U..
00729C70 42 10 56 6A 7E 55 E8 35 F3 FF FF 83 C4 0C 85 C0 B.Vj~U.5........
00729C80 74 E0 83 06 FF 75 5B 8B 46 04 8B 48 18 56 FF D1 t....u[.F..H.V..
00729C90 83 C4 04 5F 5E 5D B8 01 00 00 00 5B 83 C4 14 C3 ..._^].....[....
00729CA0 BB 62 00 00 00 EB 05 BB 5B 00 00 00 8B 54 24 28 .b......[....T$(
00729CB0 52 8B C6 E8 28 DA FF FF 83 C4 04 83 06 FF 8B F8 R...(...........
00729CC0 75 0C 8B 46 04 8B 48 18 56 FF D1 83 C4 04 85 FF u..F..H.V.......
00729CD0 7C 90 57 53 8B C5 E8 35 DB FF FF 83 C4 08       |.WS...5...... 

l00729CDE:
	test	eax,eax
	jz	729C62h

l00729CE2:
	pop	edi
	pop	esi
	pop	ebp
	mov	eax,1h
	pop	ebx
	add	esp,14h
	ret
00729CEF                                              90                .
l00729CF0	dd	0x00729C0C
l00729CF4	dd	0x00729C2C
l00729CF8	dd	0x00729C1B
l00729CFC	dd	0x00729BEA
l00729D00	dd	0x00729BFB
00729D04             6C 9C 72 00 A0 9C 72 00 38 9C 72 00     l.r...r.8.r.
00729D10 A7 9C 72 00 CC CC CC CC CC CC CC CC CC CC CC CC ..r.............

;; fn00729D20: 00729D20
;;   Called from:
;;     0072B4E3 (in fn0072B360)
fn00729D20 proc
	sub	esp,10h
	cmp	dword ptr [0A6DBF0h],0h
	mov	eax,[esp+18h]
	mov	ecx,[eax+8h]
	push	ebp
	mov	ebp,[esp+18h]
	mov	dword ptr [esp+10h],0h
	mov	[esp+0Ch],ecx
	jnz	729D5Fh

l00729D44:
	push	8C9834h
	call	6F1A70h
	add	esp,4h
	test	eax,eax
	mov	[0A6DBF0h],eax
	jnz	729D5Fh

l00729D5A:
	pop	ebp
	add	esp,10h
	ret

l00729D5F:
	push	esi
	push	ebp
	call	7272E0h
	mov	esi,eax
	add	esp,4h
	test	esi,esi
	mov	[esp+0Ch],esi
	jz	729D85h

l00729D73:
	push	0h
	push	67h
	mov	eax,ebp
	call	727810h
	add	esp,8h
	test	eax,eax
	jnz	729D8Dh

l00729D85:
	pop	esi
	xor	eax,eax
	pop	ebp
	add	esp,10h
	ret

l00729D8D:
	push	ebx
	mov	ebx,4h
	mov	eax,ebp
	call	727670h
	test	eax,eax
	jnz	729DA5h

l00729D9E:
	pop	ebx
	pop	esi
	pop	ebp
	add	esp,10h
	ret

l00729DA5:
	mov	eax,[ebp+18h]
	mov	ebx,[eax+0Ch]
	push	edi
	add	esi,14h
	mov	edi,8DA718h
	mov	ecx,0Ah
	xor	edx,edx

l00729DBB:
	rep cmpsb

l00729DBD:
	jnz	729DD3h

l00729DBF:
	push	8DA884h
	mov	eax,ebp
	call	728360h
	add	esp,4h
	jmp	729EDAh

l00729DD3:
	mov	edi,[esp+14h]
	mov	eax,[eax+1Ch]
	push	edi
	push	eax
	call	726150h
	mov	esi,eax
	add	esp,8h
	test	esi,esi
	jz	729F07h

l00729DEE:
	mov	ecx,[ebp+18h]
	mov	edx,[ecx]
	push	esi
	push	edx
	mov	dword ptr [esp+18h],0h
	mov	edi,3h
	call	7475E0h
	add	eax,0FFh
	add	esp,8h
	cmp	eax,4h
	ja	729E58h

l00729E12:
	jmp	dword ptr [729F28h+eax*4]

l00729E19:
	mov	eax,[ebp+18h]
	mov	ebx,[eax+18h]
	mov	edi,2h
	jmp	729E58h

l00729E26:
	mov	ecx,[ebp+18h]
	mov	ebx,[ecx+14h]
	mov	edi,2h
	jmp	729E58h

l00729E33:
	mov	edx,[ebp+18h]
	mov	eax,[edx]
	cmp	dword ptr [eax+1Ch],0h
	jnz	729E58h

l00729E3E:
	xor	edi,edi
	jmp	729E58h

l00729E42:
	mov	ecx,[ebp+18h]
	mov	eax,[ecx]
	cmp	dword ptr [eax+1Ch],0h
	jnz	729E58h

l00729E4D:
	cmp	dword ptr [eax+20h],0h
	jnz	729E58h

l00729E53:
	mov	edi,1h

l00729E58:
	jmp	dword ptr [729F3Ch+edi*4]
00729E5F                                              C7                .
00729E60 44 24 10 89 00 00 00 EB 3F 8B 55 18 8B 42 10 56 D$......?.U..B.V
00729E70 6A 7D 55 E8 38 F1 FF FF 83 C4 0C 85 C0 0F 84 80 j}U.8...........
00729E80 00 00 00 83 06 FF 75 56 8B 46 04 8B 48 18 56 FF ......uV.F..H.V.
00729E90 D1 83 C4 04 EB 48 C7 44 24 10 61 00 00 00 EB 08 .....H.D$.a.....
00729EA0 C7 44 24 10 5A 00 00 00 53 8B C6 E8 30 D8 FF FF .D$.Z...S...0...
00729EB0 83 C4 04 83 06 FF 8B F8 75 0C 8B 56 04 8B 42 18 ........u..V..B.
00729EC0 56 FF D0 83 C4 04 85 FF 7C 39 8B 4C 24 10 57 51 V.......|9.L$.WQ
00729ED0 8B C5 E8 39 D9 FF FF 83 C4 08                   ...9......     

l00729EDA:
	test	eax,eax
	jz	729F03h

l00729EDE:
	mov	edx,[esp+28h]
	mov	eax,[edx+4h]
	mov	ecx,[esp+18h]
	mov	edx,[esp+14h]
	push	eax
	push	0h
	push	ecx
	push	edx
	push	ebp
	call	729810h
	mov	edi,[esp+28h]
	add	esp,14h
	mov	esi,eax
	jmp	729F0Bh

l00729F03:
	mov	edi,[esp+14h]

l00729F07:
	mov	esi,[esp+1Ch]

l00729F0B:
	add	dword ptr [edi],0FFh
	jnz	729F1Ch

l00729F10:
	mov	eax,[edi+4h]
	mov	ecx,[eax+18h]
	push	edi
	call	ecx
	add	esp,4h

l00729F1C:
	pop	edi
	pop	ebx
	mov	eax,esi
	pop	esi
	pop	ebp
	add	esp,10h
	ret
00729F26                   8B FF                               ..       
l00729F28	dd	0x00729E33
l00729F2C	dd	0x00729E53
l00729F30	dd	0x00729E42
l00729F34	dd	0x00729E19
l00729F38	dd	0x00729E26
00729F3C                                     69 9E 72 00             i.r.
00729F40 96 9E 72 00 5F 9E 72 00 A0 9E 72 00 CC CC CC CC ..r._.r...r.....

;; fn00729F50: 00729F50
;;   Called from:
;;     0072A215 (in fn00729F50)
;;     0072B2E3 (in fn0072B360)
fn00729F50 proc
	sub	esp,14h
	push	ebx
	push	ebp
	push	esi
	push	edi
	mov	edi,[esp+28h]
	mov	esi,[edi+18h]
	push	20h
	call	723860h
	xor	ebp,ebp
	add	esp,4h
	cmp	eax,ebp
	jnz	729F7Bh

l00729F6E:
	call	6E1210h
	xor	ebx,ebx
	mov	[esp+14h],ebx
	jmp	729FA2h

l00729F7B:
	xor	ecx,ecx
	mov	[eax],ecx
	mov	[eax+4h],ecx
	mov	[eax+8h],ecx
	mov	[eax+0Ch],ecx
	mov	[eax+10h],ecx
	mov	[eax+14h],ecx
	mov	[eax+18h],ecx
	mov	[eax+1Ch],ecx
	mov	ecx,[esi+24h]
	mov	[eax],ecx
	mov	[esi+24h],eax
	mov	[esp+14h],eax
	mov	ebx,eax

l00729FA2:
	mov	esi,[edi+18h]
	push	20h
	call	723860h
	add	esp,4h
	cmp	eax,ebp
	jnz	729FBEh

l00729FB3:
	call	6E1210h
	mov	[esp+1Ch],ebp
	jmp	729FE3h

l00729FBE:
	xor	ecx,ecx
	mov	[eax],ecx
	mov	[eax+4h],ecx
	mov	[eax+8h],ecx
	mov	[eax+0Ch],ecx
	mov	[eax+10h],ecx
	mov	[eax+14h],ecx
	mov	[eax+18h],ecx
	mov	[eax+1Ch],ecx
	mov	edx,[esi+24h]
	mov	[eax],edx
	mov	[esi+24h],eax
	mov	[esp+1Ch],eax

l00729FE3:
	mov	esi,[edi+18h]
	push	20h
	call	723860h
	add	esp,4h
	cmp	eax,ebp
	jnz	729FFFh

l00729FF4:
	call	6E1210h
	mov	[esp+10h],ebp
	jmp	72A024h

l00729FFF:
	xor	ecx,ecx
	mov	[eax],ecx
	mov	[eax+4h],ecx
	mov	[eax+8h],ecx
	mov	[eax+0Ch],ecx
	mov	[eax+10h],ecx
	mov	[eax+14h],ecx
	mov	[eax+18h],ecx
	mov	[eax+1Ch],ecx
	mov	ecx,[esi+24h]
	mov	[eax],ecx
	mov	[esi+24h],eax
	mov	[esp+10h],eax

l0072A024:
	mov	esi,[edi+18h]
	push	20h
	call	723860h
	add	esp,4h
	cmp	eax,ebp
	jnz	72A040h

l0072A035:
	call	6E1210h
	mov	[esp+18h],ebp
	jmp	72A065h

l0072A040:
	xor	ecx,ecx
	mov	[eax],ecx
	mov	[eax+4h],ecx
	mov	[eax+8h],ecx
	mov	[eax+0Ch],ecx
	mov	[eax+10h],ecx
	mov	[eax+14h],ecx
	mov	[eax+18h],ecx
	mov	[eax+1Ch],ecx
	mov	edx,[esi+24h]
	mov	[eax],edx
	mov	[esi+24h],eax
	mov	[esp+18h],eax

l0072A065:
	mov	esi,[edi+18h]
	push	20h
	call	723860h
	add	esp,4h
	cmp	eax,ebp
	jnz	72A07Fh

l0072A076:
	call	6E1210h
	xor	eax,eax
	jmp	72A0A0h

l0072A07F:
	xor	ecx,ecx
	mov	[eax],ecx
	mov	[eax+4h],ecx
	mov	[eax+8h],ecx
	mov	[eax+0Ch],ecx
	mov	[eax+10h],ecx
	mov	[eax+14h],ecx
	mov	[eax+18h],ecx
	mov	[eax+1Ch],ecx
	mov	ecx,[esi+24h]
	mov	[eax],ecx
	mov	[esi+24h],eax

l0072A0A0:
	cmp	ebx,ebp
	mov	[esp+20h],eax
	jz	72A10Dh

l0072A0A8:
	cmp	[esp+1Ch],ebp
	jz	72A10Dh

l0072A0AE:
	cmp	[esp+10h],ebp
	jz	72A10Dh

l0072A0B4:
	cmp	[esp+18h],ebp
	jz	72A10Dh

l0072A0BA:
	cmp	eax,ebp
	jz	72A10Dh

l0072A0BE:
	mov	edx,[esp+2Ch]
	mov	esi,[esp+30h]
	mov	ebp,[edx+esi*4+4h]
	push	0h
	push	eax
	push	78h
	mov	eax,edi
	call	727880h
	add	esp,0Ch
	test	eax,eax
	jz	72A10Dh

l0072A0DD:
	push	ebx
	push	0h
	mov	eax,edi
	call	728310h
	add	esp,8h
	test	eax,eax
	jz	72A10Dh

l0072A0EE:
	test	esi,esi
	jnz	72A117h

l0072A0F2:
	mov	eax,[edi+18h]
	mov	dword ptr [eax+20h],1h
	push	esi
	push	7Ch
	mov	eax,edi
	call	727810h
	add	esp,8h
	test	eax,eax
	jnz	72A13Ch

l0072A10D:
	pop	edi
	pop	esi
	pop	ebp
	xor	eax,eax
	pop	ebx
	add	esp,14h
	ret

l0072A117:
	mov	ecx,[ebp+4h]
	push	ecx
	push	edi
	call	72B360h
	add	esp,8h
	test	eax,eax
	jz	72A10Dh

l0072A128:
	mov	ebx,44h
	mov	eax,edi
	call	727670h
	test	eax,eax
	jz	72A10Dh

l0072A138:
	mov	ebx,[esp+14h]

l0072A13C:
	mov	edx,[edi+18h]
	mov	eax,[edx+28h]
	mov	edx,[esp+18h]
	xor	esi,esi
	mov	[eax+10h],ebx
	mov	ecx,[edi+18h]
	push	esi
	push	edx
	push	5Dh
	mov	eax,edi
	mov	[ecx+28h],ebx
	call	727880h
	add	esp,0Ch
	test	eax,eax
	jz	72A10Dh

l0072A163:
	call	7273D0h
	test	eax,eax
	jz	72A10Dh

l0072A16C:
	mov	eax,[ebp+0h]
	push	eax
	push	edi
	call	72B360h
	add	esp,8h
	test	eax,eax
	jz	72A10Dh

l0072A17D:
	mov	eax,[ebp+8h]
	cmp	eax,esi
	jnz	72A18Ah

l0072A184:
	mov	[esp+28h],esi
	jmp	72A190h

l0072A18A:
	mov	ecx,[eax]
	mov	[esp+28h],ecx

l0072A190:
	cmp	[esp+28h],esi
	jle	72A1F3h

l0072A196:
	mov	edx,[ebp+8h]
	mov	eax,[edx+esi*4+4h]
	push	eax
	push	edi
	call	72B360h
	add	esp,8h
	test	eax,eax
	jz	72A10Dh

l0072A1AF:
	mov	eax,[esp+10h]
	push	0h
	push	eax
	push	6Fh
	mov	eax,edi
	call	727880h
	add	esp,0Ch
	test	eax,eax
	jz	72A10Dh

l0072A1CA:
	call	7273D0h
	test	eax,eax
	jz	72A10Dh

l0072A1D7:
	mov	ebx,1h
	mov	eax,edi
	call	727670h
	test	eax,eax
	jz	72A10Dh

l0072A1EB:
	add	esi,ebx
	cmp	esi,[esp+28h]
	jl	72A196h

l0072A1F3:
	mov	ebp,[esp+2Ch]
	test	ebp,ebp
	jnz	72A1FFh

l0072A1FB:
	xor	eax,eax
	jmp	72A202h

l0072A1FF:
	mov	eax,[ebp+0h]

l0072A202:
	mov	ebx,[esp+30h]
	mov	esi,[esp+34h]
	add	ebx,1h
	cmp	ebx,eax
	jge	72A225h

l0072A211:
	push	esi
	push	ebx
	push	ebp
	push	edi
	call	729F50h
	add	esp,10h
	test	eax,eax
	jz	72A10Dh

l0072A225:
	test	ebp,ebp
	jnz	72A22Dh

l0072A229:
	xor	eax,eax
	jmp	72A230h

l0072A22D:
	mov	eax,[ebp+0h]

l0072A230:
	cmp	ebx,eax
	jl	72A281h

l0072A234:
	push	esi
	push	edi
	call	72B360h
	add	esp,8h
	test	eax,eax
	jz	72A10Dh

l0072A246:
	mov	ebx,56h
	mov	eax,edi
	call	727670h
	test	eax,eax
	jz	72A10Dh

l0072A25A:
	mov	ebx,1h
	mov	eax,edi
	call	727670h
	test	eax,eax
	jz	72A10Dh

l0072A26E:
	mov	ecx,[edi+18h]
	mov	edx,[ecx+28h]
	mov	eax,[esp+1Ch]
	mov	[edx+10h],eax
	mov	ecx,[edi+18h]
	mov	[ecx+28h],eax

l0072A281:
	xor	esi,esi
	cmp	[esp+28h],esi
	jle	72A2D9h

l0072A289:
	lea	esp,[esp+0h]

l0072A290:
	push	1h
	push	6Eh
	mov	eax,edi
	call	727810h
	add	esp,8h
	test	eax,eax
	jz	72A10Dh

l0072A2A6:
	test	esi,esi
	jnz	72A2BDh

l0072A2AA:
	mov	edx,[edi+18h]
	mov	ecx,[edx+28h]
	mov	eax,[esp+10h]
	mov	[ecx+10h],eax
	mov	edx,[edi+18h]
	mov	[edx+28h],eax

l0072A2BD:
	mov	ebx,1h
	mov	eax,edi
	call	727670h
	test	eax,eax
	jz	72A10Dh

l0072A2D1:
	add	esi,ebx
	cmp	esi,[esp+28h]
	jl	72A290h

l0072A2D9:
	mov	eax,[esp+14h]
	push	1h
	push	eax
	push	71h
	mov	eax,edi
	call	727880h
	add	esp,0Ch
	test	eax,eax
	jz	72A10Dh

l0072A2F4:
	mov	ecx,[edi+18h]
	mov	edx,[ecx+28h]
	mov	eax,[esp+18h]
	mov	[edx+10h],eax
	mov	ecx,[edi+18h]
	mov	[ecx+28h],eax
	mov	ebx,57h
	mov	eax,edi
	call	727670h
	test	eax,eax
	jz	72A10Dh

l0072A31B:
	mov	eax,[edi+18h]
	add	dword ptr [eax+30h],0FFh
	mov	edx,[edi+18h]
	mov	ecx,[edx+28h]
	mov	eax,[esp+20h]
	mov	[ecx+10h],eax
	mov	edx,[edi+18h]
	pop	edi
	pop	esi
	pop	ebp
	mov	[edx+28h],eax
	mov	eax,1h
	pop	ebx
	add	esp,14h
	ret
0072A342       CC CC CC CC CC CC CC CC CC CC CC CC CC CC   ..............

;; fn0072A350: 0072A350
;;   Called from:
;;     0072A6E6 (in fn0072A5D0)
;;     0072B2EB (in fn0072B360)
;;     0072C293 (in fn0072C160)
;;     0072C7CB (in fn0072C510)
;;     0072E729 (in fn0072E660)
fn0072A350 proc
	sub	esp,28h
	push	ebx
	push	ebp
	mov	ebp,[esp+34h]
	mov	eax,[ebp+18h]
	mov	ecx,[eax+28h]
	test	byte ptr [ecx+14h],2h
	push	edi
	mov	dword ptr [esp+10h],0h
	jnz	72A3C2h

l0072A36E:
	mov	edi,ebp
	call	7273D0h
	test	eax,eax
	jnz	72A382h

l0072A379:
	pop	edi
	pop	ebp
	xor	eax,eax
	pop	ebx
	add	esp,28h
	ret

l0072A382:
	cmp	dword ptr [esp+3Ch],0h
	jz	72A3B2h

l0072A389:
	mov	edx,[ebp+18h]
	mov	eax,[edx+8h]
	push	eax
	mov	eax,0A163B8h
	call	7276E0h
	add	esp,4h
	test	eax,eax
	jl	72A379h

l0072A3A1:
	push	eax
	push	64h
	mov	eax,ebp
	call	727810h
	add	esp,8h
	test	eax,eax
	jz	72A379h

l0072A3B2:
	mov	ebx,53h
	mov	eax,ebp
	call	727670h
	test	eax,eax
	jz	72A379h

l0072A3C2:
	mov	ecx,[ebp+18h]
	mov	eax,[ecx+24h]
	xor	edi,edi
	xor	ebx,ebx
	test	eax,eax
	jz	72A3DBh

l0072A3D0:
	mov	ebx,eax
	mov	eax,[eax]
	add	edi,1h
	test	eax,eax
	jnz	72A3D0h

l0072A3DB:
	cmp	dword ptr [ecx+0D4h],0h
	jnz	72A404h

l0072A3E4:
	test	ebx,ebx
	jz	72A3FAh

l0072A3E8:
	mov	eax,[ebx+0Ch]
	test	eax,eax
	jz	72A3FAh

l0072A3EF:
	mov	eax,[eax+10h]
	mov	[ecx+0D4h],eax
	jmp	72A404h

l0072A3FA:
	mov	dword ptr [ecx+0D4h],1h

l0072A404:
	mov	ecx,[ebp+18h]
	mov	edx,[ecx+0D4h]
	push	esi
	push	edx
	lea	esi,[esp+1Ch]
	call	728650h
	add	esp,4h
	test	eax,eax
	jz	72A4C3h

l0072A423:
	mov	eax,esi
	push	eax
	push	ebx
	push	ebp
	call	7284C0h
	mov	ecx,esi
	push	ebp
	push	ecx
	call	7289A0h
	mov	eax,[esp+34h]
	add	esp,14h
	add	eax,0FFh
	mov	[esp+10h],eax
	js	72A484h

l0072A446:
	mov	edx,[esp+24h]
	mov	esi,[edx+eax*4]
	xor	ebx,ebx
	cmp	[esi+4h],ebx
	jle	72A47Bh

l0072A454:
	xor	ebp,ebp

l0072A456:
	mov	edi,[esi+0Ch]
	add	edi,ebp
	lea	eax,[esp+18h]
	call	7288B0h
	test	eax,eax
	jz	72A4C3h

l0072A468:
	add	ebx,1h
	add	ebp,14h
	cmp	ebx,[esi+4h]
	jl	72A456h

l0072A473:
	mov	ebp,[esp+3Ch]
	mov	eax,[esp+10h]

l0072A47B:
	sub	eax,1h
	mov	[esp+10h],eax
	jns	72A446h

l0072A484:
	mov	eax,[esp+2Ch]
	push	eax
	lea	ecx,[esp+2Ch]
	push	ecx
	call	6EC4F0h
	add	esp,8h
	test	eax,eax
	jl	72A4C3h

l0072A49A:
	mov	edx,[esp+1Ch]
	push	edx
	lea	eax,[esp+1Ch]
	push	eax
	call	6EC4F0h
	add	esp,8h
	test	eax,eax
	jl	72A4C3h

l0072A4B0:
	lea	ecx,[esp+18h]
	push	ecx
	mov	esi,ebp
	call	728BE0h
	add	esp,4h
	mov	[esp+14h],eax

l0072A4C3:
	mov	eax,[esp+18h]
	test	eax,eax
	pop	esi
	jz	72A4E4h

l0072A4CC:
	add	dword ptr [eax],0FFh
	mov	eax,[esp+14h]
	cmp	dword ptr [eax],0h
	jnz	72A4E4h

l0072A4D8:
	mov	edx,[eax+4h]
	push	eax
	mov	eax,[edx+18h]
	call	eax
	add	esp,4h

l0072A4E4:
	mov	eax,[esp+24h]
	test	eax,eax
	jz	72A504h

l0072A4EC:
	add	dword ptr [eax],0FFh
	mov	eax,[esp+24h]
	cmp	dword ptr [eax],0h
	jnz	72A504h

l0072A4F8:
	mov	ecx,[eax+4h]
	mov	edx,[ecx+18h]
	push	eax
	call	edx
	add	esp,4h

l0072A504:
	mov	eax,[esp+20h]
	test	eax,eax
	jz	72A515h

l0072A50C:
	push	eax
	call	7239C0h
	add	esp,4h

l0072A515:
	mov	eax,[esp+10h]
	pop	edi
	pop	ebp
	pop	ebx
	add	esp,28h
	ret

;; fn0072A520: 0072A520
;;   Called from:
;;     0072A663 (in fn0072A5D0)
;;     0072C241 (in fn0072C160)
fn0072A520 proc
	push	ecx
	push	ebx
	push	ebp
	mov	ebx,eax
	mov	eax,[esp+10h]
	mov	eax,[eax]
	push	esi
	push	edi
	xor	edi,edi
	cmp	eax,edi
	jnz	72A539h

l0072A533:
	mov	[esp+10h],edi
	jmp	72A53Fh

l0072A539:
	mov	ecx,[eax]
	mov	[esp+10h],ecx

l0072A53F:
	cmp	[esp+10h],edi
	jle	72A5A0h

l0072A545:
	mov	edx,[esp+18h]
	mov	eax,[edx]
	mov	ebp,[eax+edi*4+4h]
	cmp	dword ptr [ebp+0h],13h
	jnz	72A597h

l0072A555:
	push	edi
	push	8DA8A0h
	call	6F2070h
	mov	esi,eax
	add	esp,8h
	test	esi,esi
	jz	72A5BCh

l0072A569:
	push	1h
	push	esi
	call	729510h
	add	esp,8h
	test	eax,eax
	jz	72A5ABh

l0072A578:
	add	dword ptr [esi],0FFh
	jnz	72A589h

l0072A57D:
	mov	ecx,[esi+4h]
	mov	edx,[ecx+18h]
	push	esi
	call	edx
	add	esp,4h

l0072A589:
	push	ebp
	push	ebx
	call	72B360h
	add	esp,8h
	test	eax,eax
	jz	72A5BCh

l0072A597:
	add	edi,1h
	cmp	edi,[esp+10h]
	jl	72A545h

l0072A5A0:
	pop	edi
	pop	esi
	pop	ebp
	mov	eax,1h
	pop	ebx
	pop	ecx
	ret

l0072A5AB:
	add	dword ptr [esi],0FFh
	jnz	72A5BCh

l0072A5B0:
	mov	eax,[esi+4h]
	mov	ecx,[eax+18h]
	push	esi
	call	ecx
	add	esp,4h

l0072A5BC:
	pop	edi
	pop	esi
	pop	ebp
	xor	eax,eax
	pop	ebx
	pop	ecx
	ret
0072A5C4             CC CC CC CC CC CC CC CC CC CC CC CC     ............

;; fn0072A5D0: 0072A5D0
;;   Called from:
;;     0072B412 (in fn0072B360)
fn0072A5D0 proc
	push	ecx
	push	ebp
	push	esi
	mov	esi,[esp+10h]
	mov	ebp,[esi+4h]
	push	edi
	mov	edi,eax
	mov	eax,[0A6DBE4h]
	test	eax,eax
	mov	[esp+0Ch],ebp
	jnz	72A605h

l0072A5EA:
	push	8DA8A4h
	call	6F1A70h
	add	esp,4h
	test	eax,eax
	mov	[0A6DBE4h],eax
	jnz	72A605h

l0072A600:
	pop	edi
	pop	esi
	pop	ebp
	pop	ecx
	ret

l0072A605:
	push	ebx
	mov	ebx,[ebp+0Ch]
	test	ebx,ebx
	jz	72A649h

l0072A60D:
	xor	ebp,ebp
	lea	esi,[ebx+4h]

l0072A612:
	test	ebx,ebx
	jnz	72A61Ah

l0072A616:
	xor	eax,eax
	jmp	72A61Ch

l0072A61A:
	mov	eax,[ebx]

l0072A61C:
	cmp	ebp,eax
	jge	72A63Ch

l0072A620:
	mov	eax,[esi]
	push	eax
	push	edi
	call	72B360h
	add	esp,8h
	test	eax,eax
	jz	72A707h

l0072A634:
	add	ebp,1h
	add	esi,4h
	jmp	72A612h

l0072A63C:
	mov	eax,[0A6DBE4h]
	mov	esi,[esp+18h]
	mov	ebp,[esp+10h]

l0072A649:
	mov	ecx,[esi+18h]
	push	ecx
	push	esi
	mov	ecx,edi
	call	728E40h
	add	esp,8h
	test	eax,eax
	jz	72A707h

l0072A660:
	push	ebp
	mov	eax,edi
	call	72A520h
	mov	eax,[ebp+0h]
	add	esp,4h
	test	eax,eax
	jz	72A674h

l0072A672:
	mov	eax,[eax]

l0072A674:
	mov	edx,[edi+18h]
	mov	[edx+20h],eax
	mov	eax,[esi+8h]
	push	eax
	push	edi
	call	72B360h
	add	esp,8h
	test	eax,eax
	jz	72A702h

l0072A68B:
	mov	ecx,[edi+18h]
	mov	esi,[ecx+28h]
	call	727420h
	test	eax,eax
	jl	72A702h

l0072A69A:
	mov	edx,[edi+18h]
	mov	edx,[edx+28h]
	lea	ecx,[eax+eax*4]
	mov	eax,[edx+0Ch]
	add	ecx,ecx
	add	ecx,ecx
	and	dword ptr [eax+ecx],0FBh
	add	eax,ecx
	mov	byte ptr [eax+4h],53h
	or	dword ptr [edx+14h],2h
	mov	eax,[edi+18h]
	cmp	dword ptr [eax+0DCh],0h
	jnz	72A6E3h

l0072A6C4:
	mov	edx,eax
	mov	dword ptr [edx+0DCh],1h
	mov	eax,[edi+18h]
	mov	edx,[eax+28h]
	mov	edx,[edx+0Ch]
	mov	eax,[eax+0D8h]
	mov	[edx+ecx+10h],eax

l0072A6E3:
	push	1h
	push	edi
	call	72A350h
	add	esp,8h
	mov	esi,eax
	call	727290h
	test	esi,esi
	jz	72A707h

l0072A6F9:
	mov	eax,[ebp+0Ch]
	test	eax,eax
	jnz	72A70Fh

l0072A700:
	jmp	72A711h

l0072A702:
	call	727290h

l0072A707:
	pop	ebx
	pop	edi
	pop	esi
	xor	eax,eax
	pop	ebp
	pop	ecx
	ret

l0072A70F:
	mov	eax,[eax]

l0072A711:
	push	eax
	push	esi
	mov	eax,edi
	call	729040h
	add	esp,8h
	add	dword ptr [esi],0FFh
	jnz	72A72Eh

l0072A722:
	mov	ecx,[esi+4h]
	mov	edx,[ecx+18h]
	push	esi
	call	edx
	add	esp,4h

l0072A72E:
	pop	ebx
	pop	edi
	pop	esi
	mov	eax,1h
	pop	ebp
	pop	ecx
	ret
0072A739                            CC CC CC CC CC CC CC          .......

;; fn0072A740: 0072A740
;;   Called from:
;;     0072AA23 (in fn0072A940)
fn0072A740 proc
	push	ecx
	push	ebp
	mov	ebp,[8A46B0h]
	push	esi
	push	edi
	add	eax,14h
	push	2Eh
	push	eax
	call	ebp
	add	esp,8h
	test	eax,eax
	jz	72A7D0h

l0072A759:
	lea	esi,[eax+1h]
	lea	esp,[esp+0h]

l0072A760:
	push	2Eh
	push	esi
	call	ebp
	mov	edi,eax
	add	esp,8h
	test	edi,edi
	jz	72A772h

l0072A76E:
	sub	eax,esi
	jmp	72A782h

l0072A772:
	mov	eax,esi
	lea	edx,[eax+1h]

l0072A777:
	mov	cl,[eax]
	add	eax,1h
	test	cl,cl
	jnz	72A777h

l0072A780:
	sub	eax,edx

l0072A782:
	push	eax
	push	esi
	call	6EC9B0h
	mov	esi,eax
	add	esp,8h
	test	esi,esi
	jz	72A806h

l0072A792:
	mov	ecx,[ebx+18h]
	mov	eax,[ecx+0Ch]
	push	eax
	mov	eax,esi
	call	7276E0h
	add	esp,4h
	test	eax,eax
	jl	72A80Eh

l0072A7A7:
	push	eax
	push	69h
	mov	eax,ebx
	call	727810h
	add	esp,8h
	test	eax,eax
	jz	72A80Eh

l0072A7B8:
	add	dword ptr [esi],0FFh
	jnz	72A7C9h

l0072A7BD:
	mov	edx,[esi+4h]
	mov	eax,[edx+18h]
	push	esi
	call	eax
	add	esp,4h

l0072A7C9:
	test	edi,edi
	lea	esi,[edi+1h]
	jnz	72A760h

l0072A7D0:
	mov	eax,[ebx+18h]
	mov	ecx,[eax+0Ch]
	mov	edx,[esp+14h]
	mov	[esp+0Ch],ecx
	mov	edi,8DA718h
	lea	esi,[edx+14h]
	mov	ecx,0Ah
	xor	ebp,ebp

l0072A7ED:
	rep cmpsb

l0072A7EF:
	jnz	72A815h

l0072A7F1:
	pop	edi
	pop	esi
	pop	ebp
	add	esp,4h
	mov	dword ptr [esp+4h],8DA884h
	mov	eax,ebx
	jmp	728360h

l0072A806:
	pop	edi
	pop	esi
	or	eax,0FFh
	pop	ebp
	pop	ecx
	ret

l0072A80E:
	pop	edi
	pop	esi
	xor	eax,eax
	pop	ebp
	pop	ecx
	ret

l0072A815:
	push	edx
	mov	edx,[eax+1Ch]
	push	edx
	call	726150h
	mov	esi,eax
	add	esp,8h
	test	esi,esi
	jz	72A80Eh

l0072A828:
	mov	eax,[ebx+18h]
	mov	ecx,[eax]
	push	esi
	push	ecx
	xor	ebp,ebp
	mov	edi,3h
	call	7475E0h
	add	eax,0FFh
	add	esp,8h
	cmp	eax,4h
	ja	72A891h

l0072A846:
	jmp	dword ptr [72A91Ch+eax*4]

l0072A84D:
	mov	edx,[ebx+18h]
	mov	eax,[edx+18h]
	mov	[esp+0Ch],eax
	mov	edi,2h
	jmp	72A891h

l0072A85E:
	mov	ecx,[ebx+18h]
	mov	edx,[ecx+14h]
	mov	[esp+0Ch],edx
	mov	edi,2h
	jmp	72A891h

l0072A86F:
	mov	eax,[ebx+18h]
	mov	ecx,[eax]
	cmp	[ecx+1Ch],ebp
	jnz	72A891h

l0072A879:
	xor	edi,edi
	jmp	72A891h

l0072A87D:
	mov	edx,[ebx+18h]
	mov	eax,[edx]
	cmp	[eax+1Ch],ebp
	jnz	72A891h

l0072A887:
	cmp	[eax+20h],ebp
	jnz	72A891h

l0072A88C:
	mov	edi,1h

l0072A891:
	jmp	dword ptr [72A930h+edi*4]
0072A898                         BD 89 00 00 00 EB 41 8B         ......A.
0072A8A0 43 18 8B 40 10 56 6A 7D 53 E8 02 E7 FF FF 83 C4 C..@.Vj}S.......
0072A8B0 0C 85 C0 0F 84 55 FF FF FF 83 06 FF 75 0C 8B 4E .....U......u..N
0072A8C0 04 8B 51 18 56 FF D2 83 C4 04 5F 5E B8 01 00 00 ..Q.V....._^....
0072A8D0 00 5D 59 C3 BD 61 00 00 00 EB 05 BD 5A 00 00 00 .]Y..a......Z...
0072A8E0 8B 44 24 0C 50 8B C6 E8 F4 CD FF FF 83 C4 04 83 .D$.P...........
0072A8F0 06 FF 8B F8 75 0C 8B 4E 04 8B 51 18 56 FF D2 83 ....u..N..Q.V...
0072A900 C4 04 85 FF 0F 8C 04 FF FF FF 57 55 8B C3 E8 FD ..........WU....
0072A910 CE FF FF 83 C4 08 5F 5E 5D 59 C3 90             ......_^]Y..   
l0072A91C	dd	0x0072A86F
l0072A920	dd	0x0072A88C
l0072A924	dd	0x0072A87D
l0072A928	dd	0x0072A84D
l0072A92C	dd	0x0072A85E
0072A930 9F A8 72 00 D4 A8 72 00 98 A8 72 00 DB A8 72 00 ..r...r...r...r.

;; fn0072A940: 0072A940
;;   Called from:
;;     0072DB8C (in fn0072D920)
fn0072A940 proc
	sub	esp,14h
	push	ebx
	mov	ebx,eax
	mov	eax,[esp+1Ch]
	mov	eax,[eax+4h]
	push	ebp
	xor	ebp,ebp
	cmp	eax,ebp
	push	esi
	push	edi
	jnz	72A95Ch

l0072A956:
	mov	[esp+18h],ebp
	jmp	72A962h

l0072A95C:
	mov	ecx,[eax]
	mov	[esp+18h],ecx

l0072A962:
	cmp	[esp+18h],ebp
	mov	[esp+1Ch],ebp
	jle	72ABEAh

l0072A970:
	mov	edx,[esp+28h]
	mov	eax,[edx+4h]
	mov	edi,[eax+ebp*4+4h]
	mov	eax,[ebx+0Ch]
	test	eax,eax
	jz	72A98Eh

l0072A982:
	test	dword ptr [eax],4000h
	jz	72A98Eh

l0072A98A:
	push	0h
	jmp	72A990h

l0072A98E:
	push	0FFh

l0072A990:
	call	7050A0h
	mov	esi,eax
	add	esp,4h
	test	esi,esi
	jz	72AA33h

l0072A9A2:
	mov	ecx,[ebx+18h]
	mov	eax,[ecx+8h]
	push	eax
	mov	eax,esi
	call	7276E0h
	add	esp,4h
	test	eax,eax
	jl	72AA33h

l0072A9B7:
	push	eax
	push	64h
	mov	eax,ebx
	call	727810h
	add	esp,8h
	test	eax,eax
	jz	72AA33h

l0072A9C8:
	add	dword ptr [esi],0FFh
	jnz	72A9D9h

l0072A9CD:
	mov	edx,[esi+4h]
	mov	eax,[edx+18h]
	push	esi
	call	eax
	add	esp,4h

l0072A9D9:
	mov	ecx,[ebx+18h]
	mov	eax,[ecx+8h]
	push	eax
	mov	eax,0A163B8h
	call	7276E0h
	add	esp,4h
	test	eax,eax
	jl	72AA33h

l0072A9F1:
	push	eax
	push	64h
	mov	eax,ebx
	call	727810h
	add	esp,8h
	test	eax,eax
	jz	72AA33h

l0072AA02:
	mov	edx,[ebx+18h]
	mov	eax,[edx+0Ch]
	push	eax
	mov	eax,[edi]
	push	6Bh
	call	728FE0h
	add	esp,8h
	test	eax,eax
	jz	72AA33h

l0072AA19:
	mov	eax,[edi+4h]
	test	eax,eax
	jz	72AA3Dh

l0072AA20:
	push	eax
	mov	eax,[edi]
	call	72A740h
	add	esp,4h
	test	eax,eax
	jnz	72ABD9h

l0072AA33:
	pop	edi
	pop	esi
	pop	ebp
	xor	eax,eax
	pop	ebx
	add	esp,14h
	ret

l0072AA3D:
	mov	ebp,[edi]
	lea	esi,[ebp+14h]
	push	2Eh
	push	esi
	mov	[esp+18h],ebp
	call	dword ptr [8A46B0h]
	add	esp,8h
	test	eax,eax
	mov	[esp+20h],eax
	jz	72AA6Ch

l0072AA5A:
	sub	eax,esi
	push	eax
	push	esi
	call	6EC9B0h
	add	esp,8h
	mov	[esp+10h],eax
	mov	ebp,eax

l0072AA6C:
	mov	eax,[ebx+18h]
	mov	ecx,[eax+0Ch]
	mov	[esp+14h],ecx
	mov	edi,8DA718h
	lea	esi,[ebp+14h]
	mov	ecx,0Ah
	xor	edx,edx

l0072AA85:
	rep cmpsb

l0072AA87:
	jnz	72AA9Dh

l0072AA89:
	push	8DA884h
	mov	eax,ebx
	call	728360h
	add	esp,4h
	jmp	72ABB2h

l0072AA9D:
	mov	eax,[eax+1Ch]
	push	ebp
	push	eax
	call	726150h
	mov	esi,eax
	add	esp,8h
	test	esi,esi
	jz	72ABB4h

l0072AAB4:
	mov	ecx,[ebx+18h]
	mov	edx,[ecx]
	push	esi
	push	edx
	xor	ebp,ebp
	mov	edi,3h
	call	7475E0h
	add	eax,0FFh
	add	esp,8h
	cmp	eax,4h
	ja	72AB20h

l0072AAD2:
	jmp	dword ptr [72ABF8h+eax*4]

l0072AAD9:
	mov	eax,[ebx+18h]
	mov	ecx,[eax+18h]
	mov	[esp+14h],ecx
	mov	edi,2h
	jmp	72AB20h

l0072AAEA:
	mov	edx,[ebx+18h]
	mov	eax,[edx+14h]
	mov	[esp+14h],eax
	mov	edi,2h
	jmp	72AB20h

l0072AAFB:
	mov	ecx,[ebx+18h]
	mov	edx,[ecx]
	cmp	dword ptr [edx+1Ch],0h
	jnz	72AB20h

l0072AB06:
	xor	edi,edi
	jmp	72AB20h

l0072AB0A:
	mov	eax,[ebx+18h]
	mov	eax,[eax]
	cmp	dword ptr [eax+1Ch],0h
	jnz	72AB20h

l0072AB15:
	cmp	dword ptr [eax+20h],0h
	jnz	72AB20h

l0072AB1B:
	mov	edi,1h

l0072AB20:
	jmp	dword ptr [72AC0Ch+edi*4]
0072AB27                      BD 89 00 00 00 EB 46 8B 4B        ......F.K
0072AB30 18 8B 41 10 56 6A 7D 53 E8 73 E4 FF FF 83 C4 0C ..A.Vj}S.s......
0072AB40 85 C0 75 08 8B 6C 24 10 33 F6 EB 68 83 06 FF 75 ..u..l$.3..h...u
0072AB50 0C 8B 56 04 8B 42 18 56 FF D0 83 C4 04 8B 6C 24 ..V..B.V......l$
0072AB60 10 BE 01 00 00 00 EB 4C BD 61 00 00 00 EB 05 BD .......L.a......
0072AB70 5A 00 00 00 8B 4C 24 14 51 8B C6 E8 60 CB FF FF Z....L$.Q...`...
0072AB80 83 C4 04 83 06 FF 8B F8 75 0C 8B 56 04 8B 42 18 ........u..V..B.
0072AB90 56 FF D0 83 C4 04 85 FF 7D 08 8B 6C 24 10 33 F6 V.......}..l$.3.
0072ABA0 EB 12 57 55 8B C3 E8 65 CC FF FF 8B 6C 24 18 83 ..WU...e....l$..
0072ABB0 C4 08                                           ..             

l0072ABB2:
	mov	esi,eax

l0072ABB4:
	cmp	dword ptr [esp+20h],0h
	jz	72ABCDh

l0072ABBB:
	add	dword ptr [ebp+0h],0FFh
	jnz	72ABCDh

l0072ABC1:
	mov	ecx,[ebp+4h]
	mov	edx,[ecx+18h]
	push	ebp
	call	edx
	add	esp,4h

l0072ABCD:
	test	esi,esi
	jz	72AA33h

l0072ABD5:
	mov	ebp,[esp+1Ch]

l0072ABD9:
	add	ebp,1h
	cmp	ebp,[esp+18h]
	mov	[esp+1Ch],ebp
	jl	72A970h

l0072ABEA:
	pop	edi
	pop	esi
	pop	ebp
	mov	eax,1h
	pop	ebx
	add	esp,14h
	ret
0072ABF7                      90                                .       
l0072ABF8	dd	0x0072AAFB
l0072ABFC	dd	0x0072AB1B
l0072AC00	dd	0x0072AB0A
l0072AC04	dd	0x0072AAD9
l0072AC08	dd	0x0072AAEA
0072AC0C                                     2E AB 72 00             ..r.
0072AC10 68 AB 72 00 27 AB 72 00 6F AB 72 00 CC CC CC CC h.r.'.r.o.r.....

;; fn0072AC20: 0072AC20
;;   Called from:
;;     0072DB9B (in fn0072D920)
fn0072AC20 proc
	sub	esp,10h
	push	ebx
	mov	ebx,[esp+1Ch]
	mov	eax,[ebx+8h]
	test	eax,eax
	push	ebp
	mov	ebp,[esp+1Ch]
	push	esi
	push	edi
	jnz	72AC3Eh

l0072AC36:
	xor	edi,edi
	mov	[esp+10h],edi
	jmp	72AC46h

l0072AC3E:
	mov	eax,[eax]
	mov	[esp+10h],eax
	mov	edi,eax

l0072AC46:
	push	edi
	call	6DFD20h
	mov	esi,eax
	add	esp,4h
	test	esi,esi
	mov	[esp+14h],esi
	jz	72AC93h

l0072AC59:
	mov	eax,[ebx+0Ch]
	test	eax,eax
	jnz	72AC73h

l0072AC60:
	mov	ecx,[ebp+0Ch]
	test	ecx,ecx
	jz	72AC73h

l0072AC67:
	test	dword ptr [ecx],4000h
	jnz	72AC73h

l0072AC6F:
	push	0FFh
	jmp	72AC74h

l0072AC73:
	push	eax

l0072AC74:
	call	7050A0h
	mov	ebx,eax
	add	esp,4h
	test	ebx,ebx
	jnz	72AC9Dh

l0072AC82:
	add	dword ptr [esi],0FFh
	jnz	72AC93h

l0072AC87:
	mov	ecx,[esi+4h]
	mov	edx,[ecx+18h]
	push	esi
	call	edx
	add	esp,4h

l0072AC93:
	pop	edi
	pop	esi
	pop	ebp
	xor	eax,eax
	pop	ebx
	add	esp,10h
	ret

l0072AC9D:
	xor	eax,eax
	test	edi,edi
	jle	72ACD2h

l0072ACA3:
	add	esi,0Ch
	jmp	72ACB0h
0072ACA8                         8D A4 24 00 00 00 00 90         ..$.....

l0072ACB0:
	mov	ecx,[esp+28h]
	mov	edx,[ecx+8h]
	mov	ecx,[edx+eax*4+4h]
	mov	edx,[ecx]
	add	dword ptr [edx],1h
	mov	ecx,[ecx]
	mov	[esi],ecx
	add	eax,1h
	add	esi,4h
	cmp	eax,edi
	jl	72ACB0h

l0072ACCE:
	mov	esi,[esp+14h]

l0072ACD2:
	mov	eax,[esp+28h]
	mov	edx,[ebp+8h]
	mov	ecx,[eax+14h]
	cmp	ecx,[edx+4h]
	jle	72AD38h

l0072ACE1:
	mov	esi,[eax+4h]
	add	esi,14h
	mov	edi,8DA8F0h
	mov	ecx,0Bh
	xor	edx,edx

l0072ACF3:
	rep cmpsb

l0072ACF5:
	jnz	72AD34h

l0072ACF7:
	add	dword ptr [ebx],0FFh
	jnz	72AD08h

l0072ACFC:
	mov	eax,[ebx+4h]
	mov	ecx,[eax+18h]
	push	ebx
	call	ecx
	add	esp,4h

l0072AD08:
	mov	eax,[esp+14h]
	add	dword ptr [eax],0FFh
	jnz	72AD1Dh

l0072AD11:
	mov	edx,[eax+4h]
	push	eax
	mov	eax,[edx+18h]
	call	eax
	add	esp,4h

l0072AD1D:
	push	8DA8B0h
	mov	eax,ebp
	call	728360h
	add	esp,4h
	pop	edi
	pop	esi
	pop	ebp
	pop	ebx
	add	esp,10h
	ret

l0072AD34:
	mov	esi,[esp+14h]

l0072AD38:
	mov	ecx,[ebp+18h]
	mov	eax,[ecx+8h]
	push	eax
	mov	eax,ebx
	call	7276E0h
	add	esp,4h
	test	eax,eax
	jl	72AC93h

l0072AD51:
	push	eax
	push	64h
	mov	eax,ebp
	call	727810h
	add	esp,8h
	test	eax,eax
	jz	72AC93h

l0072AD66:
	add	dword ptr [ebx],0FFh
	jnz	72AD77h

l0072AD6B:
	mov	edx,[ebx+4h]
	mov	eax,[edx+18h]
	push	ebx
	call	eax
	add	esp,4h

l0072AD77:
	mov	ecx,[ebp+18h]
	mov	eax,[ecx+8h]
	push	eax
	mov	eax,esi
	call	7276E0h
	add	esp,4h
	test	eax,eax
	jl	72AC93h

l0072AD90:
	push	eax
	push	64h
	mov	eax,ebp
	call	727810h
	add	esp,8h
	test	eax,eax
	jz	72AC93h

l0072ADA5:
	add	dword ptr [esi],0FFh
	jnz	72ADB6h

l0072ADAA:
	mov	edx,[esi+4h]
	mov	eax,[edx+18h]
	push	esi
	call	eax
	add	esp,4h

l0072ADB6:
	mov	ecx,[ebp+18h]
	mov	edx,[ecx+0Ch]
	mov	eax,[esp+28h]
	mov	eax,[eax+4h]
	push	edx
	push	6Bh
	mov	ebx,ebp
	call	728FE0h
	add	esp,8h
	test	eax,eax
	jz	72AC93h

l0072ADD8:
	xor	eax,eax
	cmp	[esp+10h],eax
	mov	[esp+1Ch],eax
	jle	72AFB3h

l0072ADE8:
	jmp	72ADF0h
0072ADEA                               8D 9B 00 00 00 00           ......

l0072ADF0:
	test	eax,eax
	mov	ecx,[esp+28h]
	mov	edx,[ecx+8h]
	mov	esi,[edx+eax*4+4h]
	jnz	72AE0Bh

l0072ADFF:
	mov	eax,[esi]
	cmp	byte ptr [eax+14h],2Ah
	jz	72AF76h

l0072AE0B:
	mov	ecx,[ebp+18h]
	mov	edx,[ecx+0Ch]
	mov	eax,[esi]
	push	edx
	push	6Ch
	mov	ebx,ebp
	call	728FE0h
	add	esp,8h
	test	eax,eax
	jz	72AC93h

l0072AE28:
	mov	edx,[esi]
	mov	esi,[esi+4h]
	mov	eax,[ebp+18h]
	mov	ecx,[eax+0Ch]
	test	esi,esi
	cmovnz	edx,esi

l0072AE38:
	mov	[esp+18h],ecx
	mov	edi,8DA718h
	lea	esi,[edx+14h]
	mov	ecx,0Ah
	xor	ebx,ebx

l0072AE4B:
	rep cmpsb

l0072AE4D:
	jnz	72AE63h

l0072AE4F:
	push	8DA884h
	mov	eax,ebp
	call	728360h
	add	esp,4h
	jmp	72AF5Ch

l0072AE63:
	push	edx
	mov	edx,[eax+1Ch]
	push	edx
	call	726150h
	mov	esi,eax
	add	esp,8h
	test	esi,esi
	jz	72AF90h

l0072AE7A:
	mov	eax,[ebp+18h]
	mov	ecx,[eax]
	push	esi
	push	ecx
	xor	ebx,ebx
	mov	edi,3h
	call	7475E0h
	add	eax,0FFh
	add	esp,8h
	cmp	eax,4h
	ja	72AEE3h

l0072AE98:
	jmp	dword ptr [72B018h+eax*4]

l0072AE9F:
	mov	edx,[ebp+18h]
	mov	eax,[edx+18h]
	mov	[esp+18h],eax
	mov	edi,2h
	jmp	72AEE3h

l0072AEB0:
	mov	ecx,[ebp+18h]
	mov	edx,[ecx+14h]
	mov	[esp+18h],edx
	mov	edi,2h
	jmp	72AEE3h

l0072AEC1:
	mov	eax,[ebp+18h]
	mov	ecx,[eax]
	cmp	[ecx+1Ch],ebx
	jnz	72AEE3h

l0072AECB:
	xor	edi,edi
	jmp	72AEE3h

l0072AECF:
	mov	edx,[ebp+18h]
	mov	eax,[edx]
	cmp	[eax+1Ch],ebx
	jnz	72AEE3h

l0072AED9:
	cmp	[eax+20h],ebx
	jnz	72AEE3h

l0072AEDE:
	mov	edi,1h

l0072AEE3:
	jmp	dword ptr [72B02Ch+edi*4]
0072AEEA                               BB 89 00 00 00 EB           ......
0072AEF0 39 8B 45 18 8B 40 10 56 6A 7D 55 E8 B0 E0 FF FF 9.E..@.Vj}U.....
0072AF00 83 C4 0C 85 C0 0F 84 85 00 00 00 83 06 FF 75 50 ..............uP
0072AF10 8B 4E 04 8B 51 18 56 FF D2 83 C4 04 EB 42 BB 61 .N..Q.V......B.a
0072AF20 00 00 00 EB 05 BB 5A 00 00 00 8B 44 24 18 50 8B ......Z....D$.P.
0072AF30 C6 E8 AA C7 FF FF 83 C4 04 83 06 FF 8B F8 75 0C ..............u.
0072AF40 8B 4E 04 8B 51 18 56 FF D2 83 C4 04 85 FF 7C 40 .N..Q.V.......|@
0072AF50 57 53 8B C5 E8 B7 C8 FF FF 83 C4 08             WS..........   

l0072AF5C:
	test	eax,eax
	jz	72AF90h

l0072AF60:
	mov	eax,[esp+1Ch]
	add	eax,1h
	cmp	eax,[esp+10h]
	mov	[esp+1Ch],eax
	jge	72AFB3h

l0072AF71:
	jmp	72ADF0h

l0072AF76:
	mov	ebx,54h
	mov	eax,ebp
	call	727670h
	pop	edi
	neg	eax
	pop	esi
	sbb	eax,eax
	pop	ebp
	neg	eax
	pop	ebx
	add	esp,10h
	ret

l0072AF90:
	mov	eax,[esp+14h]
	add	dword ptr [eax],0FFh
	jnz	72AC93h

l0072AF9D:
	mov	ecx,[eax+4h]
	mov	edx,[ecx+18h]
	push	eax
	call	edx
	add	esp,4h
	pop	edi
	pop	esi
	pop	ebp
	xor	eax,eax
	pop	ebx
	add	esp,10h
	ret

l0072AFB3:
	mov	eax,[ebp+18h]
	mov	esi,[eax+28h]
	call	727420h
	test	eax,eax
	jl	72AC93h

l0072AFC6:
	mov	edx,[ebp+18h]
	lea	ecx,[eax+eax*4]
	mov	eax,[edx+28h]
	mov	eax,[eax+0Ch]
	add	ecx,ecx
	add	ecx,ecx
	and	dword ptr [eax+ecx],0FBh
	add	eax,ecx
	mov	byte ptr [eax+4h],1h
	mov	edx,[ebp+18h]
	cmp	dword ptr [edx+0DCh],0h
	jnz	72B00Bh

l0072AFEC:
	mov	eax,edx
	mov	dword ptr [eax+0DCh],1h
	mov	ebp,[ebp+18h]
	mov	edx,[ebp+28h]
	mov	eax,[edx+0Ch]
	mov	edx,[ebp+0D8h]
	mov	[eax+ecx+10h],edx

l0072B00B:
	pop	edi
	pop	esi
	pop	ebp
	mov	eax,1h
	pop	ebx
	add	esp,10h
	ret
l0072B018	dd	0x0072AEC1
l0072B01C	dd	0x0072AEDE
l0072B020	dd	0x0072AECF
l0072B024	dd	0x0072AE9F
l0072B028	dd	0x0072AEB0
0072B02C                                     F1 AE 72 00             ..r.
0072B030 1E AF 72 00 EA AE 72 00 25 AF 72 00 CC CC CC CC ..r...r.%.r.....

;; fn0072B040: 0072B040
;;   Called from:
;;     0072B56B (in fn0072B360)
fn0072B040 proc
	sub	esp,14h
	push	ebp
	push	esi
	mov	esi,[esp+20h]
	mov	eax,[esi+4h]
	push	eax
	xor	ebp,ebp
	push	edi
	mov	[esp+1Ch],ebp
	call	72B360h
	add	esp,8h
	test	eax,eax
	jnz	72B066h

l0072B060:
	pop	esi
	pop	ebp
	add	esp,14h
	ret

l0072B066:
	push	ebx
	mov	ebx,[esi+8h]
	cmp	ebx,ebp
	jnz	72B074h

l0072B06E:
	mov	[esp+0Ch],ebp
	jmp	72B07Ah

l0072B074:
	mov	ecx,[ebx]
	mov	[esp+0Ch],ecx

l0072B07A:
	lea	esi,[ebx+4h]
	lea	ecx,[ecx+0h]

l0072B080:
	test	ebx,ebx
	jnz	72B088h

l0072B084:
	xor	eax,eax
	jmp	72B08Ah

l0072B088:
	mov	eax,[ebx]

l0072B08A:
	cmp	ebp,eax
	jge	72B0AAh

l0072B08E:
	mov	eax,[esi]
	push	eax
	push	edi
	call	72B360h
	add	esp,8h
	test	eax,eax
	jz	72B264h

l0072B0A2:
	add	ebp,1h
	add	esi,4h
	jmp	72B080h

l0072B0AA:
	mov	esi,[esp+24h]
	mov	eax,[esi+0Ch]
	test	eax,eax
	mov	[esp+1Ch],eax
	jz	72B198h

l0072B0BD:
	lea	edx,[eax+4h]
	mov	dword ptr [esp+10h],0h
	mov	[esp+14h],edx
	lea	esp,[esp+0h]

l0072B0D0:
	test	eax,eax
	jz	72B0D6h

l0072B0D4:
	mov	eax,[eax]

l0072B0D6:
	cmp	[esp+10h],eax
	jge	72B188h

l0072B0E0:
	mov	eax,[esp+14h]
	mov	ecx,[edi+18h]
	mov	ebx,[eax]
	mov	ecx,[ecx+8h]
	mov	eax,[ebx]
	push	ecx
	call	7276E0h
	mov	ebp,eax
	add	esp,4h
	test	ebp,ebp
	jl	72B264h

l0072B101:
	mov	edx,[edi+18h]
	mov	esi,[edx+28h]
	call	727420h
	test	eax,eax
	jl	72B264h

l0072B114:
	lea	ecx,[eax+eax*4]
	mov	eax,[edi+18h]
	mov	edx,[eax+28h]
	mov	eax,[edx+0Ch]
	add	ecx,ecx
	add	ecx,ecx
	or	dword ptr [eax+ecx],4h
	add	eax,ecx
	mov	byte ptr [eax+4h],64h
	mov	[eax+8h],ebp
	mov	eax,[edi+18h]
	cmp	dword ptr [eax+0DCh],0h
	jnz	72B15Ch

l0072B13D:
	mov	edx,eax
	mov	dword ptr [edx+0DCh],1h
	mov	eax,[edi+18h]
	mov	edx,[eax+28h]
	mov	edx,[edx+0Ch]
	mov	eax,[eax+0D8h]
	mov	[edx+ecx+10h],eax

l0072B15C:
	mov	ecx,[ebx+4h]
	push	ecx
	push	edi
	call	72B360h
	add	esp,8h
	test	eax,eax
	jz	72B264h

l0072B171:
	add	dword ptr [esp+10h],1h
	add	dword ptr [esp+14h],4h
	mov	eax,[esp+1Ch]
	mov	esi,[esp+24h]
	jmp	72B0D0h

l0072B188:
	mov	eax,[esi+0Ch]
	test	eax,eax
	jz	72B191h

l0072B18F:
	mov	eax,[eax]

l0072B191:
	shl	eax,8h
	or	[esp+0Ch],eax

l0072B198:
	mov	eax,[esi+10h]
	test	eax,eax
	jz	72B1B9h

l0072B19F:
	push	eax
	push	edi
	call	72B360h
	add	esp,8h
	test	eax,eax
	jz	72B264h

l0072B1B1:
	mov	dword ptr [esp+18h],1h

l0072B1B9:
	mov	eax,[esi+14h]
	test	eax,eax
	jz	72B1DBh

l0072B1C0:
	push	eax
	push	edi
	call	72B360h
	add	esp,8h
	test	eax,eax
	jz	72B264h

l0072B1D2:
	mov	eax,[esp+18h]
	or	eax,2h
	jmp	72B1DFh

l0072B1DB:
	mov	eax,[esp+18h]

l0072B1DF:
	cmp	eax,3h
	ja	72B26Dh

l0072B1E8:
	jmp	dword ptr [72B27Ch+eax*4]

l0072B1EF:
	mov	edx,[esp+0Ch]
	push	edx
	push	83h
	mov	eax,edi
	call	727810h
	add	esp,8h
	test	eax,eax
	jnz	72B26Dh

l0072B207:
	pop	ebx
	pop	esi
	pop	ebp
	add	esp,14h
	ret

l0072B20E:
	mov	eax,[esp+0Ch]
	push	eax
	push	8Ch
	mov	eax,edi
	call	727810h
	add	esp,8h
	test	eax,eax
	jnz	72B26Dh

l0072B226:
	pop	ebx
	pop	esi
	pop	ebp
	add	esp,14h
	ret

l0072B22D:
	mov	ecx,[esp+0Ch]
	push	ecx
	push	8Dh
	mov	eax,edi
	call	727810h
	add	esp,8h
	test	eax,eax
	jnz	72B26Dh

l0072B245:
	pop	ebx
	pop	esi
	pop	ebp
	add	esp,14h
	ret

l0072B24C:
	mov	edx,[esp+0Ch]
	push	edx
	push	8Eh
	mov	eax,edi
	call	727810h
	add	esp,8h
	test	eax,eax
	jnz	72B26Dh

l0072B264:
	pop	ebx
	pop	esi
	xor	eax,eax
	pop	ebp
	add	esp,14h
	ret

l0072B26D:
	pop	ebx
	pop	esi
	mov	eax,1h
	pop	ebp
	add	esp,14h
	ret
0072B279                            8D 49 00                      .I.   
l0072B27C	dd	0x0072B1EF
l0072B280	dd	0x0072B20E
l0072B284	dd	0x0072B22D
l0072B288	dd	0x0072B24C
0072B28C                                     CC CC CC CC             ....

l0072B290:
	push	ebx
	push	esi
	mov	esi,eax
	mov	eax,[esi+8h]
	push	edi
	mov	edi,ecx
	mov	ecx,[eax+4h]
	mov	eax,[0A6DBE8h]
	test	eax,eax
	mov	ebx,[ecx+4h]
	jnz	72B2C5h

l0072B2A9:
	push	8DA8FCh
	call	6ECAC0h
	add	esp,4h
	test	eax,eax
	mov	[0A6DBE8h],eax
	jnz	72B2C5h

l0072B2BF:
	pop	edi
	pop	esi
	xor	eax,eax
	pop	ebx
	ret

l0072B2C5:
	mov	edx,[esi+18h]
	push	edx
	push	esi
	mov	ecx,edi
	call	728E40h
	add	esp,8h
	test	eax,eax
	jz	72B2BFh

l0072B2D8:
	mov	eax,[esi+4h]
	mov	ecx,[esi+8h]
	push	eax
	push	0h
	push	ecx
	push	edi
	call	729F50h
	push	1h
	push	edi
	call	72A350h
	add	esp,18h
	mov	esi,eax
	call	727290h
	test	esi,esi
	jz	72B2BFh

l0072B2FE:
	push	0h
	push	esi
	mov	eax,edi
	call	729040h
	add	esp,8h
	add	dword ptr [esi],0FFh
	jnz	72B31Ch

l0072B310:
	mov	edx,[esi+4h]
	mov	eax,[edx+18h]
	push	esi
	call	eax
	add	esp,4h

l0072B31C:
	push	ebx
	push	edi
	call	72B360h
	add	esp,8h
	test	eax,eax
	jz	72B2BFh

l0072B32A:
	mov	ebx,44h
	mov	eax,edi
	call	727670h
	test	eax,eax
	jz	72B2BFh

l0072B33A:
	push	1h
	push	83h
	mov	eax,edi
	call	727810h
	add	esp,8h
	neg	eax
	pop	edi
	sbb	eax,eax
	pop	esi
	neg	eax
	pop	ebx
	ret
0072B355                CC CC CC CC CC CC CC CC CC CC CC      ...........

;; fn0072B360: 0072B360
;;   Called from:
;;     00727A70 (in fn007279E0)
;;     00727AA8 (in fn007279E0)
;;     00727AEA (in fn007279E0)
;;     00727DDD (in fn00727D50)
;;     00727EBB (in fn00727D50)
;;     00727F49 (in fn00727EF0)
;;     00727FE9 (in fn00727F90)
;;     00728047 (in fn00728030)
;;     0072808B (in fn00728030)
;;     007281D4 (in fn00728030)
;;     007281FF (in fn00728030)
;;     00729964 (in fn00729810)
;;     007299C5 (in fn00729810)
;;     007299FD (in fn00729810)
;;     00729AB2 (in fn00729810)
;;     0072A11C (in fn00729F50)
;;     0072A171 (in fn00729F50)
;;     0072A19F (in fn00729F50)
;;     0072A236 (in fn00729F50)
;;     0072A58B (in fn0072A520)
;;     0072A624 (in fn0072A5D0)
;;     0072A67F (in fn0072A5D0)
;;     0072B054 (in fn0072B040)
;;     0072B092 (in fn0072B040)
;;     0072B161 (in fn0072B040)
;;     0072B1A1 (in fn0072B040)
;;     0072B1C2 (in fn0072B040)
;;     0072B31E (in fn0072B360)
;;     0072B3B3 (in fn0072B360)
;;     0072B3C4 (in fn0072B360)
;;     0072B3F9 (in fn0072B360)
;;     0072B47D (in fn0072B360)
;;     0072B4AA (in fn0072B360)
;;     0072B524 (in fn0072B360)
;;     0072B57D (in fn0072B360)
;;     0072B5D6 (in fn0072B360)
;;     0072B6AB (in fn0072B360)
;;     0072B6D4 (in fn0072B360)
;;     0072B711 (in fn0072B360)
;;     0072B73A (in fn0072B360)
;;     0072B892 (in fn0072B830)
;;     0072BA2A (in fn0072B830)
;;     0072BA3B (in fn0072B830)
;;     0072BA69 (in fn0072B830)
;;     0072BAA3 (in fn0072B830)
;;     0072BAB4 (in fn0072B830)
;;     0072BAE2 (in fn0072B830)
;;     0072BB2F (in fn0072BB20)
;;     0072BB71 (in fn0072BB20)
;;     0072BBB8 (in fn0072BB20)
;;     0072BC0C (in fn0072BBE0)
;;     0072BC32 (in fn0072BBE0)
;;     0072BD74 (in fn0072BD40)
;;     0072BDF6 (in fn0072BDC0)
;;     0072BF66 (in fn0072BF10)
;;     0072C12F (in fn0072C110)
;;     0072C1B9 (in fn0072C160)
;;     0072C576 (in fn0072C510)
;;     0072CA3E (in fn0072CA10)
;;     0072CAD0 (in fn0072CA10)
;;     0072CB4C (in fn0072CA10)
;;     0072CDB8 (in fn0072CC90)
;;     0072CFF2 (in fn0072CEE0)
;;     0072D04F (in fn0072CEE0)
;;     0072D2A1 (in fn0072D130)
;;     0072D697 (in fn0072D3D0)
;;     0072D705 (in fn0072D3D0)
;;     0072D86D (in fn0072D830)
;;     0072D8D5 (in fn0072D830)
;;     0072D99D (in fn0072D920)
;;     0072DA07 (in fn0072D920)
;;     0072DA2D (in fn0072D920)
;;     0072DA78 (in fn0072D920)
;;     0072DAEF (in fn0072D920)
;;     0072DB0D (in fn0072D920)
;;     0072DB2B (in fn0072D920)
;;     0072DBAD (in fn0072D920)
;;     0072DBC6 (in fn0072D920)
;;     0072DBDF (in fn0072D920)
;;     0072DC51 (in fn0072D920)
;;     0072DC84 (in fn0072D920)
;;     0072DE9C (in fn0072DD60)
;;     0072E353 (in fn0072DD60)
;;     0072E713 (in fn0072E660)
fn0072B360 proc
	push	ebx
	push	ebp
	push	esi
	mov	esi,[esp+14h]
	mov	eax,[esi+18h]
	push	edi
	mov	edi,[esp+14h]
	mov	ecx,[edi+18h]
	xor	ebp,ebp
	cmp	eax,[ecx+0D8h]
	jle	72B38Dh

l0072B37C:
	mov	edx,ecx
	mov	[edx+0D8h],eax
	mov	eax,[edi+18h]
	mov	[eax+0DCh],ebp

l0072B38D:
	mov	eax,[esi]
	add	eax,0FFh
	cmp	eax,12h
	ja	72B4D7h

l0072B39B:
	jmp	dword ptr [72B7B0h+eax*4]

l0072B3A2:
	mov	eax,esi
	call	727D50h
	pop	edi
	pop	esi
	pop	ebp
	pop	ebx
	ret

l0072B3AE:
	mov	ecx,[esi+4h]
	push	ecx
	push	edi
	call	72B360h
	add	esp,8h
	test	eax,eax
	jz	72B3EDh

l0072B3BF:
	mov	edx,[esi+0Ch]
	push	edx
	push	edi
	call	72B360h
	add	esp,8h
	test	eax,eax
	jz	72B3EDh

l0072B3D0:
	mov	eax,[esi+8h]
	push	edi
	call	727B60h
	add	esp,4h

l0072B3DC:
	mov	ebx,eax

l0072B3DE:
	mov	eax,edi
	call	727670h

l0072B3E5:
	test	eax,eax
	jnz	72B4D7h

l0072B3ED:
	pop	edi
	pop	esi
	pop	ebp
	xor	eax,eax
	pop	ebx
	ret

l0072B3F4:
	mov	eax,[esi+8h]
	push	eax
	push	edi
	call	72B360h
	add	esp,8h
	test	eax,eax
	jz	72B3EDh

l0072B405:
	mov	eax,[esi+4h]
	call	727B20h
	jmp	72B3DCh

l0072B40F:
	push	esi
	mov	eax,edi
	call	72A5D0h
	add	esp,4h
	pop	edi
	pop	esi
	pop	ebp
	pop	ebx
	ret

l0072B41F:
	push	esi
	push	edi
	call	7279E0h
	add	esp,8h
	pop	edi
	pop	esi
	pop	ebp
	pop	ebx
	ret

l0072B42E:
	push	ebp
	push	68h
	mov	eax,edi
	call	727810h
	add	esp,8h
	test	eax,eax
	jz	72B3EDh

l0072B43F:
	mov	eax,[esi+8h]
	cmp	eax,ebp
	jnz	72B44Ch

l0072B446:
	mov	[esp+14h],ebp
	jmp	72B452h

l0072B44C:
	mov	ecx,[eax]
	mov	[esp+14h],ecx

l0072B452:
	cmp	[esp+14h],ebp
	jle	72B4D7h

l0072B458:
	jmp	72B460h
0072B45A                               8D 9B 00 00 00 00           ......

l0072B460:
	mov	ebx,4h
	mov	eax,edi
	call	727670h
	test	eax,eax
	jz	72B3EDh

l0072B474:
	mov	edx,[esi+8h]
	mov	eax,[edx+ebp*4+4h]
	push	eax
	push	edi
	call	72B360h
	add	esp,8h
	test	eax,eax
	jz	72B3EDh

l0072B48D:
	mov	ebx,2h
	mov	eax,edi
	call	727670h
	test	eax,eax
	jz	72B3EDh

l0072B4A1:
	mov	ecx,[esi+4h]
	mov	edx,[ecx+ebp*4+4h]
	push	edx
	push	edi
	call	72B360h
	add	esp,8h
	test	eax,eax
	jz	72B3EDh

l0072B4BA:
	mov	ebx,3Ch
	mov	eax,edi
	call	727670h
	test	eax,eax
	jz	72B3EDh

l0072B4CE:
	add	ebp,1h
	cmp	ebp,[esp+14h]
	jl	72B460h

l0072B4D7:
	pop	edi
	pop	esi
	pop	ebp
	mov	eax,1h
	pop	ebx
	ret

l0072B4E1:
	push	esi
	push	edi
	call	729D20h
	add	esp,8h
	pop	edi
	pop	esi
	pop	ebp
	pop	ebx
	ret

l0072B4F0:
	mov	ecx,edi
	pop	edi
	mov	eax,esi
	pop	esi
	pop	ebp
	pop	ebx
	jmp	72B290h

l0072B4FD:
	mov	eax,[edi+18h]
	mov	ecx,[eax]
	cmp	[ecx+1Ch],ebp
	jz	72B51Bh

l0072B507:
	push	8DA958h
	mov	eax,edi
	call	728360h
	add	esp,4h
	pop	edi
	pop	esi
	pop	ebp
	pop	ebx
	ret

l0072B51B:
	mov	esi,[esi+4h]
	cmp	esi,ebp
	jz	72B535h

l0072B522:
	push	esi
	push	edi
	call	72B360h
	add	esp,8h
	test	eax,eax
	jnz	72B550h

l0072B530:
	pop	edi
	pop	esi
	pop	ebp
	pop	ebx
	ret

l0072B535:
	mov	eax,[eax+8h]
	push	0A163B8h
	push	64h
	push	edi
	call	728FB0h
	add	esp,0Ch
	test	eax,eax
	jz	72B3EDh

l0072B550:
	mov	ebx,56h
	jmp	72B3DEh

l0072B55A:
	push	esi
	mov	eax,edi
	call	728030h
	add	esp,4h
	pop	edi
	pop	esi
	pop	ebp
	pop	ebx
	ret

l0072B56A:
	push	esi
	call	72B040h
	add	esp,4h
	pop	edi
	pop	esi
	pop	ebp
	pop	ebx
	ret

l0072B578:
	mov	edx,[esi+4h]
	push	edx
	push	edi
	call	72B360h
	add	esp,8h
	test	eax,eax
	jz	72B3EDh

l0072B58D:
	mov	ebx,0Dh
	jmp	72B3DEh

l0072B597:
	mov	eax,[esi+4h]
	mov	ecx,[edi+18h]
	push	eax
	mov	eax,[ecx+8h]
	push	64h
	push	edi
	call	728FB0h
	add	esp,0Ch
	jmp	72B3E5h

l0072B5B1:
	mov	edx,[esi+4h]
	mov	eax,[edi+18h]
	mov	eax,[eax+8h]
	push	edx
	push	64h
	push	edi
	call	728FB0h
	add	esp,0Ch
	jmp	72B3E5h

l0072B5CB:
	cmp	dword ptr [esi+0Ch],5h
	jz	72B5E6h

l0072B5D1:
	mov	ecx,[esi+4h]
	push	ecx
	push	edi
	call	72B360h
	add	esp,8h
	test	eax,eax
	jz	72B3EDh

l0072B5E6:
	mov	eax,[esi+0Ch]
	add	eax,0FFh
	cmp	eax,4h
	ja	72B675h

l0072B5F5:
	jmp	dword ptr [72B7FCh+eax*4]

l0072B5FC:
	mov	ebx,4h
	mov	eax,edi
	call	727670h
	test	eax,eax
	jz	72B3EDh

l0072B610:
	mov	edx,[edi+18h]
	mov	eax,[edx+0Ch]
	push	eax
	mov	eax,[esi+8h]
	push	69h
	mov	ebx,edi
	call	728FE0h
	add	esp,8h
	jmp	72B3E5h

l0072B62B:
	mov	ebx,2h
	mov	eax,edi
	call	727670h
	test	eax,eax
	jz	72B3EDh

l0072B63F:
	mov	ecx,[edi+18h]
	mov	edx,[ecx+0Ch]
	mov	eax,[esi+8h]
	push	edx
	push	5Fh
	mov	ebx,edi
	call	728FE0h
	add	esp,8h
	jmp	72B3E5h

l0072B65A:
	mov	eax,[edi+18h]
	mov	ecx,[eax+0Ch]
	mov	eax,[esi+8h]
	push	ecx
	push	60h
	mov	ebx,edi
	call	728FE0h
	add	esp,8h
	jmp	72B3E5h

l0072B675:
	mov	edx,[0A18720h]
	push	8DA930h
	push	edx
	call	6E0F80h
	add	esp,8h
	pop	edi
	pop	esi
	pop	ebp
	xor	eax,eax
	pop	ebx
	ret

l0072B690:
	mov	eax,[esi+0Ch]
	add	eax,0FFh
	cmp	eax,4h
	ja	72B75Eh

l0072B69F:
	jmp	dword ptr [72B810h+eax*4]

l0072B6A6:
	mov	eax,[esi+4h]
	push	eax
	push	edi
	call	72B360h
	add	esp,8h
	test	eax,eax
	jz	72B3EDh

l0072B6BB:
	mov	ecx,[esi+8h]
	push	4h
	push	ecx
	push	edi
	call	72BDC0h
	add	esp,0Ch
	jmp	72B3E5h

l0072B6CF:
	mov	edx,[esi+4h]
	push	edx
	push	edi
	call	72B360h
	add	esp,8h
	test	eax,eax
	jz	72B3EDh

l0072B6E4:
	mov	eax,[esi+8h]
	push	1h
	push	eax
	push	edi
	call	72BDC0h
	add	esp,0Ch
	jmp	72B3E5h

l0072B6F8:
	mov	ecx,[esi+8h]
	push	5h
	push	ecx
	push	edi
	call	72BDC0h
	add	esp,0Ch
	jmp	72B3E5h

l0072B70C:
	mov	edx,[esi+4h]
	push	edx
	push	edi
	call	72B360h
	add	esp,8h
	test	eax,eax
	jz	72B3EDh

l0072B721:
	mov	eax,[esi+8h]
	push	2h
	push	eax
	push	edi
	call	72BDC0h
	add	esp,0Ch
	jmp	72B3E5h

l0072B735:
	mov	ecx,[esi+4h]
	push	ecx
	push	edi
	call	72B360h
	add	esp,8h
	test	eax,eax
	jz	72B3EDh

l0072B74A:
	mov	edx,[esi+8h]
	push	3h
	push	edx
	push	edi
	call	72BDC0h
	add	esp,0Ch
	jmp	72B3E5h

l0072B75E:
	mov	eax,[0A18720h]
	push	8DA908h
	push	eax
	call	6E0F80h
	add	esp,8h
	pop	edi
	pop	esi
	pop	ebp
	xor	eax,eax
	pop	ebx
	ret

l0072B778:
	mov	ecx,[esi+8h]
	mov	edx,[esi+4h]
	push	ecx
	push	edx
	mov	ebx,edi
	call	729510h
	add	esp,8h
	pop	edi
	pop	esi
	pop	ebp
	pop	ebx
	ret

l0072B78F:
	push	esi
	push	edi
	call	727EF0h
	add	esp,8h
	pop	edi
	pop	esi
	pop	ebp
	pop	ebx
	ret

l0072B79E:
	push	esi
	push	edi
	call	727F90h
	add	esp,8h
	pop	edi
	pop	esi
	pop	ebp
	pop	ebx
	ret
0072B7AD                                        8D 49 00              .I.
l0072B7B0	dd	0x0072B3A2
l0072B7B4	dd	0x0072B3AE
l0072B7B8	dd	0x0072B3F4
l0072B7BC	dd	0x0072B40F
l0072B7C0	dd	0x0072B41F
l0072B7C4	dd	0x0072B42E
l0072B7C8	dd	0x0072B4E1
l0072B7CC	dd	0x0072B4F0
l0072B7D0	dd	0x0072B4FD
l0072B7D4	dd	0x0072B55A
l0072B7D8	dd	0x0072B56A
l0072B7DC	dd	0x0072B578
l0072B7E0	dd	0x0072B597
l0072B7E4	dd	0x0072B5B1
l0072B7E8	dd	0x0072B5CB
l0072B7EC	dd	0x0072B690
l0072B7F0	dd	0x0072B778
l0072B7F4	dd	0x0072B78F
l0072B7F8	dd	0x0072B79E
l0072B7FC	dd	0x0072B610
l0072B800	dd	0x0072B63F
l0072B804	dd	0x0072B65A
l0072B808	dd	0x0072B5FC
l0072B80C	dd	0x0072B62B
l0072B810	dd	0x0072B6CF
l0072B814	dd	0x0072B70C
l0072B818	dd	0x0072B735
l0072B81C	dd	0x0072B6A6
l0072B820	dd	0x0072B6F8
0072B824             CC CC CC CC CC CC CC CC CC CC CC CC     ............

;; fn0072B830: 0072B830
;;   Called from:
;;     0072DA9C (in fn0072D920)
fn0072B830 proc
	push	ecx
	push	ebx
	push	ebp
	mov	ebp,[esp+10h]
	push	esi
	push	edi
	mov	edi,eax
	mov	esi,[edi+4h]
	mov	ecx,[esi]
	mov	eax,ecx
	sub	eax,0Fh
	jz	72BA7Dh

l0072B84B:
	sub	eax,1h
	jz	72BA04h

l0072B854:
	sub	eax,1h
	jz	72B875h

l0072B859:
	mov	eax,[0A18720h]
	push	ecx
	push	8DA974h
	push	eax
	call	6E15D0h
	add	esp,0Ch
	pop	edi
	pop	esi
	pop	ebp
	xor	eax,eax
	pop	ebx
	pop	ecx
	ret

l0072B875:
	mov	ecx,[esi+4h]
	push	1h
	push	ecx
	mov	ebx,ebp
	call	729510h
	add	esp,8h
	test	eax,eax
	jz	72BA75h

l0072B88D:
	mov	edx,[edi+0Ch]
	push	edx
	push	ebp
	call	72B360h
	add	esp,8h
	test	eax,eax
	jz	72BA75h

l0072B8A2:
	mov	ecx,[edi+8h]
	push	ebp
	call	727C90h
	mov	ebx,eax
	add	esp,4h
	mov	eax,ebp
	call	727670h
	test	eax,eax
	jz	72BA75h

l0072B8BF:
	mov	edx,[ebp+18h]
	mov	ecx,[edx+0Ch]
	mov	eax,[esi+4h]
	mov	[esp+10h],ecx
	mov	edi,8DA718h
	lea	esi,[eax+14h]
	mov	ecx,0Ah
	xor	ebx,ebx

l0072B8DB:
	rep cmpsb

l0072B8DD:
	jnz	72B8F4h

l0072B8DF:
	push	8DA884h
	mov	eax,ebp
	call	728360h
	add	esp,4h
	pop	edi
	pop	esi
	pop	ebp
	pop	ebx
	pop	ecx
	ret

l0072B8F4:
	mov	edx,[edx+1Ch]
	push	eax
	push	edx
	call	726150h
	mov	esi,eax
	add	esp,8h
	test	esi,esi
	jz	72BA75h

l0072B90B:
	mov	eax,[ebp+18h]
	mov	ecx,[eax]
	push	esi
	push	ecx
	xor	ebx,ebx
	mov	edi,3h
	call	7475E0h
	add	eax,0FFh
	add	esp,8h
	cmp	eax,4h
	ja	72B974h

l0072B929:
	jmp	dword ptr [72BAFCh+eax*4]

l0072B930:
	mov	edx,[ebp+18h]
	mov	eax,[edx+18h]
	mov	[esp+10h],eax
	mov	edi,2h
	jmp	72B974h

l0072B941:
	mov	ecx,[ebp+18h]
	mov	edx,[ecx+14h]
	mov	[esp+10h],edx
	mov	edi,2h
	jmp	72B974h

l0072B952:
	mov	eax,[ebp+18h]
	mov	ecx,[eax]
	cmp	[ecx+1Ch],ebx
	jnz	72B974h

l0072B95C:
	xor	edi,edi
	jmp	72B974h

l0072B960:
	mov	edx,[ebp+18h]
	mov	eax,[edx]
	cmp	[eax+1Ch],ebx
	jnz	72B974h

l0072B96A:
	cmp	[eax+20h],ebx
	jnz	72B974h

l0072B96F:
	mov	edi,1h

l0072B974:
	jmp	dword ptr [72BB10h+edi*4]
0072B97B                                  BB 89 00 00 00            .....
0072B980 EB 46 8B 45 18 8B 40 10 56 6A 7D 55 E8 1F D6 FF .F.E..@.Vj}U....
0072B990 FF 83 C4 0C 85 C0 0F 84 D9 00 00 00 83 06 FF 0F ................
0072B9A0 85 49 01 00 00 8B 4E 04 8B 51 18 56 FF D2 83 C4 .I....N..Q.V....
0072B9B0 04 5F 5E 5D B8 01 00 00 00 5B 59 C3 BB 61 00 00 ._^].....[Y..a..
0072B9C0 00 EB 05 BB 5A 00 00 00 8B 44 24 10 50 8B C6 E8 ....Z....D$.P...
0072B9D0 0C BD FF FF 83 C4 04 83 06 FF 8B F8 75 0C 8B 4E ............u..N
0072B9E0 04 8B 51 18 56 FF D2 83 C4 04 85 FF 0F 8C 83 00 ..Q.V...........
0072B9F0 00 00 57 53 8B C5 E8 15 BE FF FF 83 C4 08 5F 5E ..WS.........._^
0072BA00 5D 5B 59 C3                                     ][Y.           

l0072BA04:
	mov	eax,[ebp+24h]
	mov	ecx,[esi+1Ch]
	mov	edx,[esi+18h]
	push	eax
	mov	eax,[esi+8h]
	push	ecx
	mov	ecx,[esi+4h]
	push	edx
	push	4h
	push	eax
	push	ecx
	call	743E30h
	mov	esi,eax
	add	esp,18h
	test	esi,esi
	jz	72BA75h

l0072BA28:
	push	esi
	push	ebp
	call	72B360h
	add	esp,8h
	test	eax,eax
	jz	72BA75h

l0072BA36:
	mov	edx,[edi+0Ch]
	push	edx
	push	ebp
	call	72B360h
	add	esp,8h
	test	eax,eax
	jz	72BA75h

l0072BA47:
	mov	ecx,[edi+8h]
	push	ebp
	call	727C90h
	mov	ebx,eax
	add	esp,4h
	mov	eax,ebp
	call	727670h
	test	eax,eax
	jz	72BA75h

l0072BA60:
	push	esi
	push	ebp
	mov	dword ptr [esi+0Ch],5h
	call	72B360h
	add	esp,8h
	test	eax,eax
	jnz	72BAEEh

l0072BA75:
	pop	edi
	pop	esi
	pop	ebp
	xor	eax,eax
	pop	ebx
	pop	ecx
	ret

l0072BA7D:
	mov	eax,[ebp+24h]
	mov	ecx,[esi+1Ch]
	mov	edx,[esi+18h]
	push	eax
	mov	eax,[esi+8h]
	push	ecx
	mov	ecx,[esi+4h]
	push	edx
	push	4h
	push	eax
	push	ecx
	call	743D80h
	mov	esi,eax
	add	esp,18h
	test	esi,esi
	jz	72BA75h

l0072BAA1:
	push	esi
	push	ebp
	call	72B360h
	add	esp,8h
	test	eax,eax
	jz	72BA75h

l0072BAAF:
	mov	edx,[edi+0Ch]
	push	edx
	push	ebp
	call	72B360h
	add	esp,8h
	test	eax,eax
	jz	72BA75h

l0072BAC0:
	mov	ecx,[edi+8h]
	push	ebp
	call	727C90h
	mov	ebx,eax
	add	esp,4h
	mov	eax,ebp
	call	727670h
	test	eax,eax
	jz	72BA75h

l0072BAD9:
	push	esi
	push	ebp
	mov	dword ptr [esi+0Ch],5h
	call	72B360h
	add	esp,8h
	test	eax,eax
	jz	72BA75h

l0072BAEE:
	pop	edi
	pop	esi
	pop	ebp
	mov	eax,1h
	pop	ebx
	pop	ecx
	ret
0072BAF9                            8D 49 00                      .I.   
l0072BAFC	dd	0x0072B952
l0072BB00	dd	0x0072B96F
l0072BB04	dd	0x0072B960
l0072BB08	dd	0x0072B930
l0072BB0C	dd	0x0072B941
0072BB10 82 B9 72 00 BC B9 72 00 7B B9 72 00 C3 B9 72 00 ..r...r.{.r...r.

;; fn0072BB20: 0072BB20
;;   Called from:
;;     0072BD83 (in fn0072BD40)
;;     0072BE6F (in fn0072BDC0)
fn0072BB20 proc
	mov	eax,[edi+4h]
	test	eax,eax
	push	ebx
	mov	ebx,2h
	jz	72BB3Fh

l0072BB2D:
	push	eax
	push	esi
	call	72B360h
	add	esp,8h
	test	eax,eax
	jnz	72BB68h

l0072BB3B:
	xor	eax,eax
	pop	ebx
	ret

l0072BB3F:
	mov	eax,[esi+18h]
	mov	eax,[eax+8h]
	push	eax
	mov	eax,0A163B8h
	call	7276E0h
	add	esp,4h
	test	eax,eax
	jl	72BB7Dh

l0072BB57:
	push	eax
	push	64h
	mov	eax,esi
	call	727810h
	add	esp,8h
	test	eax,eax
	jz	72BB7Dh

l0072BB68:
	mov	eax,[edi+8h]
	test	eax,eax
	jz	72BB81h

l0072BB6F:
	push	eax
	push	esi
	call	72B360h
	add	esp,8h
	test	eax,eax
	jnz	72BBAAh

l0072BB7D:
	xor	eax,eax
	pop	ebx
	ret

l0072BB81:
	mov	ecx,[esi+18h]
	mov	eax,[ecx+8h]
	push	eax
	mov	eax,0A163B8h
	call	7276E0h
	add	esp,4h
	test	eax,eax
	jl	72BB3Bh

l0072BB99:
	push	eax
	push	64h
	mov	eax,esi
	call	727810h
	add	esp,8h
	test	eax,eax
	jz	72BB3Bh

l0072BBAA:
	mov	eax,[edi+0Ch]
	test	eax,eax
	jz	72BBC8h

l0072BBB1:
	push	eax
	push	esi
	mov	ebx,3h
	call	72B360h
	add	esp,8h
	test	eax,eax
	jz	72BB3Bh

l0072BBC8:
	push	ebx
	push	85h
	mov	eax,esi
	call	727810h
	add	esp,8h
	neg	eax
	sbb	eax,eax
	neg	eax
	pop	ebx
	ret

;; fn0072BBE0: 0072BBE0
;;   Called from:
;;     0072BE59 (in fn0072BDC0)
fn0072BBE0 proc
	push	ecx
	push	ebx
	mov	ebx,[esp+0Ch]
	push	ebp
	mov	ebp,[esp+14h]
	push	esi
	push	edi
	mov	edi,eax
	mov	eax,[edi+4h]
	xor	esi,esi
	cmp	eax,esi
	mov	[esp+10h],esi
	jz	72BC1Ch

l0072BBFC:
	cmp	ebp,5h
	mov	esi,1h
	mov	[esp+10h],esi
	jz	72BC1Ch

l0072BC0A:
	push	eax
	push	ebx
	call	72B360h
	add	esp,8h
	test	eax,eax
	jz	72BD21h

l0072BC1C:
	mov	edi,[edi+8h]
	test	edi,edi
	jz	72BC42h

l0072BC23:
	add	dword ptr [esp+10h],2h
	add	esi,1h
	cmp	ebp,5h
	jz	72BC42h

l0072BC30:
	push	edi
	push	ebx
	call	72B360h
	add	esp,8h
	test	eax,eax
	jz	72BD21h

l0072BC42:
	cmp	ebp,4h
	jnz	72BC9Eh

l0072BC47:
	sub	esi,0h
	jz	72BC86h

l0072BC4C:
	sub	esi,1h
	jz	72BC6Eh

l0072BC51:
	sub	esi,1h
	jnz	72BCCFh

l0072BC56:
	push	3h
	push	63h
	mov	eax,ebx
	call	727810h
	add	esp,8h
	test	eax,eax
	jnz	72BCCFh

l0072BC68:
	pop	edi
	pop	esi
	pop	ebp
	pop	ebx
	pop	ecx
	ret

l0072BC6E:
	push	2h
	push	63h
	mov	eax,ebx
	call	727810h
	add	esp,8h
	test	eax,eax
	jnz	72BCCFh

l0072BC80:
	pop	edi
	pop	esi
	pop	ebp
	pop	ebx
	pop	ecx
	ret

l0072BC86:
	mov	ebx,4h

l0072BC8B:
	mov	eax,[esp+18h]
	call	727670h
	test	eax,eax
	jnz	72BCCFh

l0072BC98:
	pop	edi
	pop	esi
	pop	ebp
	pop	ebx
	pop	ecx
	ret

l0072BC9E:
	cmp	ebp,5h
	jnz	72BCCFh

l0072BCA3:
	sub	esi,0h
	jz	72BCBDh

l0072BCA8:
	sub	esi,1h
	jz	72BCB6h

l0072BCAD:
	sub	esi,1h
	jnz	72BCCFh

l0072BCB2:
	mov	ebx,ebp
	jmp	72BC8Bh

l0072BCB6:
	mov	ebx,3h
	jmp	72BC8Bh

l0072BCBD:
	mov	eax,[esp+18h]
	mov	ebx,2h
	call	727670h
	test	eax,eax
	jz	72BD21h

l0072BCCF:
	lea	eax,[ebp-1h]
	cmp	eax,4h
	ja	72BD0Dh

l0072BCD7:
	jmp	dword ptr [72BD2Ch+eax*4]

l0072BCDE:
	mov	eax,1Eh
	jmp	72BCF1h

l0072BCE5:
	mov	eax,28h
	jmp	72BCF1h

l0072BCEC:
	mov	eax,32h

l0072BCF1:
	mov	ecx,[esp+10h]
	lea	ebx,[ecx+eax]
	mov	eax,[esp+18h]
	call	727670h
	pop	edi
	neg	eax
	pop	esi
	sbb	eax,eax
	pop	ebp
	neg	eax
	pop	ebx
	pop	ecx
	ret

l0072BD0D:
	mov	edx,[0A18720h]
	push	8DA9A4h
	push	edx
	call	6E0F80h
	add	esp,8h

l0072BD21:
	pop	edi
	pop	esi
	pop	ebp
	xor	eax,eax
	pop	ebx
	pop	ecx
	ret
0072BD29                            8D 49 00                      .I.   
l0072BD2C	dd	0x0072BCDE
l0072BD30	dd	0x0072BCE5
l0072BD34	dd	0x0072BCEC
l0072BD38	dd	0x0072BCDE
l0072BD3C	dd	0x0072BCE5

;; fn0072BD40: 0072BD40
;;   Called from:
;;     0072BEA9 (in fn0072BDC0)
fn0072BD40 proc
	push	esi
	push	edi
	mov	edi,eax
	mov	eax,[edi]
	sub	eax,1h
	mov	esi,ecx
	jz	72BD8Bh

l0072BD4D:
	sub	eax,1h
	jz	72BD83h

l0072BD52:
	sub	eax,2h
	jz	72BD6Fh

l0072BD57:
	mov	eax,[0A18720h]
	push	8DA9C4h
	push	eax
	call	6E0F80h
	add	esp,8h

l0072BD6A:
	pop	edi
	xor	eax,eax
	pop	esi
	ret

l0072BD6F:
	mov	ecx,[edi+4h]
	push	ecx
	push	esi
	call	72B360h
	add	esp,8h
	test	eax,eax
	jnz	72BDB4h

l0072BD80:
	pop	edi
	pop	esi
	ret

l0072BD83:
	call	72BB20h
	pop	edi
	pop	esi
	ret

l0072BD8B:
	mov	edx,[esi+18h]
	mov	eax,[edx+8h]
	push	eax
	mov	eax,0A25B38h
	call	7276E0h
	add	esp,4h
	test	eax,eax
	jl	72BD6Ah

l0072BDA3:
	push	eax
	push	64h
	mov	eax,esi
	call	727810h
	add	esp,8h
	test	eax,eax
	jz	72BD6Ah

l0072BDB4:
	pop	edi
	mov	eax,1h
	pop	esi
	ret
0072BDBC                                     CC CC CC CC             ....

;; fn0072BDC0: 0072BDC0
;;   Called from:
;;     0072B6C2 (in fn0072B360)
;;     0072B6EB (in fn0072B360)
;;     0072B6FF (in fn0072B360)
;;     0072B728 (in fn0072B360)
;;     0072B751 (in fn0072B360)
fn0072BDC0 proc
	push	ebx
	push	ebp
	push	esi
	push	edi
	mov	edi,[esp+18h]
	mov	ecx,[edi]
	lea	eax,[ecx-1h]
	cmp	eax,3h
	ja	72BEE2h

l0072BDD6:
	mov	ebp,[esp+14h]
	jmp	dword ptr [72BF00h+eax*4]

l0072BDE1:
	cmp	dword ptr [esp+1Ch],5h
	mov	esi,8C8B24h
	jz	72BECEh

l0072BDF1:
	mov	eax,[edi+4h]
	push	eax
	push	ebp
	call	72B360h
	add	esp,8h
	test	eax,eax
	jnz	72BECEh

l0072BE06:
	pop	edi
	pop	esi
	pop	ebp
	pop	ebx
	ret

l0072BE0B:
	cmp	dword ptr [esp+1Ch],5h
	mov	dword ptr [esp+18h],8DAA20h
	jz	72BECAh

l0072BE1E:
	mov	ecx,[ebp+18h]
	mov	eax,[ecx+8h]
	push	0A25B38h
	push	64h
	push	ebp
	call	728FB0h
	add	esp,0Ch
	test	eax,eax
	jnz	72BECAh

l0072BE3C:
	pop	edi
	pop	esi
	pop	ebp
	pop	ebx
	ret

l0072BE41:
	cmp	dword ptr [edi+0Ch],0h
	mov	dword ptr [esp+18h],8DAA18h
	jnz	72BE66h

l0072BE4F:
	mov	edx,[esp+1Ch]
	push	edx
	mov	eax,ebp
	push	eax
	mov	eax,edi
	call	72BBE0h
	add	esp,8h
	pop	edi
	pop	esi
	pop	ebp
	pop	ebx
	ret

l0072BE66:
	cmp	dword ptr [esp+1Ch],5h
	jz	72BECAh

l0072BE6D:
	mov	esi,ebp
	call	72BB20h
	test	eax,eax
	jnz	72BECAh

l0072BE78:
	pop	edi
	pop	esi
	pop	ebp
	pop	ebx
	ret

l0072BE7D:
	cmp	dword ptr [esp+1Ch],5h
	mov	dword ptr [esp+18h],8DAA08h
	jz	72BECAh

l0072BE8C:
	mov	eax,[edi+4h]
	test	eax,eax
	jnz	72BE97h

l0072BE93:
	xor	esi,esi
	jmp	72BE99h

l0072BE97:
	mov	esi,[eax]

l0072BE99:
	xor	ebx,ebx
	test	esi,esi
	jle	72BEB9h

l0072BE9F:
	nop

l0072BEA0:
	mov	ecx,[edi+4h]
	mov	eax,[ecx+ebx*4+4h]
	mov	ecx,ebp
	call	72BD40h
	test	eax,eax
	jz	72BEF7h

l0072BEB2:
	add	ebx,1h
	cmp	ebx,esi
	jl	72BEA0h

l0072BEB9:
	push	esi
	push	66h
	mov	eax,ebp
	call	727810h
	add	esp,8h
	test	eax,eax
	jz	72BEF7h

l0072BECA:
	mov	esi,[esp+18h]

l0072BECE:
	mov	ecx,[esp+1Ch]
	push	esi
	mov	edi,ebp
	call	728420h
	add	esp,4h
	pop	edi
	pop	esi
	pop	ebp
	pop	ebx
	ret

l0072BEE2:
	mov	edx,[0A18720h]
	push	ecx
	push	8DA9ECh
	push	edx
	call	6E15D0h
	add	esp,0Ch

l0072BEF7:
	pop	edi
	pop	esi
	pop	ebp
	xor	eax,eax
	pop	ebx
	ret
0072BEFE                                           8B FF               ..
l0072BF00	dd	0x0072BE0B
l0072BF04	dd	0x0072BE41
l0072BF08	dd	0x0072BE7D
l0072BF0C	dd	0x0072BDE1

;; fn0072BF10: 0072BF10
;;   Called from:
;;     0072C790 (in fn0072C510)
;;     0072E6C6 (in fn0072E660)
fn0072BF10 proc
	sub	esp,8h
	push	ebp
	mov	ebp,[esp+10h]
	push	edi
	xor	edi,edi
	test	ebp,ebp
	jz	72BF24h

l0072BF1F:
	cmp	[ebp+0h],edi
	jnz	72BF2Fh

l0072BF24:
	pop	edi
	mov	eax,1h
	pop	ebp
	add	esp,8h
	ret

l0072BF2F:
	mov	eax,[ebp+4h]
	cmp	dword ptr [eax],14h
	push	esi
	jnz	72C0B2h

l0072BF3C:
	mov	eax,[eax+4h]
	xor	ecx,ecx
	cmp	dword ptr [eax],0Eh
	setz	cl
	test	ecx,ecx
	jz	72C0B2h

l0072BF4F:
	cmp	dword ptr [0A6DBF4h],2h
	jge	72C0B2h

l0072BF5C:
	push	eax
	push	ebx
	mov	dword ptr [esp+18h],1h
	call	72B360h
	add	esp,8h
	test	eax,eax
	jz	72C0D3h

l0072BF76:
	mov	eax,[ebx+18h]
	mov	ecx,[eax+0Ch]
	mov	edx,[0A6DBD8h]
	mov	[esp+0Ch],ecx
	mov	edi,8DA718h
	lea	esi,[edx+14h]
	mov	ecx,0Ah
	xor	ebp,ebp

l0072BF95:
	rep cmpsb

l0072BF97:
	jnz	72BFADh

l0072BF99:
	push	8DA884h
	mov	eax,ebx
	call	728360h
	add	esp,4h
	jmp	72C0A6h

l0072BFAD:
	push	edx
	mov	edx,[eax+1Ch]
	push	edx
	call	726150h
	mov	esi,eax
	add	esp,8h
	test	esi,esi
	jz	72C0D3h

l0072BFC4:
	mov	eax,[ebx+18h]
	mov	ecx,[eax]
	push	esi
	push	ecx
	xor	ebp,ebp
	mov	edi,3h
	call	7475E0h
	add	eax,0FFh
	add	esp,8h
	cmp	eax,4h
	ja	72C02Dh

l0072BFE2:
	jmp	dword ptr [72C0E8h+eax*4]

l0072BFE9:
	mov	edx,[ebx+18h]
	mov	eax,[edx+18h]
	mov	[esp+0Ch],eax
	mov	edi,2h
	jmp	72C02Dh

l0072BFFA:
	mov	ecx,[ebx+18h]
	mov	edx,[ecx+14h]
	mov	[esp+0Ch],edx
	mov	edi,2h
	jmp	72C02Dh

l0072C00B:
	mov	eax,[ebx+18h]
	mov	ecx,[eax]
	cmp	[ecx+1Ch],ebp
	jnz	72C02Dh

l0072C015:
	xor	edi,edi
	jmp	72C02Dh

l0072C019:
	mov	edx,[ebx+18h]
	mov	eax,[edx]
	cmp	[eax+1Ch],ebp
	jnz	72C02Dh

l0072C023:
	cmp	[eax+20h],ebp
	jnz	72C02Dh

l0072C028:
	mov	edi,1h

l0072C02D:
	jmp	dword ptr [72C0FCh+edi*4]
0072C034             BD 89 00 00 00 EB 39 8B 43 18 8B 40     ......9.C..@
0072C040 10 56 6A 7D 53 E8 66 CF FF FF 83 C4 0C 85 C0 0F .Vj}S.f.........
0072C050 84 7E 00 00 00 83 06 FF 75 50 8B 4E 04 8B 51 18 .~......uP.N..Q.
0072C060 56 FF D2 83 C4 04 EB 42 BD 61 00 00 00 EB 05 BD V......B.a......
0072C070 5A 00 00 00 8B 44 24 0C 50 8B C6 E8 60 B6 FF FF Z....D$.P...`...
0072C080 83 C4 04 83 06 FF 8B F8 75 0C 8B 4E 04 8B 51 18 ........u..N..Q.
0072C090 56 FF D2 83 C4 04 85 FF 7C 39 57 55 8B C3 E8 6D V.......|9WU...m
0072C0A0 B7 FF FF 83 C4 08                               ......         

l0072C0A6:
	test	eax,eax
	jz	72C0D3h

l0072C0AA:
	mov	edi,[esp+10h]
	mov	ebp,[esp+18h]

l0072C0B2:
	lea	esi,[ebp+edi*4+4h]

l0072C0B6:
	cmp	edi,[ebp+0h]
	jge	72C0DCh

l0072C0BB:
	mov	eax,[esi]
	push	eax
	push	ebx
	call	72D920h
	add	esp,8h
	test	eax,eax
	jz	72C0D3h

l0072C0CB:
	add	edi,1h
	add	esi,4h
	jmp	72C0B6h

l0072C0D3:
	pop	esi
	pop	edi
	xor	eax,eax
	pop	ebp
	add	esp,8h
	ret

l0072C0DC:
	pop	esi
	pop	edi
	mov	eax,1h
	pop	ebp
	add	esp,8h
	ret
l0072C0E8	dd	0x0072C00B
l0072C0EC	dd	0x0072C028
l0072C0F0	dd	0x0072C019
l0072C0F4	dd	0x0072BFE9
l0072C0F8	dd	0x0072BFFA
0072C0FC                                     3B C0 72 00             ;.r.
0072C100 68 C0 72 00 34 C0 72 00 6F C0 72 00 CC CC CC CC h.r.4.r.o.r.....

;; fn0072C110: 0072C110
;;   Called from:
;;     0072C187 (in fn0072C160)
fn0072C110 proc
	test	ebx,ebx
	push	ebp
	mov	ebp,[esp+8h]
	jnz	72C120h

l0072C119:
	mov	eax,1h
	pop	ebp
	ret

l0072C120:
	push	esi
	push	edi
	xor	esi,esi
	lea	edi,[ebx+4h]

l0072C127:
	cmp	esi,[ebx]
	jge	72C149h

l0072C12B:
	mov	eax,[edi]
	push	eax
	push	ebp
	call	72B360h
	add	esp,8h
	test	eax,eax
	jz	72C143h

l0072C13B:
	add	esi,1h
	add	edi,4h
	jmp	72C127h

l0072C143:
	pop	edi
	pop	esi
	xor	eax,eax
	pop	ebp
	ret

l0072C149:
	pop	edi
	pop	esi
	mov	eax,1h
	pop	ebp
	ret
0072C152       CC CC CC CC CC CC CC CC CC CC CC CC CC CC   ..............

;; fn0072C160: 0072C160
;;   Called from:
;;     0072D95A (in fn0072D920)
fn0072C160 proc
	sub	esp,0Ch
	mov	eax,[esp+14h]
	push	ebx
	push	ebp
	mov	ebp,[esp+18h]
	push	edi
	mov	edi,[eax+8h]
	mov	eax,[eax+10h]
	push	ebp
	mov	ebx,eax
	mov	dword ptr [esp+10h],0A163B8h
	mov	[esp+14h],edi
	mov	[esp+18h],eax
	call	72C110h
	add	esp,4h
	test	eax,eax
	jnz	72C19Ah

l0072C193:
	pop	edi
	pop	ebp
	pop	ebx
	add	esp,0Ch
	ret

l0072C19A:
	push	esi
	mov	esi,[edi+0Ch]
	test	esi,esi
	jz	72C1D5h

l0072C1A2:
	xor	edi,edi
	lea	ebx,[esi+4h]

l0072C1A7:
	test	esi,esi
	jnz	72C1AFh

l0072C1AB:
	xor	eax,eax
	jmp	72C1B1h

l0072C1AF:
	mov	eax,[esi]

l0072C1B1:
	cmp	edi,eax
	jge	72C1D1h

l0072C1B5:
	mov	eax,[ebx]
	push	eax
	push	ebp
	call	72B360h
	add	esp,8h
	test	eax,eax
	jz	72C2EAh

l0072C1C9:
	add	edi,1h
	add	ebx,4h
	jmp	72C1A7h

l0072C1D1:
	mov	edi,[esp+14h]

l0072C1D5:
	mov	ebx,[esp+24h]
	mov	eax,[ebx+14h]
	push	eax
	mov	eax,[ebx+4h]
	push	ebx
	mov	ecx,ebp
	call	728E40h
	add	esp,8h
	test	eax,eax
	jz	72C2EAh

l0072C1F3:
	mov	ecx,[ebx+0Ch]
	mov	eax,[ecx+4h]
	cmp	dword ptr [eax],14h
	jz	72C202h

l0072C1FE:
	xor	esi,esi
	jmp	72C223h

l0072C202:
	mov	eax,[eax+4h]
	xor	edx,edx
	cmp	dword ptr [eax],0Eh
	setz	dl
	mov	esi,edx
	test	esi,esi
	jz	72C223h

l0072C213:
	cmp	dword ptr [0A6DBF4h],2h
	jge	72C223h

l0072C21C:
	mov	eax,[eax+4h]
	mov	[esp+10h],eax

l0072C223:
	mov	ecx,[ebp+18h]
	mov	edx,[ecx+8h]
	mov	eax,[esp+10h]
	push	edx
	call	7276E0h
	add	esp,4h
	test	eax,eax
	jl	72C2E3h

l0072C23E:
	push	edi
	mov	eax,ebp
	call	72A520h
	mov	eax,[edi]
	add	esp,4h
	test	eax,eax
	jz	72C251h

l0072C24F:
	mov	eax,[eax]

l0072C251:
	mov	ecx,[ebp+18h]
	mov	[ecx+20h],eax
	mov	eax,[ebx+0Ch]
	test	eax,eax
	jnz	72C262h

l0072C25E:
	xor	ebx,ebx
	jmp	72C264h

l0072C262:
	mov	ebx,[eax]

l0072C264:
	cmp	esi,ebx
	jge	72C290h

l0072C268:
	jmp	72C270h
0072C26A                               8D 9B 00 00 00 00           ......

l0072C270:
	mov	edx,[esp+24h]
	mov	eax,[edx+0Ch]
	mov	eax,[eax+esi*4+4h]
	push	eax
	push	ebp
	call	72D920h
	add	esp,8h
	test	eax,eax
	jz	72C2E3h

l0072C289:
	add	esi,1h
	cmp	esi,ebx
	jl	72C270h

l0072C290:
	push	1h
	push	ebp
	call	72A350h
	mov	esi,[ebp+18h]
	add	dword ptr [ebp+14h],0FFh
	add	esp,8h
	mov	ebx,eax
	call	727170h
	mov	eax,[ebp+1Ch]
	mov	esi,[eax+8h]
	sub	esi,1h
	js	72C2F4h

l0072C2B4:
	mov	ecx,[eax+0Ch]
	mov	eax,[ecx+esi*4]
	push	eax
	call	72E9C0h
	mov	edx,[ebp+1Ch]
	push	esi
	push	edx
	mov	[ebp+18h],eax
	call	703390h
	add	esp,0Ch
	test	eax,eax
	jge	72C2FBh

l0072C2D4:
	push	8DA64Ch
	call	6E86F0h
	add	esp,4h
	jmp	72C2FBh

l0072C2E3:
	mov	edi,ebp
	call	727290h

l0072C2EA:
	pop	esi
	pop	edi
	pop	ebp
	xor	eax,eax
	pop	ebx
	add	esp,0Ch
	ret

l0072C2F4:
	mov	dword ptr [ebp+18h],0h

l0072C2FB:
	test	ebx,ebx
	jz	72C2EAh

l0072C2FF:
	mov	eax,[edi+0Ch]
	test	eax,eax
	jz	72C308h

l0072C306:
	mov	eax,[eax]

l0072C308:
	push	eax
	push	ebx
	mov	eax,ebp
	call	729040h
	add	esp,8h
	add	dword ptr [ebx],0FFh
	jnz	72C325h

l0072C319:
	mov	eax,[ebx+4h]
	mov	ecx,[eax+18h]
	push	ebx
	call	ecx
	add	esp,4h

l0072C325:
	xor	edi,edi
	mov	bl,83h
	lea	esp,[esp+0h]

l0072C330:
	mov	eax,[esp+18h]
	test	eax,eax
	jz	72C33Ah

l0072C338:
	mov	eax,[eax]

l0072C33A:
	cmp	edi,eax
	mov	edx,[ebp+18h]
	jge	72C397h

l0072C341:
	mov	esi,[edx+28h]
	call	727420h
	test	eax,eax
	jl	72C2EAh

l0072C34D:
	lea	ecx,[eax+eax*4]
	mov	eax,[ebp+18h]
	mov	edx,[eax+28h]
	mov	eax,[edx+0Ch]
	add	ecx,ecx
	add	ecx,ecx
	or	dword ptr [eax+ecx],4h
	add	eax,ecx
	mov	edx,1h
	mov	[eax+4h],bl
	mov	[eax+8h],edx
	mov	eax,[ebp+18h]
	cmp	dword ptr [eax+0DCh],0h
	jnz	72C393h

l0072C37A:
	mov	[eax+0DCh],edx
	mov	eax,[ebp+18h]
	mov	esi,[eax+28h]
	mov	esi,[esi+0Ch]
	mov	eax,[eax+0D8h]
	mov	[esi+ecx+10h],eax

l0072C393:
	add	edi,edx
	jmp	72C330h

l0072C397:
	mov	ecx,[esp+24h]
	mov	eax,[ecx+4h]
	mov	ecx,[edx+0Ch]
	mov	[esp+24h],ecx
	mov	edi,8DA718h
	lea	esi,[eax+14h]
	mov	ecx,0Ah
	xor	ebx,ebx

l0072C3B4:
	rep cmpsb

l0072C3B6:
	jnz	72C3CFh

l0072C3B8:
	push	8DA884h
	mov	eax,ebp
	call	728360h
	add	esp,4h
	pop	esi
	pop	edi
	pop	ebp
	pop	ebx
	add	esp,0Ch
	ret

l0072C3CF:
	mov	edx,[edx+1Ch]
	push	eax
	push	edx
	call	726150h
	mov	esi,eax
	add	esp,8h
	test	esi,esi
	jz	72C2EAh

l0072C3E6:
	mov	eax,[ebp+18h]
	mov	ecx,[eax]
	push	esi
	push	ecx
	xor	ebx,ebx
	mov	edi,3h
	call	7475E0h
	add	eax,0FFh
	add	esp,8h
	cmp	eax,4h
	ja	72C452h

l0072C404:
	jmp	dword ptr [72C4E4h+eax*4]

l0072C40B:
	mov	edx,[ebp+18h]
	mov	eax,[edx+18h]
	mov	[esp+24h],eax
	mov	edi,2h
	jmp	72C452h

l0072C41C:
	mov	ecx,[ebp+18h]
	mov	edx,[ecx+14h]
	mov	[esp+24h],edx
	mov	edi,2h
	jmp	72C452h

l0072C42D:
	mov	eax,[ebp+18h]
	mov	ecx,[eax]
	cmp	dword ptr [ecx+1Ch],0h
	jnz	72C452h

l0072C438:
	xor	edi,edi
	jmp	72C452h

l0072C43C:
	mov	edx,[ebp+18h]
	mov	eax,[edx]
	cmp	dword ptr [eax+1Ch],0h
	jnz	72C452h

l0072C447:
	cmp	dword ptr [eax+20h],0h
	jnz	72C452h

l0072C44D:
	mov	edi,1h

l0072C452:
	jmp	dword ptr [72C4F8h+edi*4]
0072C459                            BB 89 00 00 00 EB 44          ......D
0072C460 8B 45 18 8B 40 10 56 6A 7D 55 E8 41 CB FF FF 83 .E..@.Vj}U.A....
0072C470 C4 0C 85 C0 0F 84 70 FE FF FF 83 06 FF 75 0C 8B ......p......u..
0072C480 4E 04 8B 51 18 56 FF D2 83 C4 04 5E 5F 5D B8 01 N..Q.V.....^_]..
0072C490 00 00 00 5B 83 C4 0C C3 BB 61 00 00 00 EB 05 BB ...[.....a......
0072C4A0 5A 00 00 00 8B 44 24 24 50 8B C6 E8 30 B2 FF FF Z....D$$P...0...
0072C4B0 83 C4 04 83 06 FF 8B F8 75 0C 8B 4E 04 8B 51 18 ........u..N..Q.
0072C4C0 56 FF D2 83 C4 04 85 FF 0F 8C 1C FE FF FF 57 53 V.............WS
0072C4D0 8B C5 E8 39 B3 FF FF 83 C4 08 5E 5F 5D 5B 83 C4 ...9......^_][..
0072C4E0 0C C3 8B FF                                     ....           
l0072C4E4	dd	0x0072C42D
l0072C4E8	dd	0x0072C44D
l0072C4EC	dd	0x0072C43C
l0072C4F0	dd	0x0072C40B
l0072C4F4	dd	0x0072C41C
0072C4F8                         60 C4 72 00 98 C4 72 00         `.r...r.
0072C500 59 C4 72 00 9F C4 72 00 CC CC CC CC CC CC CC CC Y.r...r.........

;; fn0072C510: 0072C510
;;   Called from:
;;     0072D969 (in fn0072D920)
fn0072C510 proc
	push	ecx
	push	ebp
	mov	ebp,[esp+0Ch]
	mov	ecx,[ebp+18h]
	mov	ecx,[ecx+8h]
	push	edi
	mov	edi,[esp+14h]
	mov	eax,[edi+4h]
	push	ecx
	call	7276E0h
	add	esp,4h
	test	eax,eax
	jl	72C542h

l0072C531:
	push	eax
	push	64h
	mov	eax,ebp
	call	727810h
	add	esp,8h
	test	eax,eax
	jnz	72C548h

l0072C542:
	pop	edi
	xor	eax,eax
	pop	ebp
	pop	ecx
	ret

l0072C548:
	push	ebx
	push	esi
	mov	esi,[edi+8h]
	test	esi,esi
	jnz	72C555h

l0072C551:
	xor	eax,eax
	jmp	72C596h

l0072C555:
	mov	eax,[esi]
	test	eax,eax
	mov	[esp+18h],eax
	jle	72C596h

l0072C55F:
	xor	ebx,ebx
	lea	edi,[esi+4h]

l0072C564:
	test	esi,esi
	jnz	72C56Ch

l0072C568:
	xor	eax,eax
	jmp	72C56Eh

l0072C56C:
	mov	eax,[esi]

l0072C56E:
	cmp	ebx,eax
	jge	72C58Eh

l0072C572:
	mov	eax,[edi]
	push	eax
	push	ebp
	call	72B360h
	add	esp,8h
	test	eax,eax
	jz	72C9B4h

l0072C586:
	add	ebx,1h
	add	edi,4h
	jmp	72C564h

l0072C58E:
	mov	edi,[esp+1Ch]
	mov	eax,[esp+18h]

l0072C596:
	push	eax
	push	66h
	mov	eax,ebp
	call	727810h
	add	esp,8h
	test	eax,eax
	jz	72C9B4h

l0072C5AB:
	mov	edx,[edi+14h]
	mov	eax,[edi+4h]
	push	edx
	push	edi
	mov	ecx,ebp
	call	728E40h
	add	esp,8h
	test	eax,eax
	jz	72C9B4h

l0072C5C5:
	mov	eax,[ebp+18h]
	mov	ecx,[edi+4h]
	mov	[eax+1Ch],ecx
	mov	edx,[ebp+18h]
	mov	eax,[edx+1Ch]
	add	dword ptr [eax],1h
	push	8CA818h
	call	6F1A70h
	mov	esi,eax
	add	esp,4h
	test	esi,esi
	jz	72C9ADh

l0072C5EE:
	push	1h
	push	esi
	mov	ebx,ebp
	call	729510h
	add	esp,8h
	test	eax,eax
	jz	72C99Ch

l0072C603:
	add	dword ptr [esi],0FFh
	jnz	72C614h

l0072C608:
	mov	eax,[esi+4h]
	mov	ecx,[eax+18h]
	push	esi
	call	ecx
	add	esp,4h

l0072C614:
	push	8C8598h
	call	6F1A70h
	add	esp,4h
	test	eax,eax
	mov	[esp+10h],eax
	jz	72C9ADh

l0072C62D:
	mov	esi,[esp+10h]
	mov	eax,[ebp+18h]
	mov	ebx,[eax+0Ch]
	add	esi,14h
	mov	edi,8DA718h
	mov	ecx,0Ah
	xor	edx,edx

l0072C646:
	rep cmpsb

l0072C648:
	jnz	72C65Eh

l0072C64A:
	push	8DA884h
	mov	eax,ebp
	call	728360h
	add	esp,4h
	jmp	72C769h

l0072C65E:
	mov	ecx,[esp+10h]
	mov	edx,[eax+1Ch]
	push	ecx
	push	edx
	call	726150h
	mov	esi,eax
	add	esp,8h
	test	esi,esi
	jz	72C978h

l0072C679:
	mov	eax,[ebp+18h]
	mov	ecx,[eax]
	push	esi
	push	ecx
	mov	dword ptr [esp+20h],0h
	mov	edi,3h
	call	7475E0h
	add	eax,0FFh
	add	esp,8h
	cmp	eax,4h
	ja	72C6E3h

l0072C69D:
	jmp	dword ptr [72C9BCh+eax*4]

l0072C6A4:
	mov	edx,[ebp+18h]
	mov	ebx,[edx+18h]
	mov	edi,2h
	jmp	72C6E3h

l0072C6B1:
	mov	eax,[ebp+18h]
	mov	ebx,[eax+14h]
	mov	edi,2h
	jmp	72C6E3h

l0072C6BE:
	mov	ecx,[ebp+18h]
	mov	edx,[ecx]
	cmp	dword ptr [edx+1Ch],0h
	jnz	72C6E3h

l0072C6C9:
	xor	edi,edi
	jmp	72C6E3h

l0072C6CD:
	mov	eax,[ebp+18h]
	mov	eax,[eax]
	cmp	dword ptr [eax+1Ch],0h
	jnz	72C6E3h

l0072C6D8:
	cmp	dword ptr [eax+20h],0h
	jnz	72C6E3h

l0072C6DE:
	mov	edi,1h

l0072C6E3:
	jmp	dword ptr [72C9D0h+edi*4]
0072C6EA                               C7 44 24 18 89 00           .D$...
0072C6F0 00 00 EB 3F 8B 4D 18 8B 41 10 56 6A 7D 55 E8 AD ...?.M..A.Vj}U..
0072C700 C8 FF FF 83 C4 0C 85 C0 0F 84 6A 02 00 00 83 06 ..........j.....
0072C710 FF 75 5E 8B 56 04 8B 42 18 56 FF D0 83 C4 04 EB .u^.V..B.V......
0072C720 50 C7 44 24 18 61 00 00 00 EB 08 C7 44 24 18 5A P.D$.a......D$.Z
0072C730 00 00 00 53 8B C6 E8 A5 AF FF FF 83 C4 04 83 06 ...S............
0072C740 FF 8B F8 75 0C 8B 4E 04 8B 51 18 56 FF D2 83 C4 ...u..N..Q.V....
0072C750 04 85 FF 0F 8C 1F 02 00 00 8B 44 24 18 57 50 8B ..........D$.WP.
0072C760 C5 E8 AA B0 FF FF 83 C4 08                      .........      

l0072C769:
	test	eax,eax
	jz	72C978h

l0072C771:
	mov	eax,[esp+10h]
	add	dword ptr [eax],0FFh
	jnz	72C786h

l0072C77A:
	mov	ecx,[eax+4h]
	mov	edx,[ecx+18h]
	push	eax
	call	edx
	add	esp,4h

l0072C786:
	mov	eax,[esp+1Ch]
	mov	ecx,[eax+0Ch]
	push	ecx
	mov	ebx,ebp
	call	72BF10h
	add	esp,4h
	test	eax,eax
	jz	72C9ADh

l0072C7A0:
	mov	ebx,52h
	mov	eax,ebp
	call	727670h
	test	eax,eax
	jz	72C9ADh

l0072C7B4:
	mov	ebx,53h
	mov	eax,ebp
	call	727670h
	test	eax,eax
	jz	72C9ADh

l0072C7C8:
	push	1h
	push	ebp
	call	72A350h
	add	esp,8h
	mov	edi,ebp
	mov	esi,eax
	call	727290h
	test	esi,esi
	jz	72C9B4h

l0072C7E4:
	push	0h
	push	esi
	mov	eax,ebp
	call	729040h
	add	esp,8h
	add	dword ptr [esi],0FFh
	jnz	72C802h

l0072C7F6:
	mov	edx,[esi+4h]
	mov	eax,[edx+18h]
	push	esi
	call	eax
	add	esp,4h

l0072C802:
	push	0h
	push	83h
	mov	eax,ebp
	call	727810h
	add	esp,8h
	test	eax,eax
	jz	72C9B4h

l0072C81B:
	mov	ebx,59h
	mov	eax,ebp
	call	727670h
	test	eax,eax
	jz	72C9B4h

l0072C82F:
	mov	ecx,[esp+1Ch]
	mov	eax,[ecx+4h]
	mov	edx,[ebp+18h]
	mov	ecx,[edx+0Ch]
	mov	[esp+1Ch],ecx
	mov	edi,8DA718h
	lea	esi,[eax+14h]
	mov	ecx,0Ah
	xor	ebx,ebx

l0072C84F:
	rep cmpsb

l0072C851:
	jnz	72C867h

l0072C853:
	push	8DA884h
	mov	eax,ebp
	call	728360h
	add	esp,4h
	jmp	72C969h

l0072C867:
	mov	edx,[edx+1Ch]
	push	eax
	push	edx
	call	726150h
	mov	esi,eax
	add	esp,8h
	test	esi,esi
	jz	72C9B4h

l0072C87E:
	mov	eax,[ebp+18h]
	mov	ecx,[eax]
	push	esi
	push	ecx
	xor	ebx,ebx
	mov	edi,3h
	call	7475E0h
	add	eax,0FFh
	add	esp,8h
	cmp	eax,4h
	ja	72C8E7h

l0072C89C:
	jmp	dword ptr [72C9E0h+eax*4]

l0072C8A3:
	mov	edx,[ebp+18h]
	mov	eax,[edx+18h]
	mov	[esp+1Ch],eax
	mov	edi,2h
	jmp	72C8E7h

l0072C8B4:
	mov	ecx,[ebp+18h]
	mov	edx,[ecx+14h]
	mov	[esp+1Ch],edx
	mov	edi,2h
	jmp	72C8E7h

l0072C8C5:
	mov	eax,[ebp+18h]
	mov	ecx,[eax]
	cmp	[ecx+1Ch],ebx
	jnz	72C8E7h

l0072C8CF:
	xor	edi,edi
	jmp	72C8E7h

l0072C8D3:
	mov	edx,[ebp+18h]
	mov	eax,[edx]
	cmp	[eax+1Ch],ebx
	jnz	72C8E7h

l0072C8DD:
	cmp	[eax+20h],ebx
	jnz	72C8E7h

l0072C8E2:
	mov	edi,1h

l0072C8E7:
	jmp	dword ptr [72C9F4h+edi*4]
0072C8EE                                           BB 89               ..
0072C8F0 00 00 00 EB 42 8B 45 18 8B 40 10 56 6A 7D 55 E8 ....B.E..@.Vj}U.
0072C900 AC C6 FF FF 83 C4 0C 85 C0 0F 84 A5 00 00 00 83 ................
0072C910 06 FF 75 59 8B 4E 04 8B 51 18 56 FF D2 83 C4 04 ..uY.N..Q.V.....
0072C920 5E 5B 5F B8 01 00 00 00 5D 59 C3 BB 61 00 00 00 ^[_.....]Y..a...
0072C930 EB 05 BB 5A 00 00 00 8B 44 24 1C 50 8B C6 E8 9D ...Z....D$.P....
0072C940 AD FF FF 83 C4 04 83 06 FF 8B F8 75 0C 8B 4E 04 ...........u..N.
0072C950 8B 51 18 56 FF D2 83 C4 04 85 FF 7C 57 57 53 8B .Q.V.......|WWS.
0072C960 C5 E8 AA AE FF FF 83 C4 08                      .........      

l0072C969:
	test	eax,eax
	jz	72C9B4h

l0072C96D:
	pop	esi
	pop	ebx
	pop	edi
	mov	eax,1h
	pop	ebp
	pop	ecx
	ret

l0072C978:
	mov	eax,[esp+10h]
	add	dword ptr [eax],0FFh
	jnz	72C9ADh

l0072C981:
	mov	ecx,[eax+4h]
	mov	edx,[ecx+18h]
	push	eax
	call	edx
	add	esp,4h
	mov	edi,ebp
	call	727290h
	pop	esi
	pop	ebx
	pop	edi
	xor	eax,eax
	pop	ebp
	pop	ecx
	ret

l0072C99C:
	add	dword ptr [esi],0FFh
	jnz	72C9ADh

l0072C9A1:
	mov	eax,[esi+4h]
	mov	ecx,[eax+18h]
	push	esi
	call	ecx
	add	esp,4h

l0072C9AD:
	mov	edi,ebp
	call	727290h

l0072C9B4:
	pop	esi
	pop	ebx
	pop	edi
	xor	eax,eax
	pop	ebp
	pop	ecx
	ret
l0072C9BC	dd	0x0072C6BE
l0072C9C0	dd	0x0072C6DE
l0072C9C4	dd	0x0072C6CD
l0072C9C8	dd	0x0072C6A4
l0072C9CC	dd	0x0072C6B1
0072C9D0 F4 C6 72 00 21 C7 72 00 EA C6 72 00 2B C7 72 00 ..r.!.r...r.+.r.
l0072C9E0	dd	0x0072C8C5
l0072C9E4	dd	0x0072C8E2
l0072C9E8	dd	0x0072C8D3
l0072C9EC	dd	0x0072C8A3
l0072C9F0	dd	0x0072C8B4
0072C9F4             F5 C8 72 00 2B C9 72 00 EE C8 72 00     ..r.+.r...r.
0072CA00 32 C9 72 00 CC CC CC CC CC CC CC CC CC CC CC CC 2.r.............

;; fn0072CA10: 0072CA10
;;   Called from:
;;     0072DAAC (in fn0072D920)
fn0072CA10 proc
	sub	esp,8h
	push	ebp
	push	esi
	mov	esi,[esp+14h]
	push	edi
	mov	edi,eax
	mov	eax,[esi+8h]
	xor	ebp,ebp
	cmp	eax,ebp
	jnz	72CA2Bh

l0072CA25:
	mov	[esp+10h],ebp
	jmp	72CA31h

l0072CA2B:
	mov	eax,[eax]
	mov	[esp+10h],eax

l0072CA31:
	mov	eax,[esi+4h]
	cmp	eax,ebp
	mov	[esp+0Ch],ebp
	jz	72CA59h

l0072CA3C:
	push	eax
	push	edi
	call	72B360h
	add	esp,8h
	test	eax,eax
	jnz	72CA51h

l0072CA4A:
	pop	edi
	pop	esi
	pop	ebp
	add	esp,8h
	ret

l0072CA51:
	mov	dword ptr [esp+0Ch],1h

l0072CA59:
	cmp	[esp+10h],ebp
	push	ebx
	jle	72CBBDh

l0072CA64:
	cmp	dword ptr [esp+10h],0h
	mov	ecx,[esi+8h]
	mov	ebx,[ecx+ebp*4+4h]
	jz	72CB4Ah

l0072CA76:
	mov	edx,[edi+18h]
	mov	esi,[edx+28h]
	call	727420h
	test	eax,eax
	jl	72CB40h

l0072CA89:
	lea	ecx,[eax+eax*4]
	mov	eax,[edi+18h]
	mov	edx,[eax+28h]
	mov	eax,[edx+0Ch]
	add	ecx,ecx
	add	ecx,ecx
	and	dword ptr [eax+ecx],0FBh
	add	eax,ecx
	mov	byte ptr [eax+4h],4h
	mov	eax,[edi+18h]
	cmp	dword ptr [eax+0DCh],0h
	jnz	72CACEh

l0072CAAF:
	mov	edx,eax
	mov	dword ptr [edx+0DCh],1h
	mov	eax,[edi+18h]
	mov	edx,[eax+28h]
	mov	edx,[edx+0Ch]
	mov	eax,[eax+0D8h]
	mov	[edx+ecx+10h],eax

l0072CACE:
	push	ebx
	push	edi
	call	72B360h
	add	esp,8h
	test	eax,eax
	jz	72CB40h

l0072CADC:
	mov	ecx,[edi+18h]
	mov	esi,[ecx+28h]
	call	727420h
	test	eax,eax
	jl	72CB40h

l0072CAEB:
	mov	edx,[edi+18h]
	lea	ecx,[eax+eax*4]
	mov	eax,[edx+28h]
	mov	eax,[eax+0Ch]
	add	ecx,ecx
	add	ecx,ecx
	and	dword ptr [eax+ecx],0FBh
	add	eax,ecx
	mov	byte ptr [eax+4h],2h
	mov	edx,[edi+18h]
	cmp	dword ptr [edx+0DCh],0h
	jnz	72CB30h

l0072CB11:
	mov	eax,edx
	mov	dword ptr [eax+0DCh],1h
	mov	eax,[edi+18h]
	mov	edx,[eax+28h]
	mov	edx,[edx+0Ch]
	mov	eax,[eax+0D8h]
	mov	[edx+ecx+10h],eax

l0072CB30:
	mov	ebx,49h
	mov	eax,edi
	call	727670h
	test	eax,eax
	jnz	72CBACh

l0072CB40:
	pop	ebx
	pop	edi
	pop	esi
	xor	eax,eax
	pop	ebp
	add	esp,8h
	ret

l0072CB4A:
	push	ebx
	push	edi
	call	72B360h
	add	esp,8h
	test	eax,eax
	jz	72CB40h

l0072CB58:
	mov	ecx,[edi+18h]
	mov	esi,[ecx+28h]
	call	727420h
	test	eax,eax
	jl	72CB40h

l0072CB67:
	mov	edx,[edi+18h]
	lea	ecx,[eax+eax*4]
	mov	eax,[edx+28h]
	mov	eax,[eax+0Ch]
	add	ecx,ecx
	add	ecx,ecx
	and	dword ptr [eax+ecx],0FBh
	add	eax,ecx
	mov	byte ptr [eax+4h],47h
	mov	edx,[edi+18h]
	cmp	dword ptr [edx+0DCh],0h
	jnz	72CBACh

l0072CB8D:
	mov	eax,edx
	mov	dword ptr [eax+0DCh],1h
	mov	eax,[edi+18h]
	mov	edx,[eax+28h]
	mov	edx,[edx+0Ch]
	mov	eax,[eax+0D8h]
	mov	[edx+ecx+10h],eax

l0072CBAC:
	mov	esi,[esp+1Ch]
	add	ebp,1h
	cmp	ebp,[esp+14h]
	jl	72CA64h

l0072CBBD:
	cmp	dword ptr [esi+0Ch],0h
	jz	72CC20h

l0072CBC3:
	cmp	dword ptr [esp+10h],0h
	jz	72CBF5h

l0072CBCA:
	mov	ecx,[edi+18h]
	mov	esi,[ecx+28h]
	call	727420h
	test	eax,eax
	jl	72CB40h

l0072CBDD:
	mov	edx,[edi+18h]
	lea	ecx,[eax+eax*4]
	mov	eax,[edx+28h]
	mov	eax,[eax+0Ch]
	add	ecx,ecx
	add	ecx,ecx
	add	eax,ecx
	mov	byte ptr [eax+4h],4Ah
	jmp	72CC50h

l0072CBF5:
	mov	eax,[edi+18h]
	mov	esi,[eax+28h]
	call	727420h
	test	eax,eax
	jl	72CB40h

l0072CC08:
	mov	edx,[edi+18h]
	lea	ecx,[eax+eax*4]
	mov	eax,[edx+28h]
	mov	eax,[eax+0Ch]
	add	ecx,ecx
	add	ecx,ecx
	add	eax,ecx
	mov	byte ptr [eax+4h],48h
	jmp	72CC50h

l0072CC20:
	cmp	dword ptr [esp+10h],0h
	jz	72CC7Eh

l0072CC27:
	mov	eax,[edi+18h]
	mov	esi,[eax+28h]
	call	727420h
	test	eax,eax
	jl	72CB40h

l0072CC3A:
	mov	edx,[edi+18h]
	lea	ecx,[eax+eax*4]
	mov	eax,[edx+28h]
	mov	eax,[eax+0Ch]
	add	ecx,ecx
	add	ecx,ecx
	add	eax,ecx
	mov	byte ptr [eax+4h],1h

l0072CC50:
	and	dword ptr [eax],0FBh
	mov	edx,[edi+18h]
	cmp	dword ptr [edx+0DCh],0h
	jnz	72CC7Eh

l0072CC5F:
	mov	eax,edx
	mov	dword ptr [eax+0DCh],1h
	mov	edi,[edi+18h]
	mov	edx,[edi+28h]
	mov	eax,[edx+0Ch]
	mov	edx,[edi+0D8h]
	mov	[eax+ecx+10h],edx

l0072CC7E:
	pop	ebx
	pop	edi
	pop	esi
	mov	eax,1h
	pop	ebp
	add	esp,8h
	ret
0072CC8B                                  CC CC CC CC CC            .....

;; fn0072CC90: 0072CC90
;;   Called from:
;;     0072DAD7 (in fn0072D920)
fn0072CC90 proc
	push	ecx
	push	ebx
	push	ebp
	mov	ebp,[esp+10h]
	push	esi
	mov	esi,[ebp+18h]
	push	20h
	call	723860h
	mov	ebx,eax
	add	esp,4h
	test	ebx,ebx
	mov	[esp+0Ch],ebx
	jnz	72CCBBh

l0072CCAF:
	call	6E1210h
	pop	esi
	pop	ebp
	xor	eax,eax
	pop	ebx
	pop	ecx
	ret

l0072CCBB:
	xor	eax,eax
	mov	[ebx],eax
	mov	[ebx+4h],eax
	mov	[ebx+8h],eax
	mov	[ebx+0Ch],eax
	mov	[ebx+10h],eax
	mov	[ebx+14h],eax
	mov	[ebx+18h],eax
	mov	[ebx+1Ch],eax
	mov	eax,[esi+24h]
	mov	[ebx],eax
	push	edi
	mov	[esi+24h],ebx
	mov	edi,[ebp+18h]
	push	20h
	call	723860h
	mov	esi,eax
	add	esp,4h
	test	esi,esi
	jnz	72CCFDh

l0072CCF0:
	call	6E1210h

l0072CCF5:
	pop	edi
	pop	esi
	pop	ebp
	xor	eax,eax
	pop	ebx
	pop	ecx
	ret

l0072CCFD:
	xor	eax,eax
	mov	[esi],eax
	mov	[esi+4h],eax
	mov	[esi+8h],eax
	mov	[esi+0Ch],eax
	mov	[esi+10h],eax
	mov	[esi+14h],eax
	mov	[esi+18h],eax
	mov	[esi+1Ch],eax
	mov	ecx,[edi+24h]
	mov	[esi],ecx
	mov	[edi+24h],esi
	mov	edi,[esp+1Ch]
	mov	ecx,[edi+4h]
	call	7282B0h
	test	eax,eax
	jnz	72CD6Ch

l0072CD2E:
	mov	eax,[edi+0Ch]
	test	eax,eax
	mov	[esp+18h],eax
	jz	72CEB7h

l0072CD3D:
	xor	edi,edi
	lea	esi,[eax+4h]

l0072CD42:
	test	eax,eax
	jz	72CD48h

l0072CD46:
	mov	eax,[eax]

l0072CD48:
	cmp	edi,eax
	jge	72CEB7h

l0072CD50:
	mov	eax,[esi]
	push	eax
	push	ebp
	call	72D920h
	add	esp,8h
	test	eax,eax
	jz	72CCF5h

l0072CD60:
	mov	eax,[esp+18h]
	add	edi,1h
	add	esi,4h
	jmp	72CD42h

l0072CD6C:
	cmp	eax,1h
	jnz	72CDB3h

l0072CD71:
	mov	ebp,[edi+8h]
	xor	edi,edi
	lea	esi,[ebp+4h]
	lea	esp,[esp+0h]

l0072CD80:
	test	ebp,ebp
	jnz	72CD88h

l0072CD84:
	xor	eax,eax
	jmp	72CD8Bh

l0072CD88:
	mov	eax,[ebp+0h]

l0072CD8B:
	cmp	edi,eax
	jge	72CEB3h

l0072CD93:
	mov	eax,[esi]
	mov	edx,[esp+18h]
	push	eax
	push	edx
	call	72D920h
	add	esp,8h
	test	eax,eax
	jz	72CCF5h

l0072CDAB:
	add	edi,1h
	add	esi,4h
	jmp	72CD80h

l0072CDB3:
	mov	eax,[edi+4h]
	push	eax
	push	ebp
	call	72B360h
	add	esp,8h
	test	eax,eax
	jz	72CCF5h

l0072CDC8:
	push	0h
	push	esi
	push	6Fh
	mov	eax,ebp
	call	727880h
	add	esp,0Ch
	test	eax,eax
	jz	72CCF5h

l0072CDDF:
	mov	ebx,1h
	mov	eax,ebp
	call	727670h
	test	eax,eax
	jz	72CCF5h

l0072CDF3:
	mov	ebp,[edi+8h]
	xor	ebx,ebx
	lea	edi,[ebp+4h]
	jmp	72CE00h
0072CDFD                                        8D 49 00              .I.

l0072CE00:
	test	ebp,ebp
	jnz	72CE08h

l0072CE04:
	xor	eax,eax
	jmp	72CE0Bh

l0072CE08:
	mov	eax,[ebp+0h]

l0072CE0B:
	cmp	ebx,eax
	jge	72CE2Fh

l0072CE0F:
	mov	eax,[edi]
	mov	ecx,[esp+18h]
	push	eax
	push	ecx
	call	72D920h
	add	esp,8h
	test	eax,eax
	jz	72CCF5h

l0072CE27:
	add	ebx,1h
	add	edi,4h
	jmp	72CE00h

l0072CE2F:
	mov	edx,[esp+10h]
	mov	edi,[esp+18h]
	push	0h
	push	edx
	push	6Eh
	mov	eax,edi
	call	727880h
	add	esp,0Ch
	test	eax,eax
	jz	72CCF5h

l0072CE4E:
	mov	eax,[edi+18h]
	mov	ecx,[eax+28h]
	mov	[ecx+10h],esi
	mov	edx,[edi+18h]
	mov	ebx,1h
	mov	eax,edi
	mov	[edx+28h],esi
	call	727670h
	test	eax,eax
	jz	72CCF5h

l0072CE71:
	mov	eax,[esp+1Ch]
	mov	ebx,[eax+0Ch]
	test	ebx,ebx
	jz	72CEAFh

l0072CE7C:
	xor	edi,edi
	lea	esi,[ebx+4h]

l0072CE81:
	test	ebx,ebx
	jnz	72CE89h

l0072CE85:
	xor	eax,eax
	jmp	72CE8Bh

l0072CE89:
	mov	eax,[ebx]

l0072CE8B:
	cmp	edi,eax
	jge	72CEAFh

l0072CE8F:
	mov	eax,[esi]
	mov	ecx,[esp+18h]
	push	eax
	push	ecx
	call	72D920h
	add	esp,8h
	test	eax,eax
	jz	72CCF5h

l0072CEA7:
	add	edi,1h
	add	esi,4h
	jmp	72CE81h

l0072CEAF:
	mov	ebx,[esp+10h]

l0072CEB3:
	mov	ebp,[esp+18h]

l0072CEB7:
	mov	edx,[ebp+18h]
	mov	eax,[edx+28h]
	pop	edi
	mov	[eax+10h],ebx
	mov	ecx,[ebp+18h]
	pop	esi
	pop	ebp
	mov	[ecx+28h],ebx
	mov	eax,1h
	pop	ebx
	pop	ecx
	ret
0072CED1    CC CC CC CC CC CC CC CC CC CC CC CC CC CC CC  ...............

;; fn0072CEE0: 0072CEE0
;;   Called from:
;;     0072DABA (in fn0072D920)
fn0072CEE0 proc
	sub	esp,0Ch
	push	ebp
	push	edi
	mov	edi,[esi+18h]
	push	20h
	call	723860h
	add	esp,4h
	test	eax,eax
	jnz	72CF03h

l0072CEF6:
	call	6E1210h
	xor	ebp,ebp
	mov	[esp+0Ch],ebp
	jmp	72CF2Ah

l0072CF03:
	xor	ecx,ecx
	mov	[eax],ecx
	mov	[eax+4h],ecx
	mov	[eax+8h],ecx
	mov	[eax+0Ch],ecx
	mov	[eax+10h],ecx
	mov	[eax+14h],ecx
	mov	[eax+18h],ecx
	mov	[eax+1Ch],ecx
	mov	ecx,[edi+24h]
	mov	[eax],ecx
	mov	[edi+24h],eax
	mov	[esp+0Ch],eax
	mov	ebp,eax

l0072CF2A:
	mov	edi,[esi+18h]
	push	20h
	call	723860h
	add	esp,4h
	test	eax,eax
	jnz	72CF4Ah

l0072CF3B:
	call	6E1210h
	mov	dword ptr [esp+8h],0h
	jmp	72CF6Fh

l0072CF4A:
	xor	ecx,ecx
	mov	[eax],ecx
	mov	[eax+4h],ecx
	mov	[eax+8h],ecx
	mov	[eax+0Ch],ecx
	mov	[eax+10h],ecx
	mov	[eax+14h],ecx
	mov	[eax+18h],ecx
	mov	[eax+1Ch],ecx
	mov	edx,[edi+24h]
	mov	[eax],edx
	mov	[edi+24h],eax
	mov	[esp+8h],eax

l0072CF6F:
	mov	edi,[esi+18h]
	push	20h
	call	723860h
	add	esp,4h
	test	eax,eax
	jnz	72CF89h

l0072CF80:
	call	6E1210h
	xor	eax,eax
	jmp	72CFAAh

l0072CF89:
	xor	ecx,ecx
	mov	[eax],ecx
	mov	[eax+4h],ecx
	mov	[eax+8h],ecx
	mov	[eax+0Ch],ecx
	mov	[eax+10h],ecx
	mov	[eax+14h],ecx
	mov	[eax+18h],ecx
	mov	[eax+1Ch],ecx
	mov	ecx,[edi+24h]
	mov	[eax],ecx
	mov	[edi+24h],eax

l0072CFAA:
	test	ebp,ebp
	mov	[esp+10h],eax
	jz	72CFD0h

l0072CFB2:
	test	eax,eax
	jz	72CFD0h

l0072CFB6:
	cmp	dword ptr [esp+8h],0h
	jz	72CFD0h

l0072CFBD:
	push	0h
	push	eax
	push	78h
	mov	eax,esi
	call	727880h
	add	esp,0Ch
	test	eax,eax
	jnz	72CFD8h

l0072CFD0:
	pop	edi
	xor	eax,eax
	pop	ebp
	add	esp,0Ch
	ret

l0072CFD8:
	push	ebp
	push	0h
	mov	eax,esi
	call	728310h
	add	esp,8h
	test	eax,eax
	jz	72CFD0h

l0072CFE9:
	mov	edi,[esp+18h]
	mov	edx,[edi+8h]
	push	edx
	push	esi
	call	72B360h
	add	esp,8h
	test	eax,eax
	jz	72CFD0h

l0072CFFE:
	push	ebx
	mov	ebx,44h
	mov	eax,esi
	call	727670h
	test	eax,eax
	jz	72D106h

l0072D013:
	mov	eax,[esi+18h]
	mov	ecx,[eax+28h]
	mov	[ecx+10h],ebp
	mov	edx,[esi+18h]
	mov	ecx,[esp+0Ch]
	mov	[edx+28h],ebp
	mov	eax,[esi+18h]
	push	0h
	push	ecx
	mov	dword ptr [eax+0DCh],0h
	push	5Dh
	mov	eax,esi
	call	727880h
	add	esp,0Ch
	test	eax,eax
	jz	72D106h

l0072D04A:
	mov	edx,[edi+4h]
	push	edx
	push	esi
	call	72B360h
	add	esp,8h
	test	eax,eax
	jz	72D106h

l0072D05F:
	mov	ebp,[edi+0Ch]
	xor	ebx,ebx
	lea	edi,[ebp+4h]

l0072D067:
	test	ebp,ebp
	jnz	72D06Fh

l0072D06B:
	xor	eax,eax
	jmp	72D072h

l0072D06F:
	mov	eax,[ebp+0h]

l0072D072:
	cmp	ebx,eax
	jge	72D092h

l0072D076:
	mov	eax,[edi]
	push	eax
	push	esi
	call	72D920h
	add	esp,8h
	test	eax,eax
	jz	72D106h

l0072D08A:
	add	ebx,1h
	add	edi,4h
	jmp	72D067h

l0072D092:
	mov	eax,[esp+10h]
	push	1h
	push	eax
	push	71h
	mov	eax,esi
	call	727880h
	add	esp,0Ch
	test	eax,eax
	jz	72D106h

l0072D0A9:
	mov	ecx,[esi+18h]
	mov	edx,[ecx+28h]
	mov	eax,[esp+0Ch]
	mov	[edx+10h],eax
	mov	ecx,[esi+18h]
	mov	[ecx+28h],eax
	mov	ebx,57h
	mov	eax,esi
	call	727670h
	test	eax,eax
	jz	72D106h

l0072D0CC:
	mov	eax,[esi+18h]
	add	dword ptr [eax+30h],0FFh
	mov	edx,[esp+1Ch]
	mov	ebx,[edx+10h]
	xor	ebp,ebp
	lea	edi,[ebx+4h]
	nop

l0072D0E0:
	test	ebx,ebx
	jnz	72D0E8h

l0072D0E4:
	xor	eax,eax
	jmp	72D0EAh

l0072D0E8:
	mov	eax,[ebx]

l0072D0EA:
	cmp	ebp,eax
	jge	72D10Fh

l0072D0EE:
	mov	eax,[edi]
	push	eax
	push	esi
	call	72D920h
	add	esp,8h
	test	eax,eax
	jz	72D106h

l0072D0FE:
	add	ebp,1h
	add	edi,4h
	jmp	72D0E0h

l0072D106:
	pop	ebx
	pop	edi
	xor	eax,eax
	pop	ebp
	add	esp,0Ch
	ret

l0072D10F:
	mov	eax,[esi+18h]
	mov	ecx,[eax+28h]
	mov	eax,[esp+14h]
	mov	[ecx+10h],eax
	mov	edx,[esi+18h]
	pop	ebx
	pop	edi
	mov	[edx+28h],eax
	mov	eax,1h
	pop	ebp
	add	esp,0Ch
	ret
0072D12E                                           CC CC               ..

;; fn0072D130: 0072D130
;;   Called from:
;;     0072DAC8 (in fn0072D920)
fn0072D130 proc
	sub	esp,14h
	push	ebx
	push	ebp
	push	edi
	mov	edi,[esp+24h]
	mov	ecx,[edi+4h]
	xor	ebp,ebp
	mov	[esp+10h],ebp
	call	7282B0h
	mov	ebx,eax
	cmp	ebx,ebp
	mov	[esp+18h],ebx
	jnz	72D18Eh

l0072D152:
	mov	ebx,[edi+0Ch]
	cmp	ebx,ebp
	jz	72D3C4h

l0072D15D:
	lea	edi,[ebx+4h]

l0072D160:
	test	ebx,ebx
	jnz	72D168h

l0072D164:
	xor	eax,eax
	jmp	72D16Ah

l0072D168:
	mov	eax,[ebx]

l0072D16A:
	cmp	ebp,eax
	jge	72D3C4h

l0072D172:
	mov	eax,[edi]
	push	eax
	push	esi
	call	72D920h
	add	esp,8h
	test	eax,eax
	jz	72D24Ah

l0072D186:
	add	ebp,1h
	add	edi,4h
	jmp	72D160h

l0072D18E:
	mov	edi,[esi+18h]
	push	20h
	call	723860h
	add	esp,4h
	cmp	eax,ebp
	jnz	72D1AAh

l0072D19F:
	call	6E1210h
	mov	[esp+0Ch],ebp
	jmp	72D1CFh

l0072D1AA:
	xor	ecx,ecx
	mov	[eax],ecx
	mov	[eax+4h],ecx
	mov	[eax+8h],ecx
	mov	[eax+0Ch],ecx
	mov	[eax+10h],ecx
	mov	[eax+14h],ecx
	mov	[eax+18h],ecx
	mov	[eax+1Ch],ecx
	mov	ecx,[edi+24h]
	mov	[eax],ecx
	mov	[edi+24h],eax
	mov	[esp+0Ch],eax

l0072D1CF:
	mov	edi,[esi+18h]
	push	20h
	call	723860h
	add	esp,4h
	cmp	eax,ebp
	jnz	72D1EDh

l0072D1E0:
	call	6E1210h
	xor	edi,edi
	mov	[esp+14h],edi
	jmp	72D214h

l0072D1ED:
	xor	ecx,ecx
	mov	[eax],ecx
	mov	[eax+4h],ecx
	mov	[eax+8h],ecx
	mov	[eax+0Ch],ecx
	mov	[eax+10h],ecx
	mov	[eax+14h],ecx
	mov	[eax+18h],ecx
	mov	[eax+1Ch],ecx
	mov	edx,[edi+24h]
	mov	[eax],edx
	mov	[edi+24h],eax
	mov	[esp+14h],eax
	mov	edi,eax

l0072D214:
	cmp	ebx,0FFh
	jnz	72D228h

l0072D219:
	mov	eax,esi
	call	727340h
	cmp	eax,ebp
	mov	[esp+10h],eax
	jz	72D24Ah

l0072D228:
	cmp	[esp+0Ch],ebp
	jz	72D24Ah

l0072D22E:
	cmp	edi,ebp
	jz	72D24Ah

l0072D232:
	mov	ebx,[esp+24h]
	cmp	[ebx+0Ch],ebp
	jz	72D253h

l0072D23B:
	mov	eax,esi
	call	727340h
	cmp	eax,ebp
	mov	[esp+1Ch],eax
	jnz	72D257h

l0072D24A:
	pop	edi
	pop	ebp
	xor	eax,eax
	pop	ebx
	add	esp,14h
	ret

l0072D253:
	mov	[esp+1Ch],ebp

l0072D257:
	push	ebp
	push	edi
	push	78h
	mov	eax,esi
	call	727880h
	add	esp,0Ch
	test	eax,eax
	jz	72D24Ah

l0072D269:
	mov	eax,[esi+18h]
	mov	ecx,[eax+28h]
	mov	eax,[esp+0Ch]
	mov	[ecx+10h],eax
	mov	edx,[esi+18h]
	push	eax
	mov	[edx+28h],eax
	push	ebp
	mov	eax,esi
	call	728310h
	add	esp,8h
	test	eax,eax
	jz	72D24Ah

l0072D28C:
	cmp	dword ptr [esp+18h],0FFh
	jnz	72D2DBh

l0072D293:
	mov	eax,[esi+18h]
	mov	[eax+0DCh],ebp
	mov	ecx,[ebx+4h]
	push	ecx
	push	esi
	call	72B360h
	add	esp,8h
	test	eax,eax
	jz	72D24Ah

l0072D2AD:
	mov	edx,[esp+10h]
	push	ebp
	push	edx
	push	6Fh
	mov	eax,esi
	call	727880h
	add	esp,0Ch
	test	eax,eax
	jz	72D24Ah

l0072D2C3:
	mov	ebx,1h
	mov	eax,esi
	call	727670h
	test	eax,eax
	jz	72D24Ah

l0072D2D7:
	mov	ebx,[esp+24h]

l0072D2DB:
	mov	ebp,[ebx+8h]
	xor	ebx,ebx
	lea	edi,[ebp+4h]

l0072D2E3:
	test	ebp,ebp
	jnz	72D2EBh

l0072D2E7:
	xor	eax,eax
	jmp	72D2EEh

l0072D2EB:
	mov	eax,[ebp+0h]

l0072D2EE:
	cmp	ebx,eax
	jge	72D30Eh

l0072D2F2:
	mov	eax,[edi]
	push	eax
	push	esi
	call	72D920h
	add	esp,8h
	test	eax,eax
	jz	72D24Ah

l0072D306:
	add	ebx,1h
	add	edi,4h
	jmp	72D2E3h

l0072D30E:
	mov	eax,[esp+0Ch]
	push	1h
	push	eax
	push	71h
	mov	eax,esi
	call	727880h
	add	esp,0Ch
	test	eax,eax
	jz	72D24Ah

l0072D329:
	or	edi,0FFh
	cmp	[esp+18h],edi
	jnz	72D36Dh

l0072D332:
	mov	ecx,[esi+18h]
	mov	edx,[ecx+28h]
	mov	eax,[esp+10h]
	mov	[edx+10h],eax
	mov	ecx,[esi+18h]
	mov	[ecx+28h],eax
	mov	ebx,1h
	mov	eax,esi
	call	727670h
	test	eax,eax
	jz	72D24Ah

l0072D359:
	mov	ebx,57h
	mov	eax,esi
	call	727670h
	test	eax,eax
	jz	72D24Ah

l0072D36D:
	mov	eax,[esi+18h]
	add	[eax+30h],edi
	cmp	dword ptr [esp+1Ch],0h
	jz	72D3B1h

l0072D37A:
	mov	edx,[esp+24h]
	mov	ebp,[edx+0Ch]
	xor	ebx,ebx
	lea	edi,[ebp+4h]

l0072D386:
	test	ebp,ebp
	jnz	72D38Eh

l0072D38A:
	xor	eax,eax
	jmp	72D391h

l0072D38E:
	mov	eax,[ebp+0h]

l0072D391:
	cmp	ebx,eax
	jge	72D3B1h

l0072D395:
	mov	eax,[edi]
	push	eax
	push	esi
	call	72D920h
	add	esp,8h
	test	eax,eax
	jz	72D24Ah

l0072D3A9:
	add	ebx,1h
	add	edi,4h
	jmp	72D386h

l0072D3B1:
	mov	eax,[esi+18h]
	mov	ecx,[eax+28h]
	mov	eax,[esp+14h]
	mov	[ecx+10h],eax
	mov	edx,[esi+18h]
	mov	[edx+28h],eax

l0072D3C4:
	pop	edi
	pop	ebp
	mov	eax,1h
	pop	ebx
	add	esp,14h
	ret

;; fn0072D3D0: 0072D3D0
;;   Called from:
;;     0072DB5E (in fn0072D920)
fn0072D3D0 proc
	sub	esp,18h
	push	ebx
	push	ebp
	push	edi
	mov	edi,[esi+18h]
	push	20h
	call	723860h
	add	esp,4h
	test	eax,eax
	jnz	72D3F0h

l0072D3E7:
	call	6E1210h
	xor	ebx,ebx
	jmp	72D413h

l0072D3F0:
	xor	ecx,ecx
	mov	[eax],ecx
	mov	[eax+4h],ecx
	mov	[eax+8h],ecx
	mov	[eax+0Ch],ecx
	mov	[eax+10h],ecx
	mov	[eax+14h],ecx
	mov	[eax+18h],ecx
	mov	[eax+1Ch],ecx
	mov	ecx,[edi+24h]
	mov	[eax],ecx
	mov	[edi+24h],eax
	mov	ebx,eax

l0072D413:
	mov	edi,[esi+18h]
	push	20h
	call	723860h
	add	esp,4h
	test	eax,eax
	jnz	72D431h

l0072D424:
	call	6E1210h
	xor	ebp,ebp
	mov	[esp+0Ch],ebp
	jmp	72D458h

l0072D431:
	xor	ecx,ecx
	mov	[eax],ecx
	mov	[eax+4h],ecx
	mov	[eax+8h],ecx
	mov	[eax+0Ch],ecx
	mov	[eax+10h],ecx
	mov	[eax+14h],ecx
	mov	[eax+18h],ecx
	mov	[eax+1Ch],ecx
	mov	edx,[edi+24h]
	mov	[eax],edx
	mov	[edi+24h],eax
	mov	[esp+0Ch],eax
	mov	ebp,eax

l0072D458:
	mov	edi,[esi+18h]
	push	20h
	call	723860h
	add	esp,4h
	test	eax,eax
	jnz	72D478h

l0072D469:
	call	6E1210h
	mov	dword ptr [esp+14h],0h
	jmp	72D49Dh

l0072D478:
	xor	ecx,ecx
	mov	[eax],ecx
	mov	[eax+4h],ecx
	mov	[eax+8h],ecx
	mov	[eax+0Ch],ecx
	mov	[eax+10h],ecx
	mov	[eax+14h],ecx
	mov	[eax+18h],ecx
	mov	[eax+1Ch],ecx
	mov	ecx,[edi+24h]
	mov	[eax],ecx
	mov	[edi+24h],eax
	mov	[esp+14h],eax

l0072D49D:
	mov	edi,[esi+18h]
	push	20h
	call	723860h
	add	esp,4h
	test	eax,eax
	jnz	72D4BDh

l0072D4AE:
	call	6E1210h
	mov	dword ptr [esp+18h],0h
	jmp	72D4E2h

l0072D4BD:
	xor	ecx,ecx
	mov	[eax],ecx
	mov	[eax+4h],ecx
	mov	[eax+8h],ecx
	mov	[eax+0Ch],ecx
	mov	[eax+10h],ecx
	mov	[eax+14h],ecx
	mov	[eax+18h],ecx
	mov	[eax+1Ch],ecx
	mov	edx,[edi+24h]
	mov	[eax],edx
	mov	[edi+24h],eax
	mov	[esp+18h],eax

l0072D4E2:
	test	ebx,ebx
	jz	72D825h

l0072D4EA:
	test	ebp,ebp
	jz	72D825h

l0072D4F2:
	cmp	dword ptr [esp+14h],0h
	jz	72D825h

l0072D4FD:
	cmp	dword ptr [esp+18h],0h
	jz	72D825h

l0072D508:
	push	0h
	push	ebp
	push	79h
	mov	eax,esi
	call	727880h
	add	esp,0Ch
	test	eax,eax
	jz	72D825h

l0072D51F:
	mov	eax,[esi+18h]
	mov	ecx,[eax+28h]
	mov	[ecx+10h],ebx
	mov	edx,[esi+18h]
	push	ebx
	push	1h
	mov	eax,esi
	mov	[edx+28h],ebx
	call	728310h
	add	esp,8h
	test	eax,eax
	jz	72D825h

l0072D543:
	mov	eax,[esp+28h]
	mov	ebp,[eax+4h]
	xor	ebx,ebx
	lea	edi,[ebp+4h]
	nop

l0072D550:
	test	ebp,ebp
	jnz	72D558h

l0072D554:
	xor	eax,eax
	jmp	72D55Bh

l0072D558:
	mov	eax,[ebp+0h]

l0072D55B:
	cmp	ebx,eax
	jge	72D57Bh

l0072D55F:
	mov	eax,[edi]
	push	eax
	push	esi
	call	72D920h
	add	esp,8h
	test	eax,eax
	jz	72D825h

l0072D573:
	add	ebx,1h
	add	edi,4h
	jmp	72D550h

l0072D57B:
	mov	ebx,57h
	mov	eax,esi
	call	727670h
	test	eax,eax
	jz	72D825h

l0072D58F:
	mov	eax,[esi+18h]
	mov	edi,[esp+14h]
	add	dword ptr [eax+30h],0FFh
	push	0h
	push	edi
	push	6Eh
	mov	eax,esi
	call	727880h
	add	esp,0Ch
	test	eax,eax
	jz	72D825h

l0072D5B1:
	mov	ecx,[esp+28h]
	mov	eax,[ecx+8h]
	test	eax,eax
	jnz	72D5C2h

l0072D5BC:
	mov	[esp+10h],eax
	jmp	72D5C8h

l0072D5C2:
	mov	edx,[eax]
	mov	[esp+10h],edx

l0072D5C8:
	mov	eax,[esi+18h]
	mov	ecx,[eax+28h]
	mov	eax,[esp+0Ch]
	mov	[ecx+10h],eax
	mov	edx,[esi+18h]
	mov	[edx+28h],eax
	xor	eax,eax
	cmp	[esp+10h],eax
	mov	[esp+1Ch],eax
	jg	72D629h

l0072D5E7:
	mov	ebx,58h
	mov	eax,esi
	call	727670h
	test	eax,eax
	jz	72D825h

l0072D5FB:
	mov	eax,[esi+18h]
	mov	ecx,[eax+28h]
	mov	eax,[esp+28h]
	mov	[ecx+10h],edi
	mov	edx,[esi+18h]
	mov	[edx+28h],edi
	mov	ebx,[eax+0Ch]
	xor	ebp,ebp
	lea	edi,[ebx+4h]

l0072D616:
	test	ebx,ebx
	jnz	72D7E5h

l0072D61E:
	xor	eax,eax
	jmp	72D7E7h

l0072D625:
	mov	eax,[esp+1Ch]

l0072D629:
	mov	ecx,[esp+28h]
	mov	edx,[ecx+8h]
	mov	edi,[edx+eax*4+4h]
	cmp	dword ptr [edi],0h
	mov	[esp+20h],edi
	jnz	72D64Ch

l0072D63D:
	mov	ecx,[esp+10h]
	add	ecx,0FFh
	cmp	eax,ecx
	jl	72D7D0h

l0072D64C:
	mov	edx,[esi+18h]
	mov	dword ptr [edx+0DCh],0h
	mov	eax,[esi+18h]
	mov	ecx,[edi+0Ch]
	mov	[eax+0D8h],ecx
	mov	eax,esi
	call	727340h
	mov	ebp,eax
	test	ebp,ebp
	mov	[esp+0Ch],ebp
	jz	72D825h

l0072D67A:
	cmp	dword ptr [edi],0h
	jz	72D6E8h

l0072D67F:
	mov	ebx,4h
	mov	eax,esi
	call	727670h
	test	eax,eax
	jz	72D825h

l0072D693:
	mov	edx,[edi]
	push	edx
	push	esi
	call	72B360h
	add	esp,8h
	test	eax,eax
	jz	72D825h

l0072D6A7:
	push	0Ah
	push	6Ah
	mov	eax,esi
	call	727810h
	add	esp,8h
	test	eax,eax
	jz	72D825h

l0072D6BD:
	push	0h
	push	ebp
	push	6Fh
	mov	eax,esi
	call	727880h
	add	esp,0Ch
	test	eax,eax
	jz	72D825h

l0072D6D4:
	mov	ebx,1h
	mov	eax,esi
	call	727670h
	test	eax,eax
	jz	72D825h

l0072D6E8:
	mov	ebx,1h
	mov	eax,esi
	call	727670h
	test	eax,eax
	jz	72D825h

l0072D6FC:
	mov	eax,[edi+4h]
	test	eax,eax
	jz	72D70Fh

l0072D703:
	push	eax
	push	esi
	call	72B360h
	add	esp,8h
	jmp	72D716h

l0072D70F:
	mov	eax,esi
	call	727670h

l0072D716:
	test	eax,eax
	jz	72D825h

l0072D71E:
	mov	ebx,1h
	mov	eax,esi
	call	727670h
	test	eax,eax
	jz	72D825h

l0072D732:
	mov	ebp,[edi+8h]
	xor	ebx,ebx
	lea	edi,[ebp+4h]
	lea	ebx,[ebx+0h]

l0072D740:
	test	ebp,ebp
	jnz	72D748h

l0072D744:
	xor	eax,eax
	jmp	72D74Bh

l0072D748:
	mov	eax,[ebp+0h]

l0072D74B:
	cmp	ebx,eax
	jge	72D76Bh

l0072D74F:
	mov	eax,[edi]
	push	eax
	push	esi
	call	72D920h
	add	esp,8h
	test	eax,eax
	jz	72D825h

l0072D763:
	add	ebx,1h
	add	edi,4h
	jmp	72D740h

l0072D76B:
	mov	eax,[esp+18h]
	push	0h
	push	eax
	push	6Eh
	mov	eax,esi
	call	727880h
	add	esp,0Ch
	test	eax,eax
	jz	72D825h

l0072D786:
	mov	ecx,[esi+18h]
	mov	edx,[ecx+28h]
	mov	eax,[esp+0Ch]
	mov	[edx+10h],eax
	mov	ecx,[esi+18h]
	mov	edx,[esp+20h]
	mov	[ecx+28h],eax
	cmp	dword ptr [edx],0h
	jz	72D7B2h

l0072D7A2:
	mov	ebx,1h
	mov	eax,esi
	call	727670h
	test	eax,eax
	jz	72D825h

l0072D7B2:
	mov	eax,[esp+1Ch]
	add	eax,1h
	cmp	eax,[esp+10h]
	mov	[esp+1Ch],eax
	jl	72D625h

l0072D7C7:
	mov	edi,[esp+14h]
	jmp	72D5E7h

l0072D7D0:
	pop	edi
	pop	ebp
	pop	ebx
	add	esp,18h
	mov	dword ptr [esp+4h],8DAA2Ch
	mov	eax,esi
	jmp	728360h

l0072D7E5:
	mov	eax,[ebx]

l0072D7E7:
	cmp	ebp,eax
	jge	72D806h

l0072D7EB:
	mov	eax,[edi]
	push	eax
	push	esi
	call	72D920h
	add	esp,8h
	test	eax,eax
	jz	72D825h

l0072D7FB:
	add	ebp,1h
	add	edi,4h
	jmp	72D616h

l0072D806:
	mov	ecx,[esi+18h]
	mov	edx,[ecx+28h]
	mov	eax,[esp+18h]
	mov	[edx+10h],eax
	mov	ecx,[esi+18h]
	pop	edi
	pop	ebp
	mov	[ecx+28h],eax
	mov	eax,1h
	pop	ebx
	add	esp,18h
	ret

l0072D825:
	pop	edi
	pop	ebp
	xor	eax,eax
	pop	ebx
	add	esp,18h
	ret
0072D82E                                           CC CC               ..

;; fn0072D830: 0072D830
;;   Called from:
;;     0072DB7C (in fn0072D920)
fn0072D830 proc
	cmp	dword ptr [0A6DBF4h],0h
	push	ebp
	mov	ebp,[esp+8h]
	jz	72D845h

l0072D83E:
	mov	eax,1h
	pop	ebp
	ret

l0072D845:
	cmp	dword ptr [0A6DBF8h],0h
	jnz	72D868h

l0072D84E:
	push	8D33B8h
	call	6ECAC0h
	add	esp,4h
	test	eax,eax
	mov	[0A6DBF8h],eax
	jnz	72D868h

l0072D864:
	xor	eax,eax
	pop	ebp
	ret

l0072D868:
	mov	eax,[ebp+4h]
	push	eax
	push	esi
	call	72B360h
	add	esp,8h
	test	eax,eax
	jz	72D864h

l0072D879:
	push	edi
	mov	eax,esi
	call	727340h
	mov	edi,eax
	test	edi,edi
	jz	72D89Ah

l0072D887:
	push	0h
	push	edi
	push	70h
	mov	eax,esi
	call	727880h
	add	esp,0Ch
	test	eax,eax
	jnz	72D89Fh

l0072D89A:
	pop	edi
	xor	eax,eax
	pop	ebp
	ret

l0072D89F:
	push	ebx
	mov	ebx,1h
	mov	eax,esi
	call	727670h
	test	eax,eax
	jz	72D8FAh

l0072D8B0:
	mov	ecx,[0A6DBF8h]
	mov	edx,[esi+18h]
	mov	eax,[edx+0Ch]
	push	ecx
	push	74h
	push	esi
	call	728FB0h
	add	esp,0Ch
	test	eax,eax
	jz	72D8FAh

l0072D8CC:
	mov	eax,[ebp+8h]
	test	eax,eax
	jz	72D8E5h

l0072D8D3:
	push	eax
	push	esi
	call	72B360h
	add	esp,8h
	test	eax,eax
	jz	72D8FAh

l0072D8E1:
	push	2h
	jmp	72D8E7h

l0072D8E5:
	push	1h

l0072D8E7:
	push	82h
	mov	eax,esi
	call	727810h
	add	esp,8h
	test	eax,eax
	jnz	72D900h

l0072D8FA:
	pop	ebx
	pop	edi
	xor	eax,eax
	pop	ebp
	ret

l0072D900:
	mov	eax,[esi+18h]
	mov	ecx,[eax+28h]
	mov	[ecx+10h],edi
	mov	edx,[esi+18h]
	mov	eax,esi
	mov	[edx+28h],edi
	call	727670h
	neg	eax
	pop	ebx
	sbb	eax,eax
	pop	edi
	neg	eax
	pop	ebp
	ret

;; fn0072D920: 0072D920
;;   Called from:
;;     007293E4 (in fn00729300)
;;     007294C7 (in fn00729300)
;;     0072C0BF (in fn0072BF10)
;;     0072C27D (in fn0072C160)
;;     0072CD54 (in fn0072CC90)
;;     0072CD9B (in fn0072CC90)
;;     0072CE17 (in fn0072CC90)
;;     0072CE97 (in fn0072CC90)
;;     0072D07A (in fn0072CEE0)
;;     0072D0F2 (in fn0072CEE0)
;;     0072D176 (in fn0072D130)
;;     0072D2F6 (in fn0072D130)
;;     0072D399 (in fn0072D130)
;;     0072D563 (in fn0072D3D0)
;;     0072D753 (in fn0072D3D0)
;;     0072D7EF (in fn0072D3D0)
;;     0072E382 (in fn0072DD60)
;;     0072E6FA (in fn0072E660)
fn0072D920 proc
	push	ebx
	push	ebp
	push	esi
	mov	esi,[esp+10h]
	mov	eax,[esi+18h]
	push	edi
	mov	edi,[esp+18h]
	mov	ecx,[edi+14h]
	mov	[eax+0D8h],ecx
	mov	eax,[esi+18h]
	xor	edx,edx
	mov	[eax+0DCh],edx
	mov	eax,[edi]
	add	eax,0FFh
	cmp	eax,16h
	ja	72DA8Fh

l0072D951:
	jmp	dword ptr [72DCF8h+eax*4]

l0072D958:
	push	edi
	push	esi
	call	72C160h
	add	esp,8h
	pop	edi
	pop	esi
	pop	ebp
	pop	ebx
	ret

l0072D967:
	push	edi
	push	esi
	call	72C510h
	add	esp,8h
	pop	edi
	pop	esi
	pop	ebp
	pop	ebx
	ret

l0072D976:
	mov	eax,[esi+18h]
	mov	ecx,[eax]
	cmp	[ecx+1Ch],edx
	jz	72D994h

l0072D980:
	push	8DAA64h
	mov	eax,esi
	call	728360h
	add	esp,4h
	pop	edi
	pop	esi
	pop	ebp
	pop	ebx
	ret

l0072D994:
	mov	edi,[edi+4h]
	cmp	edi,edx
	jz	72D9B0h

l0072D99B:
	push	edi
	push	esi
	call	72B360h
	add	esp,8h
	test	eax,eax
	jnz	72D9C7h

l0072D9A9:
	pop	edi
	pop	esi
	pop	ebp
	xor	eax,eax
	pop	ebx
	ret

l0072D9B0:
	mov	eax,[eax+8h]
	push	0A163B8h
	push	64h
	push	esi
	call	728FB0h
	add	esp,0Ch
	test	eax,eax
	jz	72D9DBh

l0072D9C7:
	mov	ebx,53h

l0072D9CC:
	mov	eax,esi
	call	727670h
	test	eax,eax
	jnz	72DA8Fh

l0072D9DB:
	pop	edi
	pop	esi
	pop	ebp
	xor	eax,eax
	pop	ebx
	ret

l0072D9E2:
	mov	ebp,[edi+4h]
	xor	edi,edi
	lea	ebx,[ebp+4h]
	lea	ebx,[ebx+0h]

l0072D9F0:
	test	ebp,ebp
	jnz	72D9F8h

l0072D9F4:
	xor	eax,eax
	jmp	72D9FBh

l0072D9F8:
	mov	eax,[ebp+0h]

l0072D9FB:
	cmp	edi,eax
	jge	72DA8Fh

l0072DA03:
	mov	eax,[ebx]
	push	eax
	push	esi
	call	72B360h
	add	esp,8h
	test	eax,eax
	jz	72D9A9h

l0072DA13:
	add	edi,1h
	add	ebx,4h
	jmp	72D9F0h

l0072DA1B:
	mov	eax,[edi+4h]
	cmp	eax,edx
	jz	72DA24h

l0072DA22:
	mov	edx,[eax]

l0072DA24:
	mov	eax,[edi+8h]
	push	eax
	push	esi
	mov	[esp+1Ch],edx
	call	72B360h
	add	esp,8h
	test	eax,eax
	jz	72D9A9h

l0072DA3D:
	xor	ebp,ebp
	cmp	[esp+14h],ebp
	jle	72DA8Fh

l0072DA45:
	mov	ebx,[esp+14h]
	lea	esp,[esp+0h]

l0072DA50:
	lea	eax,[ebx-1h]
	cmp	ebp,eax
	jge	72DA6Fh

l0072DA57:
	mov	ebx,4h
	mov	eax,esi
	call	727670h
	test	eax,eax
	jz	72D9A9h

l0072DA6B:
	mov	ebx,[esp+14h]

l0072DA6F:
	mov	ecx,[edi+4h]
	mov	edx,[ecx+ebp*4+4h]
	push	edx
	push	esi
	call	72B360h
	add	esp,8h
	test	eax,eax
	jz	72D9A9h

l0072DA88:
	add	ebp,1h
	cmp	ebp,ebx
	jl	72DA50h

l0072DA8F:
	pop	edi
	pop	esi
	pop	ebp
	mov	eax,1h
	pop	ebx
	ret

l0072DA99:
	push	esi
	mov	eax,edi
	call	72B830h
	add	esp,4h
	pop	edi
	pop	esi
	pop	ebp
	pop	ebx
	ret

l0072DAA9:
	push	edi
	mov	eax,esi
	call	72CA10h
	add	esp,4h
	pop	edi
	pop	esi
	pop	ebp
	pop	ebx
	ret

l0072DAB9:
	push	edi
	call	72CEE0h
	add	esp,4h
	pop	edi
	pop	esi
	pop	ebp
	pop	ebx
	ret

l0072DAC7:
	push	edi
	call	72D130h
	add	esp,4h
	pop	edi
	pop	esi
	pop	ebp
	pop	ebx
	ret

l0072DAD5:
	push	edi
	push	esi
	call	72CC90h
	add	esp,8h
	pop	edi
	pop	esi
	pop	ebp
	pop	ebx
	ret

l0072DAE4:
	mov	ecx,[edi+4h]
	xor	eax,eax
	cmp	ecx,edx
	jz	72DB40h

l0072DAED:
	push	ecx
	push	esi
	call	72B360h
	add	esp,8h
	test	eax,eax
	jz	72D9A9h

l0072DAFF:
	mov	ecx,[edi+8h]
	test	ecx,ecx
	mov	eax,1h
	jz	72DB40h

l0072DB0B:
	push	ecx
	push	esi
	call	72B360h
	add	esp,8h
	test	eax,eax
	jz	72D9A9h

l0072DB1D:
	mov	edi,[edi+0Ch]
	test	edi,edi
	mov	eax,2h
	jz	72DB40h

l0072DB29:
	push	edi
	push	esi
	call	72B360h
	add	esp,8h
	test	eax,eax
	jz	72D9A9h

l0072DB3B:
	mov	eax,3h

l0072DB40:
	push	eax
	push	82h
	mov	eax,esi
	call	727810h
	add	esp,8h
	test	eax,eax
	jnz	72DA8Fh

l0072DB58:
	pop	edi
	pop	esi
	pop	ebp
	pop	ebx
	ret

l0072DB5D:
	push	edi
	call	72D3D0h
	add	esp,4h
	pop	edi
	pop	esi
	pop	ebp
	pop	ebx
	ret

l0072DB6B:
	push	edi
	mov	eax,esi
	call	729300h
	add	esp,4h
	pop	edi
	pop	esi
	pop	ebp
	pop	ebx
	ret

l0072DB7B:
	push	edi
	call	72D830h
	add	esp,4h
	pop	edi
	pop	esi
	pop	ebp
	pop	ebx
	ret

l0072DB89:
	push	edi
	mov	eax,esi
	call	72A940h
	add	esp,4h
	pop	edi
	pop	esi
	pop	ebp
	pop	ebx
	ret

l0072DB99:
	push	edi
	push	esi
	call	72AC20h
	add	esp,8h
	pop	edi
	pop	esi
	pop	ebp
	pop	ebx
	ret

l0072DBA8:
	mov	eax,[edi+4h]
	push	eax
	push	esi
	call	72B360h
	add	esp,8h
	test	eax,eax
	jz	72D9A9h

l0072DBBD:
	mov	eax,[edi+8h]
	test	eax,eax
	jz	72DC05h

l0072DBC4:
	push	eax
	push	esi
	call	72B360h
	add	esp,8h
	test	eax,eax
	jz	72D9A9h

l0072DBD6:
	mov	edi,[edi+0Ch]
	test	edi,edi
	jz	72DBF0h

l0072DBDD:
	push	edi
	push	esi
	call	72B360h
	add	esp,8h
	test	eax,eax
	jnz	72DC37h

l0072DBEB:
	pop	edi
	pop	esi
	pop	ebp
	pop	ebx
	ret

l0072DBF0:
	mov	ebx,4h
	mov	eax,esi
	call	727670h
	test	eax,eax
	jnz	72DC37h

l0072DC00:
	pop	edi
	pop	esi
	pop	ebp
	pop	ebx
	ret

l0072DC05:
	mov	ecx,[esi+18h]
	mov	eax,[ecx+8h]
	push	0A163B8h
	push	64h
	push	esi
	call	728FB0h
	add	esp,0Ch
	test	eax,eax
	jz	72D9A9h

l0072DC23:
	mov	ebx,4h
	mov	eax,esi
	call	727670h
	test	eax,eax
	jz	72D9A9h

l0072DC37:
	mov	ebx,55h
	jmp	72D9CCh

l0072DC41:
	cmp	[esi+10h],edx
	jz	72DC6Bh

l0072DC46:
	cmp	dword ptr [esi+14h],1h
	jg	72DC6Bh

l0072DC4C:
	mov	edx,[edi+4h]
	push	edx
	push	esi
	call	72B360h
	add	esp,8h
	test	eax,eax
	jz	72D9A9h

l0072DC61:
	mov	ebx,46h
	jmp	72D9CCh

l0072DC6B:
	mov	edi,[edi+4h]
	mov	eax,[edi]
	cmp	eax,0Eh
	jz	72DA8Fh

l0072DC79:
	cmp	eax,0Dh
	jz	72DA8Fh

l0072DC82:
	push	edi
	push	esi
	call	72B360h
	add	esp,8h
	test	eax,eax
	jz	72D9A9h

l0072DC94:
	mov	ebx,1h
	jmp	72D9CCh

l0072DC9E:
	mov	edx,[esi+18h]
	mov	ecx,[edx+30h]
	xor	eax,eax
	test	ecx,ecx
	jle	72DCBFh

l0072DCAA:
	add	edx,34h
	lea	ecx,[ecx+0h]

l0072DCB0:
	cmp	dword ptr [edx],0h
	jz	72DCD3h

l0072DCB5:
	add	eax,1h
	add	edx,8h
	cmp	eax,ecx
	jl	72DCB0h

l0072DCBF:
	push	8DAA4Ch
	mov	eax,esi
	call	728360h
	add	esp,4h
	pop	edi
	pop	esi
	pop	ebp
	pop	ebx
	ret

l0072DCD3:
	mov	ebx,50h
	jmp	72D9CCh

l0072DCDD:
	pop	edi
	mov	eax,esi
	pop	esi
	pop	ebp
	pop	ebx
	jmp	729250h

l0072DCE8:
	push	edi
	push	esi
	call	72DD60h
	add	esp,8h
	pop	edi
	pop	esi
	pop	ebp
	pop	ebx
	ret
0072DCF7                      90                                .       
l0072DCF8	dd	0x0072D958
l0072DCFC	dd	0x0072D967
l0072DD00	dd	0x0072D976
l0072DD04	dd	0x0072D9E2
l0072DD08	dd	0x0072DA1B
l0072DD0C	dd	0x0072DA99
l0072DD10	dd	0x0072DAA9
l0072DD14	dd	0x0072DAB9
l0072DD18	dd	0x0072DAC7
l0072DD1C	dd	0x0072DAD5
l0072DD20	dd	0x0072DCE8
l0072DD24	dd	0x0072DAE4
l0072DD28	dd	0x0072DB5D
l0072DD2C	dd	0x0072DB6B
l0072DD30	dd	0x0072DB7B
l0072DD34	dd	0x0072DB89
l0072DD38	dd	0x0072DB99
l0072DD3C	dd	0x0072DBA8
l0072DD40	dd	0x0072DA8F
l0072DD44	dd	0x0072DC41
l0072DD48	dd	0x0072DA8F
l0072DD4C	dd	0x0072DC9E
l0072DD50	dd	0x0072DCDD
0072DD54             CC CC CC CC CC CC CC CC CC CC CC CC     ............

;; fn0072DD60: 0072DD60
;;   Called from:
;;     0072DCEA (in fn0072D920)
fn0072DD60 proc
	sub	esp,14h
	cmp	dword ptr [0A6DBECh],0h
	mov	dword ptr [esp],0h
	jnz	72DD8Fh

l0072DD73:
	push	8DAA8Ch
	call	6F1A70h
	add	esp,4h
	test	eax,eax
	mov	[0A6DBECh],eax
	jnz	72DD8Fh

l0072DD89:
	xor	eax,eax
	add	esp,14h
	ret

l0072DD8F:
	cmp	dword ptr [0A6DBDCh],0h
	jnz	72DDAEh

l0072DD98:
	push	8DAA80h
	call	6F1A70h
	add	esp,4h
	test	eax,eax
	mov	[0A6DBDCh],eax
	jz	72DD89h

l0072DDAE:
	push	ebp
	mov	ebp,[esp+1Ch]
	push	esi
	mov	esi,[ebp+18h]
	push	edi
	push	20h
	call	723860h
	add	esp,4h
	test	eax,eax
	jnz	72DDD3h

l0072DDC6:
	call	6E1210h
	xor	edi,edi
	mov	[esp+1Ch],edi
	jmp	72DDFAh

l0072DDD3:
	xor	ecx,ecx
	mov	[eax],ecx
	mov	[eax+4h],ecx
	mov	[eax+8h],ecx
	mov	[eax+0Ch],ecx
	mov	[eax+10h],ecx
	mov	[eax+14h],ecx
	mov	[eax+18h],ecx
	mov	[eax+1Ch],ecx
	mov	ecx,[esi+24h]
	mov	[eax],ecx
	mov	[esi+24h],eax
	mov	edi,eax
	mov	[esp+1Ch],eax

l0072DDFA:
	mov	esi,[ebp+18h]
	push	20h
	call	723860h
	add	esp,4h
	test	eax,eax
	jnz	72DE14h

l0072DE0B:
	call	6E1210h
	xor	eax,eax
	jmp	72DE35h

l0072DE14:
	xor	ecx,ecx
	mov	[eax],ecx
	mov	[eax+4h],ecx
	mov	[eax+8h],ecx
	mov	[eax+0Ch],ecx
	mov	[eax+10h],ecx
	mov	[eax+14h],ecx
	mov	[eax+18h],ecx
	mov	[eax+1Ch],ecx
	mov	edx,[esi+24h]
	mov	[eax],edx
	mov	[esi+24h],eax

l0072DE35:
	test	edi,edi
	mov	[esp+14h],eax
	jz	72E5BFh

l0072DE41:
	test	eax,eax
	jz	72E5BFh

l0072DE49:
	push	ebp
	call	7272E0h
	add	esp,4h
	test	eax,eax
	mov	[esp+18h],eax
	jz	72E5BFh

l0072DE5E:
	push	eax
	mov	eax,[ebp+24h]
	push	eax
	call	740DF0h
	mov	esi,[esp+30h]
	add	esp,8h
	cmp	dword ptr [esi+8h],0h
	jz	72DE97h

l0072DE75:
	push	ebp
	call	7272E0h
	add	esp,4h
	test	eax,eax
	mov	[esp+0Ch],eax
	jz	72E5BFh

l0072DE8A:
	mov	ecx,[ebp+24h]
	push	eax
	push	ecx
	call	740DF0h
	add	esp,8h

l0072DE97:
	mov	edx,[esi+4h]
	push	edx
	push	ebp
	call	72B360h
	add	esp,8h
	test	eax,eax
	jz	72E5BFh

l0072DEAC:
	push	ebx
	mov	ebx,4h
	mov	eax,ebp
	call	727670h
	test	eax,eax
	jz	72E192h

l0072DEC1:
	mov	eax,[0A6DBDCh]
	mov	ecx,[ebp+18h]
	push	eax
	mov	eax,[ecx+0Ch]
	push	69h
	push	ebp
	call	728FB0h
	add	esp,0Ch
	test	eax,eax
	jz	72E192h

l0072DEE0:
	mov	eax,[ebp+18h]
	mov	edx,[eax+0Ch]
	mov	[esp+14h],edx
	mov	edx,[esp+1Ch]
	lea	esi,[edx+14h]
	mov	edi,8DA718h
	mov	ecx,0Ah
	xor	ebx,ebx

l0072DEFD:
	rep cmpsb

l0072DEFF:
	jnz	72DF15h

l0072DF01:
	push	8DA884h
	mov	eax,ebp
	call	728360h
	add	esp,4h
	jmp	72E012h

l0072DF15:
	mov	eax,[eax+1Ch]
	push	edx
	push	eax
	call	726150h
	mov	esi,eax
	add	esp,8h
	test	esi,esi
	jz	72E192h

l0072DF2C:
	mov	ecx,[ebp+18h]
	mov	edx,[ecx]
	push	esi
	push	edx
	xor	ebx,ebx
	mov	edi,3h
	call	7475E0h
	add	eax,0FFh
	add	esp,8h
	cmp	eax,4h
	ja	72DF95h

l0072DF4A:
	jmp	dword ptr [72E5C8h+eax*4]

l0072DF51:
	mov	eax,[ebp+18h]
	mov	ecx,[eax+18h]
	mov	[esp+14h],ecx
	mov	edi,2h
	jmp	72DF95h

l0072DF62:
	mov	edx,[ebp+18h]
	mov	eax,[edx+14h]
	mov	[esp+14h],eax
	mov	edi,2h
	jmp	72DF95h

l0072DF73:
	mov	ecx,[ebp+18h]
	mov	edx,[ecx]
	cmp	[edx+1Ch],ebx
	jnz	72DF95h

l0072DF7D:
	xor	edi,edi
	jmp	72DF95h

l0072DF81:
	mov	eax,[ebp+18h]
	mov	eax,[eax]
	cmp	[eax+1Ch],ebx
	jnz	72DF95h

l0072DF8B:
	cmp	[eax+20h],ebx
	jnz	72DF95h

l0072DF90:
	mov	edi,1h

l0072DF95:
	jmp	dword ptr [72E5DCh+edi*4]
0072DF9C                                     BB 89 00 00             ....
0072DFA0 00 EB 39 8B 4D 18 8B 41 10 56 6A 7D 55 E8 FE AF ..9.M..A.Vj}U...
0072DFB0 FF FF 83 C4 0C 85 C0 0F 84 D5 01 00 00 83 06 FF ................
0072DFC0 75 58 8B 56 04 8B 42 18 56 FF D0 83 C4 04 EB 4A uX.V..B.V......J
0072DFD0 BB 61 00 00 00 EB 05 BB 5A 00 00 00 8B 4C 24 14 .a......Z....L$.
0072DFE0 51 8B C6 E8 F8 96 FF FF 83 C4 04 83 06 FF 8B F8 Q...............
0072DFF0 75 0C 8B 56 04 8B 42 18 56 FF D0 83 C4 04 85 FF u..V..B.V.......
0072E000 0F 8C 8C 01 00 00 57 53 8B C5 E8 01 98 FF FF 83 ......WS........
0072E010 C4 08                                           ..             

l0072E012:
	test	eax,eax
	jz	72E192h

l0072E01A:
	mov	ecx,[0A6DBECh]
	mov	edx,[ebp+18h]
	mov	eax,[edx+0Ch]
	push	ecx
	push	69h
	push	ebp
	call	728FB0h
	add	esp,0Ch
	test	eax,eax
	jz	72E192h

l0072E03A:
	push	0h
	push	83h
	mov	eax,ebp
	call	727810h
	add	esp,8h
	test	eax,eax
	jz	72E192h

l0072E053:
	mov	eax,[esp+2Ch]
	cmp	dword ptr [eax+8h],0h
	jz	72E19Ch

l0072E061:
	mov	eax,[ebp+18h]
	mov	ecx,[eax+0Ch]
	mov	edx,[esp+10h]
	mov	[esp+14h],ecx
	mov	edi,8DA718h
	lea	esi,[edx+14h]
	mov	ecx,0Ah
	xor	ebx,ebx

l0072E07E:
	rep cmpsb

l0072E080:
	jnz	72E096h

l0072E082:
	push	8DA884h
	mov	eax,ebp
	call	728360h
	add	esp,4h
	jmp	72E18Eh

l0072E096:
	push	edx
	mov	edx,[eax+1Ch]
	push	edx
	call	726150h
	mov	esi,eax
	add	esp,8h
	test	esi,esi
	jz	72E192h

l0072E0AD:
	mov	eax,[ebp+18h]
	mov	ecx,[eax]
	push	esi
	push	ecx
	xor	ebx,ebx
	mov	edi,3h
	call	7475E0h
	add	eax,0FFh
	add	esp,8h
	cmp	eax,4h
	ja	72E119h

l0072E0CB:
	jmp	dword ptr [72E5ECh+eax*4]

l0072E0D2:
	mov	edx,[ebp+18h]
	mov	eax,[edx+18h]
	mov	[esp+14h],eax
	mov	edi,2h
	jmp	72E119h

l0072E0E3:
	mov	ecx,[ebp+18h]
	mov	edx,[ecx+14h]
	mov	[esp+14h],edx
	mov	edi,2h
	jmp	72E119h

l0072E0F4:
	mov	eax,[ebp+18h]
	mov	ecx,[eax]
	cmp	dword ptr [ecx+1Ch],0h
	jnz	72E119h

l0072E0FF:
	xor	edi,edi
	jmp	72E119h

l0072E103:
	mov	edx,[ebp+18h]
	mov	eax,[edx]
	cmp	dword ptr [eax+1Ch],0h
	jnz	72E119h

l0072E10E:
	cmp	dword ptr [eax+20h],0h
	jnz	72E119h

l0072E114:
	mov	edi,1h

l0072E119:
	jmp	dword ptr [72E600h+edi*4]
0072E120 BB 89 00 00 00 EB 35 8B 45 18 8B 40 10 56 6A 7D ......5.E..@.Vj}
0072E130 55 E8 7A AE FF FF 83 C4 0C 85 C0 74 55 83 06 FF U.z........tU...
0072E140 75 6A 8B 4E 04 8B 51 18 56 FF D2 83 C4 04 EB 5C uj.N..Q.V......\
0072E150 BB 61 00 00 00 EB 05 BB 5A 00 00 00 8B 44 24 14 .a......Z....D$.
0072E160 50 8B C6 E8 78 95 FF FF 83 C4 04 83 06 FF 8B F8 P...x...........
0072E170 75 0C 8B 4E 04 8B 51 18 56 FF D2 83 C4 04 85 FF u..N..Q.V.......
0072E180 7C 10 57 53 8B C5 E8 85 96 FF FF 83 C4 08       |.WS.......... 

l0072E18E:
	test	eax,eax
	jnz	72E1ACh

l0072E192:
	pop	ebx
	pop	edi
	pop	esi
	xor	eax,eax
	pop	ebp
	add	esp,14h
	ret

l0072E19C:
	mov	ebx,1h
	mov	eax,ebp
	call	727670h
	test	eax,eax
	jz	72E192h

l0072E1AC:
	mov	eax,[esp+18h]
	push	0h
	push	eax
	push	7Ah
	mov	eax,ebp
	call	727880h
	add	esp,0Ch
	test	eax,eax
	jz	72E192h

l0072E1C3:
	mov	ecx,[ebp+18h]
	mov	edx,[ecx+28h]
	mov	eax,[esp+20h]
	mov	[edx+10h],eax
	mov	ecx,[ebp+18h]
	push	eax
	mov	[ecx+28h],eax
	push	2h
	mov	eax,ebp
	call	728310h
	add	esp,8h
	test	eax,eax
	jz	72E192h

l0072E1E7:
	mov	edx,[esp+2Ch]
	cmp	dword ptr [edx+8h],0h
	jz	72E363h

l0072E1F5:
	mov	eax,[esp+10h]
	push	1h
	push	eax
	mov	ebx,ebp
	call	729510h
	add	esp,8h
	test	eax,eax
	jz	72E192h

l0072E20A:
	mov	eax,[ebp+18h]
	mov	ecx,[eax+0Ch]
	mov	edx,[esp+10h]
	mov	[esp+14h],ecx
	lea	esi,[edx+14h]
	mov	edi,8DA718h
	mov	ecx,0Ah
	xor	ebx,ebx
	mov	[esp+20h],esi

l0072E22B:
	rep cmpsb

l0072E22D:
	jnz	72E243h

l0072E22F:
	push	8DA884h
	mov	eax,ebp
	call	728360h
	add	esp,4h
	jmp	72E342h

l0072E243:
	push	edx
	mov	edx,[eax+1Ch]
	push	edx
	call	726150h
	mov	esi,eax
	add	esp,8h
	test	esi,esi
	jz	72E192h

l0072E25A:
	mov	eax,[ebp+18h]
	mov	ecx,[eax]
	push	esi
	push	ecx
	xor	ebx,ebx
	mov	edi,3h
	call	7475E0h
	add	eax,0FFh
	add	esp,8h
	cmp	eax,4h
	ja	72E2C3h

l0072E278:
	jmp	dword ptr [72E610h+eax*4]

l0072E27F:
	mov	edx,[ebp+18h]
	mov	eax,[edx+18h]
	mov	[esp+14h],eax
	mov	edi,2h
	jmp	72E2C3h

l0072E290:
	mov	ecx,[ebp+18h]
	mov	edx,[ecx+14h]
	mov	[esp+14h],edx
	mov	edi,2h
	jmp	72E2C3h

l0072E2A1:
	mov	eax,[ebp+18h]
	mov	ecx,[eax]
	cmp	[ecx+1Ch],ebx
	jnz	72E2C3h

l0072E2AB:
	xor	edi,edi
	jmp	72E2C3h

l0072E2AF:
	mov	edx,[ebp+18h]
	mov	eax,[edx]
	cmp	[eax+1Ch],ebx
	jnz	72E2C3h

l0072E2B9:
	cmp	[eax+20h],ebx
	jnz	72E2C3h

l0072E2BE:
	mov	edi,1h

l0072E2C3:
	jmp	dword ptr [72E624h+edi*4]
0072E2CA                               8B 44 24 20 E9 05           .D$ ..
0072E2D0 02 00 00 8B 4D 18 8B 41 10 56 6A 7E 55 E8 CE AC ....M..A.Vj~U...
0072E2E0 FF FF 83 C4 0C 85 C0 0F 84 A5 FE FF FF 83 06 FF ................
0072E2F0 75 58 8B 56 04 8B 42 18 56 FF D0 83 C4 04 EB 4A uX.V..B.V......J
0072E300 BB 62 00 00 00 EB 05 BB 5B 00 00 00 8B 4C 24 14 .b......[....L$.
0072E310 51 8B C6 E8 C8 93 FF FF 83 C4 04 83 06 FF 8B F8 Q...............
0072E320 75 0C 8B 56 04 8B 42 18 56 FF D0 83 C4 04 85 FF u..V..B.V.......
0072E330 0F 8C 5C FE FF FF 57 53 8B C5 E8 D1 94 FF FF 83 ..\...WS........
0072E340 C4 08                                           ..             

l0072E342:
	test	eax,eax
	jz	72E192h

l0072E34A:
	mov	ecx,[esp+2Ch]
	mov	edx,[ecx+8h]
	push	edx
	push	ebp
	call	72B360h
	add	esp,8h
	test	eax,eax
	jz	72E192h

l0072E363:
	mov	eax,[esp+2Ch]
	mov	ebx,[eax+0Ch]
	xor	edi,edi
	lea	esi,[ebx+4h]
	nop

l0072E370:
	test	ebx,ebx
	jnz	72E378h

l0072E374:
	xor	eax,eax
	jmp	72E37Ah

l0072E378:
	mov	eax,[ebx]

l0072E37A:
	cmp	edi,eax
	jge	72E39Ah

l0072E37E:
	mov	eax,[esi]
	push	eax
	push	ebp
	call	72D920h
	add	esp,8h
	test	eax,eax
	jz	72E192h

l0072E392:
	add	edi,1h
	add	esi,4h
	jmp	72E370h

l0072E39A:
	mov	ebx,57h
	mov	eax,ebp
	call	727670h
	test	eax,eax
	jz	72E192h

l0072E3AE:
	mov	eax,[ebp+18h]
	add	dword ptr [eax+30h],0FFh
	mov	ecx,[ebp+18h]
	mov	eax,[ecx+8h]
	push	0A163B8h
	push	64h
	push	ebp
	call	728FB0h
	add	esp,0Ch
	test	eax,eax
	jz	72E192h

l0072E3D3:
	mov	edx,[ebp+18h]
	mov	ecx,[edx+28h]
	mov	eax,[esp+18h]
	mov	[ecx+10h],eax
	mov	edx,[ebp+18h]
	push	eax
	mov	[edx+28h],eax
	push	3h
	mov	eax,ebp
	call	728310h
	add	esp,8h
	test	eax,eax
	jz	72E192h

l0072E3FB:
	mov	eax,[esp+1Ch]
	push	1h
	push	eax
	mov	ebx,ebp
	call	729510h
	add	esp,8h
	test	eax,eax
	jz	72E192h

l0072E414:
	mov	eax,[ebp+18h]
	mov	ecx,[eax+0Ch]
	mov	edx,[esp+1Ch]
	mov	[esp+18h],ecx
	lea	esi,[edx+14h]
	mov	edi,8DA718h
	mov	ecx,0Ah
	xor	ebx,ebx
	mov	[esp+20h],esi

l0072E435:
	rep cmpsb

l0072E437:
	jnz	72E44Dh

l0072E439:
	push	8DA884h
	mov	eax,ebp
	call	728360h
	add	esp,4h
	jmp	72E57Bh

l0072E44D:
	push	edx
	mov	edx,[eax+1Ch]
	push	edx
	call	726150h
	mov	esi,eax
	add	esp,8h
	test	esi,esi
	jz	72E192h

l0072E464:
	mov	eax,[ebp+18h]
	mov	ecx,[eax]
	push	esi
	push	ecx
	xor	ebx,ebx
	mov	edi,3h
	call	7475E0h
	add	eax,0FFh
	add	esp,8h
	cmp	eax,4h
	ja	72E4CDh

l0072E482:
	jmp	dword ptr [72E634h+eax*4]

l0072E489:
	mov	edx,[ebp+18h]
	mov	eax,[edx+18h]
	mov	[esp+18h],eax
	mov	edi,2h
	jmp	72E4CDh

l0072E49A:
	mov	ecx,[ebp+18h]
	mov	edx,[ecx+14h]
	mov	[esp+18h],edx
	mov	edi,2h
	jmp	72E4CDh

l0072E4AB:
	mov	eax,[ebp+18h]
	mov	ecx,[eax]
	cmp	[ecx+1Ch],ebx
	jnz	72E4CDh

l0072E4B5:
	xor	edi,edi
	jmp	72E4CDh

l0072E4B9:
	mov	edx,[ebp+18h]
	mov	eax,[edx]
	cmp	[eax+1Ch],ebx
	jnz	72E4CDh

l0072E4C3:
	cmp	[eax+20h],ebx
	jnz	72E4CDh

l0072E4C8:
	mov	edi,1h

l0072E4CD:
	jmp	dword ptr [72E648h+edi*4]
0072E4D4             8B 44 24 20 8B 0D F4 78 A1 00 50 68     .D$ ...x..Ph
0072E4E0 4C A8 8D 00 51 E8 E6 30 FB FF 83 C4 0C 83 06 FF L...Q..0........
0072E4F0 0F 85 9C FC FF FF 8B 56 04 8B 42 18 56 FF D0 83 .......V..B.V...
0072E500 C4 04 5B 5F 5E 33 C0 5D 83 C4 14 C3 8B 4D 18 8B ..[_^3.].....M..
0072E510 41 10 56 6A 7E 55 E8 95 AA FF FF 83 C4 0C 85 C0 A.Vj~U..........
0072E520 0F 84 6C FC FF FF 83 06 FF 75 58 8B 56 04 8B 42 ..l......uX.V..B
0072E530 18 56 FF D0 83 C4 04 EB 4A BB 62 00 00 00 EB 05 .V......J.b.....
0072E540 BB 5B 00 00 00 8B 4C 24 18 51 8B C6 E8 8F 91 FF .[....L$.Q......
0072E550 FF 83 C4 04 83 06 FF 8B F8 75 0C 8B 56 04 8B 42 .........u..V..B
0072E560 18 56 FF D0 83 C4 04 85 FF 0F 8C 23 FC FF FF 57 .V.........#...W
0072E570 53 8B C5 E8 98 92 FF FF 83 C4 08                S..........    

l0072E57B:
	test	eax,eax
	jz	72E192h

l0072E583:
	mov	ebx,51h
	mov	eax,ebp
	call	727670h
	test	eax,eax
	jz	72E192h

l0072E597:
	mov	ebx,58h
	mov	eax,ebp
	call	727670h
	test	eax,eax
	jz	72E192h

l0072E5AB:
	mov	ebp,[ebp+18h]
	add	dword ptr [ebp+30h],0FFh
	pop	ebx
	pop	edi
	pop	esi
	mov	eax,1h
	pop	ebp
	add	esp,14h
	ret

l0072E5BF:
	pop	edi
	pop	esi
	xor	eax,eax
	pop	ebp
	add	esp,14h
	ret
l0072E5C8	dd	0x0072DF73
l0072E5CC	dd	0x0072DF90
l0072E5D0	dd	0x0072DF81
l0072E5D4	dd	0x0072DF51
l0072E5D8	dd	0x0072DF62
0072E5DC                                     A3 DF 72 00             ..r.
0072E5E0 D0 DF 72 00 9C DF 72 00 D7 DF 72 00             ..r...r...r.   
l0072E5EC	dd	0x0072E0F4
l0072E5F0	dd	0x0072E114
l0072E5F4	dd	0x0072E103
l0072E5F8	dd	0x0072E0D2
l0072E5FC	dd	0x0072E0E3
0072E600 27 E1 72 00 50 E1 72 00 20 E1 72 00 57 E1 72 00 '.r.P.r. .r.W.r.
l0072E610	dd	0x0072E2A1
l0072E614	dd	0x0072E2BE
l0072E618	dd	0x0072E2AF
l0072E61C	dd	0x0072E27F
l0072E620	dd	0x0072E290
0072E624             D3 E2 72 00 00 E3 72 00 CA E2 72 00     ..r...r...r.
0072E630 07 E3 72 00                                     ..r.           
l0072E634	dd	0x0072E4AB
l0072E638	dd	0x0072E4C8
l0072E63C	dd	0x0072E4B9
l0072E640	dd	0x0072E489
l0072E644	dd	0x0072E49A
0072E648                         0C E5 72 00 39 E5 72 00         ..r.9.r.
0072E650 D4 E4 72 00 40 E5 72 00 CC CC CC CC CC CC CC CC ..r.@.r.........

;; fn0072E660: 0072E660
;;   Called from:
;;     0072E87E (in fn0072E790)
fn0072E660 proc
	push	ecx
	push	ebx
	push	ebp
	push	esi
	mov	esi,eax
	mov	eax,[0A6DBE0h]
	xor	ebp,ebp
	cmp	eax,ebp
	mov	ebx,1h
	push	edi
	mov	edi,ecx
	mov	[esp+10h],ebx
	jnz	72E697h

l0072E67D:
	push	8DAAE0h
	call	6ECAC0h
	add	esp,4h
	cmp	eax,ebp
	mov	[0A6DBE0h],eax
	jz	72E770h

l0072E697:
	push	ebp
	push	esi
	mov	ecx,edi
	call	728E40h
	add	esp,8h
	test	eax,eax
	jz	72E770h

l0072E6AB:
	mov	ecx,[esi]
	lea	eax,[ecx-1h]
	cmp	eax,3h
	ja	72E75Bh

l0072E6B9:
	jmp	dword ptr [72E778h+eax*4]

l0072E6C0:
	mov	eax,[esi+4h]
	push	eax
	mov	ebx,edi
	call	72BF10h
	add	esp,4h
	test	eax,eax
	jnz	72E723h

l0072E6D2:
	call	727290h
	pop	edi
	pop	esi
	pop	ebp
	xor	eax,eax
	pop	ebx
	pop	ecx
	ret

l0072E6DF:
	mov	[edi+10h],ebx
	mov	esi,[esi+4h]
	lea	ebx,[esi+4h]

l0072E6E8:
	test	esi,esi
	jnz	72E6F0h

l0072E6EC:
	xor	eax,eax
	jmp	72E6F2h

l0072E6F0:
	mov	eax,[esi]

l0072E6F2:
	cmp	ebp,eax
	jge	72E723h

l0072E6F6:
	mov	eax,[ebx]
	push	eax
	push	edi
	call	72D920h
	add	esp,8h
	test	eax,eax
	jz	72E6D2h

l0072E706:
	add	ebp,1h
	add	ebx,4h
	jmp	72E6E8h

l0072E70E:
	mov	ecx,[esi+4h]
	push	ecx
	push	edi
	call	72B360h
	add	esp,8h
	test	eax,eax
	jz	72E6D2h

l0072E71F:
	mov	[esp+10h],ebp

l0072E723:
	mov	edx,[esp+10h]
	push	edx
	push	edi
	call	72A350h
	add	esp,8h
	mov	esi,eax
	call	727290h
	pop	edi
	mov	eax,esi
	pop	esi
	pop	ebp
	pop	ebx
	pop	ecx
	ret

l0072E740:
	mov	eax,[0A18720h]
	push	8DAAC0h
	push	eax
	call	6E0F80h
	add	esp,8h
	pop	edi
	pop	esi
	pop	ebp
	xor	eax,eax
	pop	ebx
	pop	ecx
	ret

l0072E75B:
	push	ecx
	mov	ecx,[0A18720h]
	push	8DAA98h
	push	ecx
	call	6E15D0h
	add	esp,0Ch

l0072E770:
	pop	edi
	pop	esi
	pop	ebp
	xor	eax,eax
	pop	ebx
	pop	ecx
	ret
l0072E778	dd	0x0072E6C0
l0072E77C	dd	0x0072E6DF
l0072E780	dd	0x0072E70E
l0072E784	dd	0x0072E740
0072E788                         CC CC CC CC CC CC CC CC         ........

;; fn0072E790: 0072E790
;;   Called from:
;;     006E83E9 (in fn006E83E0)
;;     006F67F7 (in fn006F67C0)
fn0072E790 proc
	sub	esp,2Ch
	push	ebp
	xor	ebp,ebp
	cmp	[0A6DBD8h],ebp
	jnz	72E7BBh

l0072E79E:
	push	8D0D58h
	call	6F1A70h
	add	esp,4h
	test	eax,eax
	mov	[0A6DBD8h],eax
	jnz	72E7BBh

l0072E7B4:
	xor	eax,eax
	pop	ebp
	add	esp,2Ch
	ret

l0072E7BB:
	xor	eax,eax
	push	eax
	mov	[esp+0Ch],eax
	mov	[esp+10h],eax
	mov	[esp+14h],eax
	mov	[esp+18h],eax
	mov	[esp+1Ch],eax
	mov	[esp+20h],eax
	mov	[esp+24h],eax
	mov	[esp+28h],eax
	mov	[esp+2Ch],eax
	mov	[esp+30h],eax
	call	6F2650h
	add	esp,4h
	test	eax,eax
	mov	[esp+24h],eax
	jz	72E7B4h

l0072E7F6:
	mov	eax,[esp+40h]
	push	esi
	mov	esi,[esp+3Ch]
	push	edi
	mov	edi,[esp+3Ch]
	push	esi
	push	edi
	mov	[esp+18h],esi
	mov	[esp+3Ch],eax
	call	752DC0h
	add	esp,8h
	test	eax,eax
	mov	[esp+18h],eax
	jz	72E889h

l0072E81E:
	mov	edx,[esp+44h]
	test	edx,edx
	jnz	72E82Eh

l0072E826:
	mov	[esp+0Ch],ebp
	lea	edx,[esp+0Ch]

l0072E82E:
	mov	ecx,[eax]
	or	ecx,[edx]
	mov	[eax],ecx
	mov	[edx],ecx
	mov	ecx,[esp+18h]
	push	ecx
	push	esi
	push	edi
	mov	[esp+28h],edx
	mov	[esp+30h],ebp
	call	749820h
	add	esp,0Ch
	test	eax,eax
	mov	[esp+14h],eax
	jnz	72E874h

l0072E855:
	call	6E0FC0h
	test	eax,eax
	jnz	72E885h

l0072E85E:
	mov	edx,[0A18720h]
	push	8DAAECh
	push	edx
	call	6E0F80h
	add	esp,8h
	jmp	72E885h

l0072E874:
	mov	eax,edi
	lea	ecx,[esp+10h]
	mov	[esp+30h],ebp
	call	72E660h
	mov	ebp,eax

l0072E885:
	mov	eax,[esp+18h]

l0072E889:
	mov	ecx,[esp+14h]
	test	ecx,ecx
	pop	edi
	pop	esi
	jz	72E8A0h

l0072E893:
	push	ecx
	call	747530h
	mov	eax,[esp+14h]
	add	esp,4h

l0072E8A0:
	test	eax,eax
	jz	72E8ADh

l0072E8A4:
	push	eax
	call	7239C0h
	add	esp,4h

l0072E8AD:
	mov	eax,[esp+24h]
	add	dword ptr [eax],0FFh
	mov	eax,[esp+24h]
	cmp	dword ptr [eax],0h
	jnz	72E8C9h

l0072E8BD:
	mov	ecx,[eax+4h]
	mov	edx,[ecx+18h]
	push	eax
	call	edx
	add	esp,4h

l0072E8C9:
	mov	eax,ebp
	pop	ebp
	add	esp,2Ch
	ret
0072E8D0 53 56 33 DB E8 E7 23 01 00 8B F0 85 F6 75 03 5E SV3...#......u.^
0072E8E0 5B C3 8B 44 24 0C 57 8B 7C 24 14 56 57 6A 00 50 [..D$.W.|$.VWj.P
0072E8F0 E8 EB 1A 01 00 83 C4 10 85 C0 74 0F 56 6A 00 57 ..........t.Vj.W
0072E900 50 E8 8A FE FF FF 83 C4 10 8B D8 56 E8 4F 24 01 P..........V.O$.
0072E910 00 83 C4 04 5F 5E 8B C3 5B C3 CC CC CC CC CC CC ...._^..[.......

;; fn0072E920: 0072E920
;;   Called from:
;;     006E54C7 (in fn006E54A0)
;;     00728F3B (in fn00728E40)
fn0072E920 proc
	mov	eax,[0A253C0h]
	push	0A253B0h
	push	eax
	call	723860h
	add	esp,4h
	push	eax
	call	6DDD30h
	add	esp,8h
	test	eax,eax
	jnz	72E941h

l0072E940:
	ret

l0072E941:
	mov	ecx,[esp+4h]
	mov	edx,[esp+8h]
	mov	[eax+8h],ecx
	mov	[eax+10h],edx
	mov	dword ptr [eax+0Ch],0h
	ret
0072E957                      CC CC CC CC CC CC CC CC CC        .........
0072E960 56 8B 74 24 0C 85 F6 75 17 A1 7C 6B A1 00 68 04 V.t$...u..|k..h.
0072E970 AB 8D 00 50 E8 07 26 FB FF 83 C4 08 33 C0 5E C3 ...P..&.....3.^.
0072E980 8B 0D C0 53 A2 00 68 B0 53 A2 00 51 E8 CF 4E FF ...S..h.S..Q..N.
0072E990 FF 83 C4 04 50 E8 96 F3 FA FF 83 C4 08 85 C0 74 ....P..........t
0072E9A0 DB 8B 54 24 08 8B 4C 24 10 89 70 0C 89 50 08 89 ..T$..L$..p..P..
0072E9B0 48 10 5E C3 CC CC CC CC CC CC CC CC CC CC CC CC H.^.............

;; fn0072E9C0: 0072E9C0
;;   Called from:
;;     006E5557 (in fn006E5530)
;;     0071924D (in fn00718F10)
;;     007272AF (in fn00727290)
;;     0072C2BB (in fn0072C160)
fn0072E9C0 proc
	mov	eax,[esp+4h]
	test	eax,eax
	jz	72E9E8h

l0072E9C8:
	cmp	dword ptr [eax+4h],0A253B0h
	jnz	72E9D5h

l0072E9D1:
	mov	eax,[eax+8h]
	ret

l0072E9D5:
	mov	eax,[0A16B7Ch]
	push	8DAB70h
	push	eax
	call	6E0F80h
	add	esp,8h

l0072E9E8:
	call	6E0FC0h
	test	eax,eax
	jnz	72EA05h

l0072E9F1:
	mov	ecx,[0A16B7Ch]
	push	8DAB40h
	push	ecx
	call	6E0F80h
	add	esp,8h

l0072EA05:
	xor	eax,eax
	ret
0072EA08                         CC CC CC CC CC CC CC CC         ........
0072EA10 8B 44 24 04 53 57 50 33 DB E8 92 A8 FC FF 8B F8 .D$.SWP3........
0072EA20 83 C4 04 85 FF 74 43 8B 4C 24 10 56 51 57 E8 2D .....tC.L$.VQW.-
0072EA30 0D FB FF 8B F0 83 C4 08 85 F6 74 1C 56 E8 7E FF ..........t.V.~.
0072EA40 FF FF 83 C4 04 83 06 FF 8B D8 75 0C 8B 56 04 8B ..........u..V..
0072EA50 42 18 56 FF D0 83 C4 04 83 07 FF 5E 75 0C 8B 4F B.V........^u..O
0072EA60 04 8B 51 18 57 FF D2 83 C4 04 5F 8B C3 5B C3 CC ..Q.W....._..[..
0072EA70 56 8B 74 24 08 8B 46 10 85 C0 74 25 8B 4E 0C 85 V.t$..F...t%.N..
0072EA80 C9 74 15 51 8B 4E 08 51 FF D0 83 C4 08 56 E8 2D .t.Q.N.Q.....V.-
0072EA90 4F FF FF 83 C4 04 5E C3 8B 56 08 52 FF D0 83 C4 O.....^..V.R....
0072EAA0 04 56 E8 19 4F FF FF 83 C4 04 5E C3 CC CC CC CC .V..O.....^.....
0072EAB0 A1 88 6F A1 00 50 E8 55 24 FB FF 83 C4 04 33 C0 ..o..P.U$.....3.
0072EAC0 C3 CC CC CC CC CC CC CC CC CC CC CC CC CC CC CC ................
0072EAD0 51 8B 4C 24 0C 8D 04 24 50 68 D4 AB 8D 00 51 E8 Q.L$...$Ph....Q.
0072EAE0 9C 91 FB FF 83 C4 0C 85 C0 74 2A 8B 04 24 8D 50 .........t*..$.P
0072EAF0 FF 83 FA 15 77 0C 8B 04 C5 14 DC A6 00 83 00 01 ....w...........
0072EB00 59 C3 A1 2C 7E A1 00 68 B8 AB 8D 00 50 E8 6E 24 Y..,~..h....P.n$
0072EB10 FB FF 83 C4 08 33 C0 59 C3 CC CC CC CC CC CC CC .....3.Y........

l0072EB20:
	mov	eax,[0A6DCD0h]
	push	ebx
	push	edi
	push	eax
	push	2h
	call	6E8900h
	mov	ecx,[0A6DC08h]
	add	esp,8h
	xor	ebx,ebx
	mov	[0A6DCD0h],ebx
	mov	edi,1h
	push	esi

l0072EB46:
	cmp	edi,2h
	mov	esi,[0A6DC14h+edi*8]
	mov	[0A6DC10h+edi*8],ebx
	mov	[0A6DC14h+edi*8],ebx
	jz	72EB88h

l0072EB60:
	cmp	esi,ebx
	jz	72EBA3h

l0072EB64:
	cmp	esi,0A163B8h
	jz	72EB88h

l0072EB6C:
	cmp	esi,ecx
	jz	72EB88h

l0072EB70:
	cmp	esi,[0A6DCC8h]
	jz	72EB88h

l0072EB78:
	push	ebx
	push	edi
	call	6E8900h
	mov	ecx,[0A6DC08h]
	add	esp,8h

l0072EB88:
	cmp	esi,ebx
	jz	72EBA3h

l0072EB8C:
	add	dword ptr [esi],0FFh
	jnz	72EBA3h

l0072EB91:
	mov	ecx,[esi+4h]
	mov	edx,[ecx+18h]
	push	esi
	call	edx
	mov	ecx,[0A6DC08h]
	add	esp,4h

l0072EBA3:
	add	edi,1h
	cmp	edi,17h
	jl	72EB46h

l0072EBAB:
	mov	eax,[0A6DC0Ch]
	cmp	eax,ebx
	pop	esi
	jz	72EBCCh

l0072EBB5:
	add	dword ptr [eax],0FFh
	jnz	72EBCCh

l0072EBBA:
	mov	ecx,[eax+4h]
	mov	edx,[ecx+18h]
	push	eax
	call	edx
	mov	ecx,[0A6DC08h]
	add	esp,4h

l0072EBCC:
	cmp	ecx,ebx
	mov	[0A6DC0Ch],ebx
	jz	72EBE7h

l0072EBD6:
	add	dword ptr [ecx],0FFh
	jnz	72EBE7h

l0072EBDB:
	mov	eax,[ecx+4h]
	push	ecx
	mov	ecx,[eax+18h]
	call	ecx
	add	esp,4h

l0072EBE7:
	mov	eax,[0A6DCC8h]
	cmp	eax,ebx
	mov	[0A6DC08h],ebx
	jz	72EC07h

l0072EBF6:
	add	dword ptr [eax],0FFh
	jnz	72EC07h

l0072EBFB:
	mov	edx,[eax+4h]
	push	eax
	mov	eax,[edx+18h]
	call	eax
	add	esp,4h

l0072EC07:
	pop	edi
	mov	[0A6DCC8h],ebx
	pop	ebx
	ret

;; fn0072EC10: 0072EC10
;;   Called from:
;;     006DDDB0 (in fn006DDDB0)
;;     006DEEC6 (in fn006DEEA0)
;;     006E1289 (in fn006E1260)
;;     0072FB96 (in fn0072FB30)
;;     00755754 (in fn007556D0)
fn0072EC10 proc
	mov	eax,[0A6DCCCh]
	test	eax,eax
	jnz	72EC1Ch

l0072EC19:
	xor	eax,eax
	ret

l0072EC1C:
	call	74F680h
	cmp	eax,[0A6DC00h]
	jnz	72EC19h

l0072EC29:
	push	ebp
	mov	dword ptr [0A6DCCCh],0h
	call	7075C0h
	mov	ebp,eax
	test	ebp,ebp
	jnz	72EC44h

l0072EC3F:
	mov	ebp,0A163B8h

l0072EC44:
	push	edi
	push	ebx
	mov	edi,1h
	push	esi
	lea	esp,[esp+0h]

l0072EC50:
	cmp	dword ptr [0A6DC10h+edi*8],0h
	jz	72ECB5h

l0072EC5A:
	push	ebp
	push	edi
	push	8AC1D0h
	call	6EA200h
	mov	esi,eax
	add	esp,0Ch
	test	esi,esi
	mov	dword ptr [0A6DC10h+edi*8],0h
	jz	72ECC4h

l0072EC7A:
	mov	ecx,[0A6DC14h+edi*8]
	push	0h
	push	esi
	push	ecx
	call	707680h
	add	esp,0Ch
	add	dword ptr [esi],0FFh
	mov	ebx,eax
	jnz	72ECA0h

l0072EC94:
	mov	edx,[esi+4h]
	mov	eax,[edx+18h]
	push	esi
	call	eax
	add	esp,4h

l0072ECA0:
	test	ebx,ebx
	jz	72ECC4h

l0072ECA4:
	add	dword ptr [ebx],0FFh
	jnz	72ECB5h

l0072ECA9:
	mov	ecx,[ebx+4h]
	mov	edx,[ecx+18h]
	push	ebx
	call	edx
	add	esp,4h

l0072ECB5:
	add	edi,1h
	cmp	edi,17h
	jl	72EC50h

l0072ECBD:
	pop	esi
	pop	ebx
	pop	edi
	xor	eax,eax
	pop	ebp
	ret

l0072ECC4:
	pop	esi
	pop	ebx
	pop	edi
	or	eax,0FFh
	pop	ebp
	ret
0072ECCC                                     CC CC CC CC             ....
0072ECD0 B8 01 00 00 00 6A 00 68 10 EC 72 00 A3 CC DC A6 .....j.h..r.....
0072ECE0 00 A3 20 DC A6 00 E8 85 7F FD FF 83 C4 08 C3 CC .. .............

;; fn0072ECF0: 0072ECF0
;;   Called from:
;;     006E8935 (in fn006E8910)
fn0072ECF0 proc
	jmp	72EB20h
0072ECF5                CC CC CC CC CC CC CC CC CC CC CC      ...........

;; fn0072ED00: 0072ED00
;;   Called from:
;;     0075571B (in fn007556D0)
;;     00755764 (in fn007556D0)
fn0072ED00 proc
	cmp	dword ptr [0A6DC20h],0h
	jz	72ED26h

l0072ED09:
	call	74F680h
	cmp	eax,[0A6DC00h]
	jnz	72ED26h

l0072ED16:
	mov	dword ptr [0A6DC20h],0h
	mov	eax,1h
	ret

l0072ED26:
	xor	eax,eax
	ret
0072ED29                            CC CC CC CC CC CC CC          .......
0072ED30 E9 DB FE FF FF CC CC CC CC CC CC CC CC CC CC CC ................
0072ED40 56 FF 15 58 45 8A 00 3B 05 04 DC A6 00 8B 74 24 V..XE..;......t$
0072ED50 08 75 20 B8 01 00 00 00 6A 00 89 04 F5 10 DC A6 .u .....j.......
0072ED60 00 68 30 ED 72 00 A3 CC DC A6 00 E8 00 7F FD FF .h0.r...........
0072ED70 83 C4 08 68 40 ED 72 00 56 E8 82 9B FB FF 83 C4 ...h@.r.V.......
0072ED80 08 5E C3 CC CC CC CC CC CC CC CC CC CC CC CC CC .^..............
0072ED90 8B 54 24 08 83 EC 08 8D 44 24 04 50 8D 4C 24 04 .T$.....D$.P.L$.
0072EDA0 51 68 50 AC 8D 00 52 E8 D4 8E FB FF 83 C4 10 85 QhP...R.........
0072EDB0 C0 0F 84 EA 00 00 00 E8 C4 08 02 00 3B 05 00 DC ............;...
0072EDC0 A6 00 74 19 A1 2C 7E A1 00 68 2C AC 8D 00 50 E8 ..t..,~..h,...P.
0072EDD0 AC 21 FB FF 83 C4 08 33 C0 83 C4 08 C3 8B 0C 24 .!.....3.......$
0072EDE0 83 C1 FF 83 F9 15 0F 87 A1 00 00 00 8B 44 24 04 .............D$.
0072EDF0 3B 05 C8 DC A6 00 75 07 B8 01 00 00 00 EB 38 3B ;.....u.......8;
0072EE00 05 08 DC A6 00 75 04 33 C0 EB 2C 50 E8 5F 0A FB .....u.3..,P._..
0072EE10 FF 83 C4 04 85 C0 75 1A 8B 15 7C 6B A1 00 68 E0 ......u...|k..h.
0072EE20 AB 8D 00 52 E8 57 21 FB FF 83 C4 08 33 C0 83 C4 ...R.W!.....3...
0072EE30 08 C3 B8 40 ED 72 00 50 8B 44 24 04 50 E8 BE 9A ...@.r.P.D$.P...
0072EE40 FB FF 83 C4 08 83 F8 FF 75 15 8B 0D E0 75 A1 00 ........u....u..
0072EE50 51 E8 9A 25 FB FF 83 C4 04 33 C0 83 C4 08 C3 8B Q..%.....3......
0072EE60 0C 24 8B 04 CD 14 DC A6 00 C7 04 CD 10 DC A6 00 .$..............
0072EE70 00 00 00 00 8B 4C 24 04 83 01 01 8B 54 24 04 8B .....L$.....T$..
0072EE80 0C 24 89 14 CD 14 DC A6 00 83 C4 08 C3 8B 15 2C .$.............,
0072EE90 7E A1 00 68 B8 AB 8D 00 52 E8 E2 20 FB FF 83 C4 ~..h....R.. ....
0072EEA0 08 33 C0 83 C4 08 C3 CC CC CC CC CC CC CC CC CC .3..............
0072EEB0 E8 CB 07 02 00 A3 00 DC A6 00 FF 15 58 45 8A 00 ............XE..
0072EEC0 68 F5 03 00 00 6A 00 68 D0 57 A2 00 68 90 57 A2 h....j.h.W..h.W.
0072EED0 00 68 5C C7 8B 00 A3 04 DC A6 00 E8 30 A7 FB FF .h\.........0...
0072EEE0 83 C4 14 85 C0 0F 84 BF 02 00 00 57 50 E8 3E 83 ...........WP.>.
0072EEF0 FE FF 6A 00 8B F8 E8 85 23 FE FF 83 C4 08 85 C0 ..j.....#.......
0072EF00 A3 08 DC A6 00 0F 84 9E 02 00 00 50 68 A8 AC 8D ...........Ph...
0072EF10 00 57 E8 D9 E9 FC FF 83 C4 0C 85 C0 0F 8C 87 02 .W..............
0072EF20 00 00 6A 01 E8 57 23 FE FF 83 C4 04 85 C0 A3 C8 ..j..W#.........
0072EF30 DC A6 00 0F 84 70 02 00 00 50 68 A0 AC 8D 00 57 .....p...Ph....W
0072EF40 E8 AB E9 FC FF 83 C4 0C 85 C0 0F 8C 59 02 00 00 ............Y...
0072EF50 56 6A 17 E8 48 61 FD FF 8B F0 83 C4 04 85 F6 0F Vj..Ha..........
0072EF60 84 43 02 00 00 56 68 98 AC 8D 00 57 E8 7F E9 FC .C...Vh....W....
0072EF70 FF 83 C4 0C 85 C0 0F 8C 2C 02 00 00 83 06 FF 75 ........,......u
0072EF80 0C 8B 46 04 8B 48 18 56 FF D1 83 C4 04 68 98 AB ..F..H.V.....h..
0072EF90 8D 00 57 E8 18 E9 FC FF 83 C4 08 85 C0 A3 0C DC ..W.............
0072EFA0 A6 00 0F 84 00 02 00 00 83 00 01 C7 05 10 DC A6 ................
0072EFB0 00 00 00 00 00 BE 01 00 00 00 8D 9B 00 00 00 00 ................
0072EFC0 56 E8 CA 98 FB FF 8B 0D 08 DC A6 00 83 C4 04 85 V...............
0072EFD0 C0 C7 04 F5 10 DC A6 00 00 00 00 00 75 09 89 0C ............u...
0072EFE0 F5 14 DC A6 00 EB 1F 83 F8 01 75 0F 8B 15 C8 DC ..........u.....
0072EFF0 A6 00 89 14 F5 14 DC A6 00 EB 0B C7 04 F5 14 DC ................
0072F000 A6 00 B8 63 A1 00 8B 04 F5 14 DC A6 00 83 00 01 ...c............
0072F010 83 C6 01 83 FE 17 7C A8 39 0D 24 DC A6 00 75 46 ......|.9.$...uF
0072F020 A1 0C DC A6 00 83 00 01 8B 0D 24 DC A6 00 83 01 ..........$.....
0072F030 FF 8B 0D 24 DC A6 00 83 39 00 75 11 8B 41 04 51 ...$....9.u..A.Q
0072F040 8B 48 18 FF D1 A1 0C DC A6 00 83 C4 04 68 40 ED .H...........h@.
0072F050 72 00 6A 02 A3 24 DC A6 00 E8 A2 98 FB FF 83 C4 r.j..$..........
0072F060 08 A3 D0 DC A6 00 6A 02 E8 33 60 FD FF 8B F0 56 ......j..3`....V
0072F070 68 90 AC 8D 00 57 E8 75 E8 FC FF 83 C4 10 85 F6 h....W.u........
0072F080 74 11 83 06 FF 75 0C 8B 56 04 8B 42 18 56 FF D0 t....u..V..B.V..
0072F090 83 C4 04 6A 15 E8 06 60 FD FF 8B F0 56 68 84 AC ...j...`....Vh..
0072F0A0 8D 00 57 E8 48 E8 FC FF 83 C4 10 85 F6 74 11 83 ..W.H........t..
0072F0B0 06 FF 75 0C 8B 4E 04 8B 51 18 56 FF D2 83 C4 04 ..u..N..Q.V.....
0072F0C0 6A 04 E8 D9 5F FD FF 8B F0 56 68 7C AC 8D 00 57 j..._....Vh|...W
0072F0D0 E8 1B E8 FC FF 83 C4 10 85 F6 74 11 83 06 FF 75 ..........t....u
0072F0E0 0C 8B 46 04 8B 48 18 56 FF D1 83 C4 04 6A 16 E8 ..F..H.V.....j..
0072F0F0 AC 5F FD FF 8B F0 56 68 74 AC 8D 00 57 E8 EE E7 ._....Vht...W...
0072F100 FC FF 83 C4 10 85 F6 74 11 83 06 FF 75 0C 8B 56 .......t....u..V
0072F110 04 8B 42 18 56 FF D0 83 C4 04 6A 08 E8 7F 5F FD ..B.V.....j..._.
0072F120 FF 8B F0 56 68 6C AC 8D 00 57 E8 C1 E7 FC FF 83 ...Vhl...W......
0072F130 C4 10 85 F6 74 11 83 06 FF 75 0C 8B 4E 04 8B 51 ....t....u..N..Q
0072F140 18 56 FF D2 83 C4 04 6A 0B E8 52 5F FD FF 8B F0 .V.....j..R_....
0072F150 56 68 64 AC 8D 00 57 E8 94 E7 FC FF 83 C4 10 85 Vhd...W.........
0072F160 F6 74 11 83 06 FF 75 0C 8B 46 04 8B 48 18 56 FF .t....u..F..H.V.
0072F170 D1 83 C4 04 6A 0F E8 25 5F FD FF 8B F0 56 68 5C ....j..%_....Vh\
0072F180 AC 8D 00 57 E8 67 E7 FC FF 83 C4 10 85 F6 74 11 ...W.g........t.
0072F190 83 06 FF 75 0C 8B 56 04 8B 42 18 56 FF D0 83 C4 ...u..V..B.V....
0072F1A0 04 5E 5F E9 18 1E FB FF 5E 5F C3 CC CC CC CC CC .^_.....^_......
0072F1B0 E8 FB FC FF FF 68 5C C7 8B 00 68 5C C7 8B 00 E8 .....h\...h\....
0072F1C0 0C 71 FC FF 83 C4 08 C3 CC CC CC CC CC CC CC CC .q..............
0072F1D0 C7 44 24 04 C0 AC 8D 00 E9 E3 D8 FB FF CC CC CC .D$.............

;; fn0072F1E0: 0072F1E0
;;   Called from:
;;     00707F30 (in fn00707E00)
;;     007080D0 (in fn00707F70)
;;     0070AF70 (in fn00708DC0)
fn0072F1E0 proc
	push	0A25D30h
	call	6DDD80h
	add	esp,4h
	test	eax,eax
	jnz	72F1F2h

l0072F1F1:
	ret

l0072F1F2:
	push	esi
	mov	esi,[esp+10h]
	test	esi,esi
	jnz	72F200h

l0072F1FB:
	mov	esi,0A163B8h

l0072F200:
	mov	edx,[esp+8h]
	add	dword ptr [esi],1h
	test	edx,edx
	jnz	72F210h

l0072F20B:
	mov	edx,0A163B8h

l0072F210:
	mov	ecx,[esp+0Ch]
	add	dword ptr [edx],1h
	test	ecx,ecx
	jnz	72F220h

l0072F21B:
	mov	ecx,0A163B8h

l0072F220:
	add	dword ptr [ecx],1h
	mov	[eax+10h],esi
	mov	[eax+8h],edx
	mov	[eax+0Ch],ecx
	pop	esi
	ret
0072F22E                                           CC CC               ..

;; fn0072F230: 0072F230
;;   Called from:
;;     007032A6 (in fn00703210)
;;     007034BD (in fn00703420)
fn0072F230 proc
	mov	eax,[esp+4h]
	push	esi
	push	eax
	call	705120h
	mov	esi,eax
	add	esp,4h
	test	esi,esi
	jnz	72F246h

l0072F244:
	pop	esi
	ret

l0072F246:
	mov	ecx,[esp+0Ch]
	push	edi
	push	ecx
	call	705120h
	mov	edi,eax
	add	esp,4h
	test	edi,edi
	jnz	72F270h

l0072F25A:
	add	dword ptr [esi],0FFh
	jnz	72F26Bh

l0072F25F:
	mov	edx,[esi+4h]
	mov	eax,[edx+18h]
	push	esi
	call	eax
	add	esp,4h

l0072F26B:
	pop	edi
	xor	eax,eax
	pop	esi
	ret

l0072F270:
	push	ebx
	push	0A25D30h
	call	6DDD80h
	add	esp,4h
	test	eax,eax
	jnz	72F286h

l0072F282:
	xor	ebx,ebx
	jmp	72F2A2h

l0072F286:
	add	dword ptr [0A163B8h],1h
	add	dword ptr [esi],1h
	add	dword ptr [edi],1h
	mov	dword ptr [eax+10h],0A163B8h
	mov	[eax+8h],esi
	mov	[eax+0Ch],edi
	mov	ebx,eax

l0072F2A2:
	add	dword ptr [esi],0FFh
	jnz	72F2B3h

l0072F2A7:
	mov	ecx,[esi+4h]
	mov	edx,[ecx+18h]
	push	esi
	call	edx
	add	esp,4h

l0072F2B3:
	add	dword ptr [edi],0FFh
	jnz	72F2C4h

l0072F2B8:
	mov	eax,[edi+4h]
	mov	ecx,[eax+18h]
	push	edi
	call	ecx
	add	esp,4h

l0072F2C4:
	mov	eax,ebx
	pop	ebx
	pop	edi
	pop	esi
	ret
0072F2CA                               CC CC CC CC CC CC           ......
0072F2D0 53 8B 5C 24 0C 55 8B 6C 24 1C 56 8B 74 24 10 8B S.\$.U.l$.V.t$..
0072F2E0 46 10 3D B8 63 A1 00 75 2E C7 45 00 01 00 00 00 F.=.c..u..E.....
0072F2F0 33 C9 83 7D 00 00 C7 44 24 10 FF FF FF FF 7C 04 3..}...D$.....|.
0072F300 89 5C 24 10 8B 46 08 3D B8 63 A1 00 57 8B 7C 24 .\$..F.=.c..W.|$
0072F310 1C 75 3A 89 0F EB 6E 55 50 E8 52 8A FD FF 83 C4 .u:...nUP.R.....
0072F320 08 85 C0 74 1A 8B 45 00 85 C0 75 1A A1 2C 7E A1 ...t..E...u..,~.
0072F330 00 68 CC AC 8D 00 50 E8 44 1C FB FF 83 C4 08 5E .h....P.D......^
0072F340 5D 83 C8 FF 5B C3 7D A8 8D 4B FF EB A5 57 50 E8 ]...[.}..K...WP.
0072F350 1C 8A FD FF 83 C4 08 85 C0 74 4E 8B 07 85 C0 7D .........tN....}
0072F360 13 03 C3 89 07 79 0D 33 C9 39 4D 00 0F 9D C1 83 .....y.3.9M.....
0072F370 E9 01 89 0F 39 1F 7C 0D 83 7D 00 00 8D 43 FF 7C ....9.|..}...C.|
0072F380 02 8B C3 89 07 8B 46 0C 3D B8 63 A1 00 8B 74 24 ......F.=.c...t$
0072F390 20 75 08 8B 54 24 14 89 16 EB 2E 56 50 E8 CE 89  u..T$.....VP...
0072F3A0 FD FF 83 C4 08 85 C0 75 08 5F 5E 5D 83 C8 FF 5B .......u._^]...[
0072F3B0 C3 8B 06 85 C0 7D 0C 03 C3 89 06 79 06 C7 06 FF .....}.....y....
0072F3C0 FF FF FF 39 1E 7E 02 89 1E 8B 4D 00 85 C9 7D 08 ...9.~....M...}.
0072F3D0 8B 06 3B 07 7D 0A 85 C9 7E 17 8B 17 3B 16 7C 11 ..;.}...~...;.|.
0072F3E0 8B 44 24 28 5F 5E 5D C7 00 00 00 00 00 33 C0 5B .D$(_^]......3.[
0072F3F0 C3 8B 06 2B 07 85 C9 7D 16 83 C0 01 99 F7 F9 8B ...+...}........
0072F400 4C 24 28 5F 5E 5D 5B 83 C0 01 89 01 33 C0 C3 83 L$(_^][.....3...
0072F410 E8 01 99 F7 F9 8B 54 24 28 5F 5E 5D 5B 83 C0 01 ......T$(_^][...
0072F420 89 02 33 C0 C3 CC CC CC CC CC CC CC CC CC CC CC ..3.............
0072F430 83 EC 0C 8B 44 24 18 56 33 F6 50 68 E8 AC 8D 00 ....D$.V3.Ph....
0072F440 89 74 24 14 89 74 24 10 89 74 24 0C E8 AF 67 FB .t$..t$..t$...g.
0072F450 FF 83 C4 08 85 C0 75 07 33 C0 5E 83 C4 0C C3 8D ......u.3.^.....
0072F460 4C 24 0C 51 8B 4C 24 1C 8D 54 24 0C 52 8D 44 24 L$.Q.L$..T$.R.D$
0072F470 0C 50 6A 03 6A 01 68 18 AA 8D 00 51 E8 4F 66 FB .Pj.j.h....Q.Of.
0072F480 FF 83 C4 1C 85 C0 74 D0 8B 44 24 08 3B C6 75 0C ......t..D$.;.u.
0072F490 8B 44 24 04 89 44 24 08 89 74 24 04 8B 54 24 0C .D$..D$..t$..T$.
0072F4A0 52 50 8B 44 24 0C 50 E8 34 FD FF FF 83 C4 0C 5E RP.D$.P.4......^
0072F4B0 83 C4 0C C3 CC CC CC CC CC CC CC CC CC CC CC CC ................
0072F4C0 56 8B 74 24 08 8B 46 10 83 00 FF 8B 46 10 83 38 V.t$..F.....F..8
0072F4D0 00 75 0C 8B 48 04 8B 51 18 50 FF D2 83 C4 04 8B .u..H..Q.P......
0072F4E0 46 08 83 00 FF 8B 46 08 83 38 00 75 0C 8B 48 04 F.....F..8.u..H.
0072F4F0 8B 51 18 50 FF D2 83 C4 04 8B 46 0C 83 00 FF 8B .Q.P......F.....
0072F500 46 0C 83 38 00 75 0C 8B 48 04 8B 51 18 50 FF D2 F..8.u..H..Q.P..
0072F510 83 C4 04 56 E8 A7 44 FF FF 83 C4 04 5E C3 CC CC ...V..D.....^...
0072F520 51 56 57 68 F0 AC 8D 00 E8 93 D5 FB FF 68 D0 A2 QVWh.........h..
0072F530 8A 00 89 44 24 10 E8 85 D5 FB FF 8B 7C 24 18 8B ...D$.......|$..
0072F540 F0 8B 47 08 50 E8 66 E8 FA FF 50 8D 4C 24 18 51 ..G.P.f...P.L$.Q
0072F550 E8 6B CF FB FF 8D 54 24 1C 56 52 E8 E0 CE FB FF .k....T$.VR.....
0072F560 8B 47 0C 50 E8 47 E8 FA FF 50 8D 4C 24 2C 51 E8 .G.P.G...P.L$,Q.
0072F570 4C CF FB FF 8D 54 24 30 56 52 E8 C1 CE FB FF 8B L....T$0VR......
0072F580 47 10 50 E8 28 E8 FA FF 50 8D 4C 24 40 51 E8 2D G.P.(...P.L$@Q.-
0072F590 CF FB FF 68 14 3B 8B 00 E8 23 D5 FB FF 83 C4 40 ...h.;...#.....@
0072F5A0 50 8D 54 24 0C 52 E8 15 CF FB FF 83 C4 08 83 06 P.T$.R..........
0072F5B0 FF 75 0C 8B 46 04 8B 48 18 56 FF D1 83 C4 04 8B .u..F..H.V......
0072F5C0 44 24 08 5F 5E 59 C3 CC CC CC CC CC CC CC CC CC D$._^Y..........
0072F5D0 A1 98 85 A1 00 8B 4C 24 08 83 EC 10 56 50 51 E8 ......L$....VPQ.
0072F5E0 4C 36 FD FF 8B F0 83 C4 08 83 FE FF 75 10 E8 CD L6..........u...
0072F5F0 19 FB FF 85 C0 74 07 33 C0 5E 83 C4 10 C3 8D 54 .....t.3.^.....T
0072F600 24 10 52 8D 44 24 08 50 8B 44 24 20 8D 4C 24 10 $.R.D$.P.D$ .L$.
0072F610 51 8D 54 24 18 52 56 50 E8 B3 FC FF FF 83 C4 18 Q.T$.RVP........
0072F620 85 C0 7C D3 8B 4C 24 04 8B 54 24 08 8B 44 24 0C ..|..L$..T$..D$.
0072F630 51 52 50 68 F8 AC 8D 00 E8 C3 AB FB FF 83 C4 10 QRPh............
0072F640 5E 83 C4 10 C3 CC CC CC CC CC CC CC CC CC CC CC ^...............
0072F650 51 56 8B 74 24 0C 57 8B 7C 24 14 3B F7 C7 44 24 QV.t$.W.|$.;..D$
0072F660 08 00 00 00 00 75 06 5F 33 C0 5E 59 C3 8B 4F 08 .....u._3.^Y..O.
0072F670 8B 56 08 8D 44 24 08 50 51 52 E8 A1 21 FD FF 83 .V..D$.PQR..!...
0072F680 C4 0C 85 C0 7D 09 5F B8 FE FF FF FF 5E 59 C3 8B ....}._.....^Y..
0072F690 44 24 08 85 C0 75 43 8B 4F 0C 8B 56 0C 8D 44 24 D$...uC.O..V..D$
0072F6A0 08 50 51 52 E8 77 21 FD FF 83 C4 0C 85 C0 7C D6 .PQR.w!.......|.
0072F6B0 8B 44 24 08 85 C0 75 22 8B 4F 10 8B 56 10 8D 44 .D$...u".O..V..D
0072F6C0 24 08 50 51 52 E8 56 21 FD FF 83 C4 0C 85 C0 B8 $.PQR.V!........
0072F6D0 FE FF FF FF 7C 04 8B 44 24 08 5F 5E 59 C3 CC CC ....|..D$._^Y...
0072F6E0 A1 7C 6B A1 00 68 00 AD 8D 00 50 E8 90 18 FB FF .|k..h....P.....
0072F6F0 83 C4 08 83 C8 FF C3 CC CC CC CC CC CC CC CC CC ................
0072F700 8B 44 24 08 8B 4C 24 04 50 68 F0 5D A2 00 51 E8 .D$..L$.Ph.]..Q.
0072F710 5C 33 02 00 83 C4 0C C3 CC CC CC CC CC CC CC CC \3..............
0072F720 56 8B 74 24 08 8B 46 08 85 C0 74 18 C7 46 08 00 V.t$..F...t..F..
0072F730 00 00 00 83 00 FF 75 0C 8B 48 04 8B 51 18 50 FF ......u..H..Q.P.
0072F740 D2 83 C4 04 8B 46 0C 85 C0 74 19 C7 46 0C 00 00 .....F...t..F...
0072F750 00 00 83 00 FF 75 0D 8B 48 04 5E 89 44 24 04 8B .....u..H.^.D$..
0072F760 51 18 FF E2 5E C3 CC CC CC CC CC CC CC CC CC CC Q...^...........

;; fn0072F770: 0072F770
;;   Called from:
;;     0072F800 (in fn0072F7F0)
fn0072F770 proc
	test	ebx,ebx
	jz	72F77Dh

l0072F774:
	cmp	dword ptr [ebx+4h],0A25E40h
	jnz	72F7D1h

l0072F77D:
	test	edi,edi
	jz	72F7D1h

l0072F781:
	cmp	dword ptr [edi+4h],0A2B8D8h
	jnz	72F7D1h

l0072F78A:
	push	esi
	push	0A25E40h
	call	6FEF30h
	mov	esi,eax
	add	esp,4h
	test	esi,esi
	jz	72F7CDh

l0072F79E:
	test	ebx,ebx
	jz	72F7A5h

l0072F7A2:
	add	dword ptr [ebx],1h

l0072F7A5:
	mov	[esi+8h],ebx
	add	dword ptr [edi],1h
	mov	[esi+0Ch],edi
	mov	eax,[edi+3Ch]
	mov	[esi+10h],eax
	mov	ecx,[edi+3Ch]
	mov	edx,[edi+10h]
	push	ecx
	push	edx
	call	735550h
	push	esi
	mov	[esi+14h],eax
	call	6FEE30h
	add	esp,0Ch

l0072F7CD:
	mov	eax,esi
	pop	esi
	ret

l0072F7D1:
	push	60h
	push	8DAD48h
	call	6E1DC0h
	add	esp,8h
	xor	eax,eax
	ret
0072F7E3          CC CC CC CC CC CC CC CC CC CC CC CC CC    .............

;; fn0072F7F0: 0072F7F0
;;   Called from:
;;     0070B04E (in fn00708DC0)
fn0072F7F0 proc
	push	ebx
	push	esi
	mov	esi,[0A6D67Ch]
	mov	ebx,[esi+30h]
	push	edi
	mov	edi,[esp+10h]
	call	72F770h
	test	eax,eax
	jnz	72F810h

l0072F809:
	pop	edi
	pop	esi
	or	eax,0FFh
	pop	ebx
	ret

l0072F810:
	test	ebx,ebx
	mov	[esi+30h],eax
	jz	72F828h

l0072F817:
	add	dword ptr [ebx],0FFh
	jnz	72F828h

l0072F81C:
	mov	eax,[ebx+4h]
	mov	ecx,[eax+18h]
	push	ebx
	call	ecx
	add	esp,4h

l0072F828:
	pop	edi
	pop	esi
	xor	eax,eax
	pop	ebx
	ret
0072F82E                                           CC CC               ..

;; fn0072F830: 0072F830
;;   Called from:
;;     0072FB84 (in fn0072FB30)
fn0072F830 proc
	sub	esp,8F4h
	mov	eax,[0A14188h]
	xor	eax,esp
	mov	[esp+8F0h],eax
	mov	eax,[esp+8F8h]
	push	esi
	mov	esi,ecx
	test	esi,esi
	mov	[esp+14h],eax
	mov	eax,[esp+904h]
	mov	[esp+8h],esi
	mov	[esp+1Ch],eax
	jz	72FB0Fh

l0072F869:
	test	eax,eax
	jz	72FB0Fh

l0072F871:
	push	ebx
	push	ebp
	push	edi
	push	8A7744h
	push	esi
	call	659040h
	mov	ebp,eax
	add	esp,8h
	test	ebp,ebp
	mov	[esp+10h],ebp
	jnz	72F9FEh

l0072F890:
	push	5Ch
	push	esi
	call	dword ptr [8A4608h]
	mov	ebx,eax
	add	esp,8h
	test	ebx,ebx
	jnz	72F8A6h

l0072F8A2:
	mov	ebx,esi
	jmp	72F8A9h

l0072F8A6:
	add	ebx,1h

l0072F8A9:
	push	8CA548h
	call	715DD0h
	mov	edi,eax
	add	esp,4h
	test	edi,edi
	mov	[esp+24h],edi
	jz	72F9FEh

l0072F8C4:
	mov	eax,[edi+4h]
	cmp	eax,0A1BAF0h
	jz	72F8E4h

l0072F8CE:
	push	0A1BAF0h
	push	eax
	call	6D5670h
	add	esp,8h
	test	eax,eax
	jz	72F9FEh

l0072F8E4:
	push	edi
	call	6F2750h
	mov	[esp+1Ch],eax
	mov	eax,ebx
	add	esp,4h
	lea	edx,[eax+1h]

l0072F8F6:
	mov	cl,[eax]
	add	eax,1h
	test	cl,cl
	jnz	72F8F6h

l0072F8FF:
	sub	eax,edx
	xor	ebp,ebp
	cmp	[esp+18h],ebp
	mov	[esp+1Ch],eax
	jle	72F9FAh

l0072F911:
	jmp	72F917h

l0072F913:
	mov	edi,[esp+24h]

l0072F917:
	push	ebp
	push	edi
	call	6F2790h
	mov	edi,eax
	add	esp,8h
	test	edi,edi
	jz	72F9E9h

l0072F92B:
	mov	eax,[edi+4h]
	cmp	eax,0A1B450h
	jz	72F94Bh

l0072F935:
	push	0A1B450h
	push	eax
	call	6D5670h
	add	esp,8h
	test	eax,eax
	jz	72F9D6h

l0072F94B:
	mov	esi,[edi+8h]
	mov	ecx,[esp+1Ch]
	lea	edx,[esi+ecx+1h]
	cmp	edx,100h
	jnc	72F9D6h

l0072F95E:
	push	edi
	call	6ECC50h
	add	esp,4h
	lea	edx,[esp+2Ch]
	jmp	72F970h
0072F96D                                        8D 49 00              .I.

l0072F970:
	mov	cl,[eax]
	mov	[edx],cl
	add	eax,1h
	add	edx,1h
	test	cl,cl
	jnz	72F970h

l0072F97E:
	lea	eax,[esp+2Ch]
	lea	edx,[eax+1h]

l0072F985:
	mov	cl,[eax]
	add	eax,1h
	test	cl,cl
	jnz	72F985h

l0072F98E:
	sub	eax,edx
	cmp	eax,esi
	jnz	72F9D6h

l0072F994:
	test	esi,esi
	jbe	72F9A7h

l0072F998:
	cmp	byte ptr [esp+esi+2Bh],5Ch
	jz	72F9A7h

l0072F99F:
	mov	byte ptr [esp+esi+2Ch],5Ch
	add	esi,1h

l0072F9A7:
	sub	esi,ebx
	mov	eax,ebx
	lea	edx,[esp+esi+2Ch]
	nop

l0072F9B0:
	mov	cl,[eax]
	mov	[edx+eax],cl
	add	eax,1h
	test	cl,cl
	jnz	72F9B0h

l0072F9BC:
	lea	eax,[esp+2Ch]
	push	8A7744h
	push	eax
	call	659040h
	add	esp,8h
	test	eax,eax
	mov	[esp+10h],eax
	jnz	72F9F4h

l0072F9D6:
	add	ebp,1h
	cmp	ebp,[esp+18h]
	jl	72F913h

l0072F9E3:
	mov	esi,[esp+14h]
	jmp	72F9FAh

l0072F9E9:
	call	6E1160h
	mov	esi,[esp+14h]
	jmp	72F9FAh

l0072F9F4:
	lea	ecx,[esp+2Ch]
	mov	esi,ecx

l0072F9FA:
	mov	ebp,[esp+10h]

l0072F9FE:
	mov	edx,[esp+28h]
	mov	edi,[esp+90Ch]
	push	edx
	push	edi
	push	esi
	push	8DAD60h
	lea	eax,[esp+140h]
	push	7D0h
	push	eax
	call	724FE0h
	mov	ebx,[esp+38h]
	lea	ecx,[esp+148h]
	push	ebx
	push	ecx
	call	731D30h
	add	esp,20h
	test	ebp,ebp
	mov	esi,eax
	jz	72FAF4h

l0072FA42:
	test	esi,esi
	jnz	72FAEAh

l0072FA4A:
	test	edi,edi
	jle	72FA8Ah

l0072FA4E:
	mov	esi,edi

l0072FA50:
	push	0h
	push	ebp
	lea	edx,[esp+138h]
	push	7D0h
	push	edx
	mov	byte ptr [esp+90Eh],0h
	call	731F90h
	add	esp,10h
	test	eax,eax
	jz	72FA83h

l0072FA74:
	mov	al,[esp+8FEh]
	test	al,al
	jz	72FA83h

l0072FA7F:
	cmp	al,0Ah
	jnz	72FA50h

l0072FA83:
	sub	esi,1h
	jnz	72FA50h

l0072FA88:
	jmp	72FA8Ch

l0072FA8A:
	jnz	72FAEAh

l0072FA8C:
	lea	edi,[esp+130h]

l0072FA93:
	mov	al,[edi]
	cmp	al,20h
	jz	72FAA1h

l0072FA99:
	cmp	al,9h
	jz	72FAA1h

l0072FA9D:
	cmp	al,0Ch
	jnz	72FAA6h

l0072FAA1:
	add	edi,1h
	jmp	72FA93h

l0072FAA6:
	push	ebx
	push	8D3EF8h
	call	731D30h
	mov	esi,eax
	add	esp,8h
	test	esi,esi
	jnz	72FAEAh

l0072FABA:
	push	ebx
	push	edi
	call	731D30h
	mov	esi,eax
	add	esp,8h
	test	esi,esi
	jnz	72FAEAh

l0072FACA:
	push	0Ah
	push	edi
	call	dword ptr [8A46B0h]
	add	esp,8h
	test	eax,eax
	jnz	72FAEAh

l0072FADA:
	push	ebx
	push	8A6DE8h
	call	731D30h
	add	esp,8h
	mov	esi,eax

l0072FAEA:
	push	ebp
	call	dword ptr [8A4644h]
	add	esp,4h

l0072FAF4:
	pop	edi
	pop	ebp
	pop	ebx
	mov	eax,esi
	pop	esi
	mov	ecx,[esp+8F0h]
	xor	ecx,esp
	call	694B8Eh
	add	esp,8F4h
	ret

l0072FB0F:
	mov	ecx,[esp+8F4h]
	pop	esi
	xor	ecx,esp
	or	eax,0FFh
	call	694B8Eh
	add	esp,8F4h
	ret
0072FB28                         CC CC CC CC CC CC CC CC         ........

;; fn0072FB30: 0072FB30
;;   Called from:
;;     0072FC44 (in fn0072FBB0)
fn0072FB30 proc
	push	ebp
	mov	ebp,[esp+8h]
	push	esi
	mov	esi,eax
	push	edi
	xor	eax,eax
	xor	edi,edi
	test	esi,esi
	mov	ecx,esi
	jz	72FB9Fh

l0072FB43:
	mov	ecx,[ecx+8h]
	add	edi,1h
	test	ecx,ecx
	jnz	72FB43h

l0072FB4D:
	jmp	72FB54h
0072FB4F                                              90                .

l0072FB50:
	test	eax,eax
	jnz	72FB9Fh

l0072FB54:
	cmp	edi,ebp
	jg	72FB8Ch

l0072FB58:
	mov	eax,[esi+0Ch]
	mov	ecx,[eax+10h]
	mov	edx,[ecx+34h]
	push	edx
	call	6ECC50h
	mov	ecx,[esi+0Ch]
	mov	edx,[ecx+10h]
	add	esp,4h
	push	eax
	mov	eax,[esi+14h]
	push	eax
	mov	eax,[edx+30h]
	push	eax
	call	6ECC50h
	add	esp,4h
	push	ebx
	mov	ecx,eax
	call	72F830h
	add	esp,0Ch

l0072FB8C:
	mov	esi,[esi+8h]
	sub	edi,1h
	test	eax,eax
	jnz	72FB9Bh

l0072FB96:
	call	72EC10h

l0072FB9B:
	test	esi,esi
	jnz	72FB50h

l0072FB9F:
	pop	edi
	pop	esi
	pop	ebp
	ret
0072FBA3          CC CC CC CC CC CC CC CC CC CC CC CC CC    .............

;; fn0072FBB0: 0072FBB0
;;   Called from:
;;     006E811A (in fn006E8060)
fn0072FBB0 proc
	push	ebp
	mov	ebp,[esp+8h]
	test	ebp,ebp
	push	edi
	mov	edi,3E8h
	jnz	72FBC4h

l0072FBBF:
	pop	edi
	xor	eax,eax
	pop	ebp
	ret

l0072FBC4:
	cmp	dword ptr [ebp+4h],0A25E40h
	jz	72FBE5h

l0072FBCD:
	push	0F9h
	push	8DAD48h
	call	6E1DC0h
	add	esp,8h
	pop	edi
	or	eax,0FFh
	pop	ebp
	ret

l0072FBE5:
	push	esi
	push	8DADACh
	call	715DD0h
	mov	esi,eax
	add	esp,4h
	test	esi,esi
	jz	72FC2Ah

l0072FBF9:
	mov	eax,[esi+4h]
	cmp	eax,0A1E7E8h
	jz	72FC15h

l0072FC03:
	push	0A1E7E8h
	push	eax
	call	6D5670h
	add	esp,8h
	test	eax,eax
	jz	72FC2Ah

l0072FC15:
	push	esi
	call	7051A0h
	mov	edi,eax
	add	esp,4h
	test	edi,edi
	jg	72FC2Ah

l0072FC24:
	pop	esi
	pop	edi
	xor	eax,eax
	pop	ebp
	ret

l0072FC2A:
	push	ebx
	mov	ebx,[esp+18h]
	push	ebx
	push	8DAD88h
	call	731D30h
	add	esp,8h
	test	eax,eax
	jnz	72FC4Ch

l0072FC41:
	push	edi
	mov	eax,ebp
	call	72FB30h
	add	esp,4h

l0072FC4C:
	pop	ebx
	pop	esi
	pop	edi
	pop	ebp
	ret
0072FC51    CC CC CC CC CC CC CC CC CC CC CC CC CC CC CC  ...............

;; fn0072FC60: 0072FC60
;;   Called from:
;;     0070BFDE (in fn0070BCC0)
;;     00715E31 (in fn00715DF0)
;;     00716A65 (in fn00716A00)
fn0072FC60 proc
	push	esi
	mov	esi,[esp+8h]
	test	esi,esi
	jz	72FC8Ah

l0072FC69:
	mov	eax,[esi+4h]
	cmp	eax,0A26EF0h
	jz	72FC85h

l0072FC73:
	push	0A26EF0h
	push	eax
	call	6D5670h
	add	esp,8h
	test	eax,eax
	jz	72FC8Ah

l0072FC85:
	mov	eax,[esi+8h]
	pop	esi
	ret

l0072FC8A:
	xor	eax,eax
	pop	esi
	ret
0072FC8E                                           CC CC               ..

;; fn0072FC90: 0072FC90
;;   Called from:
;;     0070BFE6 (in fn0070BCC0)
fn0072FC90 proc
	push	esi
	mov	esi,[esp+8h]
	test	esi,esi
	jz	72FCBAh

l0072FC99:
	mov	eax,[esi+4h]
	cmp	eax,0A26EF0h
	jz	72FCB5h

l0072FCA3:
	push	0A26EF0h
	push	eax
	call	6D5670h
	add	esp,8h
	test	eax,eax
	jz	72FCBAh

l0072FCB5:
	mov	eax,[esi+0Ch]
	pop	esi
	ret

l0072FCBA:
	xor	eax,eax
	pop	esi
	ret
0072FCBE                                           CC CC               ..
0072FCC0 83 EC 30 56 8B F0 8B 46 08 85 C0 74 75 50 FF 15 ..0V...F...tuP..
0072FCD0 CC 45 8A 00 8D 4C 24 08 51 50 FF 15 20 47 8A 00 .E...L$.QP.. G..
0072FCE0 83 C4 0C 85 C0 75 5B 8B 54 24 0A 81 E2 00 F0 00 .....u[.T$......
0072FCF0 00 81 FA 00 40 00 00 75 49 6A 15 FF 15 2C 47 8A ....@..uIj...,G.
0072FD00 00 50 A1 58 72 A1 00 6A 15 68 8C 1F 8D 00 50 E8 .P.Xr..j.h....P.
0072FD10 5C 3B FD FF 8B 0D 58 72 A1 00 8B F0 56 51 E8 6D \;....Xr....VQ.m
0072FD20 11 FB FF 83 C4 1C 85 F6 74 11 83 06 FF 75 0C 8B ........t....u..
0072FD30 56 04 8B 42 18 56 FF D0 83 C4 04 33 C0 5E 83 C4 V..B.V.....3.^..
0072FD40 30 C3 8B C6 5E 83 C4 30 C3 CC CC CC CC CC CC CC 0...^..0........
0072FD50 53 8B D8 8B 46 0C 83 00 FF 8B 46 0C 55 33 ED 39 S...F.....F.U3.9
0072FD60 28 75 0C 8B 48 04 8B 51 18 50 FF D2 83 C4 04 8B (u..H..Q.P......
0072FD70 46 10 83 00 FF 8B 46 10 39 28 75 0C 8B 48 04 8B F.....F.9(u..H..
0072FD80 51 18 50 FF D2 83 C4 04 8B 46 3C 83 00 FF 8B 46 Q.P......F<....F
0072FD90 3C 39 28 75 0C 8B 48 04 8B 51 18 50 FF D2 83 C4 <9(u..H..Q.P....
0072FDA0 04 83 03 01 57 89 5E 0C E8 13 CD FB FF 8B 1D B0 ....W.^.........
0072FDB0 46 8A 00 89 46 10 8B 44 24 14 6A 62 57 89 46 14 F...F..D$.jbW.F.
0072FDC0 89 6E 18 FF D3 F7 D8 1B C0 F7 D8 6A 55 57 89 46 .n.........jUW.F
0072FDD0 1C 89 6E 20 FF D3 83 C4 14 F7 D8 1B C0 F7 D8 89 ..n ............
0072FDE0 6E 34 89 6E 38 89 46 30 83 05 B8 63 A1 00 01 39 n4.n8.F0...c...9
0072FDF0 6E 10 5D C7 46 3C B8 63 A1 00 5B 75 03 33 C0 C3 n.].F<.c..[u.3..
0072FE00 8B 4C 24 04 89 4E 08 8B C6 E9 B2 FE FF FF CC CC .L$..N..........
0072FE10 56 8B 74 24 08 8B C6 57 8D 50 01 EB 03 8D 49 00 V.t$...W.P....I.
0072FE20 8A 08 83 C0 01 84 C9 75 F7 2B C2 8B F8 75 19 A1 .......u.+...u..
0072FE30 2C 7E A1 00 68 C8 AF 8D 00 50 E8 41 11 FB FF 83 ,~..h....P.A....
0072FE40 C4 08 5F 83 C8 FF 5E C3 53 55 8B 2D B0 46 8A 00 .._...^.SU.-.F..
0072FE50 6A 55 56 FF D5 83 C4 08 85 C0 0F 84 93 00 00 00 jUV.............
0072FE60 8B 1D 90 45 8A 00 2B F8 03 FE 57 8D 48 01 51 50 ...E..+...W.H.QP
0072FE70 FF D3 8A 06 83 C4 0C 3C 77 74 5D 3C 61 74 59 3C .......<wt]<atY<
0072FE80 72 74 21 8B C6 8D 50 01 8A 08 83 C0 01 84 C9 75 rt!...P........u
0072FE90 F7 2B C2 83 C0 01 50 8D 56 01 56 52 FF D3 83 C4 .+....P.V.VR....
0072FEA0 0C C6 06 72 6A 62 56 FF D5 83 C4 08 85 C0 75 21 ...rjbV.......u!
0072FEB0 8B C6 8D 50 01 8A 08 83 C0 01 84 C9 75 F7 2B C2 ...P........u.+.
0072FEC0 50 8D 7E 01 57 83 C6 02 56 FF D3 83 C4 0C C6 07 P.~.W...V.......
0072FED0 62 5D 5B 5F 33 C0 5E C3 A1 2C 7E A1 00 68 80 AF b][_3.^..,~..h..
0072FEE0 8D 00 50 E8 E8 16 FB FF 83 C4 08 5D 5B 5F 83 C8 ..P........][_..
0072FEF0 FF 5E C3 8A 06 3C 72 74 D8 3C 77 74 D4 3C 61 74 .^...<rt.<wt.<at
0072FF00 D0 8B 0D 2C 7E A1 00 56 68 38 AF 8D 00 51 E8 BD ...,~..Vh8...Q..
0072FF10 16 FB FF 83 C4 0C 5D 5B 5F 83 C8 FF 5E C3 CC CC ......][_...^...
0072FF20 53 55 8B 6C 24 0C 57 8B 7C 24 18 8B C7 8D 50 01 SU.l$.W.|$....P.
0072FF30 8A 08 83 C0 01 84 C9 75 F7 2B C2 83 C0 03 74 15 .......u.+....t.
0072FF40 8B C7 8D 50 01 8A 08 83 C0 01 84 C9 75 F7 2B C2 ...P........u.+.
0072FF50 83 C0 03 EB 05 B8 01 00 00 00 50 FF 15 BC 45 8A ..........P...E.
0072FF60 00 8B D8 83 C4 04 85 DB 75 0B E8 A1 12 FB FF 5F ........u......_
0072FF70 5D 33 C0 5B C3 8B D3 8B C7 2B D7 EB 03 8D 49 00 ]3.[.....+....I.
0072FF80 8A 08 88 0C 02 83 C0 01 84 C9 75 F4 56 53 E8 7D ..........u.VS.}
0072FF90 FE FF FF 83 C4 04 85 C0 75 1C E8 31 76 FD FF 85 ........u..1v...
0072FFA0 C0 74 26 A1 58 72 A1 00 68 F0 AF 8D 00 50 E8 CD .t&.Xr..h....P..
0072FFB0 0F FB FF 83 C4 08 53 33 F6 FF 15 D4 45 8A 00 83 ......S3....E...
0072FFC0 C4 04 8B C6 5E 5F 5D 5B C3 FF 15 E4 46 8A 00 C7 ....^_][....F...
0072FFD0 00 00 00 00 00 8B 4D 0C 8B 41 04 3D 20 3B A2 00 ......M..A.= ;..
0072FFE0 74 12 68 20 3B A2 00 50 E8 83 56 FA FF 83 C4 08 t.h ;..P..V.....
0072FFF0 85 C0 74 6C 8B C3 8D 50 01 8D A4 24 00 00 00 00 ..tl...P...$....
00730000 8A 08 83 C0 01 84 C9 75 F7 2B C2 6A 00 50 53 E8 .......u.+.j.PS.
00730010 8C A5 FE FF 83 C4 0C 83 7D 0C 00 8B F0 74 2C 85 ........}....t,.
00730020 F6 74 3D E8 B8 6B FD FF 8B 56 0C 8B F8 8B 45 0C .t=..k...V....E.
00730030 8B 48 0C 52 51 FF 15 30 47 8A 00 57 89 45 08 E8 .H.RQ..0G..W.E..
00730040 DC 6B FD FF 8B 7C 24 28 83 C4 0C 85 F6 74 11 83 .k...|$(.....t..
00730050 06 FF 75 0C 8B 56 04 8B 42 18 56 FF D0 83 C4 04 ..u..V..B.V.....
00730060 83 7D 08 00 75 73 8B 44 24 18 85 C0 74 0D 53 50 .}..us.D$...t.SP
00730070 E8 CB 8F F2 FF 83 C4 08 89 45 08 83 7D 08 00 75 .........E..}..u
00730080 58 FF 15 E4 46 8A 00 83 38 16 75 28 8B 0D 58 72 X...F...8.u(..Xr
00730090 A1 00 57 68 DC AF 8D 00 51 E8 32 15 FB FF 83 C4 ..Wh....Q.2.....
007300A0 0C 53 33 F6 FF 15 D4 45 8A 00 83 C4 04 8B C6 5E .S3....E.......^
007300B0 5F 5D 5B C3 8B 55 0C A1 58 72 A1 00 52 50 E8 9D _][..U..Xr..RP..
007300C0 11 FB FF 83 C4 08 53 33 F6 FF 15 D4 45 8A 00 83 ......S3....E...
007300D0 C4 04 8B C6 5E 5F 5D 5B C3 8B C5 E8 E0 FB FF FF ....^_][........
007300E0 53 8B F0 FF 15 D4 45 8A 00 83 C4 04 8B C6 5E 5F S.....E.......^_
007300F0 5D 5B C3 CC CC CC CC CC CC CC CC CC CC CC CC CC ][..............
00730100 53 56 6A 00 6A 00 68 F0 6E A2 00 FF 15 8C 6F A2 SVj.j.h.n.....o.
00730110 00 8B F0 83 C4 0C 85 F6 74 56 8B 44 24 10 50 E8 ........tV.D$.P.
00730120 9C C9 FB FF 8B D8 83 C4 04 85 DB 75 03 5E 5B C3 ...........u.^[.
00730130 8B 4C 24 18 8B 54 24 0C 57 8B 7C 24 18 51 52 E8 .L$..T$.W.|$.QR.
00730140 0C FC FF FF 83 C4 08 85 C0 5F 75 13 83 06 FF 75 ........._u....u
00730150 0C 8B 46 04 8B 48 18 56 FF D1 83 C4 04 33 F6 83 ..F..H.V.....3..
00730160 03 FF 75 0C 8B 53 04 8B 42 18 53 FF D0 83 C4 04 ..u..S..B.S.....
00730170 8B C6 5E 5B C3 CC CC CC CC CC CC CC CC CC CC CC ..^[............
00730180 53 8B 5C 24 0C 85 DB 7C 73 8B C3 83 E8 00 56 57 S.\$...|s.....VW
00730190 74 15 83 E8 01 74 04 33 FF EB 11 BF 40 00 00 00 t....t.3....@...
007301A0 BB 00 02 00 00 EB 05 BF 04 00 00 00 8B 74 24 10 .............t$.
007301B0 8B 46 08 50 FF 15 80 45 8A 00 83 C4 04 83 FF 04 .F.P...E........
007301C0 75 15 8B 4E 2C 51 E8 45 EB FA FF 83 C4 04 C7 46 u..N,Q.E.......F
007301D0 2C 00 00 00 00 EB 10 8B 56 2C 53 52 E8 0F EB FA ,.......V,SR....
007301E0 FF 83 C4 08 89 46 2C 8B 46 2C 8B 4E 08 53 57 50 .....F,.F,.N.SWP
007301F0 51 FF 15 34 47 8A 00 83 C4 10 5F 5E 5B C3 CC CC Q..4G....._^[...
00730200 8B 44 24 08 57 50 E8 B5 C8 FB FF 8B F8 83 C4 04 .D$.WP..........
00730210 85 FF 75 02 5F C3 56 8B 74 24 0C 8B 46 3C 83 00 ..u._.V.t$..F<..
00730220 FF 8B 46 3C 83 38 00 75 0C 8B 48 04 8B 51 18 50 ..F<.8.u..H..Q.P
00730230 FF D2 83 C4 04 89 7E 3C 5E B8 01 00 00 00 5F C3 ......~<^....._.
00730240 A1 2C 7E A1 00 68 48 B0 8D 00 50 E8 30 0D FB FF .,~..hH...P.0...
00730250 83 C4 08 33 C0 C3 CC CC CC CC CC CC CC CC CC CC ...3............
00730260 56 8B 74 24 08 8B 46 0C 8B 40 04 3D 20 3B A2 00 V.t$..F..@.= ;..
00730270 57 74 4D 68 20 3B A2 00 50 E8 F2 53 FA FF 83 C4 WtMh ;..P..S....
00730280 08 85 C0 75 3B 39 46 08 BF 24 AE 8D 00 74 05 BF ...u;9F..$...t..
00730290 C0 B0 8D 00 8B 4E 10 56 51 E8 B2 C9 FB FF 8B 56 .....N.VQ......V
007302A0 0C 83 C4 04 50 52 E8 A5 C9 FB FF 83 C4 04 50 57 ....PR........PW
007302B0 68 A0 B0 8D 00 E8 B6 1D FC FF 83 C4 14 5F 5E C3 h............_^.
007302C0 8B 46 0C 53 55 50 E8 65 95 FE FF 8B F8 83 C4 04 .F.SUP.e........
007302D0 85 FF 74 0D 57 E8 76 C9 FB FF 83 C4 04 8B E8 EB ..t.W.v.........
007302E0 05 BD 38 0E 8D 00 83 7E 08 00 BB 24 AE 8D 00 74 ..8....~...$...t
007302F0 05 BB C0 B0 8D 00 8B 4E 10 56 51 E8 50 C9 FB FF .......N.VQ.P...
00730300 83 C4 04 50 55 53 68 7C B0 8D 00 E8 60 1D FC FF ...PUSh|....`...
00730310 83 C4 14 85 FF 5D 8B F0 5B 74 11 83 07 FF 75 0C .....]..[t....u.
00730320 8B 57 04 8B 42 18 57 FF D0 83 C4 04 5F 8B C6 5E .W..B.W....._..^
00730330 C3 CC CC CC CC CC CC CC CC CC CC CC CC CC CC CC ................
00730340 56 8B 74 24 08 57 33 FF 39 7E 08 74 31 39 7E 14 V.t$.W3.9~.t19~.
00730350 74 25 53 E8 88 68 FD FF 8B D8 FF 15 E4 46 8A 00 t%S..h.......F..
00730360 89 38 8B 46 08 8B 4E 14 50 FF D1 53 8B F8 E8 AD .8.F..N.P..S....
00730370 68 FD FF 83 C4 08 5B C7 46 08 00 00 00 00 8B 56 h.....[.F......V
00730380 2C 52 E8 89 E9 FA FF 83 C4 04 83 FF FF C7 46 2C ,R............F,
00730390 00 00 00 00 75 10 A1 58 72 A1 00 5F 5E 89 44 24 ....u..Xr.._^.D$
007303A0 04 E9 4A 10 FB FF 85 FF 74 0C 57 E8 F0 4C FD FF ..J.....t.W..L..
007303B0 83 C4 04 5F 5E C3 83 05 B8 63 A1 00 01 5F B8 B8 ..._^....c..._..
007303C0 63 A1 00 5E C3 CC CC CC CC CC CC CC CC CC CC CC c..^............
007303D0 83 EC 08 83 E8 01 74 37 83 E8 01 75 53 56 FF 15 ......t7...uSV..
007303E0 80 45 8A 00 83 C4 04 6A 02 6A 00 6A 00 56 FF 15 .E.....j.j.j.V..
007303F0 CC 45 8A 00 83 C4 04 50 FF 15 40 47 8A 00 23 C2 .E.....P..@G..#.
00730400 83 C4 10 83 F8 FF 75 07 83 C8 FF 83 C4 08 C3 8D ......u.........
00730410 04 24 50 56 FF 15 3C 47 8A 00 83 C4 08 85 C0 75 .$PV..<G.......u
00730420 E7 8B 0C 24 01 4C 24 0C 8B 54 24 04 11 54 24 10 ...$.L$..T$..T$.
00730430 8D 44 24 0C 50 56 FF 15 38 47 8A 00 83 C4 08 83 .D$.PV..8G......
00730440 C4 08 C3 CC CC CC CC CC CC CC CC CC CC CC CC CC ................
00730450 83 EC 1C 53 8B 5C 24 24 83 7B 08 00 C7 44 24 04 ...S.\$$.{...D$.
00730460 00 00 00 00 75 1A A1 2C 7E A1 00 68 28 B0 8D 00 ....u..,~..h(...
00730470 50 E8 0A 0B FB FF 83 C4 08 33 C0 5B 83 C4 1C C3 P........3.[....
00730480 8B 54 24 28 8D 4C 24 04 51 6A 01 6A 00 68 10 AF .T$(.L$.Qj.j.h..
00730490 8D 00 52 E8 38 56 FB FF 83 C4 14 85 C0 74 DA 55 ..R.8V.......t.U
007304A0 56 57 E8 39 67 FD FF 8B 3D E4 46 8A 00 89 44 24 VW.9g...=.F...D$
007304B0 30 FF D7 8D 4C 24 1C C7 00 00 00 00 00 8B 43 08 0...L$........C.
007304C0 51 50 FF 15 3C 47 8A 00 83 C4 08 85 C0 74 10 83 QP..<G.......t..
007304D0 CD FF 83 CE FF 89 6C 24 14 89 74 24 18 EB 14 8B ......l$..t$....
007304E0 54 24 1C 8B 44 24 20 89 54 24 14 89 44 24 18 8B T$..D$ .T$..D$..
007304F0 EA 8B F0 8B 4C 24 30 51 E8 23 67 FD FF 8B D5 23 ....L$0Q.#g....#
00730500 D6 83 C4 04 83 FA FF 0F 84 5E 01 00 00 8B 44 24 .........^....D$
00730510 10 85 C0 74 51 81 78 04 00 F4 A1 00 74 26 8B 40 ...tQ.x.....t&.@
00730520 04 68 00 F4 A1 00 50 E8 44 51 FA FF 83 C4 08 85 .h....P.DQ......
00730530 C0 75 0D 8B 4C 24 10 51 E8 63 4C FD FF 99 EB 0A .u..L$.Q.cL.....
00730540 8B 44 24 10 50 E8 96 0F FE FF 83 C4 04 89 54 24 .D$.P.........T$
00730550 20 8B E8 E8 68 0A FB FF 85 C0 74 0E 5F 5E 5D 33  ...h.....t._^]3
00730560 C0 5B 83 C4 1C C3 89 74 24 20 E8 71 66 FD FF 8B .[.....t$ .qf...
00730570 F0 FF D7 C7 00 00 00 00 00 8B 53 08 52 FF 15 80 ..........S.R...
00730580 45 8A 00 56 89 44 24 38 E8 93 66 FD FF 83 C4 08 E..V.D$8..f.....
00730590 83 7C 24 30 00 0F 85 D0 00 00 00 E8 40 66 FD FF .|$0........@f..
007305A0 8B F0 FF D7 C7 00 00 00 00 00 8B 44 24 20 8D 4C ...........D$ .L
007305B0 24 24 89 44 24 28 8B 43 08 51 50 89 6C 24 2C FF $$.D$(.C.QP.l$,.
007305C0 15 38 47 8A 00 56 8B E8 E8 53 66 FD FF 83 C4 0C .8G..V...Sf.....
007305D0 85 ED 0F 85 93 00 00 00 E8 03 66 FD FF 8B E8 FF ..........f.....
007305E0 D7 C7 00 00 00 00 00 8B 53 08 52 FF 15 CC 45 8A ........S.R...E.
007305F0 00 50 FF 15 84 45 8A 00 33 C9 83 C4 08 83 F8 FF .P...E..3.......
00730600 0F 94 C1 8B F1 85 F6 75 18 50 FF 15 88 40 8A 00 .......u.P...@..
00730610 8B F0 F7 DE 1B F6 46 74 08 FF D7 C7 00 0D 00 00 ......Ft........
00730620 00 55 E8 F9 65 FD FF 83 C4 04 85 F6 75 3D E8 AD .U..e.......u=..
00730630 65 FD FF 8B F0 FF D7 8B 54 24 14 C7 00 00 00 00 e.......T$......
00730640 00 8B 44 24 18 8D 4C 24 24 89 44 24 28 8B 43 08 ..D$..L$$.D$(.C.
00730650 51 50 89 54 24 2C FF 15 38 47 8A 00 56 8B F8 E8 QP.T$,..8G..V...
00730660 BC 65 FD FF 83 C4 0C 85 FF 74 23 8B 15 58 72 A1 .e.......t#..Xr.
00730670 00 52 E8 79 0D FB FF 8B 43 08 50 FF 15 88 45 8A .R.y....C.P...E.
00730680 00 83 C4 08 5F 5E 5D 33 C0 5B 83 C4 1C C3 83 05 ...._^]3.[......
00730690 B8 63 A1 00 01 5F 5E 5D B8 B8 63 A1 00 5B 83 C4 .c..._^]..c..[..
007306A0 1C C3 CC CC CC CC CC CC CC CC CC CC CC CC CC CC ................
007306B0 83 EC 08 56 8B 74 24 10 83 7E 08 00 75 1A A1 2C ...V.t$..~..u..,
007306C0 7E A1 00 68 28 B0 8D 00 50 E8 B2 08 FB FF 83 C4 ~..h(...P.......
007306D0 08 33 C0 5E 83 C4 08 C3 53 55 57 E8 00 65 FD FF .3.^....SUW..e..
007306E0 8B E8 FF 15 E4 46 8A 00 8D 4C 24 10 C7 00 00 00 .....F...L$.....
007306F0 00 00 8B 46 08 51 50 FF 15 3C 47 8A 00 83 C4 08 ...F.QP..<G.....
00730700 85 C0 74 08 83 CF FF 83 CB FF EB 08 8B 7C 24 10 ..t..........|$.
00730710 8B 5C 24 14 55 E8 06 65 FD FF 8B D7 23 D3 83 C4 .\$.U..e....#...
00730720 04 83 FA FF 75 22 A1 58 72 A1 00 50 E8 BF 0C FB ....u".Xr..P....
00730730 FF 8B 4E 08 51 FF 15 88 45 8A 00 83 C4 08 5F 5D ..N.Q...E....._]
00730740 5B 33 C0 5E 83 C4 08 C3 83 7E 38 00 74 44 8B 56 [3.^.....~8.tD.V
00730750 08 52 FF 15 48 47 8A 00 83 C4 04 83 F8 0A 75 1F .R..HG........u.
00730760 83 C7 01 83 D3 00 53 57 C7 46 38 00 00 00 00 E8 ......SW.F8.....
00730770 BC 0B FE FF 83 C4 08 5F 5D 5B 5E 83 C4 08 C3 83 ......._][^.....
00730780 F8 FF 74 0E 8B 4E 08 51 50 FF 15 44 47 8A 00 83 ..t..N.QP..DG...
00730790 C4 08 53 57 E8 97 0B FE FF 83 C4 08 5F 5D 5B 5E ..SW........_][^
007307A0 83 C4 08 C3 CC CC CC CC CC CC CC CC CC CC CC CC ................
007307B0 8B 44 24 04 8B 40 08 85 C0 75 17 8B 0D 2C 7E A1 .D$..@...u...,~.
007307C0 00 68 28 B0 8D 00 51 E8 B4 07 FB FF 83 C4 08 33 .h(...Q........3
007307D0 C0 C3 50 FF 15 CC 45 8A 00 83 C4 04 89 44 24 04 ..P...E......D$.
007307E0 E9 BB 48 FD FF CC CC CC CC CC CC CC CC CC CC CC ..H.............
007307F0 53 8B 5C 24 08 83 7B 08 00 75 17 A1 2C 7E A1 00 S.\$..{..u..,~..
00730800 68 28 B0 8D 00 50 E8 75 07 FB FF 83 C4 08 33 C0 h(...P.u......3.
00730810 5B C3 56 57 E8 C7 63 FD FF 8B F0 FF 15 E4 46 8A [.VW..c.......F.
00730820 00 C7 00 00 00 00 00 8B 4B 08 51 FF 15 80 45 8A ........K.Q...E.
00730830 00 56 8B F8 E8 E7 63 FD FF 83 C4 08 85 FF 5F 5E .V....c......._^
00730840 74 1D 8B 15 58 72 A1 00 52 E8 A2 0B FB FF 8B 43 t...Xr..R......C
00730850 08 50 FF 15 88 45 8A 00 83 C4 08 33 C0 5B C3 83 .P...E.....3.[..
00730860 05 B8 63 A1 00 01 B8 B8 63 A1 00 5B C3 CC CC CC ..c.....c..[....
00730870 57 8B 7C 24 08 83 7F 08 00 75 17 A1 2C 7E A1 00 W.|$.....u..,~..
00730880 68 28 B0 8D 00 50 E8 F5 06 FB FF 83 C4 08 33 C0 h(...P........3.
00730890 5F C3 56 E8 48 63 FD FF 8B 4F 08 51 8B F0 FF 15 _.V.Hc...O.Q....
007308A0 CC 45 8A 00 50 FF 15 60 45 8A 00 56 8B F8 E8 6D .E..P..`E..V...m
007308B0 63 FD FF 57 E8 A7 4A FB FF 83 C4 10 5E 5F C3 CC c..W..J.....^_..
007308C0 8B 43 08 83 EC 30 55 8B 6C 24 38 56 8B 35 CC 45 .C...0U.l$8V.5.E
007308D0 8A 00 57 50 FF D6 8D 4C 24 10 51 50 FF 15 20 47 ..WP...L$.QP.. G
007308E0 8A 00 83 C4 0C 85 C0 75 55 8B 53 08 8B 7C 24 20 .......uU.S..|$ 
007308F0 6A 01 50 52 FF D6 83 C4 04 50 FF 15 10 45 8A 00 j.PR.....P...E..
00730900 8B F0 83 C4 0C 85 F6 7C 13 8B 43 08 50 FF 15 10 .......|..C.P...
00730910 46 8A 00 8B F0 83 C4 04 85 F6 7D 0D 8B 4B 08 51 F.........}..K.Q
00730920 FF 15 88 45 8A 00 83 C4 04 3B FE 7E 11 85 F6 7C ...E.....;.~...|
00730930 0D 2B FE 8D 44 2F 01 5F 5E 5D 83 C4 30 C3 81 FD .+..D/._^]..0...
00730940 00 20 00 00 76 20 81 FD 00 00 08 00 77 0B 5F 5E . ..v ......w._^
00730950 8D 44 2D 00 5D 83 C4 30 C3 5F 5E 8D 85 00 00 08 .D-.]..0._^.....
00730960 00 5D 83 C4 30 C3 5F 5E 8D 85 00 20 00 00 5D 83 .]..0._^... ..].
00730970 C4 30 C3 CC CC CC CC CC CC CC CC CC CC CC CC CC .0..............
00730980 81 EC 40 01 00 00 A1 88 41 A1 00 33 C4 89 84 24 ..@.....A..3...$
00730990 3C 01 00 00 53 55 8B AC 24 4C 01 00 00 56 57 8D <...SU..$L...VW.
007309A0 7C 24 20 E8 38 62 FD FF BE 64 00 00 00 56 89 44 |$ .8b...d...V.D
007309B0 24 18 8B C7 6A 0A 50 8D 9C 24 90 00 00 00 E8 5D $...j.P..$.....]
007309C0 46 F6 FF 55 8B CF 56 51 FF 15 4C 47 8A 00 8B 54 F..U..VQ..LG...T
007309D0 24 2C 52 89 44 24 34 E8 44 62 FD FF 83 C4 1C 83 $,R.D$4.Db......
007309E0 7C 24 18 00 74 5E 56 6A 0A 57 FF 15 FC 46 8A 00 |$..t^Vj.W...F..
007309F0 83 C4 0C 85 C0 75 7B 8D 44 24 20 3B F8 0F 85 99 .....u{.D$ ;....
00730A00 00 00 00 8D 7B FF E8 D5 61 FD FF 8D 9C 24 4C 01 ....{...a....$L.
00730A10 00 00 8B F3 2B F7 56 6A 0A 57 89 44 24 20 E8 FD ....+.Vj.W.D$ ..
00730A20 45 F6 FF 55 56 57 FF 15 4C 47 8A 00 8B 4C 24 2C E..UVW..LG...L$,
00730A30 51 89 44 24 34 E8 E6 61 FD FF 83 C4 1C 83 7C 24 Q.D$4..a......|$
00730A40 18 00 75 A2 55 FF 15 88 45 8A 00 83 C4 04 E8 BD ..u.U...E.......
00730A50 E1 FF FF 85 C0 0F 85 04 02 00 00 8D 54 24 20 2B ............T$ +
00730A60 FA 8B C2 57 50 E8 46 BF FB FF 83 C4 08 E9 EF 01 ...WP.F.........
00730A70 00 00 8D 48 01 3B CB 73 09 80 39 00 75 04 8B C1 ...H.;.s..9.u...
00730A80 EB 03 83 E8 01 8D 4C 24 20 2B C1 50 8B D1 52 E8 ......L$ +.P..R.
00730A90 1C BF FB FF 83 C4 08 E9 C5 01 00 00 68 58 02 00 ............hX..
00730AA0 00 6A 00 C7 44 24 24 58 02 00 00 E8 00 BF FB FF .j..D$$X........
00730AB0 83 C4 08 85 C0 89 44 24 10 0F 84 A0 01 00 00 8D ......D$........
00730AC0 78 14 B9 4A 00 00 00 8D 74 24 20 F3 A5 66 A5 A4 x..J....t$ ..f..
00730AD0 8B 7C 24 10 81 C7 3F 01 00 00 E8 01 61 FD FF 8B .|$...?.....a...
00730AE0 5C 24 10 81 C3 6C 02 00 00 8B F3 2B F7 56 6A 0A \$...l.....+.Vj.
00730AF0 57 89 44 24 20 E8 26 45 F6 FF 55 56 57 FF 15 4C W.D$ .&E..UVW..L
00730B00 47 8A 00 89 44 24 30 8B 44 24 2C 50 E8 0F 61 FD G...D$0.D$,P..a.
00730B10 FF 83 C4 1C 83 7C 24 18 00 0F 84 9C 00 00 00 90 .....|$.........
00730B20 56 6A 0A 57 FF 15 FC 46 8A 00 83 C4 0C 85 C0 0F Vj.W...F........
00730B30 85 BC 00 00 00 8B 74 24 1C 8B CE C1 E9 02 8B FE ......t$........
00730B40 03 F1 3B F7 89 74 24 1C 0F 86 E1 00 00 00 81 FE ..;..t$.........
00730B50 FF FF FF 7F 0F 87 D5 00 00 00 8D 54 24 10 56 52 ...........T$.VR
00730B60 E8 8B B9 FB FF 83 C4 08 85 C0 0F 8C EF 00 00 00 ................
00730B70 8B 44 24 10 8D 7C 07 13 E8 63 60 FD FF 8B 4C 24 .D$..|...c`...L$
00730B80 10 8D 5C 31 14 8B F3 2B F7 56 6A 0A 57 89 44 24 ..\1...+.Vj.W.D$
00730B90 20 E8 8A 44 F6 FF 55 56 57 FF 15 4C 47 8A 00 8B  ..D..UVW..LG...
00730BA0 54 24 2C 52 89 44 24 34 E8 73 60 FD FF 83 C4 1C T$,R.D$4.s`.....
00730BB0 83 7C 24 18 00 0F 85 65 FF FF FF 55 FF 15 88 45 .|$....e...U...E
00730BC0 8A 00 83 C4 04 E8 46 E0 FF FF 85 C0 74 1F 8B 44 ......F.....t..D
00730BD0 24 10 83 00 FF 8B 44 24 10 83 38 00 0F 85 7D 00 $.....D$..8...}.
00730BE0 00 00 8B 48 04 8B 51 18 50 FF D2 EB 6F 8B C7 EB ...H..Q.P...o...
00730BF0 13 8D 48 01 3B CB 73 09 80 39 00 75 04 8B C1 EB ..H.;.s..9.u....
00730C00 03 83 E8 01 8B 4C 24 10 8B 54 24 1C 8D 54 11 14 .....L$..T$..T..
00730C10 3B D0 74 17 2B C1 83 E8 14 50 8D 44 24 14 50 E8 ;.t.+....P.D$.P.
00730C20 CC B8 FB FF 8B 4C 24 18 83 C4 08 8B C1 EB 32 8B .....L$.......2.
00730C30 0D 98 85 A1 00 68 C8 B0 8D 00 51 E8 40 03 FB FF .....h....Q.@...
00730C40 8B 44 24 18 83 00 FF 8B 44 24 18 83 C4 08 83 38 .D$.....D$.....8
00730C50 00 75 0C 8B 50 04 50 8B 42 18 FF D0 83 C4 04 33 .u..P.P.B......3
00730C60 C0 8B 8C 24 4C 01 00 00 5F 5E 5D 5B 33 CC E8 1B ...$L..._^][3...
00730C70 3F F6 FF 81 C4 40 01 00 00 C3 CC CC CC CC CC CC ?....@..........
00730C80 83 EC 1C 8B 44 24 20 8B 48 34 8B 50 38 53 8B 58 ....D$ .H4.P8S.X
00730C90 30 55 8B 6C 24 2C 85 ED 57 8B 78 08 89 4C 24 10 0U.l$,..W.x..L$.
00730CA0 89 54 24 14 89 5C 24 24 7F 14 85 DB 75 16 57 E8 .T$..\$$....u.W.
00730CB0 CC FC FF FF 83 C4 04 5F 5D 5B 83 C4 1C C3 89 6C ......._][.....l
00730CC0 24 18 EB 0C C7 44 24 18 64 00 00 00 8B 6C 24 18 $....D$.d....l$.
00730CD0 55 6A 00 E8 D8 BC FB FF 83 C4 08 85 C0 89 44 24 Uj............D$
00730CE0 0C 75 07 5F 5D 5B 83 C4 1C C3 56 8D 70 14 8D 04 .u._][....V.p...
00730CF0 2E 8B 2D 48 47 8A 00 89 44 24 20 EB 03 8D 49 00 ..-HG...D$ ...I.
00730D00 E8 DB 5E FD FF 85 DB 89 44 24 24 0F 84 8F 00 00 ..^.....D$$.....
00730D10 00 3B 74 24 20 BB 78 00 00 00 0F 84 9D 00 00 00 .;t$ .x.........
00730D20 57 FF D5 8B D8 83 C4 04 83 FB FF 74 60 83 7C 24 W..........t`.|$
00730D30 18 00 74 26 83 FB 0A C7 44 24 18 00 00 00 00 75 ..t&....D$.....u
00730D40 14 83 4C 24 14 04 57 FF D5 8B D8 83 C4 04 83 FB ..L$..W.........
00730D50 FF 74 6A EB 05 83 4C 24 14 01 83 FB 0D 75 0F C7 .tj...L$.....u..
00730D60 44 24 18 01 00 00 00 BB 0A 00 00 00 EB 0A 83 FB D$..............
00730D70 0A 75 05 83 4C 24 14 02 88 1E 83 C6 01 83 FB 0A .u..L$..........
00730D80 74 06 3B 74 24 20 75 98 83 FB FF 75 30 83 7C 24 t.;t$ u....u0.|$
00730D90 18 00 74 29 83 4C 24 14 01 EB 22 EB 03 8D 49 00 ..t).L$..."...I.
00730DA0 57 FF D5 8B D8 83 C4 04 83 FB FF 74 10 88 1E 83 W..........t....
00730DB0 C6 01 80 FB 0A 74 06 3B 74 24 20 75 E3 8B 4C 24 .....t.;t$ u..L$
00730DC0 24 51 E8 59 5E FD FF 8B 44 24 34 8B 54 24 18 8B $Q.Y^...D$4.T$..
00730DD0 4C 24 1C 83 C4 04 83 FB 0A 89 50 34 89 48 38 0F L$........P4.H8.
00730DE0 84 BD 00 00 00 83 FB FF 74 57 83 7C 24 34 00 0F ........tW.|$4..
00730DF0 8F AD 00 00 00 8B 5C 24 1C 8B D3 C1 EA 02 8B F3 ......\$........
00730E00 03 DA 81 FB FF FF FF 7F 89 5C 24 1C 0F 87 B7 00 .........\$.....
00730E10 00 00 8D 44 24 10 53 50 E8 D3 B6 FB FF 83 C4 08 ...D$.SP........
00730E20 85 C0 0F 8C D1 00 00 00 8B 44 24 10 8D 4C 18 14 .........D$..L..
00730E30 8B 5C 24 28 8D 74 06 14 89 4C 24 20 E9 BF FE FF .\$(.t...L$ ....
00730E40 FF 57 FF 15 8C 45 8A 00 83 C4 04 85 C0 74 40 8B .W...E.......t@.
00730E50 15 58 72 A1 00 52 E8 95 05 FB FF 57 FF 15 88 45 .Xr..R.....W...E
00730E60 8A 00 83 C4 08 8B 44 24 10 83 00 FF 8B 44 24 10 ......D$.....D$.
00730E70 83 38 00 0F 85 80 00 00 00 8B 48 04 8B 51 18 50 .8........H..Q.P
00730E80 FF D2 83 C4 04 5E 5F 5D 33 C0 5B 83 C4 1C C3 57 .....^_]3.[....W
00730E90 FF 15 88 45 8A 00 83 C4 04 E8 72 DD FF FF 85 C0 ...E......r.....
00730EA0 75 C3 2B 74 24 10 83 EE 14 3B 74 24 1C 74 0E 8D u.+t$....;t$.t..
00730EB0 44 24 10 56 50 E8 36 B6 FB FF 83 C4 08 8B 44 24 D$.VP.6.......D$
00730EC0 10 5E 5F 5D 5B 83 C4 1C C3 8B 0D 98 85 A1 00 68 .^_][..........h
00730ED0 C8 B0 8D 00 51 E8 A6 00 FB FF 8B 44 24 18 83 00 ....Q......D$...
00730EE0 FF 8B 44 24 18 83 C4 08 83 38 00 75 0C 8B 50 04 ..D$.....8.u..P.
00730EF0 50 8B 42 18 FF D0 83 C4 04 5E 5F 5D 33 C0 5B 83 P.B......^_]3.[.
00730F00 C4 1C C3 CC CC CC CC CC CC CC CC CC CC CC CC CC ................
00730F10 56 8B 74 24 08 85 F6 75 16 68 F3 04 00 00 68 38 V.t$...u.h....h8
00730F20 B1 8D 00 E8 98 0E FB FF 83 C4 08 33 C0 5E C3 8B ...........3.^..
00730F30 46 04 3D F0 6E A2 00 55 57 0F 84 A2 01 00 00 68 F.=.n..UW......h
00730F40 F0 6E A2 00 50 E8 26 47 FA FF 83 C4 08 85 C0 0F .n..P.&G........
00730F50 85 8C 01 00 00 68 2C AF 8D 00 56 E8 00 E8 FA FF .....h,...V.....
00730F60 8B F0 83 C4 08 85 F6 0F 84 8E 01 00 00 8B 6C 24 ..............l$
00730F70 14 85 ED 7F 0C 6A 00 E8 A4 ED FA FF 83 C4 04 EB .....j..........
00730F80 0E 55 68 B0 8C 8A 00 E8 94 92 FB FF 83 C4 08 8B .Uh.............
00730F90 F8 85 FF 75 17 83 06 FF 75 0C 8B 46 04 8B 48 18 ...u....u..F..H.
00730FA0 56 FF D1 83 C4 04 5F 5D 33 C0 5E C3 6A 00 57 56 V....._]3.^.j.WV
00730FB0 E8 CB 66 FD FF 83 C4 0C 89 44 24 10 83 06 FF 75 ..f......D$....u
00730FC0 0C 8B 56 04 8B 42 18 56 FF D0 83 C4 04 83 07 FF ..V..B.V........
00730FD0 75 0C 8B 4F 04 8B 51 18 57 FF D2 83 C4 04 8B 44 u..O..Q.W......D
00730FE0 24 10 85 C0 74 7C 81 78 04 50 B4 A1 00 74 73 8B $...t|.x.P...ts.
00730FF0 40 04 68 50 B4 A1 00 50 E8 73 46 FA FF 83 C4 08 @.hP...P.sF.....
00731000 85 C0 75 5A 8B 44 24 10 81 78 04 20 3B A2 00 74 ..uZ.D$..x. ;..t
00731010 51 8B 48 04 68 20 3B A2 00 51 E8 51 46 FA FF 83 Q.H.h ;..Q.QF...
00731020 C4 08 85 C0 75 38 8B 44 24 10 83 00 FF 8B 44 24 ....u8.D$.....D$
00731030 10 83 38 00 75 0C 8B 50 04 50 8B 42 18 FF D0 83 ..8.u..P.P.B....
00731040 C4 04 8B 0D 7C 6B A1 00 68 10 B1 8D 00 51 C7 44 ....|k..h....Q.D
00731050 24 18 00 00 00 00 E8 25 FF FA FF 83 C4 08 8B 44 $......%.......D
00731060 24 10 85 ED 0F 8D DE 01 00 00 85 C0 0F 84 D6 01 $...............
00731070 00 00 81 78 04 50 B4 A1 00 74 1D 8B 50 04 68 50 ...x.P...t..P.hP
00731080 B4 A1 00 52 E8 E7 45 FA FF 83 C4 08 85 C0 8B 44 ...R..E........D
00731090 24 10 0F 84 EE 00 00 00 8B 48 08 85 C9 8D 50 14 $........H....P.
007310A0 0F 85 90 00 00 00 83 00 FF 8B 44 24 10 39 08 75 ..........D$.9.u
007310B0 0C 8B 48 04 8B 51 18 50 FF D2 83 C4 04 A1 5C 74 ..H..Q.P......\t
007310C0 A1 00 68 F8 B0 8D 00 50 C7 44 24 18 00 00 00 00 ..h....P.D$.....
007310D0 E8 AB FE FA FF 8B 44 24 18 83 C4 08 E9 A5 00 00 ......D$........
007310E0 00 83 7E 08 00 75 1A 8B 15 2C 7E A1 00 68 28 B0 ..~..u...,~..h(.
007310F0 8D 00 52 E8 88 FE FA FF 83 C4 08 5F 5D 33 C0 5E ..R........_]3.^
00731100 C3 8B 46 20 85 C0 74 17 8B 4E 24 2B 4E 28 85 C9 ..F ..t..N$+N(..
00731110 7E 0D 80 38 00 74 08 5F 5D 5E E9 21 F1 FF FF 8B ~..8.t._]^.!....
00731120 6C 24 14 55 56 E8 56 FB FF FF 83 C4 08 89 44 24 l$.UV.V.......D$
00731130 10 E9 2C FF FF FF 80 7C 11 FF 0A 75 49 83 C1 FF ..,....|...uI...
00731140 83 38 01 51 75 13 8D 4C 24 14 51 E8 A0 B3 FB FF .8.Qu..L$.Q.....
00731150 8B 44 24 18 83 C4 08 EB 2D 52 E8 51 B8 FB FF 8B .D$.....-R.Q....
00731160 F0 8B 44 24 18 83 00 FF 8B 44 24 18 83 C4 08 83 ..D$.....D$.....
00731170 38 00 75 0C 8B 50 04 50 8B 42 18 FF D0 83 C4 04 8.u..P.P.B......
00731180 8B C6 89 44 24 10 85 C0 0F 84 BA 00 00 00 81 78 ...D$..........x
00731190 04 20 3B A2 00 74 1D 8B 48 04 68 20 3B A2 00 51 . ;..t..H.h ;..Q
007311A0 E8 CB 44 FA FF 83 C4 08 85 C0 8B 44 24 10 0F 84 ..D........D$...
007311B0 94 00 00 00 8B 48 08 85 C9 8B 50 0C 75 3B 83 00 .....H....P.u;..
007311C0 FF 8B 44 24 10 39 08 75 0C 8B 50 04 50 8B 42 18 ..D$.9.u..P.P.B.
007311D0 FF D0 83 C4 04 8B 0D 5C 74 A1 00 68 F8 B0 8D 00 .......\t..h....
007311E0 51 C7 44 24 18 00 00 00 00 E8 92 FD FA FF 8B 44 Q.D$...........D
007311F0 24 18 83 C4 08 5F 5D 5E C3 66 83 7C 4A FE 0A 75 $...._]^.f.|J..u
00731200 47 83 C1 FF 83 38 01 51 75 15 8D 54 24 14 52 E8 G....8.Qu..T$.R.
00731210 EC 66 FE FF 8B 44 24 18 83 C4 08 5F 5D 5E C3 52 .f...D$...._]^.R
00731220 E8 FB 67 FE FF 8B F0 8B 44 24 18 83 00 FF 8B 44 ..g.....D$.....D
00731230 24 18 83 C4 08 83 38 00 75 0C 8B 48 04 8B 51 18 $.....8.u..H..Q.
00731240 50 FF D2 83 C4 04 8B C6 5F 5D 5E C3 CC CC CC CC P......._]^.....
00731250 51 56 8B 74 24 0C 83 7E 08 00 C7 44 24 04 FF FF QV.t$..~...D$...
00731260 FF FF 75 18 A1 2C 7E A1 00 68 28 B0 8D 00 50 E8 ..u..,~..h(...P.
00731270 0C FD FA FF 83 C4 08 33 C0 5E 59 C3 8B 46 20 85 .......3.^Y..F .
00731280 C0 74 28 8B 4E 24 2B 4E 28 85 C9 7E 1E 80 38 00 .t(.N$+N(..~..8.
00731290 74 19 8B 15 2C 7E A1 00 68 48 B0 8D 00 52 E8 DD t...,~..hH...R..
007312A0 FC FA FF 83 C4 08 33 C0 5E 59 C3 8B 4C 24 10 8D ......3.^Y..L$..
007312B0 44 24 04 50 68 50 B1 8D 00 51 E8 F1 69 FB FF 83 D$.PhP...Q..i...
007312C0 C4 0C 85 C0 74 B1 8B 44 24 04 85 C0 75 10 68 8F ....t..D$...u.h.
007312D0 69 8A 00 E8 E8 B7 FB FF 83 C4 04 5E 59 C3 7D 06 i..........^Y.}.
007312E0 33 C0 89 44 24 04 50 56 E8 93 F9 FF FF 83 C4 08 3..D$.PV........
007312F0 5E 59 C3 CC CC CC CC CC CC CC CC CC CC CC CC CC ^Y..............
00731300 51 56 8B 74 24 0C 83 7E 08 00 75 18 A1 2C 7E A1 QV.t$..~..u..,~.
00731310 00 68 28 B0 8D 00 50 E8 64 FC FA FF 83 C4 08 33 .h(...P.d......3
00731320 C0 5E 59 C3 83 7E 1C 00 B8 00 83 8C 00 75 05 B8 .^Y..~.......u..
00731330 5C B1 8D 00 8D 4C 24 0C 51 8D 54 24 08 52 50 8B \....L$.Q.T$.RP.
00731340 44 24 1C 50 E8 67 69 FB FF 83 C4 10 85 C0 74 CF D$.P.gi.......t.
00731350 53 57 C7 46 18 00 00 00 00 E8 82 58 FD FF 8B F8 SW.F.......X....
00731360 FF 15 E4 46 8A 00 C7 00 00 00 00 00 8B 4E 08 8B ...F.........N..
00731370 54 24 14 8B 44 24 0C 51 52 6A 01 50 FF 15 48 46 T$..D$.QRj.P..HF
00731380 8A 00 57 8B D8 E8 96 58 FD FF 83 C4 14 3B 5C 24 ..W....X.....;\$
00731390 14 5F 5B 74 1E 8B 0D 58 72 A1 00 51 E8 4F 00 FB ._[t...Xr..Q.O..
007313A0 FF 8B 56 08 52 FF 15 88 45 8A 00 83 C4 08 33 C0 ..V.R...E.....3.
007313B0 5E 59 C3 83 05 B8 63 A1 00 01 B8 B8 63 A1 00 5E ^Y....c.....c..^
007313C0 59 C3 CC CC CC CC CC CC CC CC CC CC CC CC CC CC Y...............
007313D0 8B 44 24 04 83 EC 1C 57 33 FF 39 78 08 75 1B 8B .D$....W3.9x.u..
007313E0 0D 2C 7E A1 00 68 28 B0 8D 00 51 E8 90 FB FA FF .,~..h(...Q.....
007313F0 83 C4 08 33 C0 5F 83 C4 1C C3 53 8B 5C 24 2C 8B ...3._....S.\$,.
00731400 43 04 55 56 33 F6 3D F0 BA A1 00 89 7C 24 28 74 C.UV3.=.....|$(t
00731410 45 68 F0 BA A1 00 50 E8 54 42 FA FF 83 C4 08 85 Eh....P.TB......
00731420 C0 75 33 53 89 7C 24 20 E8 D3 36 FD FF 83 C4 04 .u3S.|$ ..6.....
00731430 3B C7 89 44 24 10 75 2E 8B 15 7C 6B A1 00 68 94 ;..D$.u...|k..h.
00731440 B1 8D 00 52 E8 37 FB FA FF 83 C4 08 5E 5D 5B 33 ...R.7......^][3
00731450 C0 5F 83 C4 1C C3 33 ED C7 44 24 1C 01 00 00 00 ._....3..D$.....
00731460 89 6C 24 10 EB 1B 68 E8 03 00 00 E8 E0 11 FC FF .l$...h.........
00731470 8B 6C 24 14 8B F0 83 C4 04 3B F7 0F 84 E4 01 00 .l$......;......
00731480 00 89 7C 24 18 83 7C 24 1C 00 74 35 85 F6 74 11 ..|$..|$..t5..t.
00731490 83 06 FF 75 0C 8B 46 04 8B 48 18 56 FF D1 83 C4 ...u..F..H.V....
007314A0 04 8D 97 E8 03 00 00 52 57 53 E8 61 1A FC FF 8B .......RWS.a....
007314B0 F0 83 C4 0C 85 F6 0F 84 A9 01 00 00 8B 5E 08 EB .............^..
007314C0 34 33 DB 55 E8 77 2B FD FF 83 C4 04 85 C0 74 18 43.U.w+.......t.
007314D0 50 53 56 E8 38 13 FC FF 83 C3 01 83 C4 0C 81 FB PSV.8...........
007314E0 E8 03 00 00 7C DD EB 0D E8 D3 FA FA FF 85 C0 0F ....|...........
007314F0 85 5B 01 00 00 85 DB 0F 84 AE 01 00 00 33 ED 85 .[...........3..
00731500 DB 0F 8E A9 00 00 00 8B 46 0C 8B 3C A8 8B 47 04 ........F..<..G.
00731510 3D 50 B4 A1 00 0F 84 8A 00 00 00 68 50 B4 A1 00 =P.........hP...
00731520 50 E8 4A 41 FA FF 83 C4 08 85 C0 75 78 8B 4C 24 P.JA.......ux.L$
00731530 30 39 41 1C 74 1B 8D 54 24 14 52 8D 44 24 24 50 09A.t..T$.R.D$$P
00731540 57 E8 3A 04 FD FF 83 C4 0C 85 C0 0F 85 E7 00 00 W.:.............
00731550 00 8D 4C 24 14 51 8D 54 24 24 52 57 E8 1F 03 FD ..L$.Q.T$$RW....
00731560 FF 83 C4 0C 85 C0 0F 85 CC 00 00 00 8B 44 24 14 .............D$.
00731570 8B 4C 24 20 50 51 E8 35 B4 FB FF 83 C4 08 85 C0 .L$ PQ.5........
00731580 89 44 24 24 0F 84 C2 00 00 00 83 07 FF 75 10 8B .D$$.........u..
00731590 57 04 8B 42 18 57 FF D0 8B 44 24 28 83 C4 04 8B W..B.W...D$(....
007315A0 4E 0C 89 04 A9 83 C5 01 3B EB 0F 8C 57 FF FF FF N.......;...W...
007315B0 E8 2B 56 FD FF 8B 54 24 30 33 FF 89 44 24 24 89 .+V...T$03..D$$.
007315C0 7A 18 FF 15 E4 46 8A 00 85 DB 89 38 7E 38 8B FF z....F.....8~8..
007315D0 8B 46 0C 8B 04 B8 8B 6C 24 30 8B 48 08 8B 55 08 .F.....l$0.H..U.
007315E0 52 51 83 C0 14 6A 01 50 89 4C 24 24 FF 15 48 46 RQ...j.P.L$$..HF
007315F0 8A 00 83 C4 10 3B 44 24 14 0F 85 88 00 00 00 83 .....;D$........
00731600 C7 01 3B FB 7C CA 8B 44 24 24 50 E8 10 56 FD FF ..;.|..D$$P..V..
00731610 8B 6C 24 14 83 C4 04 81 FB E8 03 00 00 0F 8C 88 .l$.............
00731620 00 00 00 81 44 24 18 E8 03 00 00 8B 5C 24 34 8B ....D$......\$4.
00731630 7C 24 18 E9 4D FE FF FF 8B 0D 7C 6B A1 00 68 60 |$..M.....|k..h`
00731640 B1 8D 00 51 E8 37 F9 FA FF 83 C4 08 8B 6C 24 10 ...Q.7.......l$.
00731650 85 F6 74 11 83 06 FF 75 0C 8B 56 04 8B 42 18 56 ..t....u..V..B.V
00731660 FF D0 83 C4 04 85 ED 74 12 83 45 00 FF 75 0C 8B .......t..E..u..
00731670 4D 04 8B 51 18 55 FF D2 83 C4 04 8B 44 24 28 5E M..Q.U......D$(^
00731680 5D 5B 5F 83 C4 1C C3 8B 54 24 24 52 E8 8F 55 FD ][_.....T$$R..U.
00731690 FF A1 58 72 A1 00 50 E8 54 FD FA FF 8B 4D 08 51 ..Xr..P.T....M.Q
007316A0 FF 15 88 45 8A 00 83 C4 0C EB A1 83 05 B8 63 A1 ...E..........c.
007316B0 00 01 C7 44 24 28 B8 63 A1 00 EB 94 CC CC CC CC ...D$(.c........
007316C0 8B 44 24 04 83 78 08 00 75 16 A1 2C 7E A1 00 68 .D$..x..u..,~..h
007316D0 28 B0 8D 00 50 E8 A6 F8 FA FF 83 C4 08 33 C0 C3 (...P........3..
007316E0 83 00 01 C3 CC CC CC CC CC CC CC CC CC CC CC CC ................
007316F0 8B 44 24 04 50 E8 46 EC FF FF 83 C4 04 85 C0 75 .D$.P.F........u
00731700 01 C3 83 00 FF 75 0C 8B 48 04 8B 51 18 50 FF D2 .....u..H..Q.P..
00731710 83 C4 04 83 05 B8 63 A1 00 01 B8 B8 63 A1 00 C3 ......c.....c...
00731720 8B 4C 24 04 33 C0 39 41 08 0F 94 C0 50 E8 2E 3C .L$.3.9A....P..<
00731730 FB FF 83 C4 04 C3 CC CC CC CC CC CC CC CC CC CC ................
00731740 8B 44 24 04 8B 40 34 83 F8 07 0F 87 A3 00 00 00 .D$..@4.........
00731750 FF 24 85 0C 18 73 00 83 05 B8 63 A1 00 01 B8 B8 .$...s....c.....
00731760 63 A1 00 C3 68 F4 B1 8D 00 E8 52 B3 FB FF 83 C4 c...h.....R.....
00731770 04 C3 68 E8 6D 8A 00 E8 44 B3 FB FF 83 C4 04 C3 ..h.m...D.......
00731780 68 E8 6D 8A 00 68 F4 B1 8D 00 68 EC B1 8D 00 E8 h.m..h....h.....
00731790 8C 8A FB FF 83 C4 0C C3 68 E8 B1 8D 00 E8 1E B3 ........h.......
007317A0 FB FF 83 C4 04 C3 68 E8 B1 8D 00 68 F4 B1 8D 00 ......h....h....
007317B0 68 EC B1 8D 00 E8 66 8A FB FF 83 C4 0C C3 68 E8 h.....f.......h.
007317C0 B1 8D 00 68 E8 6D 8A 00 68 EC B1 8D 00 E8 4E 8A ...h.m..h.....N.
007317D0 FB FF 83 C4 0C C3 68 E8 B1 8D 00 68 E8 6D 8A 00 ......h....h.m..
007317E0 68 F4 B1 8D 00 68 E0 B1 8D 00 E8 31 8A FB FF 83 h....h.....1....
007317F0 C4 10 C3 8B 0D 20 87 A1 00 50 68 C0 B1 8D 00 51 ..... ...Ph....Q
00731800 E8 CB FD FA FF 83 C4 0C 33 C0 C3 90 57 17 73 00 ........3...W.s.
00731810 64 17 73 00 72 17 73 00 80 17 73 00 98 17 73 00 d.s.r.s...s...s.
00731820 A6 17 73 00 BE 17 73 00 D6 17 73 00 CC CC CC CC ..s...s...s.....
00731830 8B 46 20 85 C0 74 10 50 E8 D3 D4 FA FF 83 C4 04 .F ..t.P........
00731840 C7 46 20 00 00 00 00 C3 CC CC CC CC CC CC CC CC .F .............
00731850 83 3D D4 DC A6 00 00 75 17 68 F8 B1 8D 00 E8 5D .=.....u.h.....]
00731860 B2 FB FF 83 C4 04 85 C0 A3 D4 DC A6 00 75 01 C3 .............u..
00731870 8B 44 24 04 6A 00 50 8B 80 98 00 00 00 FF D0 83 .D$.j.P.........
00731880 C4 08 85 C0 74 27 8B 0D D4 DC A6 00 83 01 01 89 ....t'..........
00731890 48 0C 83 01 01 89 48 10 83 05 B8 63 A1 00 01 C7 H.....H....c....
007318A0 40 3C B8 63 A1 00 C7 40 40 00 00 00 00 C3 CC CC @<.c...@@.......
007318B0 83 EC 10 56 8B 74 24 18 83 7E 08 00 C7 44 24 10 ...V.t$..~...D$.
007318C0 00 00 00 00 C7 44 24 0C 00 00 00 00 C7 44 24 04 .....D$......D$.
007318D0 A8 59 8D 00 C7 44 24 08 FF FF FF FF 74 26 56 E8 .Y...D$.....t&V.
007318E0 5C EA FF FF 83 C4 04 85 C0 75 08 83 C8 FF 5E 83 \........u....^.
007318F0 C4 10 C3 83 00 FF 75 0C 8B 48 04 8B 51 18 50 FF ......u..H..Q.P.
00731900 D2 83 C4 04 53 57 FF 15 30 41 8A 00 3D 00 00 00 ....SW..0A..=...
00731910 80 8B 7C 24 28 8B 5C 24 24 73 34 8D 44 24 10 50 ..|$(.\$$s4.D$.P
00731920 8D 4C 24 10 51 8D 54 24 28 52 68 68 6B A2 00 68 .L$.Q.T$(Rhhk..h
00731930 28 B2 8D 00 57 53 E8 55 62 FB FF 83 C4 1C 85 C0 (...WS.Ub.......
00731940 74 08 A1 44 46 8A 00 50 EB 6B E8 11 F8 FA FF 8D t..DF..P.k......
00731950 4C 24 10 51 8B 0D 68 BD A2 00 8D 54 24 10 52 8D L$.Q..h....T$.R.
00731960 44 24 1C 50 51 68 68 6B A2 00 68 1C B2 8D 00 57 D$.PQhhk..h....W
00731970 53 E8 1A 62 FB FF 83 C4 20 85 C0 75 0A 5F 5B 83 S..b.... ..u._[.
00731980 C8 FF 5E 83 C4 10 C3 8D 54 24 10 52 8D 44 24 10 ..^.....T$.R.D$.
00731990 50 8D 4C 24 28 51 68 68 6B A2 00 68 10 B2 8D 00 P.L$(Qhhk..h....
007319A0 57 53 E8 E9 61 FB FF 83 C4 1C 85 C0 74 34 8B 15 WS..a.......t4..
007319B0 44 46 8A 00 52 8B 7C 24 10 8B 44 24 24 6A 00 E8 DF..R.|$..D$$j..
007319C0 8C E3 FF FF 83 C4 08 85 C0 74 17 8B 44 24 0C 8B .........t..D$..
007319D0 4C 24 14 50 51 56 E8 45 E5 FF FF 83 C4 0C 85 C0 L$.PQV.E........
007319E0 75 05 83 CE FF EB 19 8B 54 24 10 52 56 C7 46 2C u.......T$.RV.F,
007319F0 00 00 00 00 E8 87 E7 FF FF 8B 74 24 20 83 C4 08 ..........t$ ...
00731A00 8B 44 24 14 50 E8 06 D3 FA FF 83 C4 04 5F 5B 8B .D$.P........_[.
00731A10 C6 5E 83 C4 10 C3 CC CC CC CC CC CC CC CC CC CC .^..............
