;;; Segment .text (00401000)

;; fn007B1C20: 007B1C20
;;   Called from:
;;     007B218D (in fn007B2160)
fn007B1C20 proc
	push	0FFh
	push	880660h
	mov	eax,fs:[0000h]
	push	eax
	push	ecx
	push	ebx
	push	esi
	push	edi
	mov	eax,[0A14188h]
	xor	eax,esp
	push	eax
	lea	eax,[esp+14h]
	mov	fs:[0000h],eax
	mov	esi,ecx
	mov	[esp+10h],esi
	mov	dword ptr [esi+4h],0h
	lea	edi,[esi+0Ch]
	mov	ecx,edi
	mov	dword ptr [esp+1Ch],0h
	mov	dword ptr [esi],989330h
	call	dword ptr [8A43B0h]
	lea	ebx,[esi+28h]
	mov	ecx,ebx
	mov	byte ptr [esp+1Ch],1h
	call	dword ptr [8A43B0h]
	push	989340h
	mov	ecx,edi
	mov	byte ptr [esp+20h],2h
	mov	dword ptr [esi+8h],0h
	call	dword ptr [8A43E0h]
	mov	eax,[esp+24h]
	push	eax
	mov	ecx,ebx
	call	dword ptr [8A4358h]
	mov	eax,esi
	mov	ecx,[esp+14h]
	mov	fs:[0000h],ecx
	pop	ecx
	pop	edi
	pop	esi
	pop	ebx
	add	esp,10h
	ret	4h
007B1CB7                      CC CC CC CC CC CC CC CC CC        .........
007B1CC0 6A FF 68 92 06 88 00 64 A1 00 00 00 00 50 83 EC j.h....d.....P..
007B1CD0 40 A1 88 41 A1 00 33 C4 89 44 24 3C 55 56 57 A1 @..A..3..D$<UVW.
007B1CE0 88 41 A1 00 33 C4 50 8D 44 24 50 64 A3 00 00 00 .A..3.P.D$Pd....
007B1CF0 00 8B 7C 24 60 57 E8 95 2C C5 FF 83 C4 04 84 C0 ..|$`W..,.......
007B1D00 0F 85 EB 00 00 00 8D 4C 24 30 FF 15 B0 43 8A 00 .......L$0...C..
007B1D10 8B CF C7 44 24 58 00 00 00 00 BE 01 00 00 00 FF ...D$X..........
007B1D20 15 5C 43 8A 00 3B C6 7E 7F 8D A4 24 00 00 00 00 .\C..;.~...$....
007B1D30 51 8B C4 8B CF 89 64 24 14 89 30 FF 15 DC 43 8A Q.....d$..0...C.
007B1D40 00 80 38 5C 74 16 51 8B C4 8B CF 89 64 24 14 89 ..8\t.Q.....d$..
007B1D50 30 FF 15 DC 43 8A 00 80 38 2F 75 3D E8 5F 2B C5 0...C...8/u=._+.
007B1D60 FF 8B C8 E8 98 F9 C4 FF 56 8B E8 6A 00 8D 44 24 ........V..j..D$
007B1D70 1C 50 8B CF FF 15 40 43 8A 00 8B 55 00 50 8B 42 .P....@C...U.P.B
007B1D80 14 8B CD C6 44 24 5C 01 FF D0 8D 4C 24 14 C6 44 ....D$\....L$..D
007B1D90 24 58 00 FF 15 38 43 8A 00 8B CF 83 C6 01 FF 15 $X...8C.........
007B1DA0 5C 43 8A 00 3B F0 7C 88 E8 13 2B C5 FF 8B C8 E8 \C..;.|...+.....
007B1DB0 4C F9 C4 FF 8B 10 68 84 7F 8A 00 8B C8 8B 42 24 L.....h.......B$
007B1DC0 57 FF D0 8B F0 85 F6 74 16 68 50 93 98 00 56 FF W......t.hP...V.
007B1DD0 15 E0 45 8A 00 56 FF 15 44 46 8A 00 83 C4 0C 8D ..E..V..DF......
007B1DE0 4C 24 30 C7 44 24 58 FF FF FF FF FF 15 38 43 8A L$0.D$X......8C.
007B1DF0 00 8B 4C 24 50 64 89 0D 00 00 00 00 59 5F 5E 5D ..L$Pd......Y_^]
007B1E00 8B 4C 24 3C 33 CC E8 83 2D EE FF 83 C4 4C C2 04 .L$<3...-....L..
007B1E10 00 CC CC CC CC CC CC CC CC CC CC CC CC CC CC CC ................
007B1E20 8B 49 08 85 C9 74 07 8B 01 8B 40 0C FF E0 B8 02 .I...t....@.....
007B1E30 00 00 00 C2 04 00 CC CC CC CC CC CC CC CC CC CC ................
007B1E40 6A FF 68 CC 06 88 00 64 A1 00 00 00 00 50 81 EC j.h....d.....P..
007B1E50 88 00 00 00 56 57 A1 88 41 A1 00 33 C4 50 8D 84 ....VW..A..3.P..
007B1E60 24 94 00 00 00 64 A3 00 00 00 00 8B F1 8B BC 24 $....d.........$
007B1E70 A4 00 00 00 68 8F 69 8A 00 8B CF FF 15 F4 42 8A ....h.i.......B.
007B1E80 00 85 C0 0F 94 C0 84 C0 8D 4E 28 75 02 8B CF FF .........N(u....
007B1E90 15 54 43 8A 00 6A 01 6A 40 6A 02 50 8D 4C 24 1C .TC..j.j@j.P.L$.
007B1EA0 FF 15 F8 42 8A 00 8B 44 24 0C 8B 48 04 8D 4C 0C ...B...D$..H..L.
007B1EB0 0C C7 84 24 9C 00 00 00 00 00 00 00 FF 15 7C 43 ...$..........|C
007B1EC0 8A 00 8B 4E 44 85 C9 74 10 84 C0 74 0C 6A 00 8D ...ND..t...t.j..
007B1ED0 54 24 10 52 E8 97 51 C6 FF F6 D8 8D 4C 24 0C C7 T$.R..Q.....L$..
007B1EE0 84 24 9C 00 00 00 FF FF FF FF 1B C0 83 E0 FE 83 .$..............
007B1EF0 C0 02 8B F0 FF 15 FC 42 8A 00 8B C6 8B 8C 24 94 .......B......$.
007B1F00 00 00 00 64 89 0D 00 00 00 00 59 5F 5E 81 C4 94 ...d......Y_^...
007B1F10 00 00 00 C2 04 00 CC CC CC CC CC CC CC CC CC CC ................

;; fn007B1F20: 007B1F20
;;   Called from:
;;     0042B4CF (in fn0042B310)
fn007B1F20 proc
	mov	eax,ecx
	xor	ecx,ecx
	mov	[eax+4h],ecx
	mov	dword ptr [eax],989360h
	mov	[eax+8h],ecx
	ret
007B1F31    CC CC CC CC CC CC CC CC CC CC CC CC CC CC CC  ...............
007B1F40 56 8B F1 E8 C8 0E C7 FF F6 44 24 08 01 74 09 56 V........D$..t.V
007B1F50 E8 71 30 EE FF 83 C4 04 8B C6 5E C2 04 00 CC CC .q0.......^.....

;; fn007B1F60: 007B1F60
;;   Called from:
;;     0042B4FC (in fn0042B310)
fn007B1F60 proc
	push	ecx
	mov	dword ptr [esp],0h
	mov	ecx,[ecx+8h]
	test	ecx,ecx
	jz	7B1FB7h

l007B1F6F:
	mov	eax,[ecx]
	mov	eax,[eax+4h]
	push	edi
	lea	edx,[esp+4h]
	push	edx
	call	eax
	mov	ecx,[eax]
	test	ecx,ecx
	mov	edi,[esp+0Ch]
	mov	[edi],ecx
	jz	7B1F8Dh

l007B1F88:
	call	401AD0h

l007B1F8D:
	mov	ecx,[esp+4h]
	test	ecx,ecx
	jz	7B1FB0h

l007B1F95:
	push	esi
	mov	esi,ecx
	call	401AE0h
	cmp	eax,1h
	jnz	7B1FAFh

l007B1FA2:
	test	esi,esi
	jz	7B1FAFh

l007B1FA6:
	mov	edx,[esi]
	push	eax
	mov	eax,[edx]
	mov	ecx,esi
	call	eax

l007B1FAF:
	pop	esi

l007B1FB0:
	mov	eax,edi
	pop	edi
	pop	ecx
	ret	4h

l007B1FB7:
	mov	eax,[esp+8h]
	mov	dword ptr [eax],0h
	pop	ecx
	ret	4h
007B1FC5                CC CC CC CC CC CC CC CC CC CC CC      ...........
007B1FD0 51 8B 49 44 85 C9 56 8B 74 24 0C C7 44 24 04 00 Q.ID..V.t$..D$..
007B1FE0 00 00 00 89 0E 74 05 E8 E4 FA C4 FF 8B C6 5E 59 .....t........^Y
007B1FF0 C2 04 00 CC CC CC CC CC CC CC CC CC CC CC CC CC ................
007B2000 6A FF 68 F8 06 88 00 64 A1 00 00 00 00 50 51 56 j.h....d.....PQV
007B2010 57 A1 88 41 A1 00 33 C4 50 8D 44 24 10 64 A3 00 W..A..3.P.D$.d..
007B2020 00 00 00 8B F9 89 7C 24 0C C7 07 64 93 98 00 8B ......|$...d....
007B2030 77 44 85 F6 C7 44 24 18 00 00 00 00 74 1A 8B CE wD...D$.....t...
007B2040 E8 9B FA C4 FF 83 F8 01 75 0E 85 F6 74 0A 8B 06 ........u...t...
007B2050 8B 10 6A 01 8B CE FF D2 8B CF C7 47 44 00 00 00 ..j........GD...
007B2060 00 C7 44 24 18 FF FF FF FF E8 22 FB FF FF 8B 4C ..D$......"....L
007B2070 24 10 64 89 0D 00 00 00 00 59 5F 5E 83 C4 10 C3 $.d......Y_^....
007B2080 56 8B F1 E8 78 FF FF FF F6 44 24 08 01 74 09 56 V...x....D$..t.V
007B2090 E8 31 2F EE FF 83 C4 04 8B C6 5E C2 04 00 CC CC .1/.......^.....

;; fn007B20A0: 007B20A0
;;   Called from:
;;     007B21A8 (in fn007B2160)
fn007B20A0 proc
	push	0FFh
	push	880728h
	mov	eax,fs:[0000h]
	push	eax
	push	ecx
	push	esi
	push	edi
	mov	eax,[0A14188h]
	xor	eax,esp
	push	eax
	lea	eax,[esp+10h]
	mov	fs:[0000h],eax
	mov	edi,ecx
	push	1h
	lea	ecx,[edi+28h]
	call	dword ptr [8A4354h]
	push	eax
	lea	eax,[esp+14h]
	push	eax
	call	419800h
	add	esp,0Ch
	mov	ecx,[eax]
	mov	esi,[edi+44h]
	cmp	esi,ecx
	mov	dword ptr [esp+18h],0h
	jz	7B2114h

l007B20EF:
	test	ecx,ecx
	mov	[edi+44h],ecx
	jz	7B20FBh

l007B20F6:
	call	401AD0h

l007B20FB:
	test	esi,esi
	jz	7B2114h

l007B20FF:
	mov	ecx,esi
	call	401AE0h
	cmp	eax,1h
	jnz	7B2114h

l007B210B:
	mov	edx,[esi]
	push	eax
	mov	eax,[edx]
	mov	ecx,esi
	call	eax

l007B2114:
	mov	ecx,[esp+0Ch]
	test	ecx,ecx
	mov	dword ptr [esp+18h],0FFFFFFFFh
	jz	7B213Dh

l007B2124:
	mov	esi,ecx
	call	401AE0h
	cmp	eax,1h
	jnz	7B213Dh

l007B2130:
	test	esi,esi
	jz	7B213Dh

l007B2134:
	mov	edx,[esi]
	push	eax
	mov	eax,[edx]
	mov	ecx,esi
	call	eax

l007B213D:
	xor	eax,eax
	cmp	[edi+44h],eax
	setz	al
	mov	ecx,[esp+10h]
	mov	fs:[0000h],ecx
	pop	ecx
	pop	edi
	pop	esi
	add	esp,10h
	ret
007B2157                      CC CC CC CC CC CC CC CC CC        .........

;; fn007B2160: 007B2160
;;   Called from:
;;     007B237F (in fn007B22E0)
fn007B2160 proc
	push	0FFh
	push	880763h
	mov	eax,fs:[0000h]
	push	eax
	push	ecx
	push	esi
	mov	eax,[0A14188h]
	xor	eax,esp
	push	eax
	lea	eax,[esp+0Ch]
	mov	fs:[0000h],eax
	mov	esi,ecx
	mov	[esp+8h],esi
	mov	eax,[esp+1Ch]
	push	eax
	call	7B1C20h
	xor	eax,eax
	mov	dword ptr [esi],989364h
	mov	[esp+14h],eax
	mov	[esi+44h],eax
	mov	ecx,esi
	mov	byte ptr [esp+14h],1h
	call	7B20A0h
	mov	eax,esi
	mov	ecx,[esp+0Ch]
	mov	fs:[0000h],ecx
	pop	ecx
	pop	esi
	add	esp,10h
	ret	4h
007B21C2       CC CC CC CC CC CC CC CC CC CC CC CC CC CC   ..............
007B21D0 6A FF 68 A6 07 88 00 64 A1 00 00 00 00 50 51 53 j.h....d.....PQS
007B21E0 55 56 57 A1 88 41 A1 00 33 C4 50 8D 44 24 18 64 UVW..A..3.P.D$.d
007B21F0 A3 00 00 00 00 8B F9 89 7C 24 14 33 F6 89 77 04 ........|$.3..w.
007B2200 C7 07 60 93 98 00 89 74 24 20 89 77 08 8B 44 24 ..`....t$ .w..D$
007B2210 2C 3B C6 BB 01 00 00 00 88 5C 24 20 74 13 50 68 ,;.......\$ t.Ph
007B2220 A4 93 98 00 E8 57 EA D6 FF 83 C4 08 E9 8D 00 00 .....W..........
007B2230 00 8B 6C 24 28 55 8B CF E8 83 FA FF FF 6A 48 E8 ..l$(U.......jH.
007B2240 94 2D EE FF 83 C4 04 89 44 24 2C 3B C6 C6 44 24 .-......D$,;..D$
007B2250 20 02 74 0A 55 8B C8 E8 04 FF FF FF 8B F0 83 7E  .t.U..........~
007B2260 44 00 88 5C 24 20 74 37 01 5E 04 89 74 24 2C 8B D..\$ t7.^..t$,.
007B2270 4F 08 83 CD FF 3B CE C6 44 24 20 03 74 16 89 77 O....;..D$ .t..w
007B2280 08 01 5E 04 85 C9 74 0C 01 69 04 75 07 8B 01 8B ..^...t..i.u....
007B2290 10 53 FF D2 01 6E 04 88 5C 24 20 75 21 EB 16 8B .S...n..\$ u!...
007B22A0 CD FF 15 54 43 8A 00 50 68 74 93 98 00 E8 CE E9 ...TC..Pht......
007B22B0 D6 FF 83 C4 08 8B 06 8B 10 53 8B CE FF D2 8B C7 .........S......
007B22C0 8B 4C 24 18 64 89 0D 00 00 00 00 59 5F 5E 5D 5B .L$.d......Y_^][
007B22D0 83 C4 10 C2 08 00 CC CC CC CC CC CC CC CC CC CC ................

;; fn007B22E0: 007B22E0
;;   Called from:
;;     0042B4E3 (in fn0042B310)
fn007B22E0 proc
	push	0FFh
	push	8807F3h
	mov	eax,fs:[0000h]
	push	eax
	push	ebx
	push	ebp
	push	esi
	push	edi
	mov	eax,[0A14188h]
	xor	eax,esp
	push	eax
	lea	eax,[esp+14h]
	mov	fs:[0000h],eax
	mov	esi,ecx
	mov	ebx,[esp+24h]
	mov	ecx,ebx
	call	dword ptr [8A4354h]
	push	eax
	push	9893DCh
	call	520C80h
	lea	edi,[esi+8h]
	xor	esi,esi
	add	esp,8h
	cmp	[edi],esi
	mov	ebp,1h
	jnz	7B2405h

l007B2332:
	cmp	[esp+28h],esi
	jz	7B2366h

l007B2338:
	mov	[esp+24h],esi
	mov	ecx,[edi]
	cmp	ecx,esi
	mov	dword ptr [esp+1Ch],3h
	jz	7B2405h

l007B234E:
	mov	[edi],esi
	add	dword ptr [ecx+4h],0FFh
	jnz	7B2405h

l007B235A:
	mov	eax,[ecx]
	mov	edx,[eax]
	push	ebp
	call	edx
	jmp	7B2405h

l007B2366:
	push	48h
	call	694FD8h
	add	esp,4h
	mov	[esp+24h],eax
	cmp	eax,esi
	mov	[esp+1Ch],esi
	jz	7B2386h

l007B237C:
	push	ebx
	mov	ecx,eax
	call	7B2160h
	mov	esi,eax

l007B2386:
	cmp	dword ptr [esi+44h],0h
	mov	dword ptr [esp+1Ch],0FFFFFFFFh
	jz	7B23C9h

l007B2394:
	mov	ebx,1h
	add	[esi+4h],ebx
	mov	[esp+24h],esi
	lea	eax,[esp+24h]
	push	eax
	mov	ecx,edi
	mov	[esp+20h],ebx
	call	529B70h
	or	eax,0FFh
	add	[esi+4h],eax
	mov	[esp+1Ch],eax
	jnz	7B23C5h

l007B23BC:
	mov	edx,[esi]
	mov	eax,[edx]
	push	ebx
	mov	ecx,esi
	call	eax

l007B23C5:
	xor	eax,eax
	jmp	7B2407h

l007B23C9:
	mov	ecx,ebx
	call	dword ptr [8A4354h]
	push	eax
	push	989374h
	call	520C80h
	mov	edx,[esi]
	mov	eax,[edx]
	add	esp,8h
	push	1h
	mov	ecx,esi
	call	eax
	mov	dword ptr [esp+24h],0h
	lea	ecx,[esp+24h]
	push	ecx
	mov	ecx,edi
	mov	dword ptr [esp+20h],2h
	call	529B70h

l007B2405:
	mov	eax,ebp

l007B2407:
	mov	ecx,[esp+14h]
	mov	fs:[0000h],ecx
	pop	ecx
	pop	edi
	pop	esi
	pop	ebp
	pop	ebx
	add	esp,0Ch
	ret	8h
007B241D                                        CC CC CC              ...
007B2420 6A FF 68 19 08 88 00 64 A1 00 00 00 00 50 83 EC j.h....d.....P..
007B2430 44 A1 88 41 A1 00 33 C4 50 8D 44 24 48 64 A3 00 D..A..3.P.D$Hd..
007B2440 00 00 00 68 98 69 8A 00 8D 4C 24 08 FF 15 34 43 ...h.i...L$...4C
007B2450 8A 00 8D 44 24 04 50 8D 4C 24 24 C7 44 24 54 00 ...D$.P.L$$.D$T.
007B2460 00 00 00 E8 78 F5 C4 FF 68 68 9C 99 00 8D 4C 24 ....x...hh....L$
007B2470 24 51 C7 44 24 28 30 00 99 00 E8 4D 2B EE FF CC $Q.D$(0....M+...

;; fn007B2480: 007B2480
;;   Called from:
;;     00409B69 (in fn00409AC0)
;;     00411A69 (in fn004119C0)
;;     00411DED (in fn00411D40)
;;     00414C6D (in fn00414B80)
;;     00417939 (in fn00417890)
;;     00418222 (in fn00418150)
;;     0041DAC9 (in fn0041DA20)
;;     004DB73D (in fn004DB6B0)
;;     00620559 (in fn006204B0)
;;     00620719 (in fn00620670)
;;     00621913 (in fn006218A0)
;;     00622119 (in fn00622070)
;;     006222FF (in fn00622230)
fn007B2480 proc
	mov	ecx,[esp+4h]
	sub	esp,0Ch
	test	ecx,ecx
	ja	7B24A1h

l007B248B:
	xor	ecx,ecx

l007B248D:
	lea	edx,[0000h+ecx*4]
	push	edx
	call	694FD8h
	add	esp,4h
	add	esp,0Ch
	ret

l007B24A1:
	or	eax,0FFh
	xor	edx,edx
	div	ecx
	cmp	eax,4h
	jnc	7B248Dh

l007B24AD:
	lea	eax,[esp+10h]
	push	eax
	lea	ecx,[esp+4h]
	mov	dword ptr [esp+14h],0h
	call	dword ptr [8A46ACh]
	push	999D08h
	lea	ecx,[esp+4h]
	push	ecx
	mov	dword ptr [esp+8h],990018h
	call	694FCCh
	int	3h
	int	3h
	int	3h
	int	3h
	int	3h

;; fn007B24E0: 007B24E0
;;   Called from:
;;     007B2E59 (in fn007B2D10)
fn007B24E0 proc
	sub	esp,8h
	push	ebx
	push	ebp
	mov	ebp,[0A6EBE0h]
	push	esi
	push	edi
	xor	edi,edi
	cmp	ebp,edi
	jz	7B25B4h

;; fn007B24F7: 007B24F7
;;   Called from:
;;     007B24F1 (in fn007B24E0)
;;     007B24F1 (in fn007B2480)
;;     007B24F1 (in fn007B2480)
fn007B24F7 proc
	mov	esi,[esp+1Ch]
	mov	eax,[esi+4h]
	cmp	eax,edi
	jz	7B250Ch

l007B2502:
	mov	ecx,[esi+8h]
	sub	ecx,eax
	sar	ecx,2h
	jnz	7B2516h

l007B250C:
	xor	al,al
	pop	edi
	pop	esi
	pop	ebp
	pop	ebx
	add	esp,8h
	ret

l007B2516:
	mov	ebx,[ebp+4h]
	mov	eax,[ebp+8h]
	cmp	ebx,eax
	mov	[esp+10h],ebx
	jz	7B2587h

l007B2524:
	mov	ecx,esi
	mov	edi,1h
	call	40D910h
	cmp	eax,edi
	jc	7B2579h

l007B2534:
	mov	ebx,[ebx]
	push	ecx
	mov	ecx,esi
	mov	[esp+18h],esp
	mov	ebp,esp
	call	40D910h
	mov	edx,[esi+4h]
	sub	eax,edi
	mov	ecx,[edx+eax*4]
	test	ecx,ecx
	mov	[ebp+0h],ecx
	jz	7B2558h

l007B2553:
	call	401AD0h

l007B2558:
	mov	eax,[ebx]
	mov	edx,[eax+4h]
	mov	ecx,ebx
	call	edx
	mov	ecx,esi
	add	edi,1h
	call	40D910h
	cmp	edi,eax
	mov	ebx,[esp+10h]
	jbe	7B2534h

l007B2573:
	mov	ebp,[0A6EBE0h]

l007B2579:
	add	ebx,4h
	cmp	ebx,[ebp+8h]
	mov	[esp+10h],ebx
	jnz	7B2524h

l007B2585:
	xor	edi,edi

l007B2587:
	mov	eax,[ebp+4h]
	mov	esi,ebp
	add	ebp,4h
	cmp	eax,edi
	jz	7B259Ch

l007B2593:
	push	eax
	call	694FC6h
	add	esp,4h

l007B259C:
	push	esi
	mov	[ebp+0h],edi
	mov	[esi+8h],edi
	mov	[esi+0Ch],edi
	call	694FC6h
	add	esp,4h
	mov	[0A6EBE0h],edi

l007B25B4:
	pop	edi
	pop	esi
	pop	ebp
	mov	al,1h
	pop	ebx
	add	esp,8h
	ret
007B25BE                                           CC CC               ..
007B25C0 6A FF 68 6B 08 88 00 64 A1 00 00 00 00 50 83 EC j.hk...d.....P..
007B25D0 58 55 56 57 A1 88 41 A1 00 33 C4 50 8D 44 24 68 XUVW..A..3.P.D$h
007B25E0 64 A3 00 00 00 00 8B F9 8B 47 04 50 8D 4C 24 18 d........G.P.L$.
007B25F0 C7 44 24 74 00 00 00 00 FF 15 34 43 8A 00 8B 6C .D$t......4C...l
007B2600 24 78 6A 00 8D 4C 24 18 51 8D 54 24 18 52 8B CD $xj..L$.Q.T$.R..
007B2610 C6 44 24 7C 01 E8 66 C1 C5 FF 8D 4C 24 14 C6 44 .D$|..f....L$..D
007B2620 24 70 03 FF 15 38 43 8A 00 8B 4C 24 10 85 C9 74 $p...8C...L$...t
007B2630 56 8D 44 24 4C 50 8B F1 E8 63 B8 C5 FF 83 C4 04 V.D$LP...c......
007B2640 8B 16 8B 52 58 6A 00 50 8D 44 24 38 50 8B CE C6 ...RXj.P.D$8P...
007B2650 44 24 7C 04 FF D2 50 8D 4F 08 C6 44 24 74 05 FF D$|...P.O..D$t..
007B2660 15 58 43 8A 00 8D 4C 24 30 C6 44 24 70 04 FF 15 .XC...L$0.D$p...
007B2670 38 43 8A 00 8D 4C 24 4C C6 44 24 70 03 FF 15 38 8C...L$L.D$p...8
007B2680 43 8A 00 8B 4C 24 10 85 C9 C6 44 24 70 00 74 1A C...L$....D$p.t.
007B2690 8B F1 E8 49 F4 C4 FF 83 F8 01 75 0E 85 F6 74 0A ...I......u...t.
007B26A0 8B 06 8B 10 6A 01 8B CE FF D2 85 ED C7 44 24 10 ....j........D$.
007B26B0 00 00 00 00 C7 44 24 70 FF FF FF FF 74 17 8B CD .....D$p....t...
007B26C0 E8 1B F4 C4 FF 83 F8 01 75 0B 8B 45 00 8B 10 6A ........u..E...j
007B26D0 01 8B CD FF D2 8B 4C 24 68 64 89 0D 00 00 00 00 ......L$hd......
007B26E0 59 5F 5E 5D 83 C4 64 C2 04 00 CC CC CC CC CC CC Y_^]..d.........
007B26F0 6A FF 68 B2 08 88 00 64 A1 00 00 00 00 50 83 EC j.h....d.....P..
007B2700 3C 56 57 A1 88 41 A1 00 33 C4 50 8D 44 24 48 64 <VW..A..3.P.D$Hd
007B2710 A3 00 00 00 00 8B F1 8B 46 04 50 8D 4C 24 14 C7 ........F.P.L$..
007B2720 44 24 54 00 00 00 00 FF 15 34 43 8A 00 8B 7C 24 D$T......4C...|$
007B2730 58 6A 00 8D 4C 24 14 51 8D 54 24 14 52 8B CF C6 Xj..L$.Q.T$.R...
007B2740 44 24 5C 01 E8 37 C0 C5 FF 8D 4C 24 10 C6 44 24 D$\..7....L$..D$
007B2750 50 03 FF 15 38 43 8A 00 8B 4C 24 0C 85 C9 74 3A P...8C...L$...t:
007B2760 8B 46 08 50 8D 4C 24 30 FF 15 34 43 8A 00 6A 00 .F.P.L$0..4C..j.
007B2770 83 C6 0C 56 8D 4C 24 34 51 8B 4C 24 18 C6 44 24 ...V.L$4Q.L$..D$
007B2780 5C 04 E8 99 12 C6 FF 8D 4C 24 2C C6 44 24 50 03 \.......L$,.D$P.
007B2790 FF 15 38 43 8A 00 8B 4C 24 0C 85 C9 C6 44 24 50 ..8C...L$....D$P
007B27A0 00 74 19 8B F1 E8 36 F3 C4 FF 83 F8 01 75 0D 85 .t....6......u..
007B27B0 F6 74 09 8B 16 50 8B 02 8B CE FF D0 85 FF C7 44 .t...P.........D
007B27C0 24 0C 00 00 00 00 C7 44 24 50 FF FF FF FF 74 15 $......D$P....t.
007B27D0 8B CF E8 09 F3 C4 FF 83 F8 01 75 09 8B 17 50 8B ..........u...P.
007B27E0 02 8B CF FF D0 8B 4C 24 48 64 89 0D 00 00 00 00 ......L$Hd......
007B27F0 59 5F 5E 83 C4 48 C2 04 00 CC CC CC CC CC CC CC Y_^..H..........

;; fn007B2800: 007B2800
;;   Called from:
;;     00409B7F (in fn00409AC0)
;;     00409B9E (in fn00409AC0)
;;     00409C01 (in fn00409AC0)
;;     00409C49 (in fn00409AC0)
;;     00411A7F (in fn004119C0)
;;     00411A9E (in fn004119C0)
;;     00411B01 (in fn004119C0)
;;     00411B49 (in fn004119C0)
;;     00411E03 (in fn00411D40)
;;     00411E22 (in fn00411D40)
;;     00411E85 (in fn00411D40)
;;     00411ECD (in fn00411D40)
;;     0041794F (in fn00417890)
;;     0041796E (in fn00417890)
;;     004179D1 (in fn00417890)
;;     00417A19 (in fn00417890)
;;     0041DADF (in fn0041DA20)
;;     0041DAFE (in fn0041DA20)
;;     0041DB61 (in fn0041DA20)
;;     0041DBA9 (in fn0041DA20)
;;     0062056F (in fn006204B0)
;;     0062058E (in fn006204B0)
;;     006205F1 (in fn006204B0)
;;     00620639 (in fn006204B0)
;;     0062072F (in fn00620670)
;;     0062074E (in fn00620670)
;;     006207B1 (in fn00620670)
;;     006207F9 (in fn00620670)
;;     0062212F (in fn00622070)
;;     0062214E (in fn00622070)
;;     006221B1 (in fn00622070)
;;     006221F9 (in fn00622070)
;;     0062231E (in fn00622230)
;;     0062234C (in fn00622230)
;;     006223CE (in fn00622230)
;;     00622430 (in fn00622230)
fn007B2800 proc
	mov	eax,[esp+8h]
	mov	ecx,[esp+4h]
	mov	edx,[esp+0Ch]
	sub	eax,ecx
	sar	eax,2h
	lea	eax,[0000h+eax*4]
	push	esi
	lea	esi,[eax+edx]
	jz	7B282Bh

l007B281E:
	push	eax
	push	ecx
	push	eax
	push	edx
	call	dword ptr [8A465Ch]
	add	esp,10h

l007B282B:
	mov	eax,esi
	pop	esi
	ret	0Ch
007B2831    CC CC CC CC CC CC CC CC CC CC CC CC CC CC CC  ...............
007B2840 51 57 C7 01 F4 93 98 00 A1 E0 EB A6 00 33 FF 3B QW...........3.;
007B2850 C7 0F 84 80 00 00 00 8B 50 04 56 8B 70 08 3B D6 ........P.V.p.;.
007B2860 74 3A 39 0A 74 07 83 C2 04 3B D6 75 F5 3B D6 74 t:9.t....;.u.;.t
007B2870 2B 8B F0 8B 40 08 8D 4A 04 2B C1 C1 F8 02 3B C7 +...@..J.+....;.
007B2880 7E 11 03 C0 03 C0 50 51 50 52 FF 15 5C 46 8A 00 ~.....PQPR..\F..
007B2890 83 C4 10 83 46 08 FC A1 E0 EB A6 00 8B 48 04 3B ....F........H.;
007B28A0 CF 74 0A 8B 50 08 2B D1 C1 FA 02 75 29 8B F0 8B .t..P.+....u)...
007B28B0 C1 3B C7 74 09 50 E8 0B 27 EE FF 83 C4 04 56 89 .;.t.P..'.....V.
007B28C0 7E 04 89 7E 08 89 7E 0C E8 F9 26 EE FF 83 C4 04 ~..~..~...&.....
007B28D0 89 3D E0 EB A6 00 5E 5F 59 C3 CC CC CC CC CC CC .=....^_Y.......
007B28E0 6A FF 68 D8 08 88 00 64 A1 00 00 00 00 50 51 56 j.h....d.....PQV
007B28F0 A1 88 41 A1 00 33 C4 50 8D 44 24 0C 64 A3 00 00 ..A..3.P.D$.d...
007B2900 00 00 8B F1 89 74 24 08 C7 06 FC 93 98 00 8D 4E .....t$........N
007B2910 08 C7 44 24 14 00 00 00 00 FF 15 38 43 8A 00 8B ..D$.......8C...
007B2920 CE E8 1A FF FF FF 8B 4C 24 0C 64 89 0D 00 00 00 .......L$.d.....
007B2930 00 59 5E 83 C4 10 C3 CC CC CC CC CC CC CC CC CC .Y^.............
007B2940 8B 44 24 0C 53 56 8B F1 8B 08 89 4C 24 14 8B 4E .D$.SV.....L$..N
007B2950 04 85 C9 57 75 04 33 FF EB 08 8B 7E 0C 2B F9 C1 ...Wu.3....~.+..
007B2960 FF 02 8B 5C 24 14 85 DB 0F 84 81 01 00 00 85 C9 ...\$...........
007B2970 75 04 33 C0 EB 08 8B 46 08 2B C1 C1 F8 02 BA FF u.3....F.+......
007B2980 FF FF 3F 2B D0 3B D3 73 05 E8 92 FA FF FF 85 C9 ..?+.;.s........
007B2990 75 04 33 C0 EB 08 8B 46 08 2B C1 C1 F8 02 03 C3 u.3....F.+......
007B29A0 3B F8 55 0F 83 B4 00 00 00 8B C7 D1 E8 BA FF FF ;.U.............
007B29B0 FF 3F 2B D0 3B D7 73 04 33 FF EB 02 03 F8 85 C9 .?+.;.s.3.......
007B29C0 75 04 33 C0 EB 08 8B 46 08 2B C1 C1 F8 02 03 C3 u.3....F.+......
007B29D0 3B F8 73 12 85 C9 75 04 33 FF EB 08 8B 7E 08 2B ;.s...u.3....~.+
007B29E0 F9 C1 FF 02 03 FB 6A 00 57 E8 92 FA FF FF 8B 4E ......j.W......N
007B29F0 04 83 C4 08 8B E8 8B 44 24 14 55 50 51 8B CE E8 .......D$.UPQ...
007B2A00 FC FD FF FF 8D 54 24 1C 52 53 50 8B CE E8 0E 74 .....T$.RSP....t
007B2A10 EB FF 8B 4C 24 14 50 8B 46 08 50 51 8B CE E8 DD ...L$.P.F.PQ....
007B2A20 FD FF FF 8B 46 04 85 C0 75 04 33 C9 EB 08 8B 4E ....F...u.3....N
007B2A30 08 2B C8 C1 F9 02 03 D9 85 C0 74 09 50 E8 84 25 .+........t.P..%
007B2A40 EE FF 83 C4 04 8D 54 BD 00 8D 44 9D 00 89 6E 04 ......T...D...n.
007B2A50 5D 5F 89 56 0C 89 46 08 5E 5B C2 0C 00 8B 6E 08 ]_.V..F.^[....n.
007B2A60 8B 7C 24 14 8B CD 2B CF C1 F9 02 8D 04 9D 00 00 .|$...+.........
007B2A70 00 00 3B CB 89 44 24 14 8B CE 73 46 03 C7 50 55 ..;..D$...sF..PU
007B2A80 57 E8 7A FD FF FF 8B 46 08 8B C8 2B CF C1 F9 02 W.z....F...+....
007B2A90 8D 54 24 1C 52 2B D9 53 50 8B CE E8 80 73 EB FF .T$.R+.SP....s..
007B2AA0 8B 44 24 14 01 46 08 8B 76 08 8D 54 24 1C 52 2B .D$..F..v..T$.R+
007B2AB0 F0 56 57 E8 B8 0C D0 FF 83 C4 0C 5D 5F 5E 5B C2 .VW........]_^[.
007B2AC0 0C 00 55 8B DD 2B D8 55 53 E8 32 FD FF FF 55 53 ..U..+.US.2...US
007B2AD0 57 89 46 08 E8 C7 7F D5 FF 8B 4C 24 20 8D 44 24 W.F.......L$ .D$
007B2AE0 28 50 03 CF 51 57 E8 85 0C D0 FF 83 C4 18 5D 5F (P..QW........]_
007B2AF0 5E 5B C2 0C 00 CC CC CC CC CC CC CC CC CC CC CC ^[..............
007B2B00 56 8B F1 E8 38 FD FF FF F6 44 24 08 01 74 09 56 V...8....D$..t.V
007B2B10 E8 B1 24 EE FF 83 C4 04 8B C6 5E C2 04 00 CC CC ..$.......^.....
007B2B20 56 8B F1 E8 B8 FD FF FF F6 44 24 08 01 74 09 56 V........D$..t.V
007B2B30 E8 91 24 EE FF 83 C4 04 8B C6 5E C2 04 00 CC CC ..$.......^.....
007B2B40 6A FF 68 0B 09 88 00 64 A1 00 00 00 00 50 83 EC j.h....d.....P..
007B2B50 08 56 57 A1 88 41 A1 00 33 C4 50 8D 44 24 14 64 .VW..A..3.P.D$.d
007B2B60 A3 00 00 00 00 8B F9 C7 07 F4 93 98 00 8B 0D E0 ................
007B2B70 EB A6 00 85 C9 75 37 6A 10 E8 5A 24 EE FF 83 C4 .....u7j..Z$....
007B2B80 04 85 C0 74 17 C7 40 04 00 00 00 00 C7 40 08 00 ...t..@......@..
007B2B90 00 00 00 C7 40 0C 00 00 00 00 EB 02 33 C0 8B C8 ....@.......3...
007B2BA0 C7 44 24 1C FF FF FF FF 89 0D E0 EB A6 00 8B 71 .D$............q
007B2BB0 04 85 F6 89 7C 24 10 75 04 33 D2 EB 08 8B 51 08 ....|$.u.3....Q.
007B2BC0 2B D6 C1 FA 02 85 F6 74 2C 8B 41 0C 2B C6 C1 F8 +......t,.A.+...
007B2BD0 02 3B D0 73 20 8D 41 08 8B 08 89 39 83 C1 04 89 .;.s .A....9....
007B2BE0 08 8B C7 8B 4C 24 14 64 89 0D 00 00 00 00 59 5F ....L$.d......Y_
007B2BF0 5E 83 C4 14 C3 8B 41 08 8D 54 24 10 52 6A 01 50 ^.....A..T$.Rj.P
007B2C00 E8 3B FD FF FF 8B C7 8B 4C 24 14 64 89 0D 00 00 .;......L$.d....
007B2C10 00 00 59 5F 5E 83 C4 14 C3 CC CC CC CC CC CC CC ..Y_^...........
007B2C20 6A FF 68 38 09 88 00 64 A1 00 00 00 00 50 51 56 j.h8...d.....PQV
007B2C30 A1 88 41 A1 00 33 C4 50 8D 44 24 0C 64 A3 00 00 ..A..3.P.D$.d...
007B2C40 00 00 8B F1 89 74 24 08 E8 F3 FE FF FF 8B 4C 24 .....t$.......L$
007B2C50 20 8B 44 24 1C 51 8D 4E 08 C7 44 24 18 00 00 00  .D$.Q.N..D$....
007B2C60 00 C7 06 FC 93 98 00 89 46 04 FF 15 3C 43 8A 00 ........F...<C..
007B2C70 8B C6 8B 4C 24 0C 64 89 0D 00 00 00 00 59 5E 83 ...L$.d......Y^.
007B2C80 C4 10 C2 08 00 CC CC CC CC CC CC CC CC CC CC CC ................
007B2C90 6A FF 68 68 09 88 00 64 A1 00 00 00 00 50 51 56 j.hh...d.....PQV
007B2CA0 A1 88 41 A1 00 33 C4 50 8D 44 24 0C 64 A3 00 00 ..A..3.P.D$.d...
007B2CB0 00 00 8B F1 E8 87 FE FF FF 8B 44 24 1C 8B 4C 24 ..........D$..L$
007B2CC0 20 89 46 04 33 C0 C7 06 04 94 98 00 89 4E 08 89  .F.3........N..
007B2CD0 46 10 89 46 14 89 46 18 8B C6 8B 4C 24 0C 64 89 F..F..F....L$.d.
007B2CE0 0D 00 00 00 00 59 5E 83 C4 10 C2 08 00 CC CC CC .....Y^.........
007B2CF0 56 8B F1 E8 E8 92 D0 FF F6 44 24 08 01 74 09 56 V........D$..t.V
007B2D00 E8 C1 22 EE FF 83 C4 04 8B C6 5E C2 04 00 CC CC ..".......^.....

;; fn007B2D10: 007B2D10
;;   Called from:
;;     0042B3F7 (in fn0042B310)
fn007B2D10 proc
	push	0FFh
	push	8809B9h
	mov	eax,fs:[0000h]
	push	eax
	sub	esp,4Ch
	push	ebx
	push	esi
	push	edi
	mov	eax,[0A14188h]
	xor	eax,esp
	push	eax
	lea	eax,[esp+5Ch]
	mov	fs:[0000h],eax
	mov	esi,[esp+6Ch]
	xor	ebx,ebx
	push	ebx
	lea	eax,[esp+1Ch]
	push	esi
	push	eax
	call	402A20h
	add	esp,0Ch
	cmp	[esp+18h],ebx
	mov	[esp+64h],ebx
	jnz	7B2D6Ah

l007B2D55:
	xor	al,al
	mov	ecx,[esp+5Ch]
	mov	fs:[0000h],ecx
	pop	ecx
	pop	edi
	pop	esi
	pop	ebx
	add	esp,58h
	ret

l007B2D6A:
	call	4048C0h
	mov	ecx,eax
	call	401700h
	mov	[esp+24h],ebx
	mov	[esp+28h],ebx
	mov	[esp+2Ch],ebx
	mov	edx,[eax]
	mov	edx,[edx+2Ch]
	lea	ecx,[esp+20h]
	push	ecx
	push	esi
	mov	ecx,eax
	mov	byte ptr [esp+6Ch],1h
	call	edx
	xor	edi,edi
	mov	[esp+34h],edi
	mov	[esp+38h],ebx
	mov	[esp+3Ch],ebx
	mov	esi,[esp+24h]
	cmp	esi,[esp+28h]
	mov	byte ptr [esp+64h],2h
	jz	7B2E54h

l007B2DB7:
	jmp	7B2DC0h
007B2DB9                            8D A4 24 00 00 00 00          ..$....

l007B2DC0:
	push	8A6C20h
	lea	ecx,[esp+44h]
	call	dword ptr [8A4334h]
	mov	eax,[esi]
	cmp	eax,ebx
	push	1h
	push	ecx
	mov	ecx,esp
	mov	byte ptr [esp+6Ch],3h
	mov	[esp+24h],esp
	mov	[ecx],eax
	jz	7B2DE9h

l007B2DE5:
	add	dword ptr [eax+4h],1h

l007B2DE9:
	lea	eax,[esp+48h]
	push	eax
	lea	ecx,[esp+20h]
	push	ecx
	call	4100F0h
	add	esp,10h
	lea	ecx,[esp+40h]
	mov	byte ptr [esp+64h],5h
	call	dword ptr [8A4338h]
	lea	edx,[esp+14h]
	push	edx
	lea	ecx,[esp+34h]
	call	414E50h
	mov	ecx,[esp+14h]
	cmp	ecx,ebx
	mov	byte ptr [esp+64h],2h
	jz	7B2E3Fh

l007B2E25:
	mov	edi,ecx
	call	401AE0h
	cmp	eax,1h
	jnz	7B2E3Fh

l007B2E31:
	cmp	edi,ebx
	jz	7B2E3Fh

l007B2E35:
	mov	eax,[edi]
	mov	edx,[eax]
	push	1h
	mov	ecx,edi
	call	edx

l007B2E3F:
	add	esi,4h
	cmp	esi,[esp+28h]
	mov	[esp+14h],ebx
	jnz	7B2DC0h

l007B2E50:
	mov	edi,[esp+34h]

l007B2E54:
	lea	eax,[esp+30h]
	push	eax
	call	7B24E0h
	add	esp,4h
	cmp	edi,ebx
	mov	[esp+13h],al
	mov	byte ptr [esp+64h],1h
	jz	7B2E8Ch

l007B2E6E:
	mov	ecx,[esp+1Ch]
	mov	eax,[esp+38h]
	push	ecx
	lea	edx,[esp+34h]
	push	edx
	push	eax
	push	edi
	call	44F600h
	push	edi
	call	694FC6h
	add	esp,14h

l007B2E8C:
	mov	eax,[esp+24h]
	cmp	eax,ebx
	mov	[esp+64h],bl
	jz	7B2EBAh

l007B2E98:
	mov	ecx,[esp+1Ch]
	push	ecx
	mov	ecx,[esp+2Ch]
	lea	edx,[esp+24h]
	push	edx
	push	ecx
	push	eax
	call	409C80h
	mov	edx,[esp+34h]
	push	edx
	call	694FC6h
	add	esp,14h

l007B2EBA:
	mov	ecx,[esp+18h]
	cmp	ecx,ebx
	mov	[esp+24h],ebx
	mov	[esp+28h],ebx
	mov	[esp+2Ch],ebx
	mov	dword ptr [esp+64h],0FFFFFFFFh
	jz	7B2EF0h

l007B2ED6:
	mov	esi,ecx
	call	401AE0h
	cmp	eax,1h
	jnz	7B2EF0h

l007B2EE2:
	cmp	esi,ebx
	jz	7B2EF0h

l007B2EE6:
	mov	eax,[esi]
	mov	edx,[eax]
	push	1h
	mov	ecx,esi
	call	edx

l007B2EF0:
	mov	al,[esp+13h]
	mov	ecx,[esp+5Ch]
	mov	fs:[0000h],ecx
	pop	ecx
	pop	edi
	pop	esi
	pop	ebx
	add	esp,58h
	ret
007B2F07                      CC CC CC CC CC CC CC CC CC        .........
007B2F10 B8 10 80 00 00 E8 86 23 EE FF A1 88 41 A1 00 33 .......#....A..3
007B2F20 C4 89 84 24 0C 80 00 00 8B 84 24 1C 80 00 00 53 ...$......$....S
007B2F30 8B 9C 24 1C 80 00 00 55 56 8B 35 3C 46 8A 00 57 ..$....UV.5<F..W
007B2F40 8B BC 24 24 80 00 00 57 6A 01 8D 4C 24 18 6A 02 ..$$...Wj..L$.j.
007B2F50 51 89 44 24 28 FF D6 83 C4 10 83 F8 01 0F 85 95 Q.D$(...........
007B2F60 00 00 00 8B 2D 4C 46 8A 00 8D A4 24 00 00 00 00 ....-LF....$....
007B2F70 8B 44 24 10 A9 00 80 00 00 74 29 57 6A 01 8D 54 .D$......t)Wj..T
007B2F80 24 1C 6A 04 52 FF D6 83 C4 10 83 F8 01 75 6D 8B $.j.R........um.
007B2F90 44 24 14 6A 00 50 53 FF D5 8B 44 24 1C 83 C4 0C D$.j.PS...D$....
007B2FA0 8B CB EB 02 8B CF 51 6A 01 25 FF 7F 00 00 50 8D ......Qj.%....P.
007B2FB0 4C 24 28 51 FF D6 83 C4 10 83 F8 01 75 3E 8B 54 L$(Q........u>.T
007B2FC0 24 18 52 50 8B 44 24 18 25 FF 7F 00 00 50 8D 4C $.RP.D$.%....P.L
007B2FD0 24 28 51 FF 15 48 46 8A 00 83 C4 10 83 F8 01 75 $(Q..HF........u
007B2FE0 1B 57 50 8D 54 24 18 6A 02 52 FF D6 83 C4 10 83 .WP.T$.j.R......
007B2FF0 F8 01 0F 84 78 FF FF FF B0 01 EB 02 32 C0 8B 8C ....x.......2...
007B3000 24 1C 80 00 00 5F 5E 5D 5B 33 CC E8 7E 1B EE FF $...._^][3..~...
007B3010 81 C4 10 80 00 00 C3 CC CC CC CC CC CC CC CC CC ................
007B3020 6A FF 68 F2 09 88 00 64 A1 00 00 00 00 50 83 EC j.h....d.....P..
007B3030 3C 53 55 56 57 A1 88 41 A1 00 33 C4 50 8D 44 24 <SUVW..A..3.P.D$
007B3040 50 64 A3 00 00 00 00 8B 5C 24 60 8B CB FF 15 5C Pd......\$`....\
007B3050 43 8A 00 8B F0 83 EE 01 8B FE 8B EE 78 2C 8B FF C...........x,..
007B3060 51 8B C4 8B CB 89 64 24 18 89 30 FF 15 DC 43 8A Q.....d$..0...C.
007B3070 00 8A 00 3C 2E 75 06 8B EF 8B FE EB 08 3C 2F 74 ...<.u.......</t
007B3080 09 3C 5C 74 05 83 EE 01 79 D6 8B C5 2B C7 83 F8 .<\t....y...+...
007B3090 07 75 15 68 0C 94 98 00 50 57 8B CB FF 15 F0 42 .u.h....PW.....B
007B30A0 8A 00 85 C0 75 02 8B FD 57 6A 00 8D 4C 24 20 51 ....u...Wj..L$ Q
007B30B0 8B CB FF 15 40 43 8A 00 8B 4C 24 64 50 C7 44 24 ....@C...L$dP.D$
007B30C0 5C 00 00 00 00 FF 15 58 43 8A 00 83 CE FF 8D 4C \......XC......L
007B30D0 24 18 89 74 24 58 FF 15 38 43 8A 00 8B 15 4C 43 $..t$X..8C....LC
007B30E0 8A 00 8B 02 50 83 C7 01 57 8D 4C 24 3C 51 8B CB ....P...W.L$<Q..
007B30F0 FF 15 40 43 8A 00 8B 4C 24 68 50 C7 44 24 5C 01 ..@C...L$hP.D$\.
007B3100 00 00 00 FF 15 58 43 8A 00 8D 4C 24 34 89 74 24 .....XC...L$4.t$
007B3110 58 FF 15 38 43 8A 00 8B 4C 24 50 64 89 0D 00 00 X..8C...L$Pd....
007B3120 00 00 59 5F 5E 5D 5B 83 C4 48 C3 CC CC CC CC CC ..Y_^][..H......
007B3130 6A FF 68 29 0A 88 00 64 A1 00 00 00 00 50 83 EC j.h)...d.....P..
007B3140 08 53 56 57 A1 88 41 A1 00 33 C4 50 8D 44 24 18 .SVW..A..3.P.D$.
007B3150 64 A3 00 00 00 00 33 FF 89 7C 24 14 F6 05 E8 EB d.....3..|$.....
007B3160 A6 00 01 89 7C 24 20 75 1A 83 0D E8 EB A6 00 01 ....|$ u........
007B3170 68 70 2A 8A 00 89 3D E4 EB A6 00 E8 0C 1B EE FF hp*...=.........
007B3180 83 C4 04 E8 38 17 C5 FF 8B 44 24 2C 57 50 8D 4C ....8....D$,WP.L
007B3190 24 18 51 E8 88 F8 C4 FF 8B 08 8B 5C 24 34 83 C4 $.Q........\$4..
007B31A0 0C 3B CF 89 0B 74 05 E8 24 E9 C4 FF 8B 4C 24 10 .;...t..$....L$.
007B31B0 3B CF 89 7C 24 20 C7 44 24 14 01 00 00 00 74 19 ;..|$ .D$.....t.
007B31C0 8B F1 E8 19 E9 C4 FF 83 F8 01 75 0D 3B F7 74 09 ..........u.;.t.
007B31D0 8B 16 50 8B 02 8B CE FF D0 8B 03 8B 35 E4 EB A6 ..P.........5...
007B31E0 00 3B F0 89 7C 24 10 74 29 3B C7 A3 E4 EB A6 00 .;..|$.t);......
007B31F0 74 07 8B C8 E8 D7 E8 C4 FF 3B F7 74 15 8B CE E8 t........;.t....
007B3200 DC E8 C4 FF 83 F8 01 75 09 8B 16 50 8B 02 8B CE .......u...P....
007B3210 FF D0 8B C3 8B 4C 24 18 64 89 0D 00 00 00 00 59 .....L$.d......Y
007B3220 5F 5E 5B 83 C4 14 C3 CC CC CC CC CC CC CC CC CC _^[.............
007B3230 6A FF 68 DC 0A 88 00 64 A1 00 00 00 00 50 83 EC j.h....d.....P..
007B3240 74 A1 88 41 A1 00 33 C4 89 44 24 70 53 55 56 57 t..A..3..D$pSUVW
007B3250 A1 88 41 A1 00 33 C4 50 8D 84 24 88 00 00 00 64 ..A..3.P..$....d
007B3260 A3 00 00 00 00 8B AC 24 9C 00 00 00 8B 84 24 A0 .......$......$.
007B3270 00 00 00 8B BC 24 98 00 00 00 68 5C 4F 8C 00 8D .....$....h\O...
007B3280 4C 24 6C 55 33 F6 33 DB 51 89 B4 24 9C 00 00 00 L$lU3.3.Q..$....
007B3290 89 7C 24 34 89 44 24 28 89 5C 24 38 FF 15 D4 43 .|$4.D$(.\$8...C
007B32A0 8A 00 8D 54 24 74 52 8D 44 24 24 50 C7 84 24 A4 ...T$tR.D$$P..$.
007B32B0 00 00 00 01 00 00 00 E8 74 FE FF FF 83 C4 14 39 ........t......9
007B32C0 74 24 14 C6 84 24 90 00 00 00 02 0F 85 22 01 00 t$...$......."..
007B32D0 00 6A 40 E8 00 1D EE FF 83 C4 04 89 44 24 18 3B .j@.........D$.;
007B32E0 C6 C6 84 24 90 00 00 00 03 74 76 6A 14 E8 E6 1C ...$.....tvj....
007B32F0 EE FF 83 C4 04 89 44 24 24 3B C6 C6 84 24 90 00 ......D$$;...$..
007B3300 00 00 04 74 14 51 8B D4 89 64 24 24 56 56 8B C8 ...t.Q...d$$VV..
007B3310 89 32 E8 19 75 C6 FF 8B F0 68 14 94 98 00 8D 4C .2..u....h.....L
007B3320 24 34 C6 84 24 94 00 00 00 03 FF 15 34 43 8A 00 $4..$.......4C..
007B3330 85 F6 51 BB 01 00 00 00 8B C4 C6 84 24 94 00 00 ..Q.........$...
007B3340 00 05 89 5C 24 30 89 64 24 24 89 30 74 03 01 5E ...\$0.d$$.0t..^
007B3350 04 8D 4C 24 34 51 8B 4C 24 20 E8 C1 78 C6 FF 8B ..L$4Q.L$ ..x...
007B3360 F0 85 F6 89 74 24 20 74 07 8B CE E8 60 E7 C4 FF ....t$ t....`...
007B3370 8B 44 24 14 3B C6 C7 84 24 90 00 00 00 07 00 00 .D$.;...$.......
007B3380 00 74 2E 85 F6 8B F8 89 74 24 14 74 07 8B CE E8 .t......t$.t....
007B3390 3C E7 C4 FF 85 FF 74 15 8B CF E8 41 E7 C4 FF 83 <.....t....A....
007B33A0 F8 01 75 09 8B 17 50 8B 02 8B CF FF D0 8B 7C 24 ..u...P.......|$
007B33B0 28 85 F6 C6 84 24 90 00 00 00 06 74 15 8B CE E8 (....$.....t....
007B33C0 1C E7 C4 FF 83 F8 01 75 09 8B 16 50 8B 02 8B CE .......u...P....
007B33D0 FF D0 F6 C3 01 C7 84 24 90 00 00 00 02 00 00 00 .......$........
007B33E0 74 11 83 E3 FE 8D 4C 24 30 89 5C 24 2C FF 15 38 t.....L$0.\$,..8
007B33F0 43 8A 00 8B 74 24 1C 8B 4C 24 14 56 57 E8 CE C1 C...t$..L$.VW...
007B3400 C5 FF 83 CB 02 83 3F 00 89 5C 24 2C 0F 85 7D 01 ......?..\$,..}.
007B3410 00 00 68 90 69 8A 00 8D 4C 24 50 55 51 FF 15 D4 ..h.i...L$PUQ...
007B3420 43 8A 00 56 50 8D 54 24 44 52 C6 84 24 A8 00 00 C..VP.T$DR..$...
007B3430 00 08 FF 15 50 43 8A 00 83 C4 18 8B F0 8D 44 24 ....PC........D$
007B3440 18 50 C6 84 24 94 00 00 00 09 E8 71 14 C5 FF 8B .P..$......q....
007B3450 C8 E8 8A F4 C4 FF 8B 00 56 8D 4C 24 28 51 B3 0A ........V.L$(Q..
007B3460 8B C8 88 9C 24 98 00 00 00 E8 62 C1 C5 FF 8B 00 ....$.....b.....
007B3470 8B 0F 3B C8 C6 84 24 90 00 00 00 0B 74 1C 85 C0 ..;...$.....t...
007B3480 89 07 74 04 83 40 04 01 85 C9 74 0E 83 41 04 FF ..t..@....t..A..
007B3490 75 08 8B 11 8B 02 6A 01 FF D0 8B 44 24 24 88 9C u.....j....D$$..
007B34A0 24 90 00 00 00 33 DB 3B C3 74 15 83 40 04 FF 8B $....3.;.t..@...
007B34B0 C8 83 C0 04 39 18 75 08 8B 11 8B 02 6A 01 FF D0 ....9.u.....j...
007B34C0 8B 4C 24 18 3B CB 89 5C 24 24 C6 84 24 90 00 00 .L$.;..\$$..$...
007B34D0 00 09 74 19 8B F1 E8 05 E6 C4 FF 83 F8 01 75 0D ..t...........u.
007B34E0 3B F3 74 09 8B 16 50 8B 02 8B CE FF D0 8D 4C 24 ;.t...P.......L$
007B34F0 30 89 5C 24 18 C6 84 24 90 00 00 00 08 FF 15 38 0.\$...$.......8
007B3500 43 8A 00 8D 4C 24 4C C6 84 24 90 00 00 00 02 FF C...L$L..$......
007B3510 15 38 43 8A 00 39 1F 74 76 8B 44 24 1C 8B 4C 24 .8C..9.tv.D$..L$
007B3520 14 8B 11 8B 52 14 50 8D 44 24 20 50 FF D2 8B 08 ....R.P.D$ P....
007B3530 8B 07 85 C0 51 8B D4 C6 84 24 94 00 00 00 0C 89 ....Q....$......
007B3540 64 24 24 89 02 74 04 83 40 04 01 8B 01 8B 90 A4 d$$..t..@.......
007B3550 00 00 00 FF D2 8B 4C 24 1C 85 C9 C6 84 24 90 00 ......L$.....$..
007B3560 00 00 02 74 1A 8B F1 E8 74 E5 C4 FF 83 F8 01 75 ...t....t......u
007B3570 0E 85 F6 74 0A 8B 06 8B 10 6A 01 8B CE FF D2 8B ...t.....j......
007B3580 4C 24 14 8B 01 8B 40 34 8D 54 24 68 52 FF D0 8B L$....@4.T$hR...
007B3590 4C 24 14 85 C9 C6 84 24 90 00 00 00 01 74 19 8B L$.....$.....t..
007B35A0 F1 E8 3A E5 C4 FF 83 F8 01 75 0D 85 F6 74 09 8B ..:......u...t..
007B35B0 16 50 8B 02 8B CE FF D0 8D 4C 24 68 C7 44 24 14 .P.......L$h.D$.
007B35C0 00 00 00 00 C6 84 24 90 00 00 00 00 FF 15 38 43 ......$.......8C
007B35D0 8A 00 8B C7 8B 8C 24 88 00 00 00 64 89 0D 00 00 ......$....d....
007B35E0 00 00 59 5F 5E 5D 5B 8B 4C 24 70 33 CC E8 9C 15 ..Y_^][.L$p3....
007B35F0 EE FF 81 C4 80 00 00 00 C3 CC CC CC CC CC CC CC ................
007B3600 83 EC 18 A1 88 41 A1 00 33 C4 89 44 24 14 56 8B .....A..3..D$.V.
007B3610 74 24 20 8B C1 83 78 0C 00 57 8B 7C 24 28 74 29 t$ ...x..W.|$(t)
007B3620 85 F6 74 07 66 8B 48 06 66 89 0E 85 FF 74 05 8B ..t.f.H.f....t..
007B3630 50 08 89 17 5F 33 C0 5E 8B 4C 24 14 33 CC E8 4B P..._3.^.L$.3..K
007B3640 15 EE FF 83 C4 18 C2 08 00 8B 00 8D 4C 24 08 51 ............L$.Q
007B3650 8D 54 24 10 52 50 C7 44 24 14 10 00 00 00 E8 2F .T$.RP.D$....../
007B3660 77 07 00 85 C0 75 16 85 F6 74 08 66 8B 4C 24 0E w....u...t.f.L$.
007B3670 66 89 0E 85 FF 74 06 8B 54 24 10 89 17 8B 4C 24 f....t..T$....L$
007B3680 1C 5F 5E 33 CC E8 04 15 EE FF 83 C4 18 C2 08 00 ._^3............
007B3690 81 EC 04 01 00 00 A1 88 41 A1 00 33 C4 89 84 24 ........A..3...$
007B36A0 00 01 00 00 8B 84 24 08 01 00 00 53 8B 9C 24 10 ......$....S..$.
007B36B0 01 00 00 56 57 BF 58 94 98 00 8B F0 B9 05 00 00 ...VW.X.........
007B36C0 00 33 D2 F3 A6 75 2A 68 00 01 00 00 8D 44 24 10 .3...u*h.....D$.
007B36D0 50 E8 06 22 EE FF 8D 4C 24 0C 51 E8 B8 76 07 00 P.."...L$.Q..v..
007B36E0 85 C0 74 2F 8B 50 0C 8B 02 8B 08 89 0B 33 C0 EB ..t/.P.......3..
007B36F0 25 BF C4 22 98 00 8B F0 B9 03 00 00 00 33 D2 F3 %..".........3..
007B3700 A6 75 10 68 01 00 00 7F E8 ED 21 EE FF 89 03 33 .u.h......!....3
007B3710 C0 EB 03 83 C8 FF 8B 8C 24 0C 01 00 00 5F 5E 5B ........$...._^[
007B3720 33 CC E8 67 14 EE FF 81 C4 04 01 00 00 C2 08 00 3..g............
007B3730 6A FF 68 18 0B 88 00 64 A1 00 00 00 00 50 83 EC j.h....d.....P..
007B3740 3C A1 88 41 A1 00 33 C4 89 44 24 38 56 A1 88 41 <..A..3..D$8V..A
007B3750 A1 00 33 C4 50 8D 44 24 44 64 A3 00 00 00 00 8B ..3.P.D$Dd......
007B3760 F1 6A 00 8D 44 24 0C 50 8D 4E 24 C7 44 24 10 00 .j..D$.P.N$.D$..
007B3770 00 00 00 E8 88 FE FF FF 8D 4C 24 0C E8 9F 8B CD .........L$.....
007B3780 FF 80 7E 04 00 C7 44 24 4C 00 00 00 00 0F 94 C1 ..~...D$L.......
007B3790 80 C1 01 80 C9 80 80 3D 31 7B A6 00 00 88 4C 24 .......=1{....L$
007B37A0 18 C6 44 24 19 01 74 07 A1 3C 7B A6 00 EB 20 68 ..D$..t..<{... h
007B37B0 54 94 98 00 FF 15 88 46 8A 00 83 C4 04 85 C0 74 T......F.......t
007B37C0 0C 50 FF 15 8C 46 8A 00 83 C4 04 EB 02 33 C0 80 .P...F.......3..
007B37D0 3D 31 7B A6 00 00 66 89 44 24 1A 74 07 A1 38 7B =1{...f.D$.t..8{
007B37E0 A6 00 EB 06 FF 15 4C 40 8A 00 66 8B 54 24 08 66 ......L@..f.T$.f
007B37F0 89 44 24 1C 66 8B 06 83 C6 34 56 8D 4C 24 28 66 .D$.f....4V.L$(f
007B3800 89 54 24 22 66 89 44 24 24 FF 15 E0 43 8A 00 68 .T$"f.D$$...C..h
007B3810 01 00 00 7F E8 E1 20 EE FF 6A 00 50 6A 00 8D 4C ...... ..j.Pj..L
007B3820 24 18 E8 29 8D 01 00 85 C0 74 14 50 E8 3F E3 C9 $..).....t.P.?..
007B3830 FF 50 68 60 94 98 00 E8 44 D4 D6 FF 83 C4 0C 8D .Ph`....D.......
007B3840 4C 24 0C C7 44 24 4C FF FF FF FF E8 30 8B CD FF L$..D$L.....0...
007B3850 8B 4C 24 44 64 89 0D 00 00 00 00 59 5E 8B 4C 24 .L$Dd......Y^.L$
007B3860 38 33 CC E8 26 13 EE FF 83 C4 48 C3 CC CC CC CC 83..&.....H.....
007B3870 80 79 0C 00 74 10 68 98 94 98 00 E8 00 D4 D6 FF .y..t.h.........
007B3880 83 C4 04 C2 04 00 8B 44 24 04 89 41 08 C2 04 00 .......D$..A....
007B3890 8B 41 24 C3 CC CC CC CC CC CC CC CC CC CC CC CC .A$.............
007B38A0 56 8B 74 24 08 83 FE 1A 7C 05 83 FE 1D 7E 1D 8B V.t$....|....~..
007B38B0 44 24 10 8B 4C 24 14 50 E8 53 18 01 00 50 56 68 D$..L$.P.S...PVh
007B38C0 E8 94 98 00 E8 B7 D3 D6 FF 83 C4 10 5E C2 10 00 ............^...
007B38D0 8B C1 8B 4C 24 04 C7 00 48 95 98 00 89 48 04 C2 ...L$...H....H..
007B38E0 04 00 CC CC CC CC CC CC CC CC CC CC CC CC CC CC ................
007B38F0 C7 01 44 94 98 00 C3 CC CC CC CC CC CC CC CC CC ..D.............
007B3900 83 EC 08 56 8B F1 8B 46 0C 85 C0 0F 84 91 00 00 ...V...F........
007B3910 00 8B 0E 57 6A 00 6A 02 8D 54 24 10 89 4C 24 14 ...Wj.j..T$..L$.
007B3920 C7 44 24 10 07 00 00 00 8B 00 52 50 E8 B1 1F EE .D$.......RP....
007B3930 FF 8B 56 0C 8B 02 6A 00 6A 04 8D 4C 24 14 51 50 ..V...j.j..L$.QP
007B3940 E8 9D 1F EE FF 8B 7C 24 1C 8B 56 0C 8B 02 6A 00 ......|$..V...j.
007B3950 6A 04 8D 4F 04 51 50 E8 86 1F EE FF 8B 4E 0C 8B j..O.QP......N..
007B3960 11 6A 00 6A 02 83 C7 02 57 52 E8 73 1F EE FF 8B .j.j....WR.s....
007B3970 4E 0C 8B 11 6A 00 6A 04 8D 44 24 20 50 52 E8 5F N...j.j..D$ PR._
007B3980 1F EE FF 8B 44 24 18 8B 76 0C 8B 4C 24 14 8B 16 ....D$..v..L$...
007B3990 6A 00 50 51 52 E8 48 1F EE FF 5F 5E 83 C4 08 C2 j.PQR.H..._^....
007B39A0 0C 00 8B 44 24 18 8B 4C 24 14 8B 54 24 10 6A 10 ...D$..L$..T$.j.
007B39B0 50 8B 06 6A 00 51 52 50 E8 E1 73 07 00 5E 83 C4 P..j.QRP..s..^..
007B39C0 08 C2 0C 00 CC CC CC CC CC CC CC CC CC CC CC CC ................
007B39D0 83 EC 1C A1 88 41 A1 00 33 C4 89 44 24 18 56 8B .....A..3..D$.V.
007B39E0 F1 80 7E 20 00 75 12 32 C0 5E 8B 4C 24 18 33 CC ..~ .u.2.^.L$.3.
007B39F0 E8 99 11 EE FF 83 C4 1C C3 53 33 DB 39 5E 08 75 .........S3.9^.u
007B3A00 20 68 20 96 98 00 E8 75 D2 D6 FF 83 C4 04 5B 32  h ....u......[2
007B3A10 C0 5E 8B 4C 24 18 33 CC E8 71 11 EE FF 83 C4 1C .^.L$.3..q......
007B3A20 C3 38 5E 0C 74 20 68 C0 95 98 00 E8 50 D2 D6 FF .8^.t h.....P...
007B3A30 83 C4 04 5B 32 C0 5E 8B 4C 24 18 33 CC E8 4C 11 ...[2.^.L$.3..L.
007B3A40 EE FF 83 C4 1C C3 8B 56 1C 8D 44 24 10 50 68 00 .......V..D$.Ph.
007B3A50 00 01 00 8D 4E 24 52 C6 46 0C 01 E8 E0 8D CD FF ....N$R.F.......
007B3A60 83 F8 FF 75 3D E8 7E 1E EE FF 3D 33 27 00 00 74 ...u=.~...=3'..t
007B3A70 1B 3D 4D 27 00 00 74 14 3D 46 27 00 00 74 0D 68 .=M'..t.=F'..t.h
007B3A80 8C 95 98 00 E8 F7 D1 D6 FF 83 C4 04 88 5E 0C 5B .............^.[
007B3A90 32 C0 5E 8B 4C 24 18 33 CC E8 F0 10 EE FF 83 C4 2.^.L$.3........
007B3AA0 1C C3 83 F8 08 55 8B 6E 1C 7D 24 68 58 95 98 00 .....U.n.}$hX...
007B3AB0 E8 CB D1 D6 FF 83 C4 04 5D 88 5E 0C 5B 32 C0 5E ........].^.[2.^
007B3AC0 8B 4C 24 18 33 CC E8 C3 10 EE FF 83 C4 1C C3 8B .L$.3...........
007B3AD0 55 00 83 FA 10 57 74 3E 83 FA 14 74 39 83 FA 11 U....Wt>...t9...
007B3AE0 74 34 8B 4C 24 1C 66 89 5C 24 16 89 4C 24 10 66 t4.L$.f.\$..L$.f
007B3AF0 8B 4C 24 1A 8D 5C 24 10 53 83 C0 FC 66 89 4C 24 .L$..\$.S...f.L$
007B3B00 18 8B 4E 08 8B 39 50 83 C5 04 55 52 8B 57 0C FF ..N..9P...UR.W..
007B3B10 D2 E9 80 00 00 00 8B 46 10 C7 00 12 00 00 00 8B .......F........
007B3B20 4E 10 89 59 04 8B 56 10 83 C2 08 89 56 14 88 5E N..Y..V.....V..^
007B3B30 18 8B 45 00 83 E8 10 74 0A 83 E8 01 74 71 83 E8 ..E....t....tq..
007B3B40 03 75 3C 39 5D 04 8D 7D 08 7E 34 EB 03 8D 49 00 .u<9]..}.~4...I.
007B3B50 F6 45 00 04 8B 4E 08 8B 01 8B 40 04 0F 9F C2 52 .E...N....@....R
007B3B60 57 FF D0 8B C7 8D 50 01 8A 08 83 C0 01 84 C9 75 W.....P........u
007B3B70 F7 2B C2 83 C3 01 3B 5D 04 8D 7C 07 01 7C D1 8B .+....;]..|..|..
007B3B80 46 10 8B 56 14 8D 4C 24 18 51 2B D0 52 50 8D 4E F..V..L$.Q+.RP.N
007B3B90 24 E8 6A FD FF FF 8B 4C 24 28 5F 5D 5B C6 46 0C $.j....L$(_][.F.
007B3BA0 00 5E 33 CC B0 01 E8 E3 0F EE FF 83 C4 1C C3 39 .^3............9
007B3BB0 5D 04 8D 55 08 7E C8 8B C2 8D 78 01 8D 64 24 00 ]..U.~....x..d$.
007B3BC0 8A 08 83 C0 01 84 C9 75 F7 8B 4E 08 2B C7 8D 7C .......u..N.+..|
007B3BD0 10 01 8B 01 57 52 8B 50 08 FF D2 8B C7 8D 48 01 ....WR.P......H.
007B3BE0 8A 10 83 C0 01 84 D2 75 F7 2B C1 83 C3 01 3B 5D .......u.+....;]
007B3BF0 04 8D 54 38 01 7C C0 EB 86 CC CC CC CC CC CC CC ..T8.|..........
007B3C00 F6 44 24 04 01 56 8B F1 C7 06 44 94 98 00 74 09 .D$..V....D...t.
007B3C10 56 E8 B0 13 EE FF 83 C4 04 8B C6 5E C2 04 00 CC V..........^....
007B3C20 81 EC 88 00 00 00 A1 88 41 A1 00 33 C4 89 84 24 ........A..3...$
007B3C30 84 00 00 00 53 55 56 57 6A 01 8D 44 24 17 50 8B ....SUVWj..D$.P.
007B3C40 F1 8B 4E 24 6A 20 8D 7E 24 68 FF FF 00 00 51 33 ..N$j .~$h....Q3
007B3C50 DB 33 ED C6 44 24 27 01 E8 B5 1C EE FF 85 C0 74 .3..D$'........t
007B3C60 16 68 08 97 98 00 FF 15 2C 46 8A 00 83 C4 04 83 .h......,F......
007B3C70 C8 FF E9 05 01 00 00 38 1D 31 7B A6 00 89 5C 24 .......8.1{...\$
007B3C80 24 74 07 A1 3C 7B A6 00 EB 20 68 54 94 98 00 FF $t..<{... hT....
007B3C90 15 88 46 8A 00 83 C4 04 3B C3 74 0C 50 FF 15 8C ..F.....;.t.P...
007B3CA0 46 8A 00 83 C4 04 EB 02 33 C0 38 9C 24 A0 00 00 F.......3.8.$...
007B3CB0 00 8B 94 24 9C 00 00 00 89 44 24 28 89 54 24 2C ...$.....D$(.T$,
007B3CC0 74 32 8B 06 89 44 24 30 8D 46 34 8D 54 24 34 2B t2...D$0.F4.T$4+
007B3CD0 D0 8A 08 88 0C 02 83 C0 01 3A CB 75 F4 8D 46 54 .........:.u..FT
007B3CE0 8D 54 24 54 2B D0 8A 08 88 0C 02 83 C0 01 3A CB .T$T+.........:.
007B3CF0 75 F4 EB 10 C7 44 24 30 FF FF FF FF 88 5C 24 34 u....D$0.....\$4
007B3D00 88 5C 24 54 68 31 4E 00 00 66 C7 44 24 18 02 00 .\$Th1N..f.D$...
007B3D10 E8 F1 1B EE FF 8D 4C 24 14 51 6A 70 8D 54 24 2C ......L$.Qjp.T$,
007B3D20 52 8B CF 66 89 44 24 22 C7 44 24 24 FF FF FF FF R..f.D$".D$$....
007B3D30 E8 CB FB FF FF 83 F8 70 8B 35 2C 46 8A 00 74 0D .......p.5,F..t.
007B3D40 68 D0 96 98 00 FF D6 83 C4 04 83 CD FF 8B 0F 6A h..............j
007B3D50 01 8D 44 24 17 50 6A 20 68 FF FF 00 00 51 88 5C ..D$.Pj h....Q.\
007B3D60 24 27 E8 AB 1B EE FF 85 C0 74 0F 68 88 96 98 00 $'.......t.h....
007B3D70 FF D6 83 C4 04 83 C8 FF EB 02 8B C5 8B 8C 24 94 ..............$.
007B3D80 00 00 00 5F 5E 5D 5B 33 CC E8 00 0E EE FF 81 C4 ..._^][3........
007B3D90 88 00 00 00 C2 08 00 CC CC CC CC CC CC CC CC CC ................
007B3DA0 53 56 8B F1 33 DB 68 00 00 01 00 C7 06 FF FF FF SV..3.h.........
007B3DB0 FF 88 5E 04 89 5E 08 88 5E 0C E8 CA 0D EE FF 68 ..^..^..^......h
007B3DC0 00 00 01 00 89 46 10 89 5E 14 88 5E 18 E8 B7 0D .....F..^..^....
007B3DD0 EE FF 89 46 1C 88 5E 20 83 C4 08 88 5E 28 88 5E ...F..^ ....^(.^
007B3DE0 29 66 89 5E 2A 89 5E 2C 89 5E 30 C7 46 24 FF FF )f.^*.^,.^0.F$..
007B3DF0 FF FF 8B C6 5E 5B C3 CC CC CC CC CC CC CC CC CC ....^[..........
007B3E00 6A FF 68 4B 0B 88 00 64 A1 00 00 00 00 50 51 53 j.hK...d.....PQS
007B3E10 56 57 A1 88 41 A1 00 33 C4 50 8D 44 24 14 64 A3 VW..A..3.P.D$.d.
007B3E20 00 00 00 00 8B F1 89 74 24 10 33 DB 38 5E 04 89 .......t$.3.8^..
007B3E30 5C 24 1C 74 17 6A 01 6A 01 E8 E2 FD FF FF 85 C0 \$.t.j.j........
007B3E40 75 0A 8B CE 88 5E 04 E8 E4 F8 FF FF 83 7E 24 FF u....^.......~$.
007B3E50 8D 7E 24 74 26 8B 07 50 E8 A3 1A EE FF 85 C0 75 .~$t&..P.......u
007B3E60 1A 83 3F FF 74 0F 39 1D A8 EC A6 00 74 07 8B CF ..?.t.9.....t...
007B3E70 E8 EB 9F C8 FF C7 07 FF FF FF FF 8B 46 1C 3B C3 ............F.;.
007B3E80 74 0C 50 E8 92 11 EE FF 83 C4 04 89 5E 1C 8B 46 t.P.........^..F
007B3E90 10 3B C3 74 0C 50 E8 7F 11 EE FF 83 C4 04 89 5E .;.t.P.........^
007B3EA0 10 8B 0F 51 E8 57 1A EE FF 85 C0 75 1A 83 3F FF ...Q.W.....u..?.
007B3EB0 74 0F 39 1D A8 EC A6 00 74 07 8B CF E8 9F 9F C8 t.9.....t.......
007B3EC0 FF C7 07 FF FF FF FF 8B 4C 24 14 64 89 0D 00 00 ........L$.d....
007B3ED0 00 00 59 5F 5E 5B 83 C4 10 C3 CC CC CC CC CC CC ..Y_^[..........
007B3EE0 C7 01 4C 97 98 00 C3 CC CC CC CC CC CC CC CC CC ..L.............
007B3EF0 F6 44 24 04 01 56 8B F1 C7 06 4C 97 98 00 74 09 .D$..V....L...t.
007B3F00 56 E8 C0 10 EE FF 83 C4 04 8B C6 5E C2 04 00 CC V..........^....
007B3F10 6A FF 68 91 0B 88 00 64 A1 00 00 00 00 50 51 53 j.h....d.....PQS
007B3F20 56 57 A1 88 41 A1 00 33 C4 50 8D 44 24 14 64 A3 VW..A..3.P.D$.d.
007B3F30 00 00 00 00 8B F1 89 74 24 10 8D 7E 04 8B CF E8 .......t$..~....
007B3F40 5C FE FF FF 8D 9E 98 00 00 00 57 8B CB C7 44 24 \.........W...D$
007B3F50 20 01 00 00 00 C7 06 54 97 98 00 E8 70 F9 FF FF  ......T....p...
007B3F60 53 8B CF C6 44 24 20 02 E8 03 F9 FF FF 8B C6 8B S...D$ .........
007B3F70 4C 24 14 64 89 0D 00 00 00 00 59 5F 5E 5B 83 C4 L$.d......Y_^[..
007B3F80 10 C3 CC CC CC CC CC CC CC CC CC CC CC CC CC CC ................
007B3F90 56 8B F1 8D 4E 04 C7 86 98 00 00 00 44 94 98 00 V...N.......D...
007B3FA0 C7 06 4C 97 98 00 E8 55 FE FF FF F6 44 24 08 01 ..L....U....D$..
007B3FB0 74 09 56 E8 0E 10 EE FF 83 C4 04 8B C6 5E C2 04 t.V..........^..
007B3FC0 00 CC CC CC CC CC CC CC CC CC CC CC CC CC CC CC ................
007B3FD0 6A FF 68 BE 0B 88 00 64 A1 00 00 00 00 50 A1 88 j.h....d.....P..
007B3FE0 41 A1 00 33 C4 50 8D 44 24 04 64 A3 00 00 00 00 A..3.P.D$.d.....
007B3FF0 B8 01 00 00 00 84 05 98 EC A6 00 75 25 09 05 98 ...........u%...
007B4000 EC A6 00 B9 F8 EB A6 00 C7 44 24 0C 00 00 00 00 .........D$.....
007B4010 E8 FB FE FF FF 68 B0 2A 8A 00 E8 6D 0C EE FF 83 .....h.*...m....
007B4020 C4 04 B8 F8 EB A6 00 8B 4C 24 04 64 89 0D 00 00 ........L$.d....
007B4030 00 00 59 83 C4 0C C3 CC CC CC CC CC CC CC CC CC ..Y.............
007B4040 83 C1 04 E8 48 F8 FF FF 39 44 24 04 75 0F E8 7D ....H...9D$.u..}
007B4050 FF FF FF 8B C8 83 C1 04 E8 73 F9 FF FF 33 C0 C2 .........s...3..
007B4060 04 00 CC CC CC CC CC CC CC CC CC CC CC CC CC CC ................
007B4070 80 B9 B9 00 00 00 00 75 0C 80 B9 BA 00 00 00 00 .......u........
007B4080 75 03 33 C0 C3 B8 01 00 00 00 C3 CC CC CC CC CC u.3.............
007B4090 8B 44 24 04 8B 50 0C 89 51 08 C6 41 04 01 32 C0 .D$..P..Q..A..2.
007B40A0 C2 08 00 CC CC CC CC CC CC CC CC CC CC CC CC CC ................
007B40B0 8A 44 24 04 88 81 A4 00 00 00 C2 04 00 CC CC CC .D$.............
007B40C0 8D 81 8C 00 00 00 C3 CC CC CC CC CC CC CC CC CC ................
007B40D0 C6 41 04 01 32 C0 C2 08 00 CC CC CC CC CC CC CC .A..2...........
007B40E0 8B 44 24 04 C7 40 10 02 00 00 00 C2 04 00 CC CC .D$..@..........
007B40F0 33 C0 39 81 C0 00 00 00 56 C7 81 C8 02 00 00 00 3.9.....V.......
007B4100 00 00 00 76 29 8D 91 C4 00 00 00 EB 03 8D 49 00 ...v).........I.
007B4110 8B 32 3B B1 C8 02 00 00 7E 06 89 B1 C8 02 00 00 .2;.....~.......
007B4120 83 C0 01 83 C2 04 3B 81 C0 00 00 00 72 E2 33 C0 ......;.....r.3.
007B4130 39 81 C4 01 00 00 76 26 8D 91 C8 01 00 00 8B FF 9.....v&........
007B4140 8B 32 3B B1 C8 02 00 00 7E 06 89 B1 C8 02 00 00 .2;.....~.......
007B4150 83 C0 01 83 C2 04 3B 81 C4 01 00 00 72 E2 5E C3 ......;.....r.^.
007B4160 83 C1 08 FF 25 38 43 8A 00 CC CC CC CC CC CC CC ....%8C.........
007B4170 8B 44 24 04 8B 08 80 79 1D 00 75 0E 8D 64 24 00 .D$....y..u..d$.
007B4180 8B C1 8B 08 80 79 1D 00 74 F6 C3 CC CC CC CC CC .....y..t.......
007B4190 8B 54 24 04 8B 02 56 8B 70 08 89 32 8B 70 08 80 .T$...V.p..2.p..
007B41A0 7E 1D 00 75 03 89 56 04 8B 72 04 89 70 04 8B 49 ~..u..V..r..p..I
007B41B0 04 3B 51 04 5E 75 0C 89 41 04 89 50 08 89 42 04 .;Q.^u..A..P..B.
007B41C0 C2 04 00 8B 4A 04 3B 51 08 75 0C 89 41 08 89 50 ....J.;Q.u..A..P
007B41D0 08 89 42 04 C2 04 00 89 01 89 50 08 89 42 04 C2 ..B.......P..B..
007B41E0 04 00 CC CC CC CC CC CC CC CC CC CC CC CC CC CC ................
007B41F0 8B 54 24 04 8B 02 56 8B 70 08 89 32 8B 70 08 80 .T$...V.p..2.p..
007B4200 7E 29 00 75 03 89 56 04 8B 72 04 89 70 04 8B 49 ~).u..V..r..p..I
007B4210 04 3B 51 04 5E 75 0C 89 41 04 89 50 08 89 42 04 .;Q.^u..A..P..B.
007B4220 C2 04 00 8B 4A 04 3B 51 08 75 0C 89 41 08 89 50 ....J.;Q.u..A..P
007B4230 08 89 42 04 C2 04 00 89 01 89 50 08 89 42 04 C2 ..B.......P..B..
007B4240 04 00 CC CC CC CC CC CC CC CC CC CC CC CC CC CC ................
007B4250 8B 54 24 04 8B 02 56 8B 70 08 89 32 8B 70 08 80 .T$...V.p..2.p..
007B4260 7E 51 00 75 03 89 56 04 8B 72 04 89 70 04 8B 49 ~Q.u..V..r..p..I
007B4270 04 3B 51 04 5E 75 0C 89 41 04 89 50 08 89 42 04 .;Q.^u..A..P..B.
007B4280 C2 04 00 8B 4A 04 3B 51 08 75 0C 89 41 08 89 50 ....J.;Q.u..A..P
007B4290 08 89 42 04 C2 04 00 89 01 89 50 08 89 42 04 C2 ..B.......P..B..
007B42A0 04 00 CC CC CC CC CC CC CC CC CC CC CC CC CC CC ................
007B42B0 8B 44 24 04 8B 48 08 80 79 19 00 75 0E 8D 49 00 .D$..H..y..u..I.
007B42C0 8B C1 8B 48 08 80 79 19 00 74 F5 C3 CC CC CC CC ...H..y..t......
007B42D0 6A FF 68 F4 0B 88 00 64 A1 00 00 00 00 50 51 56 j.h....d.....PQV
007B42E0 A1 88 41 A1 00 33 C4 50 8D 44 24 0C 64 A3 00 00 ..A..3.P.D$.d...
007B42F0 00 00 8B F1 89 74 24 08 E8 23 80 CD FF 8D 4E 34 .....t$..#....N4
007B4300 C7 44 24 14 00 00 00 00 C7 06 B0 97 98 00 FF 15 .D$.............
007B4310 B0 43 8A 00 8D 4E 50 C6 44 24 14 01 FF 15 B0 43 .C...NP.D$.....C
007B4320 8A 00 C6 46 04 04 8B C6 8B 4C 24 0C 64 89 0D 00 ...F.....L$.d...
007B4330 00 00 00 59 5E 83 C4 10 C3 CC CC CC CC CC CC CC ...Y^...........
007B4340 6A FF 68 24 0C 88 00 64 A1 00 00 00 00 50 51 56 j.h$...d.....PQV
007B4350 A1 88 41 A1 00 33 C4 50 8D 44 24 0C 64 A3 00 00 ..A..3.P.D$.d...
007B4360 00 00 8B F1 89 74 24 08 C7 06 B0 97 98 00 8D 4E .....t$........N
007B4370 50 C7 44 24 14 01 00 00 00 FF 15 38 43 8A 00 8D P.D$.......8C...
007B4380 4E 34 C6 44 24 14 00 FF 15 38 43 8A 00 8B CE C7 N4.D$....8C.....
007B4390 44 24 14 FF FF FF FF E8 E4 7F CD FF 8B 4C 24 0C D$...........L$.
007B43A0 64 89 0D 00 00 00 00 59 5E 83 C4 10 C3 CC CC CC d......Y^.......
007B43B0 56 8B F1 E8 88 FF FF FF F6 44 24 08 01 74 09 56 V........D$..t.V
007B43C0 E8 01 0C EE FF 83 C4 04 8B C6 5E C2 04 00 CC CC ..........^.....
007B43D0 F6 44 24 04 01 56 8B F1 C7 06 C0 97 98 00 74 09 .D$..V........t.
007B43E0 56 E8 E0 0B EE FF 83 C4 04 8B C6 5E C2 04 00 CC V..........^....
007B43F0 C7 01 C0 97 98 00 C3 CC CC CC CC CC CC CC CC CC ................
007B4400 8B 51 08 8B 44 24 04 89 10 8B 49 0C 89 48 04 B0 .Q..D$....I..H..
007B4410 01 C2 04 00 CC CC CC CC CC CC CC CC CC CC CC CC ................
007B4420 0F 31 89 41 10 89 51 14 C3 CC CC CC CC CC CC CC .1.A..Q.........
007B4430 0F 31 2B 41 10 1B 51 14 01 41 08 11 51 0C 80 7C .1+A..Q..A..Q..|
007B4440 24 04 00 74 41 8B 51 0C 3B 51 24 8B 41 08 72 0D $..tA.Q.;Q$.A.r.
007B4450 77 05 3B 41 20 76 06 89 41 20 89 51 24 3B 51 1C w.;A v..A .Q$;Q.
007B4460 77 0D 72 05 3B 41 18 73 06 89 41 18 89 51 1C 01 w.r.;A.s..A..Q..
007B4470 01 C7 41 08 00 00 00 00 C7 41 0C 00 00 00 00 11 ..A......A......
007B4480 51 04 83 41 28 01 C2 04 00 CC CC CC CC CC CC CC Q..A(...........
007B4490 8B 01 80 78 51 00 75 42 8B 50 08 80 7A 51 00 75 ...xQ.uB.P..zQ.u
007B44A0 1C 8B 02 80 78 51 00 75 11 8D A4 24 00 00 00 00 ....xQ.u...$....
007B44B0 8B D0 8B 02 80 78 51 00 74 F6 89 11 C3 8B 40 04 .....xQ.t.....@.
007B44C0 80 78 51 00 75 12 8B 11 3B 50 08 75 0B 89 01 8B .xQ.u...;P.u....
007B44D0 40 04 80 78 51 00 74 EE 89 01 C3 CC CC CC CC CC @..xQ.t.........
007B44E0 6A FF 68 49 0C 88 00 64 A1 00 00 00 00 50 83 EC j.hI...d.....P..
007B44F0 44 A1 88 41 A1 00 33 C4 50 8D 44 24 48 64 A3 00 D..A..3.P.D$Hd..
007B4500 00 00 00 68 98 69 8A 00 8D 4C 24 08 FF 15 34 43 ...h.i...L$...4C
007B4510 8A 00 8D 44 24 04 50 8D 4C 24 24 C7 44 24 54 00 ...D$.P.L$$.D$T.
007B4520 00 00 00 E8 B8 D4 C4 FF 68 68 9C 99 00 8D 4C 24 ........hh....L$
007B4530 24 51 C7 44 24 28 30 00 99 00 E8 8D 0A EE FF CC $Q.D$(0.........
007B4540 6A FF 68 79 0C 88 00 64 A1 00 00 00 00 50 83 EC j.hy...d.....P..
007B4550 44 A1 88 41 A1 00 33 C4 50 8D 44 24 48 64 A3 00 D..A..3.P.D$Hd..
007B4560 00 00 00 68 98 69 8A 00 8D 4C 24 08 FF 15 34 43 ...h.i...L$...4C
007B4570 8A 00 8D 44 24 04 50 8D 4C 24 24 C7 44 24 54 00 ...D$.P.L$$.D$T.
007B4580 00 00 00 E8 58 D4 C4 FF 68 68 9C 99 00 8D 4C 24 ....X...hh....L$
007B4590 24 51 C7 44 24 28 30 00 99 00 E8 2D 0A EE FF CC $Q.D$(0....-....
007B45A0 8B 01 80 78 1D 00 75 42 8B 50 08 80 7A 1D 00 75 ...x..uB.P..z..u
007B45B0 1C 8B 02 80 78 1D 00 75 11 8D A4 24 00 00 00 00 ....x..u...$....
007B45C0 8B D0 8B 02 80 78 1D 00 74 F6 89 11 C3 8B 40 04 .....x..t.....@.
007B45D0 80 78 1D 00 75 12 8B 11 3B 50 08 75 0B 89 01 8B .x..u...;P.u....
007B45E0 40 04 80 78 1D 00 74 EE 89 01 C3 CC CC CC CC CC @..x..t.........
007B45F0 8B 41 0C 8D 50 FE 83 FA 04 7D 05 32 C0 C2 04 00 .A..P....}.2....
007B4600 83 41 10 04 83 C0 FC 89 41 0C 8B 44 08 48 8B 4C .A......A..D.H.L
007B4610 24 04 89 01 B0 01 C2 04 00 CC CC CC CC CC CC CC $...............
007B4620 8B 41 0C 8D 50 FE 83 FA 01 7D 05 32 C0 C2 04 00 .A..P....}.2....
007B4630 83 41 10 01 83 C0 FF 89 41 0C 8A 44 08 48 8B 4C .A......A..D.H.L
007B4640 24 04 88 01 B0 01 C2 04 00 CC CC CC CC CC CC CC $...............
007B4650 8B 54 24 04 8B 02 56 8B 74 24 0C 8B 0E 3B C1 72 .T$...V.t$...;.r
007B4660 37 75 0C 57 66 8B 7A 04 66 3B 7E 04 5F 72 29 3B 7u.Wf.z.f;~._r);
007B4670 C8 72 21 75 0A 66 8B 46 04 66 3B 42 04 72 15 83 .r!u.f.F.f;B.r..
007B4680 C6 08 83 C2 08 56 52 FF 15 0C 44 8A 00 83 C4 08 .....VR...D.....
007B4690 84 C0 75 04 33 C0 5E C3 B8 01 00 00 00 5E C3 CC ..u.3.^......^..
007B46A0 8B 54 24 04 8B 42 08 56 8B 30 89 72 08 8B 30 80 .T$..B.V.0.r..0.
007B46B0 7E 19 00 75 03 89 56 04 8B 72 04 89 70 04 8B 49 ~..u..V..r..p..I
007B46C0 04 3B 51 04 5E 75 0B 89 41 04 89 10 89 42 04 C2 .;Q.^u..A....B..
007B46D0 04 00 8B 4A 04 3B 11 75 0A 89 01 89 10 89 42 04 ...J.;.u......B.
007B46E0 C2 04 00 89 41 08 89 10 89 42 04 C2 04 00 CC CC ....A....B......
007B46F0 8B 49 40 0F B6 44 24 08 8D 04 40 8D 04 C1 8B 4C .I@..D$...@....L
007B4700 24 04 8B 11 89 10 8B 51 04 89 50 04 8B 51 08 89 $......Q..P..Q..
007B4710 50 08 8B 54 24 0C 89 50 0C C2 0C 00 CC CC CC CC P..T$..P........
007B4720 53 56 57 8B D9 0F 31 8B FA 8B F0 E8 F0 23 E7 FF SVW...1......#..
007B4730 6A 00 6A 0A 52 50 E8 A5 08 EE FF 2B 73 10 1B 7B j.j.RP.....+s..{
007B4740 14 3B FA 72 0F 77 04 3B F0 76 09 5F 5E B8 01 00 .;.r.w.;.v._^...
007B4750 00 00 5B C3 5F 5E 33 C0 5B C3 CC CC CC CC CC CC ..[._^3.[.......
007B4760 8B 54 24 04 8B 02 56 8B 74 24 0C 8B 0E 3B C1 72 .T$...V.t$...;.r
007B4770 12 75 0A 66 8B 42 04 66 3B 46 04 72 06 33 C0 5E .u.f.B.f;F.r.3.^
007B4780 C2 08 00 B8 01 00 00 00 5E C2 08 00 CC CC CC CC ........^.......
007B4790 8B 54 24 04 8B 42 08 56 8B 74 24 0C 8B 4E 08 3B .T$..B.V.t$..N.;
007B47A0 C1 72 1C 75 14 8B 02 8B 0E 3B C1 72 12 75 0A 66 .r.u.....;.r.u.f
007B47B0 8B 42 04 66 3B 46 04 72 06 33 C0 5E C2 08 00 B8 .B.f;F.r.3.^....
007B47C0 01 00 00 00 5E C2 08 00 CC CC CC CC CC CC CC CC ....^...........
007B47D0 8B 44 24 08 85 C0 56 74 05 8D 70 04 EB 02 33 F6 .D$...Vt..p...3.
007B47E0 8B 44 24 08 85 C0 74 05 83 C0 04 EB 02 33 C0 8B .D$...t......3..
007B47F0 48 08 8B 56 08 3B CA 7C 1C 75 14 8B 08 8B 16 3B H..V.;.|.u.....;
007B4800 CA 72 12 75 0A 66 8B 40 04 66 3B 46 04 72 06 33 .r.u.f.@.f;F.r.3
007B4810 C0 5E C2 08 00 B8 01 00 00 00 5E C2 08 00 CC CC .^........^.....
007B4820 8B 54 24 04 8B 42 08 56 8B 30 89 72 08 8B 30 80 .T$..B.V.0.r..0.
007B4830 7E 51 00 75 03 89 56 04 8B 72 04 89 70 04 8B 49 ~Q.u..V..r..p..I
007B4840 04 3B 51 04 5E 75 0B 89 41 04 89 10 89 42 04 C2 .;Q.^u..A....B..
007B4850 04 00 8B 4A 04 3B 11 75 0A 89 01 89 10 89 42 04 ...J.;.u......B.
007B4860 C2 04 00 89 41 08 89 10 89 42 04 C2 04 00 CC CC ....A....B......
007B4870 8B 44 24 08 8B 4C 24 04 50 51 E8 D1 FD FF FF 83 .D$..L$.PQ......
007B4880 C4 08 C2 08 00 CC CC CC CC CC CC CC CC CC CC CC ................
007B4890 8B 41 04 8B 48 04 80 79 19 00 75 2C 56 57 8B 7C .A..H..y..u,VW.|
007B48A0 24 0C 8B 37 8B 51 0C 3B D6 72 0C 75 0F 66 8B 51 $..7.Q.;.r.u.f.Q
007B48B0 10 66 3B 57 04 73 05 8B 49 08 EB 04 8B C1 8B 09 .f;W.s..I.......
007B48C0 80 79 19 00 74 DE 5F 5E C2 04 00 CC CC CC CC CC .y..t._^........
007B48D0 8B 41 04 8B 48 04 80 79 1D 00 75 3A 53 56 57 8B .A..H..y..u:SVW.
007B48E0 7C 24 10 8B 5F 08 8B 51 14 3B D3 72 17 75 1A 8B |$.._..Q.;.r.u..
007B48F0 51 0C 8B 37 3B D6 72 0C 75 0F 66 8B 51 10 66 3B Q..7;.r.u.f.Q.f;
007B4900 57 04 73 05 8B 49 08 EB 04 8B C1 8B 09 80 79 1D W.s..I........y.
007B4910 00 74 D3 5F 5E 5B C2 04 00 CC CC CC CC CC CC CC .t._^[..........
007B4920 8B 15 D0 EC A6 00 8B 44 24 04 8B 0D E4 B7 98 00 .......D$.......
007B4930 56 6A FF 52 8D 34 01 FF 15 F4 40 8A 00 A1 C8 EC Vj.R.4....@.....
007B4940 A6 00 85 C0 C6 05 D4 EC A6 00 01 74 0B 8B F0 8B ...........t....
007B4950 00 A3 C8 EC A6 00 EB 12 56 E8 2B 02 EE FF 83 C4 ........V.+.....
007B4960 04 83 05 CC EC A6 00 01 8B F0 8B 0D D0 EC A6 00 ................
007B4970 51 C6 05 D4 EC A6 00 00 FF 15 F0 40 8A 00 8B C6 Q..........@....
007B4980 5E C3 CC CC CC CC CC CC CC CC CC CC CC CC CC CC ^...............
007B4990 A1 D0 EC A6 00 6A FF 50 FF 15 F4 40 8A 00 8B 44 .....j.P...@...D
007B49A0 24 04 8B 0D C8 EC A6 00 89 08 8B 15 D0 EC A6 00 $...............
007B49B0 52 A3 C8 EC A6 00 C6 05 D4 EC A6 00 00 FF 15 F0 R...............
007B49C0 40 8A 00 C3 CC CC CC CC CC CC CC CC CC CC CC CC @...............
007B49D0 8B 41 04 8B 48 04 80 79 19 00 75 3A 53 56 57 8B .A..H..y..u:SVW.
007B49E0 7C 24 10 8B 5F 08 8B 51 14 3B D3 7C 17 75 1A 8B |$.._..Q.;.|.u..
007B49F0 51 0C 8B 37 3B D6 72 0C 75 0F 66 8B 51 10 66 3B Q..7;.r.u.f.Q.f;
007B4A00 57 04 73 05 8B 49 08 EB 04 8B C1 8B 09 80 79 19 W.s..I........y.
007B4A10 00 74 D3 5F 5E 5B C2 04 00 CC CC CC CC CC CC CC .t._^[..........
007B4A20 8B 41 04 53 8B 58 04 80 7B 29 00 75 52 55 8B 6C .A.S.X..{).uRU.l
007B4A30 24 0C 56 57 85 ED 8D 4B 0C 74 05 8D 7D 04 EB 02 $.VW...K.t..}...
007B4A40 33 FF 85 C9 74 05 83 C1 04 EB 02 33 C9 8B 51 08 3...t......3..Q.
007B4A50 8B 77 08 3B D6 7C 16 75 19 8B 11 8B 37 3B D6 72 .w.;.|.u....7;.r
007B4A60 0C 75 0F 66 8B 49 04 66 3B 4F 04 73 05 8B 5B 08 .u.f.I.f;O.s..[.
007B4A70 EB 04 8B C3 8B 1B 80 7B 29 00 74 B8 5F 5E 5D 5B .......{).t._^][
007B4A80 C2 04 00 CC CC CC CC CC CC CC CC CC CC CC CC CC ................
007B4A90 8B 41 04 53 56 8B 70 04 80 7E 51 00 8B D8 75 59 .A.SV.p..~Q...uY
007B4AA0 55 8B 2D 0C 44 8A 00 57 8B 7C 24 14 8D 64 24 00 U.-.D..W.|$..d$.
007B4AB0 8B 46 10 8B 0F 3B C1 72 2D 75 0A 66 8B 56 14 66 .F...;.r-u.f.V.f
007B4AC0 3B 57 04 72 21 3B C8 72 22 75 0A 66 8B 47 04 66 ;W.r!;.r"u.f.G.f
007B4AD0 3B 46 14 72 16 8D 4F 08 51 8D 56 18 52 FF D5 83 ;F.r..O.Q.V.R...
007B4AE0 C4 08 84 C0 74 05 8B 76 08 EB 04 8B DE 8B 36 80 ....t..v......6.
007B4AF0 7E 51 00 74 BB 5F 8B C3 5D 5E 5B C2 04 00 CC CC ~Q.t._..]^[.....
007B4B00 8B 41 04 8B 48 04 80 79 19 00 75 2C 56 57 8B 7C .A..H..y..u,VW.|
007B4B10 24 0C 8B 37 8B 51 0C 3B F2 72 0C 75 10 66 8B 57 $..7.Q.;.r.u.f.W
007B4B20 04 66 3B 51 10 73 06 8B C1 8B 09 EB 03 8B 49 08 .f;Q.s........I.
007B4B30 80 79 19 00 74 DE 5F 5E C2 04 00 CC CC CC CC CC .y..t._^........
007B4B40 8B 44 24 04 8B 54 24 0C 56 8B F1 8B 4C 24 0C 89 .D$..T$.V...L$..
007B4B50 4E 04 89 56 08 57 8B 7C 24 18 89 06 8B 07 89 46 N..V.W.|$......F
007B4B60 10 8B 4F 04 8D 57 08 89 4E 14 52 8D 4E 18 FF 15 ..O..W..N.R.N...
007B4B70 3C 43 8A 00 8B 4F 28 8D 47 28 89 4E 38 8B 50 04 <C...O(.G(.N8.P.
007B4B80 89 56 3C 8B 48 08 89 4E 40 8B 50 0C 89 56 44 8B .V<.H..N@.P..VD.
007B4B90 48 10 89 4E 48 8B 50 14 8A 44 24 1C 89 56 4C 88 H..NH.P..D$..VL.
007B4BA0 46 50 5F C6 46 51 00 8B C6 5E C2 14 00 CC CC CC FP_.FQ...^......
007B4BB0 F6 44 24 04 01 56 8B F1 C7 06 74 97 98 00 74 09 .D$..V....t...t.
007B4BC0 56 E8 00 04 EE FF 83 C4 04 8B C6 5E C2 04 00 CC V..........^....
007B4BD0 56 8B F1 8B 06 85 C0 74 11 83 40 08 FF 8D 48 04 V......t..@...H.
007B4BE0 75 08 8B 01 8B 10 6A 01 FF D2 C7 06 00 00 00 00 u.....j.........
007B4BF0 5E C3 CC CC CC CC CC CC CC CC CC CC CC CC CC CC ^...............
007B4C00 6A FF 68 B0 0C 88 00 64 A1 00 00 00 00 50 83 EC j.h....d.....P..
007B4C10 40 A1 88 41 A1 00 33 C4 89 44 24 3C 53 55 56 57 @..A..3..D$<SUVW
007B4C20 A1 88 41 A1 00 33 C4 50 8D 44 24 54 64 A3 00 00 ..A..3.P.D$Td...
007B4C30 00 00 8B 5C 24 64 8B F1 8D 4C 24 1C E8 DF 76 CD ...\$d...L$...v.
007B4C40 FF C7 44 24 5C 00 00 00 00 C7 44 24 14 14 98 98 ..D$\.....D$....
007B4C50 00 C6 44 24 18 00 80 7C 24 6C 00 C6 44 24 5C 01 ..D$...|$l..D$\.
007B4C60 0F 94 C0 04 01 0C 80 80 3D 31 7B A6 00 00 88 44 ........=1{....D
007B4C70 24 28 C6 44 24 29 00 74 07 A1 3C 7B A6 00 EB 20 $(.D$).t..<{... 
007B4C80 68 54 94 98 00 FF 15 88 46 8A 00 83 C4 04 85 C0 hT......F.......
007B4C90 74 0C 50 FF 15 8C 46 8A 00 83 C4 04 EB 02 33 C0 t.P...F.......3.
007B4CA0 80 3D 31 7B A6 00 00 66 89 44 24 2A 74 07 A1 38 .=1{...f.D$*t..8
007B4CB0 7B A6 00 EB 06 FF 15 4C 40 8A 00 66 8B 8E 90 00 {......L@..f....
007B4CC0 00 00 66 89 4C 24 2E 53 8D 4C 24 38 66 89 44 24 ..f.L$.S.L$8f.D$
007B4CD0 30 FF 15 58 43 8A 00 8B 6C 24 68 8B BE 8C 00 00 0..XC...l$h.....
007B4CE0 00 68 01 00 00 7F 66 89 6C 24 34 E8 0A 0C EE FF .h....f.l$4.....
007B4CF0 8D 54 24 14 52 50 57 8D 4C 24 28 E8 50 78 01 00 .T$.RPW.L$(.Px..
007B4D00 8B F8 85 FF 75 18 38 44 24 18 74 0F 53 8D 4E 1C ....u.8D$.t.S.N.
007B4D10 FF 15 58 43 8A 00 89 6E 38 EB 03 83 CF FF 8D 4C ..XC...n8......L
007B4D20 24 1C C7 44 24 14 74 97 98 00 C7 44 24 5C FF FF $..D$.t....D$\..
007B4D30 FF FF E8 49 76 CD FF 8B C7 8B 4C 24 54 64 89 0D ...Iv.....L$Td..
007B4D40 00 00 00 00 59 5F 5E 5D 5B 8B 4C 24 3C 33 CC E8 ....Y_^][.L$<3..
007B4D50 3A FE ED FF 83 C4 4C C2 0C 00 CC CC CC CC CC CC :.....L.........
007B4D60 8B 44 24 04 8B 00 56 8B F1 8B 0E 3B C8 74 1F 85 .D$...V....;.t..
007B4D70 C0 89 06 74 04 83 40 08 01 85 C9 74 11 83 C1 04 ...t..@....t....
007B4D80 83 41 04 FF 75 08 8B 11 8B 02 6A 01 FF D0 8B C6 .A..u.....j.....
007B4D90 5E C2 04 00 CC CC CC CC CC CC CC CC CC CC CC CC ^...............
007B4DA0 56 8B F1 57 8B 3E 83 FF FF 74 0E 83 3D A8 EC A6 V..W.>...t..=...
007B4DB0 00 00 74 05 E8 A7 90 C8 FF 8B C7 5F C7 06 FF FF ..t........_....
007B4DC0 FF FF 5E C3 CC CC CC CC CC CC CC CC CC CC CC CC ..^.............
007B4DD0 6A FF 68 E9 0C 88 00 64 A1 00 00 00 00 50 83 EC j.h....d.....P..
007B4DE0 44 56 A1 88 41 A1 00 33 C4 50 8D 44 24 4C 64 A3 DV..A..3.P.D$Ld.
007B4DF0 00 00 00 00 8B 41 08 8B 54 24 5C BE FF FF FF 3F .....A..T$\....?
007B4E00 2B F0 3B F2 73 3C 68 B0 80 8A 00 8D 4C 24 0C FF +.;.s<h.....L$..
007B4E10 15 34 43 8A 00 8D 44 24 08 50 8D 4C 24 28 C7 44 .4C...D$.P.L$(.D
007B4E20 24 58 00 00 00 00 E8 B5 CB C4 FF 68 68 9C 99 00 $X.........hh...
007B4E30 8D 4C 24 28 51 C7 44 24 2C 30 00 99 00 E8 8A 01 .L$(Q.D$,0......
007B4E40 EE FF 03 C2 89 41 08 8B 4C 24 4C 64 89 0D 00 00 .....A..L$Ld....
007B4E50 00 00 59 5E 83 C4 50 C2 04 00 CC CC CC CC CC CC ..Y^..P.........
007B4E60 6A FF 68 18 0D 88 00 64 A1 00 00 00 00 50 51 56 j.h....d.....PQV
007B4E70 57 A1 88 41 A1 00 33 C4 50 8D 44 24 10 64 A3 00 W..A..3.P.D$.d..
007B4E80 00 00 00 8B F1 89 74 24 0C 8B 4E 10 33 FF 3B CF ......t$..N.3.;.
007B4E90 89 7C 24 18 74 0E 83 41 04 FF 75 08 8B 01 8B 10 .|$.t..A..u.....
007B4EA0 6A 01 FF D2 89 7E 10 C7 06 28 CE 8A 00 8B 4C 24 j....~...(....L$
007B4EB0 10 64 89 0D 00 00 00 00 59 5F 5E 83 C4 10 C3 CC .d......Y_^.....
007B4EC0 6A FF 68 49 0D 88 00 64 A1 00 00 00 00 50 83 EC j.hI...d.....P..
007B4ED0 48 53 55 56 57 A1 88 41 A1 00 33 C4 50 8D 44 24 HSUVW..A..3.P.D$
007B4EE0 5C 64 A3 00 00 00 00 8B E9 8B 44 24 70 80 78 15 \d........D$p.x.
007B4EF0 00 74 3C 68 94 6D 8A 00 8D 4C 24 1C FF 15 34 43 .t<h.m...L$...4C
007B4F00 8A 00 8D 44 24 18 50 8D 4C 24 38 C7 44 24 68 00 ...D$.P.L$8.D$h.
007B4F10 00 00 00 E8 C8 CA C4 FF 68 8C A8 99 00 8D 4C 24 ........h.....L$
007B4F20 38 51 C7 44 24 3C 3C 00 99 00 E8 9D 00 EE FF 8B 8Q.D$<<.........
007B4F30 D8 8D 4C 24 70 89 5C 24 14 E8 F2 E2 EE FF 8B 03 ..L$p.\$........
007B4F40 80 78 15 00 74 05 8B 7B 08 EB 18 8B 53 08 80 7A .x..t..{....S..z
007B4F50 15 00 74 04 8B F8 EB 0B 8B 4C 24 70 3B CB 8B 79 ..t......L$p;..y
007B4F60 08 75 6B 80 7F 15 00 8B 73 04 75 03 89 77 04 8B .uk.....s.u..w..
007B4F70 45 04 39 58 04 75 05 89 78 04 EB 0B 39 1E 75 04 E.9X.u..x...9.u.
007B4F80 89 3E EB 03 89 7E 08 8B 5D 04 8B 03 3B 44 24 14 .>...~..]...;D$.
007B4F90 75 15 80 7F 15 00 74 04 8B C6 EB 09 57 E8 2E E9 u.....t.....W...
007B4FA0 03 00 83 C4 04 89 03 8B 5D 04 8B 4C 24 14 39 4B ........]..L$.9K
007B4FB0 08 75 72 80 7F 15 00 74 07 8B C6 89 43 08 EB 65 .ur....t....C..e
007B4FC0 57 E8 1A D7 C9 FF 83 C4 04 89 43 08 EB 57 89 48 W.........C..W.H
007B4FD0 04 8B 13 89 11 3B 4B 08 75 04 8B F1 EB 1A 80 7F .....;K.u.......
007B4FE0 15 00 8B 71 04 75 03 89 77 04 89 3E 8B 43 08 89 ...q.u..w..>.C..
007B4FF0 41 08 8B 53 08 89 4A 04 8B 45 04 39 58 04 75 05 A..S..J..E.9X.u.
007B5000 89 48 04 EB 0E 8B 43 04 39 18 75 04 89 08 EB 03 .H....C.9.u.....
007B5010 89 48 08 8B 43 04 89 41 04 8A 53 14 8A 41 14 88 .H..C..A..S..A..
007B5020 51 14 88 43 14 8B 44 24 14 B3 01 38 58 14 0F 85 Q..C..D$...8X...
007B5030 F2 00 00 00 8B 4D 04 3B 79 04 0F 84 E3 00 00 00 .....M.;y.......
007B5040 38 5F 14 0F 85 DA 00 00 00 8B 06 3B F8 75 63 8B 8_.........;.uc.
007B5050 46 08 80 78 14 00 75 12 88 58 14 56 8B CD C6 46 F..x..u..X.V...F
007B5060 14 00 E8 59 AC D6 FF 8B 46 08 80 78 15 00 75 72 ...Y....F..x..ur
007B5070 8B 10 38 5A 14 75 08 8B 48 08 38 59 14 74 5F 8B ..8Z.u..H.8Y.t_.
007B5080 48 08 38 59 14 75 12 88 5A 14 50 8B CD C6 40 14 H.8Y.u..Z.P...@.
007B5090 00 E8 EA E6 C9 FF 8B 46 08 8A 4E 14 88 48 14 88 .......F..N..H..
007B50A0 5E 14 8B 50 08 56 8B CD 88 5A 14 E8 10 AC D6 FF ^..P.V...Z......
007B50B0 EB 71 80 78 14 00 75 11 88 58 14 56 8B CD C6 46 .q.x..u..X.V...F
007B50C0 14 00 E8 B9 E6 C9 FF 8B 06 80 78 15 00 75 13 8B ..........x..u..
007B50D0 50 08 38 5A 14 75 1E 8B 08 38 59 14 75 17 C6 40 P.8Z.u...8Y.u..@
007B50E0 14 00 8B 55 04 8B FE 3B 7A 04 8B 76 04 0F 85 4D ...U...;z..v...M
007B50F0 FF FF FF EB 2E 8B 08 38 59 14 75 11 88 5A 14 50 .......8Y.u..Z.P
007B5100 8B CD C6 40 14 00 E8 B5 AB D6 FF 8B 06 8A 4E 14 ...@..........N.
007B5110 88 48 14 88 5E 14 8B 10 56 8B CD 88 5A 14 E8 5D .H..^...V...Z..]
007B5120 E6 C9 FF 88 5F 14 8B 44 24 14 50 E8 96 FE ED FF ...._..D$.P.....
007B5130 8B 45 08 83 C4 04 85 C0 76 06 83 C0 FF 89 45 08 .E......v.....E.
007B5140 8B 44 24 6C 8B 4C 24 70 89 08 8B 4C 24 5C 64 89 .D$l.L$p...L$\d.
007B5150 0D 00 00 00 00 59 5F 5E 5D 5B 83 C4 54 C2 08 00 .....Y_^][..T...
007B5160 6A 58 E8 71 FE ED FF 83 C4 04 85 C0 74 06 C7 00 jX.q........t...
007B5170 00 00 00 00 8D 48 04 85 C9 74 06 C7 01 00 00 00 .....H...t......
007B5180 00 8D 48 08 85 C9 74 06 C7 01 00 00 00 00 C6 40 ..H...t........@
007B5190 50 01 C6 40 51 00 C3 CC CC CC CC CC CC CC CC CC P..@Q...........
007B51A0 55 8B EC 6A FF 68 81 0D 88 00 64 A1 00 00 00 00 U..j.h....d.....
007B51B0 50 83 EC 0C 53 56 57 A1 88 41 A1 00 33 C5 50 8D P...SVW..A..3.P.
007B51C0 45 F4 64 A3 00 00 00 00 89 65 F0 6A 58 E8 06 FE E.d......e.jX...
007B51D0 ED FF 8B F0 83 C4 04 89 75 EC C7 45 FC 00 00 00 ........u..E....
007B51E0 00 89 75 E8 85 F6 C6 45 FC 01 74 1B 8B 45 18 8B ..u....E..t..E..
007B51F0 4D 14 8B 55 10 50 8B 45 0C 51 8B 4D 08 52 50 51 M..U.P.E.Q.M.RPQ
007B5200 8B CE E8 39 F9 FF FF 8B C6 8B 4D F4 64 89 0D 00 ...9......M.d...
007B5210 00 00 00 59 5F 5E 5B 8B E5 5D C2 14 00 8B 55 EC ...Y_^[..]....U.
007B5220 52 E8 A0 FD ED FF 83 C4 04 6A 00 6A 00 E8 9A FD R........j.j....
007B5230 ED FF CC CC CC CC CC CC CC CC CC CC CC CC CC CC ................
007B5240 8B 4C 24 08 8D 41 FF 99 53 8B 5C 24 10 2B C2 56 .L$..A..S.\$.+.V
007B5250 8B 74 24 0C D1 F8 3B D9 57 8B 7C 24 1C 7D 29 55 .t$...;.W.|$.})U
007B5260 8B 14 86 8B 6A 04 3B 6F 04 72 1C 77 06 8B 12 3B ....j.;o.r.w...;
007B5270 17 76 14 8B 14 86 89 14 8E 8B C8 83 C0 FF 99 2B .v.............+
007B5280 C2 D1 F8 3B D9 7C D9 5D 89 3C 8E 5F 5E 5B C3 CC ...;.|.].<._^[..
007B5290 8B 54 24 08 8B 4C 24 04 53 8B 5C 24 10 8D 44 12 .T$..L$.S.\$..D.
007B52A0 02 3B C3 89 54 24 0C 7D 34 55 56 57 8D 64 24 00 .;..T$.}4UVW.d$.
007B52B0 8B 34 81 8B 7C 81 FC 8B 6E 04 3B 6F 04 72 0B 77 .4..|...n.;o.r.w
007B52C0 06 8B 36 3B 37 76 03 83 E8 01 8B 34 81 89 34 91 ..6;7v.....4..4.
007B52D0 8B D0 8D 44 00 02 3B C3 7C D6 5F 5E 5D 75 0A 8B ...D..;.|._^]u..
007B52E0 44 99 FC 89 04 91 8D 53 FF 5B 8B 44 24 08 89 44 D......S.[.D$..D
007B52F0 24 0C 89 54 24 08 89 4C 24 04 E9 41 FF FF FF CC $..T$..L$..A....
007B5300 6A 1C E8 D1 FC ED FF 83 C4 04 85 C0 74 06 C7 00 j...........t...
007B5310 00 00 00 00 8D 48 04 85 C9 74 06 C7 01 00 00 00 .....H...t......
007B5320 00 8D 48 08 85 C9 74 06 C7 01 00 00 00 00 C6 40 ..H...t........@
007B5330 18 01 C6 40 19 00 C3 CC CC CC CC CC CC CC CC CC ...@............
007B5340 51 8B 89 E8 00 00 00 85 C9 8B 44 24 08 C7 04 24 Q.........D$...$
007B5350 00 00 00 00 89 08 74 04 83 41 04 01 59 C2 04 00 ......t..A..Y...
007B5360 6A FF 68 CC 0D 88 00 64 A1 00 00 00 00 50 81 EC j.h....d.....P..
007B5370 84 00 00 00 56 A1 88 41 A1 00 33 C4 50 8D 84 24 ....V..A..3.P..$
007B5380 8C 00 00 00 64 A3 00 00 00 00 6A 01 6A 02 8D 4C ....d.....j.j..L
007B5390 24 14 C7 44 24 10 00 00 00 00 FF 15 B0 42 8A 00 $..D$........B..
007B53A0 8B 8C 24 A0 00 00 00 C7 84 24 94 00 00 00 01 00 ..$......$......
007B53B0 00 00 E8 59 FD 00 00 8B 8C 24 A4 00 00 00 51 68 ...Y.....$....Qh
007B53C0 70 AE 8B 00 50 8D 54 24 18 52 E8 51 CB C4 FF 83 p...P.T$.R.Q....
007B53D0 C4 08 50 E8 48 CB C4 FF 83 C4 08 50 FF 15 84 44 ..P.H......P...D
007B53E0 8A 00 8B B4 24 A4 00 00 00 83 C4 08 56 8D 4C 24 ....$.......V.L$
007B53F0 10 FF 15 A8 42 8A 00 8D 4C 24 0C C7 44 24 08 01 ....B...L$..D$..
007B5400 00 00 00 C6 84 24 94 00 00 00 00 FF 15 A4 42 8A .....$........B.
007B5410 00 8B C6 8B 8C 24 8C 00 00 00 64 89 0D 00 00 00 .....$....d.....
007B5420 00 59 5E 81 C4 90 00 00 00 C3 CC CC CC CC CC CC .Y^.............
007B5430 55 8B EC 83 E4 C0 6A FF 68 F9 0D 88 00 64 A1 00 U.....j.h....d..
007B5440 00 00 00 50 81 EC A8 00 00 00 53 56 57 A1 88 41 ...P......SVW..A
007B5450 A1 00 33 C4 50 8D 84 24 B8 00 00 00 64 A3 00 00 ..3.P..$....d...
007B5460 00 00 8B 4D 0C 8B 45 08 8B 55 10 89 4C 24 60 8B ...M..E..U..L$`.
007B5470 4D 18 89 44 24 5C 8B 01 8B 49 04 89 54 24 64 8B M..D$\...I..T$d.
007B5480 55 14 33 FF 2B 02 57 1B 4A 04 68 E8 03 00 00 51 U.3.+.W.J.h....Q
007B5490 50 89 54 24 68 89 7C 24 5C E8 42 FB ED FF 89 44 P.T$h.|$\.B....D
007B54A0 24 4C 89 54 24 50 DF 6C 24 4C DD 5C 24 4C E8 9D $L.T$P.l$L.\$L..
007B54B0 16 E7 FF DC 7C 24 4C BE 40 00 00 00 DD 5C 24 4C ....|$L.@....\$L
007B54C0 57 8D 5E 01 E8 51 FB ED FF 53 E8 BA F6 ED FF 8B W.^..Q...S......
007B54D0 4C 24 68 8B F8 8B 44 24 6C 50 51 8D 54 24 78 52 L$h...D$lPQ.T$xR
007B54E0 E8 7B FE FF FF DD 44 24 60 83 C4 0C 8B C8 DD 1C .{....D$`.......
007B54F0 24 C7 84 24 C8 00 00 00 00 00 00 00 FF 15 54 43 $..$..........TC
007B5500 8A 00 50 8B 44 24 64 8B 48 10 51 68 58 98 98 00 ..P.D$d.H.QhX...
007B5510 53 57 FF 15 B8 45 8A 00 83 C4 1C 8D 4C 24 68 8B SW...E......L$h.
007B5520 F0 C7 84 24 C0 00 00 00 FF FF FF FF FF 15 38 43 ...$..........8C
007B5530 8A 00 83 FE FF 75 04 8D 74 1B FE 3B F3 7D 81 8B .....u..t..;.}..
007B5540 74 24 5C 57 8B CE FF 15 34 43 8A 00 57 E8 C8 FA t$\W....4C..W...
007B5550 ED FF 83 C4 04 8B C6 8B 8C 24 B8 00 00 00 64 89 .........$....d.
007B5560 0D 00 00 00 00 59 5F 5E 5B 8B E5 5D C3 CC CC CC .....Y_^[..]....
007B5570 51 56 57 8B 7C 24 14 57 8B F1 E8 11 F3 FF FF 8B QVW.|$.W........
007B5580 76 04 3B C6 89 44 24 14 74 27 8B 0F 8B 50 0C 3B v.;..D$.t'...P.;
007B5590 CA 72 1E 75 0A 66 8B 4F 04 66 3B 48 10 72 12 8D .r.u.f.O.f;H.r..
007B55A0 44 24 14 8B 10 8B 44 24 10 5F 89 10 5E 59 C2 08 D$....D$._..^Y..
007B55B0 00 8D 44 24 08 89 74 24 08 8B 10 8B 44 24 10 5F ..D$..t$....D$._
007B55C0 89 10 5E 59 C2 08 00 CC CC CC CC CC CC CC CC CC ..^Y............
007B55D0 6A FF 68 29 0E 88 00 64 A1 00 00 00 00 50 83 EC j.h)...d.....P..
007B55E0 48 53 55 56 57 A1 88 41 A1 00 33 C4 50 8D 44 24 HSUVW..A..3.P.D$
007B55F0 5C 64 A3 00 00 00 00 8B E9 8B 44 24 70 80 78 15 \d........D$p.x.
007B5600 00 74 3C 68 94 6D 8A 00 8D 4C 24 1C FF 15 34 43 .t<h.m...L$...4C
007B5610 8A 00 8D 44 24 18 50 8D 4C 24 38 C7 44 24 68 00 ...D$.P.L$8.D$h.
007B5620 00 00 00 E8 B8 C3 C4 FF 68 8C A8 99 00 8D 4C 24 ........h.....L$
007B5630 38 51 C7 44 24 3C 3C 00 99 00 E8 8D F9 ED FF 8B 8Q.D$<<.........
007B5640 D8 8D 4C 24 70 89 5C 24 14 E8 E2 DB EE FF 8B 03 ..L$p.\$........
007B5650 80 78 15 00 74 05 8B 7B 08 EB 18 8B 53 08 80 7A .x..t..{....S..z
007B5660 15 00 74 04 8B F8 EB 0B 8B 4C 24 70 3B CB 8B 79 ..t......L$p;..y
007B5670 08 75 6B 80 7F 15 00 8B 73 04 75 03 89 77 04 8B .uk.....s.u..w..
007B5680 45 04 39 58 04 75 05 89 78 04 EB 0B 39 1E 75 04 E.9X.u..x...9.u.
007B5690 89 3E EB 03 89 7E 08 8B 5D 04 8B 03 3B 44 24 14 .>...~..]...;D$.
007B56A0 75 15 80 7F 15 00 74 04 8B C6 EB 09 57 E8 1E E2 u.....t.....W...
007B56B0 03 00 83 C4 04 89 03 8B 5D 04 8B 4C 24 14 39 4B ........]..L$.9K
007B56C0 08 75 72 80 7F 15 00 74 07 8B C6 89 43 08 EB 65 .ur....t....C..e
007B56D0 57 E8 0A D0 C9 FF 83 C4 04 89 43 08 EB 57 89 48 W.........C..W.H
007B56E0 04 8B 13 89 11 3B 4B 08 75 04 8B F1 EB 1A 80 7F .....;K.u.......
007B56F0 15 00 8B 71 04 75 03 89 77 04 89 3E 8B 43 08 89 ...q.u..w..>.C..
007B5700 41 08 8B 53 08 89 4A 04 8B 45 04 39 58 04 75 05 A..S..J..E.9X.u.
007B5710 89 48 04 EB 0E 8B 43 04 39 18 75 04 89 08 EB 03 .H....C.9.u.....
007B5720 89 48 08 8B 43 04 89 41 04 8A 53 14 8A 41 14 88 .H..C..A..S..A..
007B5730 51 14 88 43 14 8B 44 24 14 B3 01 38 58 14 0F 85 Q..C..D$...8X...
007B5740 F2 00 00 00 8B 4D 04 3B 79 04 0F 84 E3 00 00 00 .....M.;y.......
007B5750 38 5F 14 0F 85 DA 00 00 00 8B 06 3B F8 75 63 8B 8_.........;.uc.
007B5760 46 08 80 78 14 00 75 12 88 58 14 56 8B CD C6 46 F..x..u..X.V...F
007B5770 14 00 E8 49 A5 D6 FF 8B 46 08 80 78 15 00 75 72 ...I....F..x..ur
007B5780 8B 10 38 5A 14 75 08 8B 48 08 38 59 14 74 5F 8B ..8Z.u..H.8Y.t_.
007B5790 48 08 38 59 14 75 12 88 5A 14 50 8B CD C6 40 14 H.8Y.u..Z.P...@.
007B57A0 00 E8 DA DF C9 FF 8B 46 08 8A 4E 14 88 48 14 88 .......F..N..H..
007B57B0 5E 14 8B 50 08 56 8B CD 88 5A 14 E8 00 A5 D6 FF ^..P.V...Z......
007B57C0 EB 71 80 78 14 00 75 11 88 58 14 56 8B CD C6 46 .q.x..u..X.V...F
007B57D0 14 00 E8 A9 DF C9 FF 8B 06 80 78 15 00 75 13 8B ..........x..u..
007B57E0 50 08 38 5A 14 75 1E 8B 08 38 59 14 75 17 C6 40 P.8Z.u...8Y.u..@
007B57F0 14 00 8B 55 04 8B FE 3B 7A 04 8B 76 04 0F 85 4D ...U...;z..v...M
007B5800 FF FF FF EB 2E 8B 08 38 59 14 75 11 88 5A 14 50 .......8Y.u..Z.P
007B5810 8B CD C6 40 14 00 E8 A5 A4 D6 FF 8B 06 8A 4E 14 ...@..........N.
007B5820 88 48 14 88 5E 14 8B 10 56 8B CD 88 5A 14 E8 4D .H..^...V...Z..M
007B5830 DF C9 FF 88 5F 14 8B 44 24 14 50 E8 86 F7 ED FF ...._..D$.P.....
007B5840 8B 45 08 83 C4 04 85 C0 76 06 83 C0 FF 89 45 08 .E......v.....E.
007B5850 8B 44 24 6C 8B 4C 24 70 89 08 8B 4C 24 5C 64 89 .D$l.L$p...L$\d.
007B5860 0D 00 00 00 00 59 5F 5E 5D 5B 83 C4 54 C2 08 00 .....Y_^][..T...
007B5870 51 56 57 8B 7C 24 14 57 8B F1 E8 51 F0 FF FF 8B QVW.|$.W...Q....
007B5880 76 04 3B C6 89 44 24 14 74 33 8B 4F 08 8B 50 14 v.;..D$.t3.O..P.
007B5890 3B CA 72 29 75 15 8B 0F 8B 50 0C 3B CA 72 1E 75 ;.r)u....P.;.r.u
007B58A0 0A 66 8B 4F 04 66 3B 48 10 72 12 8D 44 24 14 8B .f.O.f;H.r..D$..
007B58B0 10 8B 44 24 10 5F 89 10 5E 59 C2 08 00 8D 44 24 ..D$._..^Y....D$
007B58C0 08 89 74 24 08 8B 10 8B 44 24 10 5F 89 10 5E 59 ..t$....D$._..^Y
007B58D0 C2 08 00 CC CC CC CC CC CC CC CC CC CC CC CC CC ................
007B58E0 51 56 57 8B 7C 24 14 57 8B F1 E8 E1 F0 FF FF 8B QVW.|$.W........
007B58F0 76 04 3B C6 89 44 24 14 74 33 8B 4F 08 8B 50 14 v.;..D$.t3.O..P.
007B5900 3B CA 7C 29 75 15 8B 0F 8B 50 0C 3B CA 72 1E 75 ;.|)u....P.;.r.u
007B5910 0A 66 8B 4F 04 66 3B 48 10 72 12 8D 44 24 14 8B .f.O.f;H.r..D$..
007B5920 10 8B 44 24 10 5F 89 10 5E 59 C2 08 00 8D 44 24 ..D$._..^Y....D$
007B5930 08 89 74 24 08 8B 10 8B 44 24 10 5F 89 10 5E 59 ..t$....D$._..^Y
007B5940 C2 08 00 CC CC CC CC CC CC CC CC CC CC CC CC CC ................
007B5950 51 53 8B 5C 24 10 56 57 53 8B F1 E8 C0 F0 FF FF QS.\$.VWS.......
007B5960 8B 7E 04 3B C7 89 44 24 18 74 23 83 C0 0C 50 53 .~.;..D$.t#...PS
007B5970 8B CE E8 59 EE FF FF 84 C0 75 13 8D 44 24 18 8B ...Y.....u..D$..
007B5980 08 8B 44 24 14 5F 5E 89 08 5B 59 C2 08 00 89 7C ..D$._^..[Y....|
007B5990 24 0C 8D 44 24 0C 8B 08 8B 44 24 14 5F 5E 89 08 $..D$....D$._^..
007B59A0 5B 59 C2 08 00 CC CC CC CC CC CC CC CC CC CC CC [Y..............
007B59B0 6A FF 68 59 0E 88 00 64 A1 00 00 00 00 50 83 EC j.hY...d.....P..
007B59C0 48 53 55 56 57 A1 88 41 A1 00 33 C4 50 8D 44 24 HSUVW..A..3.P.D$
007B59D0 5C 64 A3 00 00 00 00 8B E9 8B 44 24 70 80 78 19 \d........D$p.x.
007B59E0 00 74 3C 68 94 6D 8A 00 8D 4C 24 1C FF 15 34 43 .t<h.m...L$...4C
007B59F0 8A 00 8D 44 24 18 50 8D 4C 24 38 C7 44 24 68 00 ...D$.P.L$8.D$h.
007B5A00 00 00 00 E8 D8 BF C4 FF 68 8C A8 99 00 8D 4C 24 ........h.....L$
007B5A10 38 51 C7 44 24 3C 3C 00 99 00 E8 AD F5 ED FF 8B 8Q.D$<<.........
007B5A20 D8 8D 4C 24 70 89 5C 24 14 E8 B2 5D DD FF 8B 03 ..L$p.\$...]....
007B5A30 80 78 19 00 74 05 8B 7B 08 EB 18 8B 53 08 80 7A .x..t..{....S..z
007B5A40 19 00 74 04 8B F8 EB 0B 8B 4C 24 70 3B CB 8B 79 ..t......L$p;..y
007B5A50 08 75 6B 80 7F 19 00 8B 73 04 75 03 89 77 04 8B .uk.....s.u..w..
007B5A60 45 04 39 58 04 75 05 89 78 04 EB 0B 39 1E 75 04 E.9X.u..x...9.u.
007B5A70 89 3E EB 03 89 7E 08 8B 5D 04 8B 03 3B 44 24 14 .>...~..]...;D$.
007B5A80 75 15 80 7F 19 00 74 04 8B C6 EB 09 57 E8 1E 5C u.....t.....W..\
007B5A90 DD FF 83 C4 04 89 03 8B 5D 04 8B 4C 24 14 39 4B ........]..L$.9K
007B5AA0 08 75 72 80 7F 19 00 74 07 8B C6 89 43 08 EB 65 .ur....t....C..e
007B5AB0 57 E8 FA E7 FF FF 83 C4 04 89 43 08 EB 57 89 48 W.........C..W.H
007B5AC0 04 8B 13 89 11 3B 4B 08 75 04 8B F1 EB 1A 80 7F .....;K.u.......
007B5AD0 19 00 8B 71 04 75 03 89 77 04 89 3E 8B 43 08 89 ...q.u..w..>.C..
007B5AE0 41 08 8B 53 08 89 4A 04 8B 45 04 39 58 04 75 05 A..S..J..E.9X.u.
007B5AF0 89 48 04 EB 0E 8B 43 04 39 18 75 04 89 08 EB 03 .H....C.9.u.....
007B5B00 89 48 08 8B 43 04 89 41 04 8A 53 18 8A 41 18 88 .H..C..A..S..A..
007B5B10 51 18 88 43 18 8B 44 24 14 B3 01 38 58 18 0F 85 Q..C..D$...8X...
007B5B20 F2 00 00 00 8B 4D 04 3B 79 04 0F 84 E3 00 00 00 .....M.;y.......
007B5B30 38 5F 18 0F 85 DA 00 00 00 8B 06 3B F8 75 63 8B 8_.........;.uc.
007B5B40 46 08 80 78 18 00 75 12 88 58 18 56 8B CD C6 46 F..x..u..X.V...F
007B5B50 18 00 E8 49 EB FF FF 8B 46 08 80 78 19 00 75 72 ...I....F..x..ur
007B5B60 8B 10 38 5A 18 75 08 8B 48 08 38 59 18 74 5F 8B ..8Z.u..H.8Y.t_.
007B5B70 48 08 38 59 18 75 12 88 5A 18 50 8B CD C6 40 18 H.8Y.u..Z.P...@.
007B5B80 00 E8 4A 5B DD FF 8B 46 08 8A 4E 18 88 48 18 88 ..J[...F..N..H..
007B5B90 5E 18 8B 50 08 56 8B CD 88 5A 18 E8 00 EB FF FF ^..P.V...Z......
007B5BA0 EB 71 80 78 18 00 75 11 88 58 18 56 8B CD C6 46 .q.x..u..X.V...F
007B5BB0 18 00 E8 19 5B DD FF 8B 06 80 78 19 00 75 13 8B ....[.....x..u..
007B5BC0 50 08 38 5A 18 75 1E 8B 08 38 59 18 75 17 C6 40 P.8Z.u...8Y.u..@
007B5BD0 18 00 8B 55 04 8B FE 3B 7A 04 8B 76 04 0F 85 4D ...U...;z..v...M
007B5BE0 FF FF FF EB 2E 8B 08 38 59 18 75 11 88 5A 18 50 .......8Y.u..Z.P
007B5BF0 8B CD C6 40 18 00 E8 A5 EA FF FF 8B 06 8A 4E 18 ...@..........N.
007B5C00 88 48 18 88 5E 18 8B 10 56 8B CD 88 5A 18 E8 BD .H..^...V...Z...
007B5C10 5A DD FF 88 5F 18 8B 44 24 14 50 E8 A6 F3 ED FF Z..._..D$.P.....
007B5C20 8B 45 08 83 C4 04 85 C0 76 06 83 C0 FF 89 45 08 .E......v.....E.
007B5C30 8B 44 24 6C 8B 4C 24 70 89 08 8B 4C 24 5C 64 89 .D$l.L$p...L$\d.
007B5C40 0D 00 00 00 00 59 5F 5E 5D 5B 83 C4 54 C2 08 00 .....Y_^][..T...
007B5C50 8B 44 24 04 56 8B F1 8B 08 85 C9 89 0E 74 05 E8 .D$.V........t..
007B5C60 6C BE C4 FF 8B C6 5E C2 04 00 CC CC CC CC CC CC l.....^.........
007B5C70 53 56 57 8B F9 8B 77 0C 33 DB 3B F3 74 1A 8B CE SVW...w.3.;.t...
007B5C80 E8 5B BE C4 FF 83 F8 01 75 0E 3B F3 74 0A 8B 06 .[......u.;.t...
007B5C90 8B 10 6A 01 8B CE FF D2 89 5F 0C 5F 5E 5B C3 CC ..j......_._^[..
007B5CA0 53 8B 5C 24 10 56 8B 74 24 10 57 8B F9 8B 47 04 S.\$.V.t$.W...G.
007B5CB0 3B 30 75 36 3B D8 75 32 8B 40 04 50 E8 FF 71 F1 ;0u6;.u2.@.P..q.
007B5CC0 FF 8B 47 04 89 40 04 8B 47 04 C7 47 08 00 00 00 ..G..@..G..G....
007B5CD0 00 89 00 8B 47 04 89 40 08 8B 4F 04 8B 11 8B 44 ....G..@..O....D
007B5CE0 24 10 5F 5E 89 10 5B C2 0C 00 3B F3 74 5A 8B FF $._^..[...;.tZ..
007B5CF0 80 7E 15 00 8B CE 75 3F 8B 46 08 80 78 15 00 75 .~....u?.F..x..u
007B5D00 1B 8B F0 8B 06 80 78 15 00 75 2C EB 03 8D 49 00 ......x..u,...I.
007B5D10 8B F0 8B 06 80 78 15 00 74 F6 EB 1B 8B 46 04 80 .....x..t....F..
007B5D20 78 15 00 75 10 3B 70 08 75 0B 8B F0 8B 40 04 80 x..u.;p.u....@..
007B5D30 78 15 00 74 F0 8B F0 51 8D 44 24 18 50 8B CF E8 x..t...Q.D$.P...
007B5D40 8C F8 FF FF 3B F3 75 A8 8B 44 24 10 5F 89 30 5E ....;.u..D$._.0^
007B5D50 5B C2 0C 00 CC CC CC CC CC CC CC CC CC CC CC CC [...............
007B5D60 8B 51 04 8B 42 04 80 78 15 00 56 57 8B 7C 24 10 .Q..B..x..VW.|$.
007B5D70 75 16 8B 37 3B 70 0C 7D 06 8B D0 8B 00 EB 03 8B u..7;p.}........
007B5D80 40 08 80 78 15 00 74 EC 8B 49 04 8B 41 04 80 78 @..x..t..I..A..x
007B5D90 15 00 75 16 8B 37 39 70 0C 7D 05 8B 40 08 EB 04 ..u..79p.}..@...
007B5DA0 8B C8 8B 00 80 78 15 00 74 EC 8B 44 24 0C 5F 89 .....x..t..D$._.
007B5DB0 08 89 50 04 5E C2 08 00 CC CC CC CC CC CC CC CC ..P.^...........
007B5DC0 6A FF 68 89 0E 88 00 64 A1 00 00 00 00 50 83 EC j.h....d.....P..
007B5DD0 44 53 55 56 57 A1 88 41 A1 00 33 C4 50 8D 44 24 DSUVW..A..3.P.D$
007B5DE0 58 64 A3 00 00 00 00 8B F9 81 7F 08 54 55 55 15 Xd..........TUU.
007B5DF0 72 3C 68 80 6D 8A 00 8D 4C 24 18 FF 15 34 43 8A r<h.m...L$...4C.
007B5E00 00 8D 44 24 14 50 8D 4C 24 34 C7 44 24 64 00 00 ..D$.P.L$4.D$d..
007B5E10 00 00 E8 C9 BB C4 FF 68 68 9C 99 00 8D 4C 24 34 .......hh....L$4
007B5E20 51 C7 44 24 38 30 00 99 00 E8 9E F1 ED FF 8B 54 Q.D$80.........T
007B5E30 24 74 8B 47 04 8B 74 24 70 6A 00 52 50 56 50 E8 $t.G..t$pj.RPVP.
007B5E40 AC 5E DD FF 8B E8 8B 47 04 BB 01 00 00 00 01 5F .^.....G......._
007B5E50 08 3B F0 75 10 89 68 04 8B 47 04 89 28 8B 4F 04 .;.u..h..G..(.O.
007B5E60 89 69 08 EB 22 80 7C 24 6C 00 74 0D 89 2E 8B 47 .i..".|$l.t....G
007B5E70 04 3B 30 75 12 89 28 EB 0E 89 6E 08 8B 47 04 3B .;0u..(...n..G.;
007B5E80 70 08 75 03 89 68 08 8B 55 04 80 7A 18 00 8D 45 p.u..h..U..z...E
007B5E90 04 8B F5 0F 85 EC 00 00 00 8D A4 24 00 00 00 00 ...........$....
007B5EA0 8B 08 8B 51 04 3B 0A 75 51 8B 52 08 80 7A 18 00 ...Q.;.uQ.R..z..
007B5EB0 75 19 88 59 18 88 5A 18 8B 10 8B 4A 04 C6 41 18 u..Y..Z....J..A.
007B5EC0 00 8B 10 8B 72 04 E9 AA 00 00 00 3B 71 08 75 0A ....r......;q.u.
007B5ED0 8B F1 56 8B CF E8 C6 E7 FF FF 8B 46 04 88 58 18 ..V........F..X.
007B5EE0 8B 4E 04 8B 51 04 C6 42 18 00 8B 46 04 8B 48 04 .N..Q..B...F..H.
007B5EF0 51 8B CF E8 D8 57 DD FF EB 7B 8B 12 80 7A 18 00 Q....W...{...z..
007B5F00 75 16 88 59 18 88 5A 18 8B 10 8B 4A 04 C6 41 18 u..Y..Z....J..A.
007B5F10 00 8B 10 8B 72 04 EB 5D 3B 31 75 0A 8B F1 56 8B ....r..];1u...V.
007B5F20 CF E8 AA 57 DD FF 8B 46 04 88 58 18 8B 4E 04 8B ...W...F..X..N..
007B5F30 51 04 C6 42 18 00 8B 46 04 8B 40 04 8B 48 08 8B Q..B...F..@..H..
007B5F40 11 89 50 08 8B 11 80 7A 19 00 75 03 89 42 04 8B ..P....z..u..B..
007B5F50 50 04 89 51 04 8B 57 04 3B 42 04 75 05 89 4A 04 P..Q..W.;B.u..J.
007B5F60 EB 0E 8B 50 04 3B 02 75 04 89 0A EB 03 89 4A 08 ...P.;.u......J.
007B5F70 89 01 89 48 04 8B 4E 04 80 79 18 00 8D 46 04 0F ...H..N..y...F..
007B5F80 84 1B FF FF FF 8B 57 04 8B 42 04 88 58 18 8B 44 ......W..B..X..D
007B5F90 24 68 89 28 8B 4C 24 58 64 89 0D 00 00 00 00 59 $h.(.L$Xd......Y
007B5FA0 5F 5E 5D 5B 83 C4 50 C2 10 00 CC CC CC CC CC CC _^][..P.........
007B5FB0 6A FF 68 B9 0E 88 00 64 A1 00 00 00 00 50 83 EC j.h....d.....P..
007B5FC0 44 53 55 56 57 A1 88 41 A1 00 33 C4 50 8D 44 24 DSUVW..A..3.P.D$
007B5FD0 58 64 A3 00 00 00 00 8B F9 81 7F 08 54 55 55 15 Xd..........TUU.
007B5FE0 72 3C 68 80 6D 8A 00 8D 4C 24 18 FF 15 34 43 8A r<h.m...L$...4C.
007B5FF0 00 8D 44 24 14 50 8D 4C 24 34 C7 44 24 64 00 00 ..D$.P.L$4.D$d..
007B6000 00 00 E8 D9 B9 C4 FF 68 68 9C 99 00 8D 4C 24 34 .......hh....L$4
007B6010 51 C7 44 24 38 30 00 99 00 E8 AE EF ED FF 8B 54 Q.D$80.........T
007B6020 24 74 8B 47 04 8B 74 24 70 6A 00 52 50 56 50 E8 $t.G..t$pj.RPVP.
007B6030 BC 5C DD FF 8B E8 8B 47 04 BB 01 00 00 00 01 5F .\.....G......._
007B6040 08 3B F0 75 10 89 68 04 8B 47 04 89 28 8B 4F 04 .;.u..h..G..(.O.
007B6050 89 69 08 EB 22 80 7C 24 6C 00 74 0D 89 2E 8B 47 .i..".|$l.t....G
007B6060 04 3B 30 75 12 89 28 EB 0E 89 6E 08 8B 47 04 3B .;0u..(...n..G.;
007B6070 70 08 75 03 89 68 08 8B 55 04 80 7A 18 00 8D 45 p.u..h..U..z...E
007B6080 04 8B F5 0F 85 EC 00 00 00 8D A4 24 00 00 00 00 ...........$....
007B6090 8B 08 8B 51 04 3B 0A 75 51 8B 52 08 80 7A 18 00 ...Q.;.uQ.R..z..
007B60A0 75 19 88 59 18 88 5A 18 8B 10 8B 4A 04 C6 41 18 u..Y..Z....J..A.
007B60B0 00 8B 10 8B 72 04 E9 AA 00 00 00 3B 71 08 75 0A ....r......;q.u.
007B60C0 8B F1 56 8B CF E8 D6 E5 FF FF 8B 46 04 88 58 18 ..V........F..X.
007B60D0 8B 4E 04 8B 51 04 C6 42 18 00 8B 46 04 8B 48 04 .N..Q..B...F..H.
007B60E0 51 8B CF E8 E8 55 DD FF EB 7B 8B 12 80 7A 18 00 Q....U...{...z..
007B60F0 75 16 88 59 18 88 5A 18 8B 10 8B 4A 04 C6 41 18 u..Y..Z....J..A.
007B6100 00 8B 10 8B 72 04 EB 5D 3B 31 75 0A 8B F1 56 8B ....r..];1u...V.
007B6110 CF E8 BA 55 DD FF 8B 46 04 88 58 18 8B 4E 04 8B ...U...F..X..N..
007B6120 51 04 C6 42 18 00 8B 46 04 8B 40 04 8B 48 08 8B Q..B...F..@..H..
007B6130 11 89 50 08 8B 11 80 7A 19 00 75 03 89 42 04 8B ..P....z..u..B..
007B6140 50 04 89 51 04 8B 57 04 3B 42 04 75 05 89 4A 04 P..Q..W.;B.u..J.
007B6150 EB 0E 8B 50 04 3B 02 75 04 89 0A EB 03 89 4A 08 ...P.;.u......J.
007B6160 89 01 89 48 04 8B 4E 04 80 79 18 00 8D 46 04 0F ...H..N..y...F..
007B6170 84 1B FF FF FF 8B 57 04 8B 42 04 88 58 18 8B 44 ......W..B..X..D
007B6180 24 68 89 28 8B 4C 24 58 64 89 0D 00 00 00 00 59 $h.(.L$Xd......Y
007B6190 5F 5E 5D 5B 83 C4 50 C2 10 00 CC CC CC CC CC CC _^][..P.........
007B61A0 6A FF 68 E9 0E 88 00 64 A1 00 00 00 00 50 83 EC j.h....d.....P..
007B61B0 44 53 55 56 57 A1 88 41 A1 00 33 C4 50 8D 44 24 DSUVW..A..3.P.D$
007B61C0 58 64 A3 00 00 00 00 8B F9 81 7F 08 FE FF FF 1F Xd..............
007B61D0 72 3C 68 80 6D 8A 00 8D 4C 24 18 FF 15 34 43 8A r<h.m...L$...4C.
007B61E0 00 8D 44 24 14 50 8D 4C 24 34 C7 44 24 64 00 00 ..D$.P.L$4.D$d..
007B61F0 00 00 E8 E9 B7 C4 FF 68 68 9C 99 00 8D 4C 24 34 .......hh....L$4
007B6200 51 C7 44 24 38 30 00 99 00 E8 BE ED ED FF 8B 54 Q.D$80.........T
007B6210 24 74 8B 47 04 8B 74 24 70 6A 00 52 50 56 50 E8 $t.G..t$pj.RPVP.
007B6220 0C ED EE FF 8B E8 8B 47 04 BB 01 00 00 00 01 5F .......G......._
007B6230 08 3B F0 75 10 89 68 04 8B 47 04 89 28 8B 4F 04 .;.u..h..G..(.O.
007B6240 89 69 08 EB 22 80 7C 24 6C 00 74 0D 89 2E 8B 47 .i..".|$l.t....G
007B6250 04 3B 30 75 12 89 28 EB 0E 89 6E 08 8B 47 04 3B .;0u..(...n..G.;
007B6260 70 08 75 03 89 68 08 8B 55 04 80 7A 14 00 8D 45 p.u..h..U..z...E
007B6270 04 8B F5 0F 85 EC 00 00 00 8D A4 24 00 00 00 00 ...........$....
007B6280 8B 08 8B 51 04 3B 0A 75 51 8B 52 08 80 7A 14 00 ...Q.;.uQ.R..z..
007B6290 75 19 88 59 14 88 5A 14 8B 10 8B 4A 04 C6 41 14 u..Y..Z....J..A.
007B62A0 00 8B 10 8B 72 04 E9 AA 00 00 00 3B 71 08 75 0A ....r......;q.u.
007B62B0 8B F1 56 8B CF E8 06 9A D6 FF 8B 46 04 88 58 14 ..V........F..X.
007B62C0 8B 4E 04 8B 51 04 C6 42 14 00 8B 46 04 8B 48 04 .N..Q..B...F..H.
007B62D0 51 8B CF E8 A8 D4 C9 FF EB 7B 8B 12 80 7A 14 00 Q........{...z..
007B62E0 75 16 88 59 14 88 5A 14 8B 10 8B 4A 04 C6 41 14 u..Y..Z....J..A.
007B62F0 00 8B 10 8B 72 04 EB 5D 3B 31 75 0A 8B F1 56 8B ....r..];1u...V.
007B6300 CF E8 7A D4 C9 FF 8B 46 04 88 58 14 8B 4E 04 8B ..z....F..X..N..
007B6310 51 04 C6 42 14 00 8B 46 04 8B 40 04 8B 48 08 8B Q..B...F..@..H..
007B6320 11 89 50 08 8B 11 80 7A 15 00 75 03 89 42 04 8B ..P....z..u..B..
007B6330 50 04 89 51 04 8B 57 04 3B 42 04 75 05 89 4A 04 P..Q..W.;B.u..J.
007B6340 EB 0E 8B 50 04 3B 02 75 04 89 0A EB 03 89 4A 08 ...P.;.u......J.
007B6350 89 01 89 48 04 8B 4E 04 80 79 14 00 8D 46 04 0F ...H..N..y...F..
007B6360 84 1B FF FF FF 8B 57 04 8B 42 04 88 58 14 8B 44 ......W..B..X..D
007B6370 24 68 89 28 8B 4C 24 58 64 89 0D 00 00 00 00 59 $h.(.L$Xd......Y
007B6380 5F 5E 5D 5B 83 C4 50 C2 10 00 CC CC CC CC CC CC _^][..P.........
007B6390 6A FF 68 18 0F 88 00 64 A1 00 00 00 00 50 56 A1 j.h....d.....PV.
007B63A0 88 41 A1 00 33 C4 50 8D 44 24 08 64 A3 00 00 00 .A..3.P.D$.d....
007B63B0 00 8B 74 24 18 85 F6 89 74 24 18 74 04 83 46 04 ..t$....t$.t..F.
007B63C0 01 8B 41 08 3B C6 C7 44 24 10 00 00 00 00 74 1F ..A.;..D$.....t.
007B63D0 85 F6 89 71 08 74 04 83 46 04 01 85 C0 74 10 83 ...q.t..F....t..
007B63E0 40 04 FF 75 0A 8B 10 8B C8 8B 02 6A 01 FF D0 85 @..u.......j....
007B63F0 F6 C7 44 24 10 FF FF FF FF 74 10 83 46 04 FF 75 ..D$.....t..F..u
007B6400 0A 8B 16 8B 02 6A 01 8B CE FF D0 8B 4C 24 08 64 .....j......L$.d
007B6410 89 0D 00 00 00 00 59 5E 83 C4 0C C2 04 00 CC CC ......Y^........
007B6420 6A FF 68 49 0F 88 00 64 A1 00 00 00 00 50 83 EC j.hI...d.....P..
007B6430 44 53 55 56 57 A1 88 41 A1 00 33 C4 50 8D 44 24 DSUVW..A..3.P.D$
007B6440 58 64 A3 00 00 00 00 8B F9 81 7F 08 FE FF FF 1F Xd..............
007B6450 72 3C 68 80 6D 8A 00 8D 4C 24 18 FF 15 34 43 8A r<h.m...L$...4C.
007B6460 00 8D 44 24 14 50 8D 4C 24 34 C7 44 24 64 00 00 ..D$.P.L$4.D$d..
007B6470 00 00 E8 69 B5 C4 FF 68 68 9C 99 00 8D 4C 24 34 ...i...hh....L$4
007B6480 51 C7 44 24 38 30 00 99 00 E8 3E EB ED FF 8B 54 Q.D$80....>....T
007B6490 24 74 8B 47 04 8B 74 24 70 6A 00 52 50 56 50 E8 $t.G..t$pj.RPVP.
007B64A0 8C EA EE FF 8B E8 8B 47 04 BB 01 00 00 00 01 5F .......G......._
007B64B0 08 3B F0 75 10 89 68 04 8B 47 04 89 28 8B 4F 04 .;.u..h..G..(.O.
007B64C0 89 69 08 EB 22 80 7C 24 6C 00 74 0D 89 2E 8B 47 .i..".|$l.t....G
007B64D0 04 3B 30 75 12 89 28 EB 0E 89 6E 08 8B 47 04 3B .;0u..(...n..G.;
007B64E0 70 08 75 03 89 68 08 8B 55 04 80 7A 14 00 8D 45 p.u..h..U..z...E
007B64F0 04 8B F5 0F 85 EC 00 00 00 8D A4 24 00 00 00 00 ...........$....
007B6500 8B 08 8B 51 04 3B 0A 75 51 8B 52 08 80 7A 14 00 ...Q.;.uQ.R..z..
007B6510 75 19 88 59 14 88 5A 14 8B 10 8B 4A 04 C6 41 14 u..Y..Z....J..A.
007B6520 00 8B 10 8B 72 04 E9 AA 00 00 00 3B 71 08 75 0A ....r......;q.u.
007B6530 8B F1 56 8B CF E8 86 97 D6 FF 8B 46 04 88 58 14 ..V........F..X.
007B6540 8B 4E 04 8B 51 04 C6 42 14 00 8B 46 04 8B 48 04 .N..Q..B...F..H.
007B6550 51 8B CF E8 28 D2 C9 FF EB 7B 8B 12 80 7A 14 00 Q...(....{...z..
007B6560 75 16 88 59 14 88 5A 14 8B 10 8B 4A 04 C6 41 14 u..Y..Z....J..A.
007B6570 00 8B 10 8B 72 04 EB 5D 3B 31 75 0A 8B F1 56 8B ....r..];1u...V.
007B6580 CF E8 FA D1 C9 FF 8B 46 04 88 58 14 8B 4E 04 8B .......F..X..N..
007B6590 51 04 C6 42 14 00 8B 46 04 8B 40 04 8B 48 08 8B Q..B...F..@..H..
007B65A0 11 89 50 08 8B 11 80 7A 15 00 75 03 89 42 04 8B ..P....z..u..B..
007B65B0 50 04 89 51 04 8B 57 04 3B 42 04 75 05 89 4A 04 P..Q..W.;B.u..J.
007B65C0 EB 0E 8B 50 04 3B 02 75 04 89 0A EB 03 89 4A 08 ...P.;.u......J.
007B65D0 89 01 89 48 04 8B 4E 04 80 79 14 00 8D 46 04 0F ...H..N..y...F..
007B65E0 84 1B FF FF FF 8B 57 04 8B 42 04 88 58 14 8B 44 ......W..B..X..D
007B65F0 24 68 89 28 8B 4C 24 58 64 89 0D 00 00 00 00 59 $h.(.L$Xd......Y
007B6600 5F 5E 5D 5B 83 C4 50 C2 10 00 CC CC CC CC CC CC _^][..P.........
007B6610 6A FF 68 79 0F 88 00 64 A1 00 00 00 00 50 83 EC j.hy...d.....P..
007B6620 44 53 55 56 57 A1 88 41 A1 00 33 C4 50 8D 44 24 DSUVW..A..3.P.D$
007B6630 58 64 A3 00 00 00 00 8B F9 81 7F 08 FE FF FF 03 Xd..............
007B6640 72 3C 68 80 6D 8A 00 8D 4C 24 18 FF 15 34 43 8A r<h.m...L$...4C.
007B6650 00 8D 44 24 14 50 8D 4C 24 34 C7 44 24 64 00 00 ..D$.P.L$4.D$d..
007B6660 00 00 E8 79 B3 C4 FF 68 68 9C 99 00 8D 4C 24 34 ...y...hh....L$4
007B6670 51 C7 44 24 38 30 00 99 00 E8 4E E9 ED FF 8B 54 Q.D$80....N....T
007B6680 24 74 8B 47 04 8B 74 24 70 6A 00 52 50 56 50 E8 $t.G..t$pj.RPVP.
007B6690 0C EB FF FF 8B E8 8B 47 04 BB 01 00 00 00 01 5F .......G......._
007B66A0 08 3B F0 75 10 89 68 04 8B 47 04 89 28 8B 4F 04 .;.u..h..G..(.O.
007B66B0 89 69 08 EB 22 80 7C 24 6C 00 74 0D 89 2E 8B 47 .i..".|$l.t....G
007B66C0 04 3B 30 75 12 89 28 EB 0E 89 6E 08 8B 47 04 3B .;0u..(...n..G.;
007B66D0 70 08 75 03 89 68 08 8B 55 04 80 7A 50 00 8D 45 p.u..h..U..zP..E
007B66E0 04 8B F5 0F 85 EC 00 00 00 8D A4 24 00 00 00 00 ...........$....
007B66F0 8B 08 8B 51 04 3B 0A 75 51 8B 52 08 80 7A 50 00 ...Q.;.uQ.R..zP.
007B6700 75 19 88 59 50 88 5A 50 8B 10 8B 4A 04 C6 41 50 u..YP.ZP...J..AP
007B6710 00 8B 10 8B 72 04 E9 AA 00 00 00 3B 71 08 75 0A ....r......;q.u.
007B6720 8B F1 56 8B CF E8 F6 E0 FF FF 8B 46 04 88 58 50 ..V........F..XP
007B6730 8B 4E 04 8B 51 04 C6 42 50 00 8B 46 04 8B 48 04 .N..Q..BP..F..H.
007B6740 51 8B CF E8 08 DB FF FF EB 7B 8B 12 80 7A 50 00 Q........{...zP.
007B6750 75 16 88 59 50 88 5A 50 8B 10 8B 4A 04 C6 41 50 u..YP.ZP...J..AP
007B6760 00 8B 10 8B 72 04 EB 5D 3B 31 75 0A 8B F1 56 8B ....r..];1u...V.
007B6770 CF E8 DA DA FF FF 8B 46 04 88 58 50 8B 4E 04 8B .......F..XP.N..
007B6780 51 04 C6 42 50 00 8B 46 04 8B 40 04 8B 48 08 8B Q..BP..F..@..H..
007B6790 11 89 50 08 8B 11 80 7A 51 00 75 03 89 42 04 8B ..P....zQ.u..B..
007B67A0 50 04 89 51 04 8B 57 04 3B 42 04 75 05 89 4A 04 P..Q..W.;B.u..J.
007B67B0 EB 0E 8B 50 04 3B 02 75 04 89 0A EB 03 89 4A 08 ...P.;.u......J.
007B67C0 89 01 89 48 04 8B 4E 04 80 79 50 00 8D 46 04 0F ...H..N..yP..F..
007B67D0 84 1B FF FF FF 8B 57 04 8B 42 04 88 58 50 8B 44 ......W..B..XP.D
007B67E0 24 68 89 28 8B 4C 24 58 64 89 0D 00 00 00 00 59 $h.(.L$Xd......Y
007B67F0 5F 5E 5D 5B 83 C4 50 C2 10 00 CC CC CC CC CC CC _^][..P.........
007B6800 53 8B 5C 24 10 56 8B 74 24 10 57 8B F9 8B 47 04 S.\$.V.t$.W...G.
007B6810 3B 30 75 36 3B D8 75 32 8B 40 04 50 E8 8F 54 DD ;0u6;.u2.@.P..T.
007B6820 FF 8B 47 04 89 40 04 8B 47 04 C7 47 08 00 00 00 ..G..@..G..G....
007B6830 00 89 00 8B 47 04 89 40 08 8B 4F 04 8B 11 8B 44 ....G..@..O....D
007B6840 24 10 5F 5E 89 10 5B C2 0C 00 3B F3 74 5A 8B FF $._^..[...;.tZ..
007B6850 80 7E 19 00 8B CE 75 3F 8B 46 08 80 78 19 00 75 .~....u?.F..x..u
007B6860 1B 8B F0 8B 06 80 78 19 00 75 2C EB 03 8D 49 00 ......x..u,...I.
007B6870 8B F0 8B 06 80 78 19 00 74 F6 EB 1B 8B 46 04 80 .....x..t....F..
007B6880 78 19 00 75 10 3B 70 08 75 0B 8B F0 8B 40 04 80 x..u.;p.u....@..
007B6890 78 19 00 74 F0 8B F0 51 8D 44 24 18 50 8B CF E8 x..t...Q.D$.P...
007B68A0 0C F1 FF FF 3B F3 75 A8 8B 44 24 10 5F 89 30 5E ....;.u..D$._.0^
007B68B0 5B C2 0C 00 CC CC CC CC CC CC CC CC CC CC CC CC [...............
007B68C0 6A FF 68 A9 0F 88 00 64 A1 00 00 00 00 50 83 EC j.h....d.....P..
007B68D0 44 53 55 56 57 A1 88 41 A1 00 33 C4 50 8D 44 24 DSUVW..A..3.P.D$
007B68E0 58 64 A3 00 00 00 00 8B F9 81 7F 08 54 55 55 15 Xd..........TUU.
007B68F0 72 3C 68 80 6D 8A 00 8D 4C 24 18 FF 15 34 43 8A r<h.m...L$...4C.
007B6900 00 8D 44 24 14 50 8D 4C 24 34 C7 44 24 64 00 00 ..D$.P.L$4.D$d..
007B6910 00 00 E8 C9 B0 C4 FF 68 68 9C 99 00 8D 4C 24 34 .......hh....L$4
007B6920 51 C7 44 24 38 30 00 99 00 E8 9E E6 ED FF 8B 54 Q.D$80.........T
007B6930 24 74 8B 47 04 8B 74 24 70 6A 00 52 50 56 50 E8 $t.G..t$pj.RPVP.
007B6940 AC 53 DD FF 8B E8 8B 47 04 BB 01 00 00 00 01 5F .S.....G......._
007B6950 08 3B F0 75 10 89 68 04 8B 47 04 89 28 8B 4F 04 .;.u..h..G..(.O.
007B6960 89 69 08 EB 22 80 7C 24 6C 00 74 0D 89 2E 8B 47 .i..".|$l.t....G
007B6970 04 3B 30 75 12 89 28 EB 0E 89 6E 08 8B 47 04 3B .;0u..(...n..G.;
007B6980 70 08 75 03 89 68 08 8B 55 04 80 7A 18 00 8D 45 p.u..h..U..z...E
007B6990 04 8B F5 0F 85 EC 00 00 00 8D A4 24 00 00 00 00 ...........$....
007B69A0 8B 08 8B 51 04 3B 0A 75 51 8B 52 08 80 7A 18 00 ...Q.;.uQ.R..z..
007B69B0 75 19 88 59 18 88 5A 18 8B 10 8B 4A 04 C6 41 18 u..Y..Z....J..A.
007B69C0 00 8B 10 8B 72 04 E9 AA 00 00 00 3B 71 08 75 0A ....r......;q.u.
007B69D0 8B F1 56 8B CF E8 C6 DC FF FF 8B 46 04 88 58 18 ..V........F..X.
007B69E0 8B 4E 04 8B 51 04 C6 42 18 00 8B 46 04 8B 48 04 .N..Q..B...F..H.
007B69F0 51 8B CF E8 D8 4C DD FF EB 7B 8B 12 80 7A 18 00 Q....L...{...z..
007B6A00 75 16 88 59 18 88 5A 18 8B 10 8B 4A 04 C6 41 18 u..Y..Z....J..A.
007B6A10 00 8B 10 8B 72 04 EB 5D 3B 31 75 0A 8B F1 56 8B ....r..];1u...V.
007B6A20 CF E8 AA 4C DD FF 8B 46 04 88 58 18 8B 4E 04 8B ...L...F..X..N..
007B6A30 51 04 C6 42 18 00 8B 46 04 8B 40 04 8B 48 08 8B Q..B...F..@..H..
007B6A40 11 89 50 08 8B 11 80 7A 19 00 75 03 89 42 04 8B ..P....z..u..B..
007B6A50 50 04 89 51 04 8B 57 04 3B 42 04 75 05 89 4A 04 P..Q..W.;B.u..J.
007B6A60 EB 0E 8B 50 04 3B 02 75 04 89 0A EB 03 89 4A 08 ...P.;.u......J.
007B6A70 89 01 89 48 04 8B 4E 04 80 79 18 00 8D 46 04 0F ...H..N..y...F..
007B6A80 84 1B FF FF FF 8B 57 04 8B 42 04 88 58 18 8B 44 ......W..B..X..D
007B6A90 24 68 89 28 8B 4C 24 58 64 89 0D 00 00 00 00 59 $h.(.L$Xd......Y
007B6AA0 5F 5E 5D 5B 83 C4 50 C2 10 00 CC CC CC CC CC CC _^][..P.........
007B6AB0 8B 54 24 08 8B C1 8B 4C 24 04 89 48 08 8B 4C 24 .T$....L$..H..L$
007B6AC0 0C 89 50 0C 8B 54 24 10 89 48 10 8B 4C 24 14 85 ..P..T$..H..L$..
007B6AD0 C9 C7 40 04 00 00 00 00 C7 00 80 98 98 00 89 50 ..@............P
007B6AE0 14 89 48 18 74 04 83 41 04 01 C2 14 00 CC CC CC ..H.t..A........
007B6AF0 6A FF 68 D8 0F 88 00 64 A1 00 00 00 00 50 51 56 j.h....d.....PQV
007B6B00 57 A1 88 41 A1 00 33 C4 50 8D 44 24 10 64 A3 00 W..A..3.P.D$.d..
007B6B10 00 00 00 8B F1 89 74 24 0C 8B 4E 18 33 FF 3B CF ......t$..N.3.;.
007B6B20 89 7C 24 18 74 0E 83 41 04 FF 75 08 8B 01 8B 10 .|$.t..A..u.....
007B6B30 6A 01 FF D2 89 7E 18 C7 06 78 6D 8A 00 8B 4C 24 j....~...xm...L$
007B6B40 10 64 89 0D 00 00 00 00 59 5F 5E 83 C4 10 C3 CC .d......Y_^.....
007B6B50 56 8B F1 E8 98 FF FF FF F6 44 24 08 01 74 09 56 V........D$..t.V
007B6B60 E8 61 E4 ED FF 83 C4 04 8B C6 5E C2 04 00 CC CC .a........^.....
007B6B70 56 8B F1 E8 E8 E2 FF FF F6 44 24 08 01 74 09 56 V........D$..t.V
007B6B80 E8 41 E4 ED FF 83 C4 04 8B C6 5E C2 04 00 CC CC .A........^.....
007B6B90 6A FF 68 09 10 88 00 64 A1 00 00 00 00 50 83 EC j.h....d.....P..
007B6BA0 48 53 55 56 57 A1 88 41 A1 00 33 C4 50 8D 44 24 HSUVW..A..3.P.D$
007B6BB0 5C 64 A3 00 00 00 00 8B E9 8B 44 24 70 80 78 19 \d........D$p.x.
007B6BC0 00 74 3C 68 94 6D 8A 00 8D 4C 24 1C FF 15 34 43 .t<h.m...L$...4C
007B6BD0 8A 00 8D 44 24 18 50 8D 4C 24 38 C7 44 24 68 00 ...D$.P.L$8.D$h.
007B6BE0 00 00 00 E8 F8 AD C4 FF 68 8C A8 99 00 8D 4C 24 ........h.....L$
007B6BF0 38 51 C7 44 24 3C 3C 00 99 00 E8 CD E3 ED FF 8B 8Q.D$<<.........
007B6C00 D8 8D 4C 24 70 89 5C 24 14 E8 D2 4B DD FF 8B 03 ..L$p.\$...K....
007B6C10 80 78 19 00 74 05 8B 7B 08 EB 18 8B 53 08 80 7A .x..t..{....S..z
007B6C20 19 00 74 04 8B F8 EB 0B 8B 4C 24 70 3B CB 8B 79 ..t......L$p;..y
007B6C30 08 75 6B 80 7F 19 00 8B 73 04 75 03 89 77 04 8B .uk.....s.u..w..
007B6C40 45 04 39 58 04 75 05 89 78 04 EB 0B 39 1E 75 04 E.9X.u..x...9.u.
007B6C50 89 3E EB 03 89 7E 08 8B 5D 04 8B 03 3B 44 24 14 .>...~..]...;D$.
007B6C60 75 15 80 7F 19 00 74 04 8B C6 EB 09 57 E8 3E 4A u.....t.....W.>J
007B6C70 DD FF 83 C4 04 89 03 8B 5D 04 8B 4C 24 14 39 4B ........]..L$.9K
007B6C80 08 75 72 80 7F 19 00 74 07 8B C6 89 43 08 EB 65 .ur....t....C..e
007B6C90 57 E8 1A D6 FF FF 83 C4 04 89 43 08 EB 57 89 48 W.........C..W.H
007B6CA0 04 8B 13 89 11 3B 4B 08 75 04 8B F1 EB 1A 80 7F .....;K.u.......
007B6CB0 19 00 8B 71 04 75 03 89 77 04 89 3E 8B 43 08 89 ...q.u..w..>.C..
007B6CC0 41 08 8B 53 08 89 4A 04 8B 45 04 39 58 04 75 05 A..S..J..E.9X.u.
007B6CD0 89 48 04 EB 0E 8B 43 04 39 18 75 04 89 08 EB 03 .H....C.9.u.....
007B6CE0 89 48 08 8B 43 04 89 41 04 8A 53 18 8A 41 18 88 .H..C..A..S..A..
007B6CF0 51 18 88 43 18 8B 44 24 14 B3 01 38 58 18 0F 85 Q..C..D$...8X...
007B6D00 F2 00 00 00 8B 4D 04 3B 79 04 0F 84 E3 00 00 00 .....M.;y.......
007B6D10 38 5F 18 0F 85 DA 00 00 00 8B 06 3B F8 75 63 8B 8_.........;.uc.
007B6D20 46 08 80 78 18 00 75 12 88 58 18 56 8B CD C6 46 F..x..u..X.V...F
007B6D30 18 00 E8 69 D9 FF FF 8B 46 08 80 78 19 00 75 72 ...i....F..x..ur
007B6D40 8B 10 38 5A 18 75 08 8B 48 08 38 59 18 74 5F 8B ..8Z.u..H.8Y.t_.
007B6D50 48 08 38 59 18 75 12 88 5A 18 50 8B CD C6 40 18 H.8Y.u..Z.P...@.
007B6D60 00 E8 6A 49 DD FF 8B 46 08 8A 4E 18 88 48 18 88 ..jI...F..N..H..
007B6D70 5E 18 8B 50 08 56 8B CD 88 5A 18 E8 20 D9 FF FF ^..P.V...Z.. ...
007B6D80 EB 71 80 78 18 00 75 11 88 58 18 56 8B CD C6 46 .q.x..u..X.V...F
007B6D90 18 00 E8 39 49 DD FF 8B 06 80 78 19 00 75 13 8B ...9I.....x..u..
007B6DA0 50 08 38 5A 18 75 1E 8B 08 38 59 18 75 17 C6 40 P.8Z.u...8Y.u..@
007B6DB0 18 00 8B 55 04 8B FE 3B 7A 04 8B 76 04 0F 85 4D ...U...;z..v...M
007B6DC0 FF FF FF EB 2E 8B 08 38 59 18 75 11 88 5A 18 50 .......8Y.u..Z.P
007B6DD0 8B CD C6 40 18 00 E8 C5 D8 FF FF 8B 06 8A 4E 18 ...@..........N.
007B6DE0 88 48 18 88 5E 18 8B 10 56 8B CD 88 5A 18 E8 DD .H..^...V...Z...
007B6DF0 48 DD FF 88 5F 18 8B 44 24 14 50 E8 C6 E1 ED FF H..._..D$.P.....
007B6E00 8B 45 08 83 C4 04 85 C0 76 06 83 C0 FF 89 45 08 .E......v.....E.
007B6E10 8B 44 24 6C 8B 4C 24 70 89 08 8B 4C 24 5C 64 89 .D$l.L$p...L$\d.
007B6E20 0D 00 00 00 00 59 5F 5E 5D 5B 83 C4 54 C2 08 00 .....Y_^][..T...
007B6E30 8B 54 24 08 8B C1 8B 4C 24 04 89 08 8B 4C 24 0C .T$....L$....L$.
007B6E40 89 50 04 8B 54 24 10 85 D2 89 48 08 C7 40 0C 28 .P..T$....H..@.(
007B6E50 CE 8A 00 74 05 8D 4A 04 EB 02 33 C9 56 8B 31 89 ...t..J...3.V.1.
007B6E60 70 10 8B 71 04 89 70 14 8B 49 08 89 48 18 C7 40 p..q..p..I..H..@
007B6E70 0C 50 98 98 00 8B 4A 10 85 C9 89 48 1C 5E 74 04 .P....J....H.^t.
007B6E80 83 41 04 01 8B 4A 14 89 48 20 8B 52 18 8A 4C 24 .A...J..H .R..L$
007B6E90 14 89 50 24 88 48 28 C6 40 29 00 C2 14 00 CC CC ..P$.H(.@)......
007B6EA0 53 56 57 8B 7C 24 10 80 7F 51 00 8B D9 8B F7 75 SVW.|$...Q.....u
007B6EB0 27 8B 46 08 50 8B CB E8 E4 FF FF FF 8B 36 8D 4F '.F.P........6.O
007B6EC0 18 FF 15 38 43 8A 00 57 E8 F9 E0 ED FF 83 C4 04 ...8C..W........
007B6ED0 80 7E 51 00 8B FE 74 D9 5F 5E 5B C2 04 00 CC CC .~Q...t._^[.....
007B6EE0 8B 4C 24 04 56 8B 74 24 0C 3B CE 74 4E 8B 54 24 .L$.V.t$.;.tN.T$
007B6EF0 10 83 02 01 80 79 19 00 75 3D 8B 41 08 80 78 19 .....y..u=.A..x.
007B6F00 00 75 19 8B C8 8B 01 80 78 19 00 75 2A 8D 49 00 .u......x..u*.I.
007B6F10 8B C8 8B 01 80 78 19 00 74 F6 EB 1B 8B 41 04 80 .....x..t....A..
007B6F20 78 19 00 75 10 3B 48 08 75 0B 8B C8 8B 40 04 80 x..u.;H.u....@..
007B6F30 78 19 00 74 F0 8B C8 3B CE 75 B6 5E C3 CC CC CC x..t...;.u.^....
007B6F40 6A FF 68 39 10 88 00 64 A1 00 00 00 00 50 83 EC j.h9...d.....P..
007B6F50 48 53 55 56 57 A1 88 41 A1 00 33 C4 50 8D 44 24 HSUVW..A..3.P.D$
007B6F60 5C 64 A3 00 00 00 00 8B E9 8B 44 24 70 80 78 19 \d........D$p.x.
007B6F70 00 74 3C 68 94 6D 8A 00 8D 4C 24 1C FF 15 34 43 .t<h.m...L$...4C
007B6F80 8A 00 8D 44 24 18 50 8D 4C 24 38 C7 44 24 68 00 ...D$.P.L$8.D$h.
007B6F90 00 00 00 E8 48 AA C4 FF 68 8C A8 99 00 8D 4C 24 ....H...h.....L$
007B6FA0 38 51 C7 44 24 3C 3C 00 99 00 E8 1D E0 ED FF 8B 8Q.D$<<.........
007B6FB0 D8 8D 4C 24 70 89 5C 24 14 E8 22 48 DD FF 8B 03 ..L$p.\$.."H....
007B6FC0 80 78 19 00 74 05 8B 7B 08 EB 18 8B 53 08 80 7A .x..t..{....S..z
007B6FD0 19 00 74 04 8B F8 EB 0B 8B 4C 24 70 3B CB 8B 79 ..t......L$p;..y
007B6FE0 08 75 6B 80 7F 19 00 8B 73 04 75 03 89 77 04 8B .uk.....s.u..w..
007B6FF0 45 04 39 58 04 75 05 89 78 04 EB 0B 39 1E 75 04 E.9X.u..x...9.u.
007B7000 89 3E EB 03 89 7E 08 8B 5D 04 8B 03 3B 44 24 14 .>...~..]...;D$.
007B7010 75 15 80 7F 19 00 74 04 8B C6 EB 09 57 E8 8E 46 u.....t.....W..F
007B7020 DD FF 83 C4 04 89 03 8B 5D 04 8B 4C 24 14 39 4B ........]..L$.9K
007B7030 08 75 72 80 7F 19 00 74 07 8B C6 89 43 08 EB 65 .ur....t....C..e
007B7040 57 E8 6A D2 FF FF 83 C4 04 89 43 08 EB 57 89 48 W.j.......C..W.H
007B7050 04 8B 13 89 11 3B 4B 08 75 04 8B F1 EB 1A 80 7F .....;K.u.......
007B7060 19 00 8B 71 04 75 03 89 77 04 89 3E 8B 43 08 89 ...q.u..w..>.C..
007B7070 41 08 8B 53 08 89 4A 04 8B 45 04 39 58 04 75 05 A..S..J..E.9X.u.
007B7080 89 48 04 EB 0E 8B 43 04 39 18 75 04 89 08 EB 03 .H....C.9.u.....
007B7090 89 48 08 8B 43 04 89 41 04 8A 53 18 8A 41 18 88 .H..C..A..S..A..
007B70A0 51 18 88 43 18 8B 44 24 14 B3 01 38 58 18 0F 85 Q..C..D$...8X...
007B70B0 F2 00 00 00 8B 4D 04 3B 79 04 0F 84 E3 00 00 00 .....M.;y.......
007B70C0 38 5F 18 0F 85 DA 00 00 00 8B 06 3B F8 75 63 8B 8_.........;.uc.
007B70D0 46 08 80 78 18 00 75 12 88 58 18 56 8B CD C6 46 F..x..u..X.V...F
007B70E0 18 00 E8 B9 D5 FF FF 8B 46 08 80 78 19 00 75 72 ........F..x..ur
007B70F0 8B 10 38 5A 18 75 08 8B 48 08 38 59 18 74 5F 8B ..8Z.u..H.8Y.t_.
007B7100 48 08 38 59 18 75 12 88 5A 18 50 8B CD C6 40 18 H.8Y.u..Z.P...@.
007B7110 00 E8 BA 45 DD FF 8B 46 08 8A 4E 18 88 48 18 88 ...E...F..N..H..
007B7120 5E 18 8B 50 08 56 8B CD 88 5A 18 E8 70 D5 FF FF ^..P.V...Z..p...
007B7130 EB 71 80 78 18 00 75 11 88 58 18 56 8B CD C6 46 .q.x..u..X.V...F
007B7140 18 00 E8 89 45 DD FF 8B 06 80 78 19 00 75 13 8B ....E.....x..u..
007B7150 50 08 38 5A 18 75 1E 8B 08 38 59 18 75 17 C6 40 P.8Z.u...8Y.u..@
007B7160 18 00 8B 55 04 8B FE 3B 7A 04 8B 76 04 0F 85 4D ...U...;z..v...M
007B7170 FF FF FF EB 2E 8B 08 38 59 18 75 11 88 5A 18 50 .......8Y.u..Z.P
007B7180 8B CD C6 40 18 00 E8 15 D5 FF FF 8B 06 8A 4E 18 ...@..........N.
007B7190 88 48 18 88 5E 18 8B 10 56 8B CD 88 5A 18 E8 2D .H..^...V...Z..-
007B71A0 45 DD FF 88 5F 18 8B 44 24 14 50 E8 16 DE ED FF E..._..D$.P.....
007B71B0 8B 45 08 83 C4 04 85 C0 76 06 83 C0 FF 89 45 08 .E......v.....E.
007B71C0 8B 44 24 6C 8B 4C 24 70 89 08 8B 4C 24 5C 64 89 .D$l.L$p...L$\d.
007B71D0 0D 00 00 00 00 59 5F 5E 5D 5B 83 C4 54 C2 08 00 .....Y_^][..T...
007B71E0 6A FF 68 69 10 88 00 64 A1 00 00 00 00 50 83 EC j.hi...d.....P..
007B71F0 48 53 55 56 57 A1 88 41 A1 00 33 C4 50 8D 44 24 HSUVW..A..3.P.D$
007B7200 5C 64 A3 00 00 00 00 8B E9 8B 44 24 70 80 78 15 \d........D$p.x.
007B7210 00 74 3C 68 94 6D 8A 00 8D 4C 24 1C FF 15 34 43 .t<h.m...L$...4C
007B7220 8A 00 8D 44 24 18 50 8D 4C 24 38 C7 44 24 68 00 ...D$.P.L$8.D$h.
007B7230 00 00 00 E8 A8 A7 C4 FF 68 8C A8 99 00 8D 4C 24 ........h.....L$
007B7240 38 51 C7 44 24 3C 3C 00 99 00 E8 7D DD ED FF 8B 8Q.D$<<....}....
007B7250 D8 8D 4C 24 70 89 5C 24 14 E8 D2 BF EE FF 8B 03 ..L$p.\$........
007B7260 80 78 15 00 74 05 8B 7B 08 EB 18 8B 53 08 80 7A .x..t..{....S..z
007B7270 15 00 74 04 8B F8 EB 0B 8B 4C 24 70 3B CB 8B 79 ..t......L$p;..y
007B7280 08 75 6B 80 7F 15 00 8B 73 04 75 03 89 77 04 8B .uk.....s.u..w..
007B7290 45 04 39 58 04 75 05 89 78 04 EB 0B 39 1E 75 04 E.9X.u..x...9.u.
007B72A0 89 3E EB 03 89 7E 08 8B 5D 04 8B 03 3B 44 24 14 .>...~..]...;D$.
007B72B0 75 15 80 7F 15 00 74 04 8B C6 EB 09 57 E8 0E C6 u.....t.....W...
007B72C0 03 00 83 C4 04 89 03 8B 5D 04 8B 4C 24 14 39 4B ........]..L$.9K
007B72D0 08 75 72 80 7F 15 00 74 07 8B C6 89 43 08 EB 65 .ur....t....C..e
007B72E0 57 E8 FA B3 C9 FF 83 C4 04 89 43 08 EB 57 89 48 W.........C..W.H
007B72F0 04 8B 13 89 11 3B 4B 08 75 04 8B F1 EB 1A 80 7F .....;K.u.......
007B7300 15 00 8B 71 04 75 03 89 77 04 89 3E 8B 43 08 89 ...q.u..w..>.C..
007B7310 41 08 8B 53 08 89 4A 04 8B 45 04 39 58 04 75 05 A..S..J..E.9X.u.
007B7320 89 48 04 EB 0E 8B 43 04 39 18 75 04 89 08 EB 03 .H....C.9.u.....
007B7330 89 48 08 8B 43 04 89 41 04 8A 53 14 8A 41 14 88 .H..C..A..S..A..
007B7340 51 14 88 43 14 8B 44 24 14 B3 01 38 58 14 0F 85 Q..C..D$...8X...
007B7350 F2 00 00 00 8B 4D 04 3B 79 04 0F 84 E3 00 00 00 .....M.;y.......
007B7360 38 5F 14 0F 85 DA 00 00 00 8B 06 3B F8 75 63 8B 8_.........;.uc.
007B7370 46 08 80 78 14 00 75 12 88 58 14 56 8B CD C6 46 F..x..u..X.V...F
007B7380 14 00 E8 39 89 D6 FF 8B 46 08 80 78 15 00 75 72 ...9....F..x..ur
007B7390 8B 10 38 5A 14 75 08 8B 48 08 38 59 14 74 5F 8B ..8Z.u..H.8Y.t_.
007B73A0 48 08 38 59 14 75 12 88 5A 14 50 8B CD C6 40 14 H.8Y.u..Z.P...@.
007B73B0 00 E8 CA C3 C9 FF 8B 46 08 8A 4E 14 88 48 14 88 .......F..N..H..
007B73C0 5E 14 8B 50 08 56 8B CD 88 5A 14 E8 F0 88 D6 FF ^..P.V...Z......
007B73D0 EB 71 80 78 14 00 75 11 88 58 14 56 8B CD C6 46 .q.x..u..X.V...F
007B73E0 14 00 E8 99 C3 C9 FF 8B 06 80 78 15 00 75 13 8B ..........x..u..
007B73F0 50 08 38 5A 14 75 1E 8B 08 38 59 14 75 17 C6 40 P.8Z.u...8Y.u..@
007B7400 14 00 8B 55 04 8B FE 3B 7A 04 8B 76 04 0F 85 4D ...U...;z..v...M
007B7410 FF FF FF EB 2E 8B 08 38 59 14 75 11 88 5A 14 50 .......8Y.u..Z.P
007B7420 8B CD C6 40 14 00 E8 95 88 D6 FF 8B 06 8A 4E 14 ...@..........N.
007B7430 88 48 14 88 5E 14 8B 10 56 8B CD 88 5A 14 E8 3D .H..^...V...Z..=
007B7440 C3 C9 FF 88 5F 14 8B 44 24 14 50 E8 76 DB ED FF ...._..D$.P.v...
007B7450 8B 45 08 83 C4 04 85 C0 76 06 83 C0 FF 89 45 08 .E......v.....E.
007B7460 8B 44 24 6C 8B 4C 24 70 89 08 8B 4C 24 5C 64 89 .D$l.L$p...L$\d.
007B7470 0D 00 00 00 00 59 5F 5E 5D 5B 83 C4 54 C2 08 00 .....Y_^][..T...
007B7480 51 8B 49 38 85 C9 56 8B 74 24 0C C7 44 24 04 00 Q.I8..V.t$..D$..
007B7490 00 00 00 89 0E 74 05 E8 34 A6 C4 FF 8B C6 5E 59 .....t..4.....^Y
007B74A0 C2 04 00 CC CC CC CC CC CC CC CC CC CC CC CC CC ................
007B74B0 51 8B 89 A8 00 00 00 85 C9 56 8B 74 24 0C C7 44 Q........V.t$..D
007B74C0 24 04 00 00 00 00 89 0E 74 05 E8 01 A6 C4 FF 8B $.......t.......
007B74D0 C6 5E 59 C2 04 00 CC CC CC CC CC CC CC CC CC CC .^Y.............
007B74E0 6A FF 68 98 10 88 00 64 A1 00 00 00 00 50 56 57 j.h....d.....PVW
007B74F0 A1 88 41 A1 00 33 C4 50 8D 44 24 0C 64 A3 00 00 ..A..3.P.D$.d...
007B7500 00 00 8B B9 A8 00 00 00 8B 74 24 1C 3B FE C7 44 .........t$.;..D
007B7510 24 14 00 00 00 00 74 2B 85 F6 89 B1 A8 00 00 00 $.....t+........
007B7520 74 07 8B CE E8 A7 A5 C4 FF 85 FF 74 16 8B CF E8 t..........t....
007B7530 AC A5 C4 FF 83 F8 01 75 0A 8B 07 8B 10 6A 01 8B .......u.....j..
007B7540 CF FF D2 85 F6 C7 44 24 14 FF FF FF FF 74 16 8B ......D$.....t..
007B7550 CE E8 8A A5 C4 FF 83 F8 01 75 0A 8B 06 8B 10 6A .........u.....j
007B7560 01 8B CE FF D2 8B 4C 24 0C 64 89 0D 00 00 00 00 ......L$.d......
007B7570 59 5F 5E 83 C4 0C C2 04 00 CC CC CC CC CC CC CC Y_^.............
007B7580 6A FF 68 D8 10 88 00 64 A1 00 00 00 00 50 83 EC j.h....d.....P..
007B7590 34 53 56 57 A1 88 41 A1 00 33 C4 50 8D 44 24 44 4SVW..A..3.P.D$D
007B75A0 64 A3 00 00 00 00 33 DB 83 CF FF 89 7C 24 14 C6 d.....3.....|$..
007B75B0 44 24 18 01 88 5C 24 19 66 89 5C 24 1A 89 5C 24 D$...\$.f.\$..\$
007B75C0 1C 89 5C 24 20 6A 02 8D 4C 24 18 89 5C 24 50 E8 ..\$ j..L$..\$P.
007B75D0 DC 69 C8 FF 8D 44 24 10 50 68 C4 22 98 00 8D 4C .i...D$.Ph."...L
007B75E0 24 1C E8 A9 C0 FF FF 85 C0 74 14 68 E0 98 98 00 $........t.h....
007B75F0 E8 8B 96 D6 FF 83 C4 04 BE 7F 00 00 01 EB 04 8B ................
007B7600 74 24 10 8D 4C 24 34 E8 A4 17 01 00 C7 44 24 24 t$..L$4......D$$
007B7610 D0 97 98 00 88 5C 24 28 88 5C 24 30 8D 4C 24 24 .....\$(.\$0.L$$
007B7620 51 56 8D 54 24 1C 52 8D 4C 24 40 C6 44 24 58 02 QV.T$.R.L$@.D$X.
007B7630 E8 2B 49 01 00 85 C0 74 29 68 88 98 98 00 E8 3D .+I....t)h.....=
007B7640 96 D6 FF 83 C4 04 8D 4C 24 34 C7 44 24 24 74 97 .......L$4.D$$t.
007B7650 98 00 88 5C 24 4C E8 B5 4C CD FF 8B 44 24 14 50 ...\$L..L...D$.P
007B7660 EB 6F 38 5C 24 28 C7 44 24 24 74 97 98 00 88 5C .o8\$(.D$$t....\
007B7670 24 4C 74 4F 8B 4C 24 54 8B 54 24 2C 89 11 8D 4C $LtO.L$T.T$,...L
007B7680 24 34 E8 89 4C CD FF 8B 44 24 14 50 E8 6F E2 ED $4..L...D$.P.o..
007B7690 FF 85 C0 75 17 39 7C 24 14 74 11 39 1D A8 EC A6 ...u.9|$.t.9....
007B76A0 00 74 09 8D 4C 24 14 E8 B4 67 C8 FF B0 01 8B 4C .t..L$...g.....L
007B76B0 24 44 64 89 0D 00 00 00 00 59 5F 5E 5B 83 C4 40 $Dd......Y_^[..@
007B76C0 C2 04 00 8D 4C 24 34 E8 44 4C CD FF 8B 4C 24 14 ....L$4.DL...L$.
007B76D0 51 E8 2A E2 ED FF 85 C0 75 17 39 7C 24 14 74 11 Q.*.....u.9|$.t.
007B76E0 39 1D A8 EC A6 00 74 09 8D 4C 24 14 E8 6F 67 C8 9.....t..L$..og.
007B76F0 FF 32 C0 8B 4C 24 44 64 89 0D 00 00 00 00 59 5F .2..L$Dd......Y_
007B7700 5E 5B 83 C4 40 C2 04 00 CC CC CC CC CC CC CC CC ^[..@...........
007B7710 6A FF 68 0B 11 88 00 64 A1 00 00 00 00 50 56 57 j.h....d.....PVW
007B7720 A1 88 41 A1 00 33 C4 50 8D 44 24 0C 64 A3 00 00 ..A..3.P.D$.d...
007B7730 00 00 8B F1 8B 7C 24 1C 57 8D 44 24 20 50 8D 8E .....|$.W.D$ P..
007B7740 D8 02 00 00 E8 27 DE FF FF 8B 86 DC 02 00 00 8B .....'..........
007B7750 4C 24 1C 3B C8 74 61 8B 41 14 85 C0 75 73 80 7C L$.;.ta.A...us.|
007B7760 24 20 00 74 6C 8B CF E8 A4 D9 00 00 50 68 34 99 $ .tl.......Ph4.
007B7770 98 00 E8 09 95 D6 FF 68 F0 00 00 00 E8 57 D8 ED .......h.....W..
007B7780 FF 83 C4 0C 89 44 24 20 85 C0 C7 44 24 14 00 00 .....D$ ...D$...
007B7790 00 00 74 28 D9 E8 6A 00 51 8B D4 89 64 24 24 51 ..t(..j.Q...d$$Q
007B77A0 D9 1C 24 6A 00 57 56 8B C8 C7 02 00 00 00 00 E8 ..$j.WV.........
007B77B0 5C E1 00 00 8B F0 EB 06 33 C0 EB A2 33 F6 6A 01 \.......3...3.j.
007B77C0 8B CE C7 44 24 18 FF FF FF FF E8 31 DD 00 00 8B ...D$......1....
007B77D0 C6 8B 4C 24 0C 64 89 0D 00 00 00 00 59 5F 5E 83 ..L$.d......Y_^.
007B77E0 C4 0C C2 08 00 CC CC CC CC CC CC CC CC CC CC CC ................
007B77F0 56 57 8B 7C 24 0C 8B F1 57 8D 44 24 10 50 8D 8E VW.|$...W.D$.P..
007B7800 D8 02 00 00 E8 67 DD FF FF 8B 44 24 0C 3B 86 DC .....g....D$.;..
007B7810 02 00 00 74 30 8B 48 14 80 B9 C1 00 00 00 00 74 ...t0.H........t
007B7820 0A E8 FA F9 00 00 5F 5E C2 04 00 8B CF E8 DE D8 ......_^........
007B7830 00 00 50 68 A8 99 98 00 E8 43 94 D6 FF 83 C4 08 ..Ph.....C......
007B7840 5F 5E C2 04 00 8B CF E8 C4 D8 00 00 50 68 68 99 _^..........Phh.
007B7850 98 00 E8 29 94 D6 FF 83 C4 08 5F 5E C2 04 00 CC ...)......_^....
007B7860 51 53 8B 5C 24 10 80 3B FF 57 8B F9 74 1D 8B 4C QS.\$..;.W..t..L
007B7870 24 10 E8 99 D8 00 00 50 68 F8 9A 98 00 E8 FE 93 $......Ph.......
007B7880 D6 FF 83 C4 08 5F 5B 59 C2 0C 00 8B 43 08 83 F8 ....._[Y....C...
007B7890 04 7D 1E 8B 4C 24 10 50 E8 73 D8 00 00 50 68 A0 .}..L$.P.s...Ph.
007B78A0 9A 98 00 E8 D8 93 D6 FF 83 C4 0C 5F 5B 59 C2 0C ..........._[Y..
007B78B0 00 55 8B 6C 24 1C 8B 45 00 8B 50 04 56 6A 04 8B .U.l$..E..P.Vj..
007B78C0 CD FF D2 8B 30 83 43 08 FC 8D 44 24 1C 50 8D 54 ....0.C...D$.P.T
007B78D0 24 24 8D 4F 7C 52 89 74 24 24 89 4C 24 18 E8 8D $$.O|R.t$$.L$...
007B78E0 CD C9 FF 8B 44 24 20 3B 87 80 00 00 00 75 2A 8B ....D$ ;.....u*.
007B78F0 4C 24 18 56 E8 17 D8 00 00 50 68 38 9A 98 00 E8 L$.V.....Ph8....
007B7900 7C 93 D6 FF 8B 45 00 8B 50 0C 83 C4 0C 8B CD FF |....E..P.......
007B7910 D2 5E 5D 5F 5B 59 C2 0C 00 80 BF 14 05 00 00 00 .^]_[Y..........
007B7920 8B 70 10 8B 7C 24 18 74 3E 8B 46 14 85 C0 74 11 .p..|$.t>.F...t.
007B7930 83 C0 3C 50 57 E8 76 A8 C9 FF 83 C4 08 84 C0 74 ..<PW.v........t
007B7940 22 8B CF E8 C8 D7 00 00 50 8B 44 24 20 50 68 E8 ".......P.D$ Ph.
007B7950 99 98 00 E8 28 93 D6 FF 83 C4 0C 5E 5D 5F 5B 59 ....(......^]_[Y
007B7960 C2 0C 00 8B 44 24 20 8B 4E 08 85 C9 74 0E C7 41 ....D$ .N...t..A
007B7970 10 02 00 00 00 C7 46 08 00 00 00 00 50 8D 4C 24 ......F.....P.L$
007B7980 1C 51 8B 4C 24 18 E8 45 DC FF FF 8B 46 10 8B 4E .Q.L$..E....F..N
007B7990 0C 8B 11 8B 52 04 50 55 53 57 FF D2 8B 06 8B 10 ....R.PUSW......
007B79A0 6A 01 8B CE FF D2 5E 5D 5F 5B 59 C2 0C 00 CC CC j.....^]_[Y.....
007B79B0 51 F6 05 A0 EC A6 00 01 C7 04 24 00 00 00 00 75 Q.........$....u
007B79C0 1E 83 0D A0 EC A6 00 01 68 D0 2A 8A 00 C7 05 9C ........h.*.....
007B79D0 EC A6 00 00 00 00 00 E8 B0 D2 ED FF 83 C4 04 8B ................
007B79E0 0D 9C EC A6 00 85 C9 8B 44 24 08 89 08 74 04 83 ........D$...t..
007B79F0 41 04 01 59 C3 CC CC CC CC CC CC CC CC CC CC CC A..Y............
007B7A00 83 EC 08 8B 44 24 0C 53 56 57 8B F1 50 8D 4C 24 ....D$.SVW..P.L$
007B7A10 10 51 8B CE E8 47 E3 FF FF 8B 7C 24 10 8B 5C 24 .Q...G....|$..\$
007B7A20 0C C7 44 24 18 00 00 00 00 8B 54 24 18 52 8D 44 ..D$......T$.R.D
007B7A30 24 1C 50 57 53 E8 16 C6 C9 FF 83 C4 10 57 53 8D $.PWS........WS.
007B7A40 4C 24 14 51 8B CE E8 55 E2 FF FF 8B 44 24 18 5F L$.Q...U....D$._
007B7A50 5E 5B 83 C4 08 C2 04 00 CC CC CC CC CC CC CC CC ^[..............
007B7A60 51 53 8B D9 8B 4B 04 8B 41 04 80 78 19 00 56 8B QS...K..A..x..V.
007B7A70 74 24 14 57 8B F9 B1 01 88 4C 24 0C 75 34 55 8B t$.W.....L$.u4U.
007B7A80 6E 08 8B 48 14 3B E9 8B F8 7C 5B 75 15 8B 0E 8B n..H.;...|[u....
007B7A90 50 0C 3B CA 72 50 75 0A 66 8B 4E 04 66 3B 48 10 P.;.rPu.f.N.f;H.
007B7AA0 72 44 8B 40 08 32 C9 88 4C 24 10 80 78 19 00 74 rD.@.2..L$..x..t
007B7AB0 D1 5D 84 C9 8B D7 89 54 24 18 74 41 8B 53 04 3B .].....T$.tA.S.;
007B7AC0 3A 75 2D 56 57 6A 01 8D 44 24 24 50 8B CB E8 ED :u-VWj..D$$P....
007B7AD0 E2 FF FF 8B 08 8B 44 24 14 5F 5E 89 08 C6 40 04 ......D$._^...@.
007B7AE0 01 5B 59 C2 08 00 8B 00 B1 01 88 4C 24 10 EB BB .[Y........L$...
007B7AF0 8D 4C 24 18 E8 87 3C DD FF 8B 54 24 18 8B 42 14 .L$...<...T$..B.
007B7B00 8B 4E 08 3B C1 7C 17 75 23 8B 42 0C 8B 0E 3B C1 .N.;.|.u#.B...;.
007B7B10 72 0C 75 18 66 8B 42 10 66 3B 46 04 73 0E 8B 4C r.u.f.B.f;F.s..L
007B7B20 24 0C 56 57 51 8D 54 24 24 52 EB A0 8B 44 24 14 $.VWQ.T$$R...D$.
007B7B30 5F 5E 89 10 C6 40 04 00 5B 59 C2 08 00 CC CC CC _^...@..[Y......
007B7B40 6A FF 68 39 11 88 00 64 A1 00 00 00 00 50 83 EC j.h9...d.....P..
007B7B50 48 53 55 56 57 A1 88 41 A1 00 33 C4 50 8D 44 24 HSUVW..A..3.P.D$
007B7B60 5C 64 A3 00 00 00 00 8B E9 8B 44 24 70 80 78 51 \d........D$p.xQ
007B7B70 00 74 3C 68 94 6D 8A 00 8D 4C 24 1C FF 15 34 43 .t<h.m...L$...4C
007B7B80 8A 00 8D 44 24 18 50 8D 4C 24 38 C7 44 24 68 00 ...D$.P.L$8.D$h.
007B7B90 00 00 00 E8 48 9E C4 FF 68 8C A8 99 00 8D 4C 24 ....H...h.....L$
007B7BA0 38 51 C7 44 24 3C 3C 00 99 00 E8 1D D4 ED FF 8B 8Q.D$<<.........
007B7BB0 D8 8D 4C 24 70 89 5C 24 14 E8 D2 C8 FF FF 8B 03 ..L$p.\$........
007B7BC0 80 78 51 00 74 05 8B 7B 08 EB 18 8B 53 08 80 7A .xQ.t..{....S..z
007B7BD0 51 00 74 04 8B F8 EB 0B 8B 4C 24 70 3B CB 8B 79 Q.t......L$p;..y
007B7BE0 08 75 6B 80 7F 51 00 8B 73 04 75 03 89 77 04 8B .uk..Q..s.u..w..
007B7BF0 45 04 39 58 04 75 05 89 78 04 EB 0B 39 1E 75 04 E.9X.u..x...9.u.
007B7C00 89 3E EB 03 89 7E 08 8B 5D 04 8B 03 3B 44 24 14 .>...~..]...;D$.
007B7C10 75 15 80 7F 51 00 74 04 8B C6 EB 09 57 E8 BE EC u...Q.t.....W...
007B7C20 E4 FF 83 C4 04 89 03 8B 5D 04 8B 4C 24 14 39 4B ........]..L$.9K
007B7C30 08 75 72 80 7F 51 00 74 07 8B C6 89 43 08 EB 65 .ur..Q.t....C..e
007B7C40 57 E8 7A EC E4 FF 83 C4 04 89 43 08 EB 57 89 48 W.z.......C..W.H
007B7C50 04 8B 13 89 11 3B 4B 08 75 04 8B F1 EB 1A 80 7F .....;K.u.......
007B7C60 51 00 8B 71 04 75 03 89 77 04 89 3E 8B 43 08 89 Q..q.u..w..>.C..
007B7C70 41 08 8B 53 08 89 4A 04 8B 45 04 39 58 04 75 05 A..S..J..E.9X.u.
007B7C80 89 48 04 EB 0E 8B 43 04 39 18 75 04 89 08 EB 03 .H....C.9.u.....
007B7C90 89 48 08 8B 43 04 89 41 04 8A 53 50 8A 41 50 88 .H..C..A..SP.AP.
007B7CA0 51 50 88 43 50 8B 44 24 14 B3 01 38 58 50 0F 85 QP.CP.D$...8XP..
007B7CB0 F2 00 00 00 8B 4D 04 3B 79 04 0F 84 E3 00 00 00 .....M.;y.......
007B7CC0 38 5F 50 0F 85 DA 00 00 00 8B 06 3B F8 75 63 8B 8_P........;.uc.
007B7CD0 46 08 80 78 50 00 75 12 88 58 50 56 8B CD C6 46 F..xP.u..XPV...F
007B7CE0 50 00 E8 39 CB FF FF 8B 46 08 80 78 51 00 75 72 P..9....F..xQ.ur
007B7CF0 8B 10 38 5A 50 75 08 8B 48 08 38 59 50 74 5F 8B ..8ZPu..H.8YPt_.
007B7D00 48 08 38 59 50 75 12 88 5A 50 50 8B CD C6 40 50 H.8YPu..ZPP...@P
007B7D10 00 E8 3A C5 FF FF 8B 46 08 8A 4E 50 88 48 50 88 ..:....F..NP.HP.
007B7D20 5E 50 8B 50 08 56 8B CD 88 5A 50 E8 F0 CA FF FF ^P.P.V...ZP.....
007B7D30 EB 71 80 78 50 00 75 11 88 58 50 56 8B CD C6 46 .q.xP.u..XPV...F
007B7D40 50 00 E8 09 C5 FF FF 8B 06 80 78 51 00 75 13 8B P.........xQ.u..
007B7D50 50 08 38 5A 50 75 1E 8B 08 38 59 50 75 17 C6 40 P.8ZPu...8YPu..@
007B7D60 50 00 8B 55 04 8B FE 3B 7A 04 8B 76 04 0F 85 4D P..U...;z..v...M
007B7D70 FF FF FF EB 2E 8B 08 38 59 50 75 11 88 5A 50 50 .......8YPu..ZPP
007B7D80 8B CD C6 40 50 00 E8 95 CA FF FF 8B 06 8A 4E 50 ...@P.........NP
007B7D90 88 48 50 88 5E 50 8B 10 56 8B CD 88 5A 50 E8 AD .HP.^P..V...ZP..
007B7DA0 C4 FF FF 88 5F 50 8B 4C 24 14 83 C1 18 FF 15 38 ...._P.L$......8
007B7DB0 43 8A 00 8B 44 24 14 50 E8 09 D2 ED FF 8B 45 08 C...D$.P......E.
007B7DC0 83 C4 04 85 C0 76 06 83 C0 FF 89 45 08 8B 44 24 .....v.....E..D$
007B7DD0 6C 8B 4C 24 70 89 08 8B 4C 24 5C 64 89 0D 00 00 l.L$p...L$\d....
007B7DE0 00 00 59 5F 5E 5D 5B 83 C4 54 C2 08 00 CC CC CC ..Y_^][..T......
007B7DF0 51 55 8B 6C 24 10 56 57 8B F9 8B 4F 04 8B 41 04 QU.l$.VW...O..A.
007B7E00 80 78 19 00 8B F1 B1 01 88 4C 24 0C 75 27 8B 55 .x.......L$.u'.U
007B7E10 00 8B 48 0C 3B D1 8B F0 72 4F 75 0A 66 8B 4D 04 ..H.;...rOu.f.M.
007B7E20 66 3B 48 10 72 43 8B 40 08 32 C9 88 4C 24 0C 80 f;H.rC.@.2..L$..
007B7E30 78 19 00 74 DC 84 C9 8B D6 89 54 24 18 74 41 8B x..t......T$.tA.
007B7E40 57 04 3B 32 75 2D 55 56 6A 01 8D 44 24 24 50 8B W.;2u-UVj..D$$P.
007B7E50 CF E8 5A E1 FF FF 8B 08 8B 44 24 14 5F 5E 89 08 ..Z......D$._^..
007B7E60 C6 40 04 01 5D 59 C2 08 00 8B 00 B1 01 88 4C 24 .@..]Y........L$
007B7E70 0C EB BC 8D 4C 24 18 E8 04 39 DD FF 8B 54 24 18 ....L$...9...T$.
007B7E80 8B 42 0C 8B 4D 00 3B C1 72 0C 75 18 66 8B 42 10 .B..M.;.r.u.f.B.
007B7E90 66 3B 45 04 73 0E 8B 4C 24 0C 55 56 51 8D 54 24 f;E.s..L$.UVQ.T$
007B7EA0 24 52 EB AB 8B 44 24 14 5F 5E 89 10 C6 40 04 00 $R...D$._^...@..
007B7EB0 5D 59 C2 08 00 CC CC CC CC CC CC CC CC CC CC CC ]Y..............
007B7EC0 51 55 8B 6C 24 10 56 57 8B F9 8B 77 04 8B 46 04 QU.l$.VW...w..F.
007B7ED0 80 78 15 00 B1 01 88 4C 24 0C 75 21 8B 55 00 90 .x.....L$.u!.U..
007B7EE0 3B 50 0C 8B F0 0F 9C C1 84 C9 88 4C 24 0C 74 04 ;P.........L$.t.
007B7EF0 8B 00 EB 03 8B 40 08 80 78 15 00 74 E3 84 C9 8B .....@..x..t....
007B7F00 D6 89 54 24 18 74 33 8B 47 04 3B 30 8D 4C 24 18 ..T$.t3.G.;0.L$.
007B7F10 75 1F 55 56 6A 01 51 8B CF E8 82 E2 FF FF 8B 10 u.UVj.Q.........
007B7F20 8B 44 24 14 5F 5E C6 40 04 01 89 10 5D 59 C2 08 .D$._^.@....]Y..
007B7F30 00 E8 6A BE EE FF 8B 54 24 18 8B 42 0C 3B 45 00 ..j....T$..B.;E.
007B7F40 7D 26 8B 4C 24 0C 55 56 51 8D 54 24 24 52 8B CF }&.L$.UVQ.T$$R..
007B7F50 E8 4B E2 FF FF 8B 08 8B 44 24 14 5F 5E 89 08 C6 .K......D$._^...
007B7F60 40 04 01 5D 59 C2 08 00 8B 44 24 14 5F 5E C6 40 @..]Y....D$._^.@
007B7F70 04 00 89 10 5D 59 C2 08 00 CC CC CC CC CC CC CC ....]Y..........
007B7F80 51 55 8B 6C 24 10 56 57 8B F9 8B 77 04 8B 46 04 QU.l$.VW...w..F.
007B7F90 80 78 15 00 B1 01 88 4C 24 0C 75 21 8B 55 00 90 .x.....L$.u!.U..
007B7FA0 3B 50 0C 8B F0 0F 9C C1 84 C9 88 4C 24 0C 74 04 ;P.........L$.t.
007B7FB0 8B 00 EB 03 8B 40 08 80 78 15 00 74 E3 84 C9 8B .....@..x..t....
007B7FC0 D6 89 54 24 18 74 33 8B 47 04 3B 30 8D 4C 24 18 ..T$.t3.G.;0.L$.
007B7FD0 75 1F 55 56 6A 01 51 8B CF E8 42 E4 FF FF 8B 10 u.UVj.Q...B.....
007B7FE0 8B 44 24 14 5F 5E C6 40 04 01 89 10 5D 59 C2 08 .D$._^.@....]Y..
007B7FF0 00 E8 AA BD EE FF 8B 54 24 18 8B 42 0C 3B 45 00 .......T$..B.;E.
007B8000 7D 26 8B 4C 24 0C 55 56 51 8D 54 24 24 52 8B CF }&.L$.UVQ.T$$R..
007B8010 E8 0B E4 FF FF 8B 08 8B 44 24 14 5F 5E 89 08 C6 ........D$._^...
007B8020 40 04 01 5D 59 C2 08 00 8B 44 24 14 5F 5E C6 40 @..]Y....D$._^.@
007B8030 04 00 89 10 5D 59 C2 08 00 CC CC CC CC CC CC CC ....]Y..........
007B8040 53 8B 5C 24 10 56 8B 74 24 10 57 8B F9 8B 47 04 S.\$.V.t$.W...G.
007B8050 3B 30 75 36 3B D8 75 32 8B 40 04 50 E8 5F 4E F1 ;0u6;.u2.@.P._N.
007B8060 FF 8B 47 04 89 40 04 8B 47 04 C7 47 08 00 00 00 ..G..@..G..G....
007B8070 00 89 00 8B 47 04 89 40 08 8B 4F 04 8B 11 8B 44 ....G..@..O....D
007B8080 24 10 5F 5E 89 10 5B C2 0C 00 3B F3 74 5A 8B FF $._^..[...;.tZ..
007B8090 80 7E 15 00 8B CE 75 3F 8B 46 08 80 78 15 00 75 .~....u?.F..x..u
007B80A0 1B 8B F0 8B 06 80 78 15 00 75 2C EB 03 8D 49 00 ......x..u,...I.
007B80B0 8B F0 8B 06 80 78 15 00 74 F6 EB 1B 8B 46 04 80 .....x..t....F..
007B80C0 78 15 00 75 10 3B 70 08 75 0B 8B F0 8B 40 04 80 x..u.;p.u....@..
007B80D0 78 15 00 74 F0 8B F0 51 8D 44 24 18 50 8B CF E8 x..t...Q.D$.P...
007B80E0 DC CD FF FF 3B F3 75 A8 8B 44 24 10 5F 89 30 5E ....;.u..D$._.0^
007B80F0 5B C2 0C 00 CC CC CC CC CC CC CC CC CC CC CC CC [...............
007B8100 53 8B 5C 24 10 56 8B 74 24 10 57 8B F9 8B 47 04 S.\$.V.t$.W...G.
007B8110 3B 30 75 36 3B D8 75 32 8B 40 04 50 E8 8F 3B DD ;0u6;.u2.@.P..;.
007B8120 FF 8B 47 04 89 40 04 8B 47 04 C7 47 08 00 00 00 ..G..@..G..G....
007B8130 00 89 00 8B 47 04 89 40 08 8B 4F 04 8B 11 8B 44 ....G..@..O....D
007B8140 24 10 5F 5E 89 10 5B C2 0C 00 3B F3 74 5A 8B FF $._^..[...;.tZ..
007B8150 80 7E 19 00 8B CE 75 3F 8B 46 08 80 78 19 00 75 .~....u?.F..x..u
007B8160 1B 8B F0 8B 06 80 78 19 00 75 2C EB 03 8D 49 00 ......x..u,...I.
007B8170 8B F0 8B 06 80 78 19 00 74 F6 EB 1B 8B 46 04 80 .....x..t....F..
007B8180 78 19 00 75 10 3B 70 08 75 0B 8B F0 8B 40 04 80 x..u.;p.u....@..
007B8190 78 19 00 74 F0 8B F0 51 8D 44 24 18 50 8B CF E8 x..t...Q.D$.P...
007B81A0 EC E9 FF FF 3B F3 75 A8 8B 44 24 10 5F 89 30 5E ....;.u..D$._.0^
007B81B0 5B C2 0C 00 CC CC CC CC CC CC CC CC CC CC CC CC [...............
007B81C0 56 6A 2C E8 10 CE ED FF 8B F0 83 C4 04 85 F6 74 Vj,............t
007B81D0 22 8B 44 24 18 8B 4C 24 14 8B 54 24 10 50 8B 44 ".D$..L$..T$.P.D
007B81E0 24 10 51 8B 4C 24 10 52 50 51 8B CE E8 3F EC FF $.Q.L$.RPQ...?..
007B81F0 FF 8B C6 5E C2 14 00 CC CC CC CC CC CC CC CC CC ...^............
007B8200 51 53 55 8B D9 8B 43 04 56 8B 70 04 80 7E 51 00 QSU...C.V.p..~Q.
007B8210 8B E8 B0 01 57 8B 7C 24 1C 88 44 24 10 75 4C 90 ....W.|$..D$.uL.
007B8220 8B 07 8B 4E 10 3B C1 8B EE 72 75 75 0A 66 8B 57 ...N.;...ruu.f.W
007B8230 04 66 3B 56 14 72 69 3B C8 72 21 75 0A 66 8B 46 .f;V.ri;.r!u.f.F
007B8240 14 66 3B 47 04 72 15 8D 4E 18 51 8D 57 08 52 FF .f;G.r..N.Q.W.R.
007B8250 15 0C 44 8A 00 83 C4 08 84 C0 75 44 8B 76 08 32 ..D.......uD.v.2
007B8260 C0 88 44 24 10 80 7E 51 00 74 B5 84 C0 8B F5 89 ..D$..~Q.t......
007B8270 74 24 1C 74 3E 8B 43 04 3B 28 8D 4C 24 1C 75 2A t$.t>.C.;(.L$.u*
007B8280 57 55 6A 01 51 8B CB E8 84 E3 FF FF 8B 10 8B 44 WUj.Q..........D
007B8290 24 18 5F 5E 5D 89 10 C6 40 04 01 5B 59 C2 08 00 $._^]...@..[Y...
007B82A0 8B 36 B0 01 88 44 24 10 EB BB E8 51 E6 E4 FF 8B .6...D$....Q....
007B82B0 74 24 1C 8D 46 10 57 50 E8 93 C3 FF FF 83 C4 08 t$..F.WP........
007B82C0 84 C0 74 27 8B 4C 24 10 57 55 51 8D 54 24 28 52 ..t'.L$.WUQ.T$(R
007B82D0 8B CB E8 39 E3 FF FF 8B 08 8B 44 24 18 5F 5E 5D ...9......D$._^]
007B82E0 89 08 C6 40 04 01 5B 59 C2 08 00 8B 44 24 18 5F ...@..[Y....D$._
007B82F0 89 30 5E 5D C6 40 04 00 5B 59 C2 08 00 CC CC CC .0^].@..[Y......
007B8300 51 55 8B 6C 24 10 56 57 8B F9 8B 4F 04 8B 41 04 QU.l$.VW...O..A.
007B8310 80 78 19 00 8B F1 B1 01 88 4C 24 0C 75 27 8B 55 .x.......L$.u'.U
007B8320 00 8B 48 0C 3B D1 8B F0 72 4F 75 0A 66 8B 4D 04 ..H.;...rOu.f.M.
007B8330 66 3B 48 10 72 43 8B 40 08 32 C9 88 4C 24 0C 80 f;H.rC.@.2..L$..
007B8340 78 19 00 74 DC 84 C9 8B D6 89 54 24 18 74 41 8B x..t......T$.tA.
007B8350 57 04 3B 32 75 2D 55 56 6A 01 8D 44 24 24 50 8B W.;2u-UVj..D$$P.
007B8360 CF E8 5A E5 FF FF 8B 08 8B 44 24 14 5F 5E 89 08 ..Z......D$._^..
007B8370 C6 40 04 01 5D 59 C2 08 00 8B 00 B1 01 88 4C 24 .@..]Y........L$
007B8380 0C EB BC 8D 4C 24 18 E8 F4 33 DD FF 8B 54 24 18 ....L$...3...T$.
007B8390 8B 42 0C 8B 4D 00 3B C1 72 0C 75 18 66 8B 42 10 .B..M.;.r.u.f.B.
007B83A0 66 3B 45 04 73 0E 8B 4C 24 0C 55 56 51 8D 54 24 f;E.s..L$.UVQ.T$
007B83B0 24 52 EB AB 8B 44 24 14 5F 5E 89 10 C6 40 04 00 $R...D$._^...@..
007B83C0 5D 59 C2 08 00 CC CC CC CC CC CC CC CC CC CC CC ]Y..............
007B83D0 8B 44 24 04 8B 54 24 0C 56 8B F1 8B 4C 24 0C 89 .D$..T$.V...L$..
007B83E0 06 8B 44 24 14 89 4E 04 89 56 08 8B 08 89 4E 0C ..D$..N..V....N.
007B83F0 8B 50 04 89 56 10 8B 48 08 89 4E 14 8B 40 0C 85 .P..V..H..N..@..
007B8400 C0 89 46 18 74 07 8B C8 E8 C3 96 C4 FF 8A 54 24 ..F.t.........T$
007B8410 18 88 56 1C C6 46 1D 00 8B C6 5E C2 14 00 CC CC ..V..F....^.....
007B8420 53 8B 5C 24 10 56 8B 74 24 10 57 8B F9 8B 47 04 S.\$.V.t$.W...G.
007B8430 3B 30 75 36 3B D8 75 32 8B 40 04 50 E8 6F 38 DD ;0u6;.u2.@.P.o8.
007B8440 FF 8B 47 04 89 40 04 8B 47 04 C7 47 08 00 00 00 ..G..@..G..G....
007B8450 00 89 00 8B 47 04 89 40 08 8B 4F 04 8B 11 8B 44 ....G..@..O....D
007B8460 24 10 5F 5E 89 10 5B C2 0C 00 3B F3 74 5A 8B FF $._^..[...;.tZ..
007B8470 80 7E 19 00 8B CE 75 3F 8B 46 08 80 78 19 00 75 .~....u?.F..x..u
007B8480 1B 8B F0 8B 06 80 78 19 00 75 2C EB 03 8D 49 00 ......x..u,...I.
007B8490 8B F0 8B 06 80 78 19 00 74 F6 EB 1B 8B 46 04 80 .....x..t....F..
007B84A0 78 19 00 75 10 3B 70 08 75 0B 8B F0 8B 40 04 80 x..u.;p.u....@..
007B84B0 78 19 00 74 F0 8B F0 51 8D 44 24 18 50 8B CF E8 x..t...Q.D$.P...
007B84C0 7C EA FF FF 3B F3 75 A8 8B 44 24 10 5F 89 30 5E |...;.u..D$._.0^
007B84D0 5B C2 0C 00 CC CC CC CC CC CC CC CC CC CC CC CC [...............
007B84E0 53 8B 5C 24 10 56 8B 74 24 10 57 8B F9 8B 47 04 S.\$.V.t$.W...G.
007B84F0 3B 30 75 36 3B D8 75 32 8B 40 04 50 E8 BF 49 F1 ;0u6;.u2.@.P..I.
007B8500 FF 8B 47 04 89 40 04 8B 47 04 C7 47 08 00 00 00 ..G..@..G..G....
007B8510 00 89 00 8B 47 04 89 40 08 8B 4F 04 8B 11 8B 44 ....G..@..O....D
007B8520 24 10 5F 5E 89 10 5B C2 0C 00 3B F3 74 5A 8B FF $._^..[...;.tZ..
007B8530 80 7E 15 00 8B CE 75 3F 8B 46 08 80 78 15 00 75 .~....u?.F..x..u
007B8540 1B 8B F0 8B 06 80 78 15 00 75 2C EB 03 8D 49 00 ......x..u,...I.
007B8550 8B F0 8B 06 80 78 15 00 74 F6 EB 1B 8B 46 04 80 .....x..t....F..
007B8560 78 15 00 75 10 3B 70 08 75 0B 8B F0 8B 40 04 80 x..u.;p.u....@..
007B8570 78 15 00 74 F0 8B F0 51 8D 44 24 18 50 8B CF E8 x..t...Q.D$.P...
007B8580 5C EC FF FF 3B F3 75 A8 8B 44 24 10 5F 89 30 5E \...;.u..D$._.0^
007B8590 5B C2 0C 00 CC CC CC CC CC CC CC CC CC CC CC CC [...............
007B85A0 51 56 8B F1 8B 46 04 8B 08 50 51 8D 44 24 0C 50 QV...F...PQ.D$.P
007B85B0 8B CE E8 E9 D6 FF FF 8B 4E 04 51 E8 06 CA ED FF ........N.Q.....
007B85C0 83 C4 04 33 C0 89 46 04 89 46 08 5E 59 C3 CC CC ...3..F..F.^Y...
007B85D0 6A FF 68 68 11 88 00 64 A1 00 00 00 00 50 83 EC j.hh...d.....P..
007B85E0 08 56 A1 88 41 A1 00 33 C4 50 8D 44 24 10 64 A3 .V..A..3.P.D$.d.
007B85F0 00 00 00 00 8B F1 8B 4C 24 20 8D 46 04 50 83 C1 .......L$ .F.P..
007B8600 7C E8 FA F3 FF FF 8B 46 08 33 C9 3B C1 74 0A C7 |......F.3.;.t..
007B8610 40 10 02 00 00 00 89 4E 08 8A 54 24 24 F6 DA C7 @......N..T$$...
007B8620 44 24 08 C0 97 98 00 1B D2 83 E2 0A 83 C2 F5 89 D$..............
007B8630 54 24 0C 8B 56 10 89 4C 24 18 8B 4E 0C 8B 01 8B T$..V..L$..N....
007B8640 40 08 52 8D 54 24 0C 52 FF D0 8B 16 8B 02 6A 01 @.R.T$.R......j.
007B8650 8B CE FF D0 8B 4C 24 10 64 89 0D 00 00 00 00 59 .....L$.d......Y
007B8660 5E 83 C4 14 C2 08 00 CC CC CC CC CC CC CC CC CC ^...............
007B8670 6A FF 68 99 11 88 00 64 A1 00 00 00 00 50 83 EC j.h....d.....P..
007B8680 34 53 55 56 57 A1 88 41 A1 00 33 C4 50 8D 44 24 4SUVW..A..3.P.D$
007B8690 48 64 A3 00 00 00 00 8B F1 89 74 24 1C 0F 31 8B Hd........t$..1.
007B86A0 8E 20 05 00 00 8B 39 8B E8 8B C1 3B F8 89 54 24 . ....9....;..T$
007B86B0 28 89 6C 24 24 89 4C 24 14 0F 84 6A 01 00 00 3B (.l$$.L$...j...;
007B86C0 C8 74 1B 51 8D 44 24 24 50 8D 8E 1C 05 00 00 E8 .t.Q.D$$P.......
007B86D0 6C F4 FF FF 8B 8E 20 05 00 00 89 4C 24 14 8D 77 l..... ....L$..w
007B86E0 38 E8 3A E4 E6 FF 2B 2E 8B D8 8B C2 8B 54 24 28 8.:...+......T$(
007B86F0 1B 56 04 6A 00 68 E8 03 00 00 52 55 89 44 24 28 .V.j.h....RU.D$(
007B8700 E8 DB C8 ED FF 8B 4C 24 18 51 53 52 50 E8 9E CA ......L$.QSRP...
007B8710 ED FF 33 DB 38 5C 24 58 75 0D 3B D3 7C 67 7F 07 ..3.8\$Xu.;.|g..
007B8720 3D D0 07 00 00 72 5E 39 5E 10 74 59 8D 44 24 24 =....r^9^.tY.D$$
007B8730 50 8D 47 10 56 8D 48 08 51 50 8D 54 24 3C 52 E8 P.G.V.H.QP.T$<R.
007B8740 EC CC FF FF 83 C4 14 8B C8 89 5C 24 50 FF 15 54 ..........\$P..T
007B8750 43 8A 00 50 68 5C 6D 8A 00 E8 22 85 D6 FF 83 C4 C..Ph\m...".....
007B8760 08 8D 4C 24 2C C7 44 24 50 FF FF FF FF FF 15 38 ..L$,.D$P......8
007B8770 43 8A 00 8B 6C 24 24 8B 44 24 28 89 5E 10 89 2E C...l$$.D$(.^...
007B8780 89 46 04 EB 04 8B 6C 24 24 E8 92 E3 E6 FF 8B D8 .F....l$$.......
007B8790 8B C2 8B 54 24 28 8B CD 2B 4E 08 6A 00 1B 56 0C ...T$(..+N.j..V.
007B87A0 68 E8 03 00 00 52 51 89 44 24 28 E8 30 C8 ED FF h....RQ.D$(.0...
007B87B0 8B 4C 24 18 51 53 52 50 E8 F3 C9 ED FF 85 D2 77 .L$.QSRP.......w
007B87C0 07 3D 10 27 00 00 76 08 8B CF 89 4C 24 14 EB 04 .=.'..v....L$...
007B87D0 8B 4C 24 14 80 7F 51 00 75 3D 8B 47 08 80 78 51 .L$...Q.u=.G..xQ
007B87E0 00 75 19 8B F8 8B 07 80 78 51 00 75 2A 8D 49 00 .u......xQ.u*.I.
007B87F0 8B F8 8B 07 80 78 51 00 74 F6 EB 1B 8B 47 04 80 .....xQ.t....G..
007B8800 78 51 00 75 10 3B 78 08 75 0B 8B F8 8B 40 04 80 xQ.u.;x.u....@..
007B8810 78 51 00 74 F0 8B F8 8B 74 24 1C 8B 86 20 05 00 xQ.t....t$... ..
007B8820 00 3B F8 0F 85 96 FE FF FF 3B 8E 20 05 00 00 74 .;.......;. ...t
007B8830 11 51 8D 44 24 5C 50 8D 8E 1C 05 00 00 E8 FE F2 .Q.D$\P.........
007B8840 FF FF 8B 4C 24 48 64 89 0D 00 00 00 00 59 5F 5E ...L$Hd......Y_^
007B8850 5D 5B 83 C4 40 C2 04 00 CC CC CC CC CC CC CC CC ][..@...........
007B8860 51 53 8B 5C 24 0C 56 57 53 8B F1 E8 20 C0 FF FF QS.\$.VWS... ...
007B8870 53 8B CE 8B F8 E8 86 C2 FF FF 8B D8 C7 44 24 14 S............D$.
007B8880 00 00 00 00 8B 44 24 14 50 8D 4C 24 18 51 53 57 .....D$.P.L$.QSW
007B8890 E8 4B E6 FF FF 83 C4 10 53 57 8D 54 24 14 52 8B .K......SW.T$.R.
007B88A0 CE E8 7A FB FF FF 8B 44 24 14 5F 5E 5B 59 C2 04 ..z....D$._^[Y..
007B88B0 00 CC CC CC CC CC CC CC CC CC CC CC CC CC CC CC ................
007B88C0 83 EC 08 56 8B F1 83 7E 08 00 57 75 21 8B 44 24 ...V...~..Wu!.D$
007B88D0 1C 8B 4E 04 8B 7C 24 14 50 51 6A 01 57 8B CE E8 ..N..|$.PQj.W...
007B88E0 CC D6 FF FF 8B C7 5F 5E 83 C4 08 C2 0C 00 8B 46 ......_^.......F
007B88F0 04 8B 7C 24 1C 53 8B 5C 24 1C 3B 18 55 75 2E 8D ..|$.S.\$.;.Uu..
007B8900 53 0C 52 57 E8 57 BE FF FF 84 C0 0F 84 2A 01 00 S.RW.W.......*..
007B8910 00 57 8B 7C 24 20 53 6A 01 57 8B CE E8 8F D6 FF .W.|$ Sj.W......
007B8920 FF 5D 5B 8B C7 5F 5E 83 C4 08 C2 0C 00 3B D8 75 .][.._^......;.u
007B8930 31 8B 58 08 57 8D 43 0C 50 E8 22 BE FF FF 84 C0 1.X.W.C.P.".....
007B8940 0F 84 F5 00 00 00 57 8B 7C 24 20 53 6A 00 57 8B ......W.|$ Sj.W.
007B8950 CE E8 5A D6 FF FF 5D 5B 8B C7 5F 5E 83 C4 08 C2 ..Z...][.._^....
007B8960 0C 00 8D 43 0C 50 57 E8 F4 BD FF FF 84 C0 74 5B ...C.PW.......t[
007B8970 8D 4C 24 24 89 5C 24 24 E8 03 2E DD FF 8B 6C 24 .L$$.\$$......l$
007B8980 24 57 8D 4D 0C 51 8B CE E8 D3 BD FF FF 84 C0 74 $W.M.Q.........t
007B8990 3A 8B 55 08 80 7A 19 00 57 8B 7C 24 20 8B CE 74 :.U..z..W.|$ ..t
007B89A0 15 55 6A 00 57 E8 06 D6 FF FF 5D 5B 8B C7 5F 5E .Uj.W.....][.._^
007B89B0 83 C4 08 C2 0C 00 53 6A 01 57 E8 F1 D5 FF FF 5D ......Sj.W.....]
007B89C0 5B 8B C7 5F 5E 83 C4 08 C2 0C 00 57 8D 43 0C 50 [.._^......W.C.P
007B89D0 8B CE E8 89 BD FF FF 84 C0 74 60 8D 4C 24 24 89 .........t`.L$$.
007B89E0 5C 24 24 E8 F8 2D DD FF 8B 6C 24 24 3B 6E 04 74 \$$..-...l$$;n.t
007B89F0 10 8D 45 0C 50 57 8B CE E8 63 BD FF FF 84 C0 74 ..E.PW...c.....t
007B8A00 3A 8B 4B 08 80 79 19 00 57 8B 7C 24 20 8B CE 74 :.K..y..W.|$ ..t
007B8A10 15 53 6A 00 57 E8 96 D5 FF FF 5D 5B 8B C7 5F 5E .Sj.W.....][.._^
007B8A20 83 C4 08 C2 0C 00 55 6A 01 57 E8 81 D5 FF FF 5D ......Uj.W.....]
007B8A30 5B 8B C7 5F 5E 83 C4 08 C2 0C 00 57 8D 54 24 14 [.._^......W.T$.
007B8A40 52 8B CE E8 A8 F3 FF FF 8B 08 8B 44 24 1C 5D 5B R..........D$.][
007B8A50 5F 89 08 5E 83 C4 08 C2 0C 00 CC CC CC CC CC CC _..^............
007B8A60 83 EC 08 56 57 8B F9 83 7F 08 00 75 21 8B 44 24 ...VW......u!.D$
007B8A70 1C 8B 4F 04 8B 74 24 14 50 51 6A 01 56 8B CF E8 ..O..t$.PQj.V...
007B8A80 1C D7 FF FF 5F 8B C6 5E 83 C4 08 C2 0C 00 8B 47 ...._..^.......G
007B8A90 04 8B 74 24 1C 53 8B 5C 24 1C 3B 18 55 75 25 8B ..t$.S.\$.;.Uu%.
007B8AA0 16 3B 53 0C 0F 8D F9 00 00 00 56 8B 74 24 20 53 .;S.......V.t$ S
007B8AB0 6A 01 56 E8 E8 D6 FF FF 5D 5B 5F 8B C6 5E 83 C4 j.V.....][_..^..
007B8AC0 08 C2 0C 00 3B D8 75 2A 8B 40 08 8B 48 0C 3B 0E ....;.u*.@..H.;.
007B8AD0 0F 8D CD 00 00 00 56 8B 74 24 20 50 6A 00 56 8B ......V.t$ Pj.V.
007B8AE0 CF E8 BA D6 FF FF 5D 5B 5F 8B C6 5E 83 C4 08 C2 ......][_..^....
007B8AF0 0C 00 8B 2E 39 6B 0C 7E 53 8D 4C 24 24 89 5C 24 ....9k.~S.L$$.\$
007B8B00 24 E8 9A B2 EE FF 8B 44 24 24 39 68 0C 7D 3A 8B $......D$$9h.}:.
007B8B10 50 08 80 7A 15 00 56 8B 74 24 20 8B CF 74 15 50 P..z..V.t$ ..t.P
007B8B20 6A 00 56 E8 78 D6 FF FF 5D 5B 5F 8B C6 5E 83 C4 j.V.x...][_..^..
007B8B30 08 C2 0C 00 53 6A 01 56 E8 63 D6 FF FF 5D 5B 5F ....Sj.V.c...][_
007B8B40 8B C6 5E 83 C4 08 C2 0C 00 39 6B 0C 7D 55 8D 4C ..^......9k.}U.L
007B8B50 24 24 89 5C 24 24 E8 D5 A6 EE FF 8B 44 24 24 3B $$.\$$......D$$;
007B8B60 47 04 74 05 3B 68 0C 7D 3A 8B 4B 08 80 79 15 00 G.t.;h.}:.K..y..
007B8B70 56 8B 74 24 20 8B CF 74 15 53 6A 00 56 E8 1E D6 V.t$ ..t.Sj.V...
007B8B80 FF FF 5D 5B 5F 8B C6 5E 83 C4 08 C2 0C 00 50 6A ..][_..^......Pj
007B8B90 01 56 E8 09 D6 FF FF 5D 5B 5F 8B C6 5E 83 C4 08 .V.....][_..^...
007B8BA0 C2 0C 00 56 8D 54 24 14 52 8B CF E8 10 F3 FF FF ...V.T$.R.......
007B8BB0 8B 08 8B 44 24 1C 5D 5B 5F 89 08 5E 83 C4 08 C2 ...D$.][_..^....
007B8BC0 0C 00 CC CC CC CC CC CC CC CC CC CC CC CC CC CC ................
007B8BD0 83 EC 08 56 57 8B F9 83 7F 08 00 75 21 8B 44 24 ...VW......u!.D$
007B8BE0 1C 8B 4F 04 8B 74 24 14 50 51 6A 01 56 8B CF E8 ..O..t$.PQj.V...
007B8BF0 2C D8 FF FF 5F 8B C6 5E 83 C4 08 C2 0C 00 8B 47 ,..._..^.......G
007B8C00 04 8B 74 24 1C 53 8B 5C 24 1C 3B 18 55 75 25 8B ..t$.S.\$.;.Uu%.
007B8C10 16 3B 53 0C 0F 8D F9 00 00 00 56 8B 74 24 20 53 .;S.......V.t$ S
007B8C20 6A 01 56 E8 F8 D7 FF FF 5D 5B 5F 8B C6 5E 83 C4 j.V.....][_..^..
007B8C30 08 C2 0C 00 3B D8 75 2A 8B 40 08 8B 48 0C 3B 0E ....;.u*.@..H.;.
007B8C40 0F 8D CD 00 00 00 56 8B 74 24 20 50 6A 00 56 8B ......V.t$ Pj.V.
007B8C50 CF E8 CA D7 FF FF 5D 5B 5F 8B C6 5E 83 C4 08 C2 ......][_..^....
007B8C60 0C 00 8B 2E 39 6B 0C 7E 53 8D 4C 24 24 89 5C 24 ....9k.~S.L$$.\$
007B8C70 24 E8 2A B1 EE FF 8B 44 24 24 39 68 0C 7D 3A 8B $.*....D$$9h.}:.
007B8C80 50 08 80 7A 15 00 56 8B 74 24 20 8B CF 74 15 50 P..z..V.t$ ..t.P
007B8C90 6A 00 56 E8 88 D7 FF FF 5D 5B 5F 8B C6 5E 83 C4 j.V.....][_..^..
007B8CA0 08 C2 0C 00 53 6A 01 56 E8 73 D7 FF FF 5D 5B 5F ....Sj.V.s...][_
007B8CB0 8B C6 5E 83 C4 08 C2 0C 00 39 6B 0C 7D 55 8D 4C ..^......9k.}U.L
007B8CC0 24 24 89 5C 24 24 E8 65 A5 EE FF 8B 44 24 24 3B $$.\$$.e....D$$;
007B8CD0 47 04 74 05 3B 68 0C 7D 3A 8B 4B 08 80 79 15 00 G.t.;h.}:.K..y..
007B8CE0 56 8B 74 24 20 8B CF 74 15 53 6A 00 56 E8 2E D7 V.t$ ..t.Sj.V...
007B8CF0 FF FF 5D 5B 5F 8B C6 5E 83 C4 08 C2 0C 00 50 6A ..][_..^......Pj
007B8D00 01 56 E8 19 D7 FF FF 5D 5B 5F 8B C6 5E 83 C4 08 .V.....][_..^...
007B8D10 C2 0C 00 56 8D 54 24 14 52 8B CF E8 60 F2 FF FF ...V.T$.R...`...
007B8D20 8B 08 8B 44 24 1C 5D 5B 5F 89 08 5E 83 C4 08 C2 ...D$.][_..^....
007B8D30 0C 00 CC CC CC CC CC CC CC CC CC CC CC CC CC CC ................
007B8D40 6A FF 68 C9 11 88 00 64 A1 00 00 00 00 50 83 EC j.h....d.....P..
007B8D50 44 53 55 56 57 A1 88 41 A1 00 33 C4 50 8D 44 24 DSUVW..A..3.P.D$
007B8D60 58 64 A3 00 00 00 00 8B F9 81 7F 08 48 92 24 09 Xd..........H.$.
007B8D70 72 3C 68 80 6D 8A 00 8D 4C 24 18 FF 15 34 43 8A r<h.m...L$...4C.
007B8D80 00 8D 44 24 14 50 8D 4C 24 34 C7 44 24 64 00 00 ..D$.P.L$4.D$d..
007B8D90 00 00 E8 49 8C C4 FF 68 68 9C 99 00 8D 4C 24 34 ...I...hh....L$4
007B8DA0 51 C7 44 24 38 30 00 99 00 E8 1E C2 ED FF 8B 54 Q.D$80.........T
007B8DB0 24 74 8B 47 04 8B 74 24 70 6A 00 52 50 56 50 E8 $t.G..t$pj.RPVP.
007B8DC0 FC F3 FF FF 8B E8 8B 47 04 BB 01 00 00 00 01 5F .......G......._
007B8DD0 08 3B F0 75 10 89 68 04 8B 47 04 89 28 8B 4F 04 .;.u..h..G..(.O.
007B8DE0 89 69 08 EB 22 80 7C 24 6C 00 74 0D 89 2E 8B 47 .i..".|$l.t....G
007B8DF0 04 3B 30 75 12 89 28 EB 0E 89 6E 08 8B 47 04 3B .;0u..(...n..G.;
007B8E00 70 08 75 03 89 68 08 8B 55 04 80 7A 28 00 8D 45 p.u..h..U..z(..E
007B8E10 04 8B F5 0F 85 EC 00 00 00 8D A4 24 00 00 00 00 ...........$....
007B8E20 8B 08 8B 51 04 3B 0A 75 51 8B 52 08 80 7A 28 00 ...Q.;.uQ.R..z(.
007B8E30 75 19 88 59 28 88 5A 28 8B 10 8B 4A 04 C6 41 28 u..Y(.Z(...J..A(
007B8E40 00 8B 10 8B 72 04 E9 AA 00 00 00 3B 71 08 75 0A ....r......;q.u.
007B8E50 8B F1 56 8B CF E8 86 72 CB FF 8B 46 04 88 58 28 ..V....r...F..X(
007B8E60 8B 4E 04 8B 51 04 C6 42 28 00 8B 46 04 8B 48 04 .N..Q..B(..F..H.
007B8E70 51 8B CF E8 78 B3 FF FF EB 7B 8B 12 80 7A 28 00 Q...x....{...z(.
007B8E80 75 16 88 59 28 88 5A 28 8B 10 8B 4A 04 C6 41 28 u..Y(.Z(...J..A(
007B8E90 00 8B 10 8B 72 04 EB 5D 3B 31 75 0A 8B F1 56 8B ....r..];1u...V.
007B8EA0 CF E8 4A B3 FF FF 8B 46 04 88 58 28 8B 4E 04 8B ..J....F..X(.N..
007B8EB0 51 04 C6 42 28 00 8B 46 04 8B 40 04 8B 48 08 8B Q..B(..F..@..H..
007B8EC0 11 89 50 08 8B 11 80 7A 29 00 75 03 89 42 04 8B ..P....z).u..B..
007B8ED0 50 04 89 51 04 8B 57 04 3B 42 04 75 05 89 4A 04 P..Q..W.;B.u..J.
007B8EE0 EB 0E 8B 50 04 3B 02 75 04 89 0A EB 03 89 4A 08 ...P.;.u......J.
007B8EF0 89 01 89 48 04 8B 4E 04 80 79 28 00 8D 46 04 0F ...H..N..y(..F..
007B8F00 84 1B FF FF FF 8B 57 04 8B 42 04 88 58 28 8B 44 ......W..B..X(.D
007B8F10 24 68 89 28 8B 4C 24 58 64 89 0D 00 00 00 00 59 $h.(.L$Xd......Y
007B8F20 5F 5E 5D 5B 83 C4 50 C2 10 00 CC CC CC CC CC CC _^][..P.........
007B8F30 83 EC 08 56 8B F1 83 7E 08 00 57 75 21 8B 44 24 ...V...~..Wu!.D$
007B8F40 1C 8B 4E 04 8B 7C 24 14 50 51 6A 01 57 8B CE E8 ..N..|$.PQj.W...
007B8F50 BC D6 FF FF 8B C7 5F 5E 83 C4 08 C2 0C 00 8B 46 ......_^.......F
007B8F60 04 8B 7C 24 1C 53 8B 5C 24 1C 3B 18 55 75 31 8D ..|$.S.\$.;.Uu1.
007B8F70 53 10 52 57 E8 D7 B6 FF FF 83 C4 08 84 C0 0F 84 S.RW............
007B8F80 37 01 00 00 57 8B 7C 24 20 53 6A 01 57 8B CE E8 7...W.|$ Sj.W...
007B8F90 7C D6 FF FF 5D 5B 8B C7 5F 5E 83 C4 08 C2 0C 00 |...][.._^......
007B8FA0 3B D8 75 3A 8B 40 08 83 C0 10 57 50 E8 9F B6 FF ;.u:.@....WP....
007B8FB0 FF 83 C4 08 84 C0 0F 84 FF 00 00 00 8B 46 04 8B .............F..
007B8FC0 48 08 57 8B 7C 24 20 51 6A 00 57 8B CE E8 3E D6 H.W.|$ Qj.W...>.
007B8FD0 FF FF 5D 5B 8B C7 5F 5E 83 C4 08 C2 0C 00 8D 43 ..][.._^.......C
007B8FE0 10 50 57 E8 68 B6 FF FF 83 C4 08 84 C0 74 5B 8D .PW.h........t[.
007B8FF0 4C 24 24 89 5C 24 24 E8 04 D9 E4 FF 8B 6C 24 24 L$$.\$$......l$$
007B9000 57 8D 55 10 52 8B CE E8 64 B8 FF FF 84 C0 74 3A W.U.R...d.....t:
007B9010 8B 45 08 80 78 51 00 57 8B 7C 24 20 8B CE 74 15 .E..xQ.W.|$ ..t.
007B9020 55 6A 00 57 E8 E7 D5 FF FF 5D 5B 8B C7 5F 5E 83 Uj.W.....][.._^.
007B9030 C4 08 C2 0C 00 53 6A 01 57 E8 D2 D5 FF FF 5D 5B .....Sj.W.....][
007B9040 8B C7 5F 5E 83 C4 08 C2 0C 00 8D 43 10 57 50 E8 .._^.......C.WP.
007B9050 FC B5 FF FF 83 C4 08 84 C0 74 60 8D 4C 24 24 89 .........t`.L$$.
007B9060 5C 24 24 E8 28 B4 FF FF 8B 6C 24 24 3B 6E 04 74 \$$.(....l$$;n.t
007B9070 10 8D 4D 10 51 57 8B CE E8 F3 B7 FF FF 84 C0 74 ..M.QW.........t
007B9080 3A 8B 53 08 80 7A 51 00 57 8B 7C 24 20 8B CE 74 :.S..zQ.W.|$ ..t
007B9090 15 53 6A 00 57 E8 76 D5 FF FF 5D 5B 8B C7 5F 5E .Sj.W.v...][.._^
007B90A0 83 C4 08 C2 0C 00 55 6A 01 57 E8 61 D5 FF FF 5D ......Uj.W.a...]
007B90B0 5B 8B C7 5F 5E 83 C4 08 C2 0C 00 57 8D 44 24 14 [.._^......W.D$.
007B90C0 50 8B CE E8 38 F1 FF FF 8B 08 8B 44 24 1C 5D 5B P...8......D$.][
007B90D0 5F 89 08 5E 83 C4 08 C2 0C 00 CC CC CC CC CC CC _..^............
007B90E0 83 EC 08 56 8B F1 83 7E 08 00 57 75 21 8B 44 24 ...V...~..Wu!.D$
007B90F0 1C 8B 4E 04 8B 7C 24 14 50 51 6A 01 57 8B CE E8 ..N..|$.PQj.W...
007B9100 BC D7 FF FF 8B C7 5F 5E 83 C4 08 C2 0C 00 8B 46 ......_^.......F
007B9110 04 8B 7C 24 1C 53 8B 5C 24 1C 3B 18 55 75 2E 8D ..|$.S.\$.;.Uu..
007B9120 53 0C 52 57 E8 37 B6 FF FF 84 C0 0F 84 2A 01 00 S.RW.7.......*..
007B9130 00 57 8B 7C 24 20 53 6A 01 57 8B CE E8 7F D7 FF .W.|$ Sj.W......
007B9140 FF 5D 5B 8B C7 5F 5E 83 C4 08 C2 0C 00 3B D8 75 .][.._^......;.u
007B9150 31 8B 58 08 57 8D 43 0C 50 E8 02 B6 FF FF 84 C0 1.X.W.C.P.......
007B9160 0F 84 F5 00 00 00 57 8B 7C 24 20 53 6A 00 57 8B ......W.|$ Sj.W.
007B9170 CE E8 4A D7 FF FF 5D 5B 8B C7 5F 5E 83 C4 08 C2 ..J...][.._^....
007B9180 0C 00 8D 43 0C 50 57 E8 D4 B5 FF FF 84 C0 74 5B ...C.PW.......t[
007B9190 8D 4C 24 24 89 5C 24 24 E8 E3 25 DD FF 8B 6C 24 .L$$.\$$..%...l$
007B91A0 24 57 8D 4D 0C 51 8B CE E8 B3 B5 FF FF 84 C0 74 $W.M.Q.........t
007B91B0 3A 8B 55 08 80 7A 19 00 57 8B 7C 24 20 8B CE 74 :.U..z..W.|$ ..t
007B91C0 15 55 6A 00 57 E8 F6 D6 FF FF 5D 5B 8B C7 5F 5E .Uj.W.....][.._^
007B91D0 83 C4 08 C2 0C 00 53 6A 01 57 E8 E1 D6 FF FF 5D ......Sj.W.....]
007B91E0 5B 8B C7 5F 5E 83 C4 08 C2 0C 00 57 8D 43 0C 50 [.._^......W.C.P
007B91F0 8B CE E8 69 B5 FF FF 84 C0 74 60 8D 4C 24 24 89 ...i.....t`.L$$.
007B9200 5C 24 24 E8 D8 25 DD FF 8B 6C 24 24 3B 6E 04 74 \$$..%...l$$;n.t
007B9210 10 8D 45 0C 50 57 8B CE E8 43 B5 FF FF 84 C0 74 ..E.PW...C.....t
007B9220 3A 8B 4B 08 80 79 19 00 57 8B 7C 24 20 8B CE 74 :.K..y..W.|$ ..t
007B9230 15 53 6A 00 57 E8 86 D6 FF FF 5D 5B 8B C7 5F 5E .Sj.W.....][.._^
007B9240 83 C4 08 C2 0C 00 55 6A 01 57 E8 71 D6 FF FF 5D ......Uj.W.q...]
007B9250 5B 8B C7 5F 5E 83 C4 08 C2 0C 00 57 8D 54 24 14 [.._^......W.T$.
007B9260 52 8B CE E8 98 F0 FF FF 8B 08 8B 44 24 1C 5D 5B R..........D$.][
007B9270 5F 89 08 5E 83 C4 08 C2 0C 00 CC CC CC CC CC CC _..^............
007B9280 53 8B 5C 24 10 56 8B 74 24 10 57 8B F9 8B 47 04 S.\$.V.t$.W...G.
007B9290 3B 30 75 36 3B D8 75 32 8B 40 04 50 E8 FF DB FF ;0u6;.u2.@.P....
007B92A0 FF 8B 47 04 89 40 04 8B 47 04 C7 47 08 00 00 00 ..G..@..G..G....
007B92B0 00 89 00 8B 47 04 89 40 08 8B 4F 04 8B 11 8B 44 ....G..@..O....D
007B92C0 24 10 5F 5E 89 10 5B C2 0C 00 3B F3 74 5A 8B FF $._^..[...;.tZ..
007B92D0 80 7E 51 00 8B CE 75 3F 8B 46 08 80 78 51 00 75 .~Q...u?.F..xQ.u
007B92E0 1B 8B F0 8B 06 80 78 51 00 75 2C EB 03 8D 49 00 ......xQ.u,...I.
007B92F0 8B F0 8B 06 80 78 51 00 74 F6 EB 1B 8B 46 04 80 .....xQ.t....F..
007B9300 78 51 00 75 10 3B 70 08 75 0B 8B F0 8B 40 04 80 xQ.u.;p.u....@..
007B9310 78 51 00 74 F0 8B F0 51 8D 44 24 18 50 8B CF E8 xQ.t...Q.D$.P...
007B9320 1C E8 FF FF 3B F3 75 A8 8B 44 24 10 5F 89 30 5E ....;.u..D$._.0^
007B9330 5B C2 0C 00 CC CC CC CC CC CC CC CC CC CC CC CC [...............
007B9340 6A FF 68 F8 11 88 00 64 A1 00 00 00 00 50 51 56 j.h....d.....PQV
007B9350 57 A1 88 41 A1 00 33 C4 50 8D 44 24 10 64 A3 00 W..A..3.P.D$.d..
007B9360 00 00 00 8B F1 89 74 24 0C 8D 7E 04 8B CF C7 44 ......t$..~....D
007B9370 24 18 00 00 00 00 C7 06 40 9B 98 00 E8 9F F4 D0 $.......@.......
007B9380 FF 0F 57 C0 89 47 04 C7 47 08 00 00 00 00 F3 0F ..W..G..G.......
007B9390 11 46 10 C7 46 14 00 00 00 00 8B C6 8B 4C 24 10 .F..F........L$.
007B93A0 64 89 0D 00 00 00 00 59 5F 5E 83 C4 10 C3 CC CC d......Y_^......
007B93B0 8B 44 24 0C 53 56 8B F1 8B 08 89 4C 24 14 8B 4E .D$.SV.....L$..N
007B93C0 04 85 C9 57 75 04 33 FF EB 08 8B 7E 0C 2B F9 C1 ...Wu.3....~.+..
007B93D0 FF 02 8B 5C 24 14 85 DB 0F 84 81 01 00 00 85 C9 ...\$...........
007B93E0 75 04 33 C0 EB 08 8B 46 08 2B C1 C1 F8 02 BA FF u.3....F.+......
007B93F0 FF FF 3F 2B D0 3B D3 73 05 E8 42 B1 FF FF 85 C9 ..?+.;.s..B.....
007B9400 75 04 33 C0 EB 08 8B 46 08 2B C1 C1 F8 02 03 C3 u.3....F.+......
007B9410 3B F8 55 0F 83 B4 00 00 00 8B C7 D1 E8 BA FF FF ;.U.............
007B9420 FF 3F 2B D0 3B D7 73 04 33 FF EB 02 03 F8 85 C9 .?+.;.s.3.......
007B9430 75 04 33 C0 EB 08 8B 46 08 2B C1 C1 F8 02 03 C3 u.3....F.+......
007B9440 3B F8 73 12 85 C9 75 04 33 FF EB 08 8B 7E 08 2B ;.s...u.3....~.+
007B9450 F9 C1 FF 02 03 FB 6A 00 57 E8 22 90 FF FF 8B 4E ......j.W."....N
007B9460 04 83 C4 08 8B E8 8B 44 24 14 55 50 51 8B CE E8 .......D$.UPQ...
007B9470 8C 93 FF FF 8D 54 24 1C 52 53 50 8B CE E8 9E 09 .....T$.RSP.....
007B9480 EB FF 8B 4C 24 14 50 8B 46 08 50 51 8B CE E8 6D ...L$.P.F.PQ...m
007B9490 93 FF FF 8B 46 04 85 C0 75 04 33 C9 EB 08 8B 4E ....F...u.3....N
007B94A0 08 2B C8 C1 F9 02 03 D9 85 C0 74 09 50 E8 14 BB .+........t.P...
007B94B0 ED FF 83 C4 04 8D 54 BD 00 8D 44 9D 00 89 6E 04 ......T...D...n.
007B94C0 5D 5F 89 56 0C 89 46 08 5E 5B C2 0C 00 8B 6E 08 ]_.V..F.^[....n.
007B94D0 8B 7C 24 14 8B CD 2B CF C1 F9 02 8D 04 9D 00 00 .|$...+.........
007B94E0 00 00 3B CB 89 44 24 14 8B CE 73 46 03 C7 50 55 ..;..D$...sF..PU
007B94F0 57 E8 0A 93 FF FF 8B 46 08 8B C8 2B CF C1 F9 02 W......F...+....
007B9500 8D 54 24 1C 52 2B D9 53 50 8B CE E8 10 09 EB FF .T$.R+.SP.......
007B9510 8B 44 24 14 01 46 08 8B 76 08 8D 54 24 1C 52 2B .D$..F..v..T$.R+
007B9520 F0 56 57 E8 48 A2 CF FF 83 C4 0C 5D 5F 5E 5B C2 .VW.H......]_^[.
007B9530 0C 00 55 8B DD 2B D8 55 53 E8 C2 92 FF FF 55 53 ..U..+.US.....US
007B9540 57 89 46 08 E8 57 15 D5 FF 8B 4C 24 20 8D 44 24 W.F..W....L$ .D$
007B9550 28 50 03 CF 51 57 E8 15 A2 CF FF 83 C4 18 5D 5F (P..QW........]_
007B9560 5E 5B C2 0C 00 CC CC CC CC CC CC CC CC CC CC CC ^[..............
007B9570 56 6A 20 E8 60 BA ED FF 8B F0 83 C4 04 85 F6 74 Vj .`..........t
007B9580 22 8B 44 24 18 8B 4C 24 14 8B 54 24 10 50 8B 44 ".D$..L$..T$.P.D
007B9590 24 10 51 8B 4C 24 10 52 50 51 8B CE E8 2F EE FF $.Q.L$.RPQ.../..
007B95A0 FF 8B C6 5E C2 14 00 CC CC CC CC CC CC CC CC CC ...^............
007B95B0 6A FF 68 29 12 88 00 64 A1 00 00 00 00 50 83 EC j.h)...d.....P..
007B95C0 48 53 55 56 57 A1 88 41 A1 00 33 C4 50 8D 44 24 HSUVW..A..3.P.D$
007B95D0 5C 64 A3 00 00 00 00 8B D9 89 5C 24 14 8B 44 24 \d........\$..D$
007B95E0 70 80 78 11 00 74 3C 68 94 6D 8A 00 8D 4C 24 1C p.x..t<h.m...L$.
007B95F0 FF 15 34 43 8A 00 8D 44 24 18 50 8D 4C 24 38 C7 ..4C...D$.P.L$8.
007B9600 44 24 68 00 00 00 00 E8 D4 83 C4 FF 68 8C A8 99 D$h.........h...
007B9610 00 8D 4C 24 38 51 C7 44 24 3C 3C 00 99 00 E8 A9 ..L$8Q.D$<<.....
007B9620 B9 ED FF 8D 4C 24 70 8B E8 E8 B2 1E EE FF 8B 45 ....L$p........E
007B9630 00 80 78 11 00 74 05 8B 7D 08 EB 18 8B 55 08 80 ..x..t..}....U..
007B9640 7A 11 00 74 04 8B F8 EB 0B 8B 4C 24 70 3B CD 8B z..t......L$p;..
007B9650 79 08 75 67 80 7F 11 00 8B 75 04 75 03 89 77 04 y.ug.....u.u..w.
007B9660 8B 43 04 39 68 04 75 05 89 78 04 EB 0B 39 2E 75 .C.9h.u..x...9.u
007B9670 04 89 3E EB 03 89 7E 08 8B 5B 04 39 2B 75 15 80 ..>...~..[.9+u..
007B9680 7F 11 00 74 04 8B C6 EB 09 57 E8 41 67 ED FF 83 ...t.....W.Ag...
007B9690 C4 04 89 03 8B 44 24 14 8B 58 04 39 6B 08 75 73 .....D$..X.9k.us
007B96A0 80 7F 11 00 74 07 8B C6 89 43 08 EB 66 57 E8 FD ....t....C..fW..
007B96B0 66 ED FF 83 C4 04 89 43 08 EB 58 89 48 04 8B 55 f......C..X.H..U
007B96C0 00 89 11 3B 4D 08 75 04 8B F1 EB 1A 80 7F 11 00 ...;M.u.........
007B96D0 8B 71 04 75 03 89 77 04 89 3E 8B 45 08 89 41 08 .q.u..w..>.E..A.
007B96E0 8B 55 08 89 4A 04 8B 43 04 39 68 04 75 05 89 48 .U..J..C.9h.u..H
007B96F0 04 EB 0E 8B 45 04 39 28 75 04 89 08 EB 03 89 48 ....E.9(u......H
007B9700 08 8B 45 04 89 41 04 8A 55 10 8A 41 10 88 51 10 ..E..A..U..A..Q.
007B9710 88 45 10 BB 01 00 00 00 38 5D 10 0F 85 FF 00 00 .E......8]......
007B9720 00 8B 4C 24 14 8B 41 04 3B 78 04 0F 84 EC 00 00 ..L$..A.;x......
007B9730 00 38 5F 10 0F 85 E3 00 00 00 8B 06 3B F8 75 67 .8_.........;.ug
007B9740 8B 46 08 80 78 10 00 75 14 88 58 10 56 C6 46 10 .F..x..u..X.V.F.
007B9750 00 E8 DA 67 ED FF 8B 46 08 8B 4C 24 14 80 78 11 ...g...F..L$..x.
007B9760 00 75 76 8B 10 38 5A 10 75 08 8B 50 08 38 5A 10 .uv..8Z.u..P.8Z.
007B9770 74 63 8B 50 08 38 5A 10 75 16 8B 10 88 5A 10 50 tc.P.8Z.u....Z.P
007B9780 C6 40 10 00 E8 77 E8 CD FF 8B 46 08 8B 4C 24 14 .@...w....F..L$.
007B9790 8A 56 10 88 50 10 88 5E 10 8B 40 08 56 88 58 10 .V..P..^..@.V.X.
007B97A0 E8 8B 67 ED FF EB 76 80 78 10 00 75 13 88 58 10 ..g...v.x..u..X.
007B97B0 56 C6 46 10 00 E8 46 E8 CD FF 8B 06 8B 4C 24 14 V.F...F......L$.
007B97C0 80 78 11 00 75 13 8B 50 08 38 5A 10 75 1E 8B 10 .x..u..P.8Z.u...
007B97D0 38 5A 10 75 17 C6 40 10 00 8B 41 04 8B FE 3B 78 8Z.u..@...A...;x
007B97E0 04 8B 76 04 0F 85 47 FF FF FF EB 31 8B 10 38 5A ..v...G....1..8Z
007B97F0 10 75 16 8B 50 08 88 5A 10 50 C6 40 10 00 E8 2D .u..P..Z.P.@...-
007B9800 67 ED FF 8B 06 8B 4C 24 14 8A 56 10 88 50 10 88 g.....L$..V..P..
007B9810 5E 10 8B 00 56 88 58 10 E8 E3 E7 CD FF 88 5F 10 ^...V.X......._.
007B9820 8B 45 0C 85 C0 74 10 83 40 08 FF 8D 48 04 75 07 .E...t..@...H.u.
007B9830 8B 11 8B 02 53 FF D0 55 C7 45 0C 00 00 00 00 E8 ....S..U.E......
007B9840 82 B7 ED FF 8B 4C 24 18 8B 41 08 83 C4 04 85 C0 .....L$..A......
007B9850 76 06 83 C0 FF 89 41 08 8B 44 24 6C 8B 4C 24 70 v.....A..D$l.L$p
007B9860 89 08 8B 4C 24 5C 64 89 0D 00 00 00 00 59 5F 5E ...L$\d......Y_^
007B9870 5D 5B 83 C4 54 C2 08 00 CC CC CC CC CC CC CC CC ][..T...........
007B9880 6A FF 68 58 12 88 00 64 A1 00 00 00 00 50 51 53 j.hX...d.....PQS
007B9890 55 56 57 A1 88 41 A1 00 33 C4 50 8D 44 24 18 64 UVW..A..3.P.D$.d
007B98A0 A3 00 00 00 00 89 4C 24 14 8B 6C 24 28 33 DB 38 ......L$..l$(3.8
007B98B0 5D 29 8B F5 75 50 8B 46 08 8B 4C 24 14 50 E8 BD ])..uP.F..L$.P..
007B98C0 FF FF FF 8B 36 8D 7D 0C 89 7C 24 28 8B 4F 10 3B ....6.}..|$(.O.;
007B98D0 CB 89 5C 24 20 74 0E 83 41 04 FF 75 08 8B 11 8B ..\$ t..A..u....
007B98E0 02 6A 01 FF D0 89 5F 10 55 C7 44 24 24 FF FF FF .j...._.U.D$$...
007B98F0 FF C7 07 28 CE 8A 00 E8 CA B6 ED FF 83 C4 04 38 ...(...........8
007B9900 5E 29 8B EE 74 B0 8B 4C 24 18 64 89 0D 00 00 00 ^)..t..L$.d.....
007B9910 00 59 5F 5E 5D 5B 83 C4 10 C2 04 00 CC CC CC CC .Y_^][..........
007B9920 51 56 8B F1 8B 46 04 8B 08 50 51 8D 44 24 0C 50 QV...F...PQ.D$.P
007B9930 8B CE E8 C9 CE FF FF 8B 4E 04 51 E8 86 B6 ED FF ........N.Q.....
007B9940 83 C4 04 33 C0 89 46 04 89 46 08 5E 59 C3 CC CC ...3..F..F.^Y...
007B9950 56 8B F1 8D 4E 04 E8 25 12 E1 FF C7 06 28 CE 8A V...N..%.....(..
007B9960 00 5E C3 CC CC CC CC CC CC CC CC CC CC CC CC CC .^..............
007B9970 56 8B F1 8D 4E 04 E8 05 12 E1 FF F6 44 24 08 01 V...N.......D$..
007B9980 C7 06 28 CE 8A 00 74 09 56 E8 38 B6 ED FF 83 C4 ..(...t.V.8.....
007B9990 04 8B C6 5E C2 04 00 CC CC CC CC CC CC CC CC CC ...^............
007B99A0 6A FF 68 88 12 88 00 64 A1 00 00 00 00 50 83 EC j.h....d.....P..
007B99B0 18 53 55 56 57 A1 88 41 A1 00 33 C4 50 8D 44 24 .SUVW..A..3.P.D$
007B99C0 2C 64 A3 00 00 00 00 8B E9 89 6C 24 14 8B 85 80 ,d........l$....
007B99D0 00 00 00 8B 38 3B F8 0F 84 D9 00 00 00 33 DB 90 ....8;.......3..
007B99E0 38 5F 15 8B 77 10 75 39 8B 4F 08 38 59 15 75 14 8_..w.u9.O.8Y.u.
007B99F0 8B 01 38 58 15 75 09 8B C8 8B 01 38 58 15 74 F7 ..8X.u.....8X.t.
007B9A00 8B F9 EB 1D 8B 47 04 38 58 15 75 13 8D 64 24 00 .....G.8X.u..d$.
007B9A10 3B 78 08 75 0A 8B F8 8B 40 04 38 58 15 74 F1 8B ;x.u....@.8X.t..
007B9A20 F8 8B 44 24 3C 39 46 0C 0F 85 7C 00 00 00 8D 4E ..D$<9F...|....N
007B9A30 04 51 8D 54 24 28 83 C5 7C 52 8B CD E8 1F C3 FF .Q.T$(..|R......
007B9A40 FF 8B 44 24 28 8B 4C 24 24 50 51 8D 54 24 20 52 ..D$(.L$$PQ.T$ R
007B9A50 8B CD E8 49 C2 FF FF 8B 46 08 3B C3 74 0A C7 40 ...I....F.;.t..@
007B9A60 10 02 00 00 00 89 5E 08 BD C0 97 98 00 89 6C 24 ......^.......l$
007B9A70 1C C7 44 24 20 F5 FF FF FF 8B 56 10 8B 4E 0C 8B ..D$ .....V..N..
007B9A80 01 8B 40 08 52 8D 54 24 20 52 89 5C 24 3C FF D0 ..@.R.T$ R.\$<..
007B9A90 8B 16 8B 02 6A 01 8B CE FF D0 89 6C 24 1C 8B 6C ....j......l$..l
007B9AA0 24 14 C7 44 24 34 FF FF FF FF 3B BD 80 00 00 00 $..D$4....;.....
007B9AB0 0F 85 2A FF FF FF 8B 4C 24 2C 64 89 0D 00 00 00 ..*....L$,d.....
007B9AC0 00 59 5F 5E 5D 5B 83 C4 24 C2 04 00 CC CC CC CC .Y_^][..$.......
007B9AD0 6A FF 68 B8 12 88 00 64 A1 00 00 00 00 50 83 EC j.h....d.....P..
007B9AE0 18 53 55 56 57 A1 88 41 A1 00 33 C4 50 8D 44 24 .SUVW..A..3.P.D$
007B9AF0 2C 64 A3 00 00 00 00 8B E9 89 6C 24 14 8B 85 80 ,d........l$....
007B9B00 00 00 00 8B 38 3B F8 0F 84 D9 00 00 00 33 DB 90 ....8;.......3..
007B9B10 38 5F 15 8B 77 10 75 39 8B 4F 08 38 59 15 75 14 8_..w.u9.O.8Y.u.
007B9B20 8B 01 38 58 15 75 09 8B C8 8B 01 38 58 15 74 F7 ..8X.u.....8X.t.
007B9B30 8B F9 EB 1D 8B 47 04 38 58 15 75 13 8D 64 24 00 .....G.8X.u..d$.
007B9B40 3B 78 08 75 0A 8B F8 8B 40 04 38 58 15 74 F1 8B ;x.u....@.8X.t..
007B9B50 F8 8B 44 24 3C 39 46 14 0F 85 7C 00 00 00 8D 4E ..D$<9F...|....N
007B9B60 04 51 8D 54 24 28 83 C5 7C 52 8B CD E8 EF C1 FF .Q.T$(..|R......
007B9B70 FF 8B 44 24 28 8B 4C 24 24 50 51 8D 54 24 20 52 ..D$(.L$$PQ.T$ R
007B9B80 8B CD E8 19 C1 FF FF 8B 46 08 3B C3 74 0A C7 40 ........F.;.t..@
007B9B90 10 02 00 00 00 89 5E 08 BD C0 97 98 00 89 6C 24 ......^.......l$
007B9BA0 1C C7 44 24 20 F5 FF FF FF 8B 56 10 8B 4E 0C 8B ..D$ .....V..N..
007B9BB0 01 8B 40 08 52 8D 54 24 20 52 89 5C 24 3C FF D0 ..@.R.T$ R.\$<..
007B9BC0 8B 16 8B 02 6A 01 8B CE FF D0 89 6C 24 1C 8B 6C ....j......l$..l
007B9BD0 24 14 C7 44 24 34 FF FF FF FF 3B BD 80 00 00 00 $..D$4....;.....
007B9BE0 0F 85 2A FF FF FF 8B 4C 24 2C 64 89 0D 00 00 00 ..*....L$,d.....
007B9BF0 00 59 5F 5E 5D 5B 83 C4 24 C2 04 00 CC CC CC CC .Y_^][..$.......
007B9C00 8B 44 24 08 6A 01 50 E8 C4 E9 FF FF 33 C0 C2 08 .D$.j.P.....3...
007B9C10 00 CC CC CC CC CC CC CC CC CC CC CC CC CC CC CC ................
007B9C20 83 EC 0C 56 8B 74 24 14 57 56 8B F9 E8 5F AC FF ...V.t$.WV..._..
007B9C30 FF 3B 47 04 74 15 8B 0E 8B 50 0C 3B CA 72 0C 75 .;G.t....P.;.r.u
007B9C40 33 66 8B 4E 04 66 3B 48 10 73 29 8B 16 8B 4E 04 3f.N.f;H.s)...N.
007B9C50 89 54 24 08 8D 54 24 08 52 50 8D 44 24 20 89 4C .T$..T$.RP.D$ .L
007B9C60 24 14 50 8B CF C7 44 24 1C 00 00 00 00 E8 4E EC $.P...D$......N.
007B9C70 FF FF 8B 00 5F 83 C0 14 5E 83 C4 0C C2 04 00 CC ...._...^.......
007B9C80 51 56 8B F1 8A 46 10 8B 56 08 8B 4E 04 88 44 24 QV...F..V..N..D$
007B9C90 04 8B C2 2B C1 83 E0 FC 83 F8 04 7E 23 57 8B 39 ...+.......~#W.9
007B9CA0 8D 42 FC 8B 52 FC 89 38 8B 7C 24 08 57 52 2B C1 .B..R..8.|$.WR+.
007B9CB0 C1 F8 02 50 6A 00 51 E8 D4 B5 FF FF 83 C4 14 5F ...Pj.Q........_
007B9CC0 8B 46 04 85 C0 74 12 8B 4E 08 8B D1 2B D0 C1 FA .F...t..N...+...
007B9CD0 02 74 06 83 C1 FC 89 4E 08 5E 59 C3 CC CC CC CC .t.....N.^Y.....
007B9CE0 8B 51 04 8B 42 04 83 EC 08 80 78 15 00 56 8B 74 .Q..B.....x..V.t
007B9CF0 24 10 75 18 57 8B 3E 39 78 0C 7D 05 8B 40 08 EB $.u.W.>9x.}..@..
007B9D00 04 8B D0 8B 00 80 78 15 00 74 EC 5F 3B 51 04 74 ......x..t._;Q.t
007B9D10 07 8B 06 3B 42 0C 7D 2A 8B 06 89 44 24 04 8D 44 ...;B.}*...D$..D
007B9D20 24 04 50 52 8D 54 24 18 52 C7 44 24 14 00 00 00 $.PR.T$.R.D$....
007B9D30 00 E8 2A ED FF FF 8B 00 83 C0 10 5E 83 C4 08 C2 ..*........^....
007B9D40 04 00 8D 42 10 5E 83 C4 08 C2 04 00 CC CC CC CC ...B.^..........
007B9D50 8B 51 04 8B 42 04 83 EC 08 80 78 15 00 56 8B 74 .Q..B.....x..V.t
007B9D60 24 10 75 18 57 8B 3E 39 78 0C 7D 05 8B 40 08 EB $.u.W.>9x.}..@..
007B9D70 04 8B D0 8B 00 80 78 15 00 74 EC 5F 3B 51 04 74 ......x..t._;Q.t
007B9D80 07 8B 06 3B 42 0C 7D 2A 8B 06 89 44 24 04 8D 44 ...;B.}*...D$..D
007B9D90 24 04 50 52 8D 54 24 18 52 C7 44 24 14 00 00 00 $.PR.T$.R.D$....
007B9DA0 00 E8 2A EE FF FF 8B 00 83 C0 10 5E 83 C4 08 C2 ..*........^....
007B9DB0 04 00 8D 42 10 5E 83 C4 08 C2 04 00 CC CC CC CC ...B.^..........
007B9DC0 83 EC 08 53 8B D9 8B 4B 04 8B 41 04 80 78 29 00 ...S...K..A..x).
007B9DD0 55 8B E9 56 B1 01 57 88 4C 24 10 75 51 8D 49 00 U..V..W.L$.uQ.I.
007B9DE0 8D 48 0C 85 C9 8B E8 74 05 8D 79 04 EB 02 33 FF .H.....t..y...3.
007B9DF0 8B 4C 24 20 85 C9 74 05 83 C1 04 EB 02 33 C9 8B .L$ ..t......3..
007B9E00 51 08 8B 77 08 3B D6 7C 60 75 14 8B 11 8B 37 3B Q..w.;.|`u....7;
007B9E10 D6 72 56 75 0A 66 8B 49 04 66 3B 4F 04 72 4A 8B .rVu.f.I.f;O.rJ.
007B9E20 40 08 32 C9 88 4C 24 10 80 78 29 00 74 B2 84 C9 @.2..L$..x).t...
007B9E30 8B F5 89 74 24 14 74 48 8B 53 04 3B 2A 75 34 8B ...t$.tH.S.;*u4.
007B9E40 44 24 20 50 55 6A 01 8D 4C 24 2C 51 8B CB E8 ED D$ PUj..L$,Q....
007B9E50 EE FF FF 8B 10 8B 44 24 1C 5F 5E 5D 89 10 C6 40 ......D$._^]...@
007B9E60 04 01 5B 83 C4 08 C2 08 00 8B 00 B1 01 88 4C 24 ..[...........L$
007B9E70 10 EB B5 8D 4C 24 14 E8 54 64 CB FF 8B 74 24 14 ....L$..Td...t$.
007B9E80 8B 7C 24 20 57 8D 46 0C 50 8B CB E8 40 A9 FF FF .|$ W.F.P...@...
007B9E90 84 C0 74 29 8B 4C 24 10 57 55 51 8D 54 24 2C 52 ..t).L$.WUQ.T$,R
007B9EA0 8B CB E8 99 EE FF FF 8B 08 8B 44 24 1C 5F 5E 5D ..........D$._^]
007B9EB0 89 08 C6 40 04 01 5B 83 C4 08 C2 08 00 8B 44 24 ...@..[.......D$
007B9EC0 1C 5F 89 30 5E 5D C6 40 04 00 5B 83 C4 08 C2 08 ._.0^].@..[.....
007B9ED0 00 CC CC CC CC CC CC CC CC CC CC CC CC CC CC CC ................
007B9EE0 6A FF 68 E9 12 88 00 64 A1 00 00 00 00 50 83 EC j.h....d.....P..
007B9EF0 48 53 55 56 57 A1 88 41 A1 00 33 C4 50 8D 44 24 HSUVW..A..3.P.D$
007B9F00 5C 64 A3 00 00 00 00 8B E9 8B 44 24 70 80 78 29 \d........D$p.x)
007B9F10 00 74 3C 68 94 6D 8A 00 8D 4C 24 1C FF 15 34 43 .t<h.m...L$...4C
007B9F20 8A 00 8D 44 24 18 50 8D 4C 24 38 C7 44 24 68 00 ...D$.P.L$8.D$h.
007B9F30 00 00 00 E8 A8 7A C4 FF 68 8C A8 99 00 8D 4C 24 .....z..h.....L$
007B9F40 38 51 C7 44 24 3C 3C 00 99 00 E8 7D B0 ED FF 8B 8Q.D$<<....}....
007B9F50 D8 8D 4C 24 70 89 5C 24 14 E8 02 57 CB FF 8B 03 ..L$p.\$...W....
007B9F60 80 78 29 00 74 05 8B 7B 08 EB 18 8B 53 08 80 7A .x).t..{....S..z
007B9F70 29 00 74 04 8B F8 EB 0B 8B 4C 24 70 3B CB 8B 79 ).t......L$p;..y
007B9F80 08 75 6B 80 7F 29 00 8B 73 04 75 03 89 77 04 8B .uk..)..s.u..w..
007B9F90 45 04 39 58 04 75 05 89 78 04 EB 0B 39 1E 75 04 E.9X.u..x...9.u.
007B9FA0 89 3E EB 03 89 7E 08 8B 5D 04 8B 03 3B 44 24 14 .>...~..]...;D$.
007B9FB0 75 15 80 7F 29 00 74 04 8B C6 EB 09 57 E8 4E 55 u...).t.....W.NU
007B9FC0 CB FF 83 C4 04 89 03 8B 5D 04 8B 4C 24 14 39 4B ........]..L$.9K
007B9FD0 08 75 72 80 7F 29 00 74 07 8B C6 89 43 08 EB 65 .ur..).t....C..e
007B9FE0 57 E8 0A 55 CB FF 83 C4 04 89 43 08 EB 57 89 48 W..U......C..W.H
007B9FF0 04 8B 13 89 11 3B 4B 08 75 04 8B F1 EB 1A 80 7F .....;K.u.......
007BA000 29 00 8B 71 04 75 03 89 77 04 89 3E 8B 43 08 89 )..q.u..w..>.C..
007BA010 41 08 8B 53 08 89 4A 04 8B 45 04 39 58 04 75 05 A..S..J..E.9X.u.
007BA020 89 48 04 EB 0E 8B 43 04 39 18 75 04 89 08 EB 03 .H....C.9.u.....
007BA030 89 48 08 8B 43 04 89 41 04 8A 53 28 8A 41 28 88 .H..C..A..S(.A(.
007BA040 51 28 88 43 28 8B 44 24 14 B3 01 38 58 28 0F 85 Q(.C(.D$...8X(..
007BA050 F2 00 00 00 8B 4D 04 3B 79 04 0F 84 E3 00 00 00 .....M.;y.......
007BA060 38 5F 28 0F 85 DA 00 00 00 8B 06 3B F8 75 63 8B 8_(........;.uc.
007BA070 46 08 80 78 28 00 75 12 88 58 28 56 8B CD C6 46 F..x(.u..X(V...F
007BA080 28 00 E8 59 60 CB FF 8B 46 08 80 78 29 00 75 72 (..Y`...F..x).ur
007BA090 8B 10 38 5A 28 75 08 8B 48 08 38 59 28 74 5F 8B ..8Z(u..H.8Y(t_.
007BA0A0 48 08 38 59 28 75 12 88 5A 28 50 8B CD C6 40 28 H.8Y(u..Z(P...@(
007BA0B0 00 E8 3A A1 FF FF 8B 46 08 8A 4E 28 88 48 28 88 ..:....F..N(.H(.
007BA0C0 5E 28 8B 50 08 56 8B CD 88 5A 28 E8 10 60 CB FF ^(.P.V...Z(..`..
007BA0D0 EB 71 80 78 28 00 75 11 88 58 28 56 8B CD C6 46 .q.x(.u..X(V...F
007BA0E0 28 00 E8 09 A1 FF FF 8B 06 80 78 29 00 75 13 8B (.........x).u..
007BA0F0 50 08 38 5A 28 75 1E 8B 08 38 59 28 75 17 C6 40 P.8Z(u...8Y(u..@
007BA100 28 00 8B 55 04 8B FE 3B 7A 04 8B 76 04 0F 85 4D (..U...;z..v...M
007BA110 FF FF FF EB 2E 8B 08 38 59 28 75 11 88 5A 28 50 .......8Y(u..Z(P
007BA120 8B CD C6 40 28 00 E8 B5 5F CB FF 8B 06 8A 4E 28 ...@(..._.....N(
007BA130 88 48 28 88 5E 28 8B 10 56 8B CD 88 5A 28 E8 AD .H(.^(..V...Z(..
007BA140 A0 FF FF 88 5F 28 8B 4C 24 14 83 C1 0C E8 0E AD ...._(.L$.......
007BA150 FF FF 8B 44 24 14 50 E8 6A AE ED FF 8B 45 08 83 ...D$.P.j....E..
007BA160 C4 04 85 C0 76 06 83 C0 FF 89 45 08 8B 44 24 6C ....v.....E..D$l
007BA170 8B 4C 24 70 89 08 8B 4C 24 5C 64 89 0D 00 00 00 .L$p...L$\d.....
007BA180 00 59 5F 5E 5D 5B 83 C4 54 C2 08 00 CC CC CC CC .Y_^][..T.......
007BA190 6A FF 68 18 13 88 00 64 A1 00 00 00 00 50 83 EC j.h....d.....P..
007BA1A0 40 53 55 56 57 A1 88 41 A1 00 33 C4 50 8D 44 24 @SUVW..A..3.P.D$
007BA1B0 54 64 A3 00 00 00 00 8B D9 8B 7C 24 64 57 E8 CD Td........|$dW..
007BA1C0 A8 FF FF 8B E8 3B 6B 04 74 11 8D 45 10 50 57 E8 .....;k.t..E.PW.
007BA1D0 7C A4 FF FF 83 C4 08 84 C0 74 64 8B 0F 8B 57 04 |........td...W.
007BA1E0 89 4C 24 14 83 C7 08 57 8D 4C 24 20 33 F6 89 54 .L$....W.L$ 3..T
007BA1F0 24 1C FF 15 3C 43 8A 00 89 74 24 3C 89 74 24 40 $...<C...t$<.t$@
007BA200 89 74 24 44 89 74 24 48 89 74 24 4C 89 74 24 50 .t$D.t$H.t$L.t$P
007BA210 8D 44 24 14 50 55 8D 4C 24 6C 51 8B CB 89 74 24 .D$.PU.L$lQ...t$
007BA220 68 E8 0A ED FF FF 8B 30 8D 4C 24 1C C7 44 24 5C h......0.L$..D$\
007BA230 FF FF FF FF FF 15 38 43 8A 00 8D 46 38 EB 03 8D ......8C...F8...
007BA240 45 38 8B 4C 24 54 64 89 0D 00 00 00 00 59 5F 5E E8.L$Td......Y_^
007BA250 5D 5B 83 C4 4C C2 04 00 CC CC CC CC CC CC CC CC ][..L...........
007BA260 83 EC 0C 56 8B 74 24 14 57 56 8B F9 E8 1F A6 FF ...V.t$.WV......
007BA270 FF 3B 47 04 74 15 8B 0E 8B 50 0C 3B CA 72 0C 75 .;G.t....P.;.r.u
007BA280 33 66 8B 4E 04 66 3B 48 10 73 29 8B 16 8B 4E 04 3f.N.f;H.s)...N.
007BA290 89 54 24 08 8D 54 24 08 52 50 8D 44 24 20 89 4C .T$..T$.RP.D$ .L
007BA2A0 24 14 50 8B CF C7 44 24 1C 00 00 00 00 E8 2E EE $.P...D$........
007BA2B0 FF FF 8B 00 5F 83 C0 14 5E 83 C4 0C C2 04 00 CC ...._...^.......
007BA2C0 55 8B EC 6A FF 68 40 13 88 00 64 A1 00 00 00 00 U..j.h@...d.....
007BA2D0 50 83 EC 0C 53 56 57 A1 88 41 A1 00 33 C5 50 8D P...SVW..A..3.P.
007BA2E0 45 F4 64 A3 00 00 00 00 89 65 F0 8B F1 89 75 E8 E.d......e....u.
007BA2F0 8B 5D 08 33 C0 3B D8 89 46 04 89 46 08 89 46 0C .].3.;..F..F..F.
007BA300 74 57 81 FB AA AA AA 0A 76 05 E8 D1 A1 FF FF 50 tW......v......P
007BA310 53 E8 DA 90 D1 FF 8B 55 0C 8B F8 8D 04 5B 03 C0 S......U.....[..
007BA320 03 C0 03 C0 89 45 EC 03 C7 89 46 0C C6 45 08 00 .....E....F..E..
007BA330 8B 45 08 8B 4D 08 50 51 56 52 53 57 89 7E 04 89 .E..M.PQVRSW.~..
007BA340 7E 08 C7 45 FC 00 00 00 00 E8 22 32 C9 FF 8B 45 ~..E......"2...E
007BA350 EC 83 C4 20 03 C7 89 46 08 8B 4D F4 64 89 0D 00 ... ...F..M.d...
007BA360 00 00 00 59 5F 5E 5B 8B E5 5D C2 08 00 8B 4D E8 ...Y_^[..]....M.
007BA370 E8 3B BA EE FF 6A 00 6A 00 E8 4E AC ED FF CC CC .;...j.j..N.....
007BA380 55 56 57 8B 7C 24 10 80 7F 11 00 8B E9 8B F7 75 UVW.|$.........u
007BA390 3D 8B 46 08 50 8B CD E8 E4 FF FF FF 8B 47 0C 85 =.F.P........G..
007BA3A0 C0 8B 36 74 11 83 40 08 FF 8D 48 04 75 08 8B 11 ..6t..@...H.u...
007BA3B0 8B 02 6A 01 FF D0 57 C7 47 0C 00 00 00 00 E8 03 ..j...W.G.......
007BA3C0 AC ED FF 83 C4 04 80 7E 11 00 8B FE 74 C3 5F 5E .......~....t._^
007BA3D0 5D C2 04 00 CC CC CC CC CC CC CC CC CC CC CC CC ]...............
007BA3E0 6A FF 68 69 13 88 00 64 A1 00 00 00 00 50 83 EC j.hi...d.....P..
007BA3F0 44 53 55 56 57 A1 88 41 A1 00 33 C4 50 8D 44 24 DSUVW..A..3.P.D$
007BA400 58 64 A3 00 00 00 00 8B F9 81 7F 08 FE FF FF 0F Xd..............
007BA410 72 3C 68 80 6D 8A 00 8D 4C 24 18 FF 15 34 43 8A r<h.m...L$...4C.
007BA420 00 8D 44 24 14 50 8D 4C 24 34 C7 44 24 64 00 00 ..D$.P.L$4.D$d..
007BA430 00 00 E8 A9 75 C4 FF 68 68 9C 99 00 8D 4C 24 34 ....u..hh....L$4
007BA440 51 C7 44 24 38 30 00 99 00 E8 7E AB ED FF 8B 54 Q.D$80....~....T
007BA450 24 74 8B 47 04 8B 74 24 70 6A 00 52 50 56 50 E8 $t.G..t$pj.RPVP.
007BA460 0C F1 FF FF 8B E8 8B 47 04 BB 01 00 00 00 01 5F .......G......._
007BA470 08 3B F0 75 10 89 68 04 8B 47 04 89 28 8B 4F 04 .;.u..h..G..(.O.
007BA480 89 69 08 EB 22 80 7C 24 6C 00 74 0D 89 2E 8B 47 .i..".|$l.t....G
007BA490 04 3B 30 75 12 89 28 EB 0E 89 6E 08 8B 47 04 3B .;0u..(...n..G.;
007BA4A0 70 08 75 03 89 68 08 8B 55 04 80 7A 1C 00 8D 45 p.u..h..U..z...E
007BA4B0 04 8B F5 0F 85 EC 00 00 00 8D A4 24 00 00 00 00 ...........$....
007BA4C0 8B 08 8B 51 04 3B 0A 75 51 8B 52 08 80 7A 1C 00 ...Q.;.uQ.R..z..
007BA4D0 75 19 88 59 1C 88 5A 1C 8B 10 8B 4A 04 C6 41 1C u..Y..Z....J..A.
007BA4E0 00 8B 10 8B 72 04 E9 AA 00 00 00 3B 71 08 75 0A ....r......;q.u.
007BA4F0 8B F1 56 8B CF E8 36 23 CF FF 8B 46 04 88 58 1C ..V...6#...F..X.
007BA500 8B 4E 04 8B 51 04 C6 42 1C 00 8B 46 04 8B 48 04 .N..Q..B...F..H.
007BA510 51 8B CF E8 78 9C FF FF EB 7B 8B 12 80 7A 1C 00 Q...x....{...z..
007BA520 75 16 88 59 1C 88 5A 1C 8B 10 8B 4A 04 C6 41 1C u..Y..Z....J..A.
007BA530 00 8B 10 8B 72 04 EB 5D 3B 31 75 0A 8B F1 56 8B ....r..];1u...V.
007BA540 CF E8 4A 9C FF FF 8B 46 04 88 58 1C 8B 4E 04 8B ..J....F..X..N..
007BA550 51 04 C6 42 1C 00 8B 46 04 8B 40 04 8B 48 08 8B Q..B...F..@..H..
007BA560 11 89 50 08 8B 11 80 7A 1D 00 75 03 89 42 04 8B ..P....z..u..B..
007BA570 50 04 89 51 04 8B 57 04 3B 42 04 75 05 89 4A 04 P..Q..W.;B.u..J.
007BA580 EB 0E 8B 50 04 3B 02 75 04 89 0A EB 03 89 4A 08 ...P.;.u......J.
007BA590 89 01 89 48 04 8B 4E 04 80 79 1C 00 8D 46 04 0F ...H..N..y...F..
007BA5A0 84 1B FF FF FF 8B 57 04 8B 42 04 88 58 1C 8B 44 ......W..B..X..D
007BA5B0 24 68 89 28 8B 4C 24 58 64 89 0D 00 00 00 00 59 $h.(.L$Xd......Y
007BA5C0 5F 5E 5D 5B 83 C4 50 C2 10 00 CC CC CC CC CC CC _^][..P.........
007BA5D0 53 55 8B 6C 24 0C 80 7D 1D 00 56 8B D9 8B F5 75 SU.l$..}..V....u
007BA5E0 47 57 8B 46 08 50 8B CB E8 E3 FF FF FF 8B 7D 18 GW.F.P........}.
007BA5F0 85 FF 8B 36 74 19 8B CF E8 E3 74 C4 FF 83 F8 01 ...6t.....t.....
007BA600 75 0D 85 FF 74 09 8B 17 50 8B 02 8B CF FF D0 55 u...t...P......U
007BA610 C7 45 18 00 00 00 00 E8 AA A9 ED FF 83 C4 04 80 .E..............
007BA620 7E 1D 00 8B EE 74 BB 5F 5E 5D 5B C2 04 00 CC CC ~....t._^][.....
007BA630 51 56 8B F1 8B 46 04 8B 08 50 51 8D 44 24 0C 50 QV...F...PQ.D$.P
007BA640 8B CE E8 F9 D9 FF FF 8B 4E 04 51 E8 76 A9 ED FF ........N.Q.v...
007BA650 83 C4 04 33 C0 89 46 04 89 46 08 5E 59 C3 CC CC ...3..F..F.^Y...
007BA660 51 56 8B F1 8B 46 04 8B 08 50 51 8D 44 24 0C 50 QV...F...PQ.D$.P
007BA670 8B CE E8 89 DA FF FF 8B 4E 04 51 E8 46 A9 ED FF ........N.Q.F...
007BA680 83 C4 04 33 C0 89 46 04 89 46 08 5E 59 C3 CC CC ...3..F..F.^Y...
007BA690 83 EC 08 53 55 8B 6C 24 14 56 57 8B F1 8D 7D 3C ...SU.l$.VW...}<
007BA6A0 57 8D 44 24 20 8D 9E D8 02 00 00 50 8B CB E8 BD W.D$ ......P....
007BA6B0 AE FF FF 8B 44 24 1C 3B 86 DC 02 00 00 74 44 8B ....D$.;.....tD.
007BA6C0 40 14 85 C0 74 3D 68 8F 69 8A 00 68 8F 69 8A 00 @...t=h.i..h.i..
007BA6D0 68 0F 05 00 00 8D 4C 24 1C 68 70 9B 98 00 51 C7 h.....L$.hp...Q.
007BA6E0 44 24 24 00 00 00 00 C7 44 24 28 06 00 00 00 E8 D$$.....D$(.....
007BA6F0 7C 55 E6 FF 83 C4 14 5F 5E 5D 32 C0 5B 83 C4 08 |U....._^]2.[...
007BA700 C2 04 00 57 8B CB E8 15 F5 FF FF 5F 5E 89 28 5D ...W......._^.(]
007BA710 B0 01 5B 83 C4 08 C2 04 00 CC CC CC CC CC CC CC ..[.............
007BA720 53 8B 5C 24 08 56 57 8B F9 8D B7 C0 00 00 00 56 S.\$.VW........V
007BA730 53 E8 74 06 07 00 85 C0 74 08 5F 5E 32 C0 5B C2 S.t.....t._^2.[.
007BA740 08 00 8B 06 83 F8 40 73 0A 89 9C 87 C4 00 00 00 ......@s........
007BA750 83 06 01 8D 44 24 10 50 8D 8F A8 00 00 00 E8 ED ....D$.P........
007BA760 F5 FF FF 8B 4C 24 14 89 08 3B 9F C8 02 00 00 7E ....L$...;.....~
007BA770 06 89 9F C8 02 00 00 5F 5E B0 01 5B C2 08 00 CC ......._^..[....
007BA780 53 8B 5C 24 08 56 57 8B F9 8D B7 C0 00 00 00 56 S.\$.VW........V
007BA790 53 E8 14 06 07 00 85 C0 75 08 5F 5E 32 C0 5B C2 S.......u._^2.[.
007BA7A0 04 00 8B 16 33 C0 85 D2 76 3D 8D 8F C4 00 00 00 ....3...v=......
007BA7B0 39 19 74 0C 83 C0 01 83 C1 04 3B C2 72 F2 EB 27 9.t.......;.r..'
007BA7C0 83 C2 FF 3B C2 73 1D 8D 8C 87 C4 00 00 00 8B FF ...;.s..........
007BA7D0 8B 51 04 89 11 8B 16 83 C0 01 83 EA 01 83 C1 04 .Q..............
007BA7E0 3B C2 72 EC 83 06 FF 8D 44 24 10 50 8D 8F A8 00 ;.r.....D$.P....
007BA7F0 00 00 E8 59 F5 FF FF C7 00 00 00 00 00 3B 9F C8 ...Y.........;..
007BA800 02 00 00 75 07 8B CF E8 E4 98 FF FF 5F 5E B0 01 ...u........_^..
007BA810 5B C2 04 00 CC CC CC CC CC CC CC CC CC CC CC CC [...............
007BA820 56 57 8B 7C 24 0C 8B 47 0C 50 8B F1 E8 4F FF FF VW.|$..G.P...O..
007BA830 FF 8B 8E 30 05 00 00 8B 01 3B C1 74 31 8D 49 00 ...0.....;.t1.I.
007BA840 39 78 08 74 06 8B 00 3B C1 75 F5 3B C1 74 1F 8B 9x.t...;.u.;.t..
007BA850 48 04 8B 10 89 11 8B 08 8B 50 04 50 89 51 04 E8 H........P.P.Q..
007BA860 62 A7 ED FF 83 C4 04 83 86 34 05 00 00 FF 33 C0 b........4....3.
007BA870 39 86 34 05 00 00 75 13 8B 8E 38 05 00 00 C7 41 9.4...u...8....A
007BA880 10 02 00 00 00 89 86 38 05 00 00 89 87 28 05 00 .......8.....(..
007BA890 00 5F B0 01 5E C2 04 00 CC CC CC CC CC CC CC CC ._..^...........
007BA8A0 83 EC 0C 53 55 56 8B F1 8B 8E 8C 00 00 00 8B 46 ...SUV.........F
007BA8B0 0C 8B 96 90 00 00 00 8D 6E 0C 57 89 4C 24 14 50 ........n.W.L$.P
007BA8C0 8B CE 89 44 24 14 89 54 24 1C E8 B1 FE FF FF 8B ...D$..T$.......
007BA8D0 5C 24 20 8B 43 0C 8D 7B 0C 6A 00 50 8B CE E8 3D \$ .C..{.j.P...=
007BA8E0 FE FF FF 8B 0F 51 8B CB E8 93 FE FF FF 8B 55 00 .....Q........U.
007BA8F0 6A 00 52 8B CB E8 26 FE FF FF 83 7D 00 FF 8B 07 j.R...&....}....
007BA900 89 44 24 20 74 10 83 3D A8 EC A6 00 00 74 07 8B .D$ t..=.....t..
007BA910 CD E8 4A 35 C8 FF 8B 4C 24 20 89 4D 00 8B 93 8C ..J5...L$ .M....
007BA920 00 00 00 89 96 8C 00 00 00 8B 83 90 00 00 00 89 ................
007BA930 86 90 00 00 00 83 3F FF 74 10 83 3D A8 EC A6 00 ......?.t..=....
007BA940 00 74 07 8B CF E8 16 35 C8 FF 8B 4C 24 10 8B 54 .t.....5...L$..T
007BA950 24 14 8B 44 24 18 89 0F 5F 5E 5D 89 93 8C 00 00 $..D$..._^].....
007BA960 00 89 83 90 00 00 00 5B 83 C4 0C C2 04 00 CC CC .......[........
007BA970 6A FF 68 AA 13 88 00 64 A1 00 00 00 00 50 83 EC j.h....d.....P..
007BA980 78 A1 88 41 A1 00 33 C4 89 44 24 74 53 55 56 57 x..A..3..D$tSUVW
007BA990 A1 88 41 A1 00 33 C4 50 8D 84 24 8C 00 00 00 64 ..A..3.P..$....d
007BA9A0 A3 00 00 00 00 8B 9C 24 9C 00 00 00 8B 84 24 A0 .......$......$.
007BA9B0 00 00 00 8B 53 04 8B F1 8B 0B 89 4C 24 64 50 8D ....S......L$dP.
007BA9C0 4C 24 70 89 74 24 18 89 5C 24 28 89 44 24 24 89 L$p.t$..\$(.D$$.
007BA9D0 54 24 6C FF 15 3C 43 8A 00 8D 44 24 64 81 C6 1C T$l..<C...D$d...
007BA9E0 05 00 00 50 8B CE C7 84 24 98 00 00 00 00 00 00 ...P....$.......
007BA9F0 00 E8 9A A0 FF FF 3B 46 04 89 44 24 28 74 3F 8B ......;F..D$(t?.
007BAA00 48 10 8B 54 24 64 3B D1 72 34 8B 7C 24 68 75 06 H..T$d;.r4.|$hu.
007BAA10 66 3B 78 14 72 28 3B CA 72 1E 75 06 66 39 78 14 f;x.r(;.r.u.f9x.
007BAA20 72 16 83 C0 18 50 8D 4C 24 70 51 FF 15 0C 44 8A r....P.L$pQ...D.
007BAA30 00 83 C4 08 84 C0 75 06 8D 44 24 28 EB 0B 8B 56 ......u..D$(...V
007BAA40 04 89 54 24 18 8D 44 24 18 8B 08 0F 31 8B F8 8B ..T$..D$....1...
007BAA50 44 24 14 3B 88 20 05 00 00 8B EA 89 6C 24 1C 89 D$.;. ......l$..
007BAA60 7C 24 18 0F 84 B5 00 00 00 83 41 48 01 8D 71 38 |$........AH..q8
007BAA70 E8 AB C0 E6 FF 8B CF 2B 0E 6A 00 1B 6E 04 68 E8 .......+.j..n.h.
007BAA80 03 00 00 8B D8 55 8B C2 51 89 44 24 24 E8 4E A5 .....U..Q.D$$.N.
007BAA90 ED FF 8B 4C 24 14 51 53 52 50 E8 11 A7 ED FF 8B ...L$.QSRP......
007BAAA0 4C 24 1C 33 DB 3B D3 89 7E 08 89 4E 0C 0F 8C E3 L$.3.;..~..N....
007BAAB0 00 00 00 7F 0B 3D D0 07 00 00 0F 82 D6 00 00 00 .....=..........
007BAAC0 8B 44 24 20 8B 4C 24 24 8D 54 24 18 52 56 50 51 .D$ .L$$.T$.RVPQ
007BAAD0 8D 54 24 3C 52 E8 56 A9 FF FF 83 C4 14 8B C8 C6 .T$<R.V.........
007BAAE0 84 24 94 00 00 00 01 FF 15 54 43 8A 00 50 68 5C .$.......TC..Ph\
007BAAF0 6D 8A 00 E8 88 61 D6 FF 83 C4 08 8D 4C 24 2C 88 m....a......L$,.
007BAB00 9C 24 94 00 00 00 FF 15 38 43 8A 00 8B 44 24 18 .$......8C...D$.
007BAB10 8B 4C 24 1C 89 5E 10 89 06 89 4E 04 EB 78 8B 54 .L$..^....N..x.T
007BAB20 24 20 52 8D 44 24 4C 53 50 E8 32 A8 FF FF 83 C4 $ R.D$LSP.2.....
007BAB30 0C 8B C8 C6 84 24 94 00 00 00 02 FF 15 54 43 8A .....$.......TC.
007BAB40 00 50 68 5C 6D 8A 00 E8 34 61 D6 FF 83 C4 08 8D .Ph\m...4a......
007BAB50 4C 24 48 C6 84 24 94 00 00 00 00 FF 15 38 43 8A L$H..$.......8C.
007BAB60 00 8D 4C 24 64 51 8B CE 8B DF 89 6C 24 3C C7 44 ..L$dQ.....l$<.D
007BAB70 24 40 00 00 00 00 E8 15 F6 FF FF 8B 4C 24 3C 89 $@..........L$<.
007BAB80 38 89 68 04 89 58 08 8B D5 89 50 0C 8B 54 24 40 8.h..X....P..T$@
007BAB90 89 48 10 89 50 14 8D 4C 24 6C C7 84 24 94 00 00 .H..P..L$l..$...
007BABA0 00 FF FF FF FF FF 15 38 43 8A 00 8B 8C 24 8C 00 .......8C....$..
007BABB0 00 00 64 89 0D 00 00 00 00 59 5F 5E 5D 5B 8B 4C ..d......Y_^][.L
007BABC0 24 74 33 CC E8 C5 9F ED FF 81 C4 84 00 00 00 C2 $t3.............
007BABD0 08 00 CC CC CC CC CC CC CC CC CC CC CC CC CC CC ................
007BABE0 6A FF 68 E9 13 88 00 64 A1 00 00 00 00 50 83 EC j.h....d.....P..
007BABF0 48 53 55 56 57 A1 88 41 A1 00 33 C4 50 8D 44 24 HSUVW..A..3.P.D$
007BAC00 5C 64 A3 00 00 00 00 8B D9 89 5C 24 14 8B 44 24 \d........\$..D$
007BAC10 70 80 78 1D 00 74 3C 68 94 6D 8A 00 8D 4C 24 1C p.x..t<h.m...L$.
007BAC20 FF 15 34 43 8A 00 8D 44 24 18 50 8D 4C 24 38 C7 ..4C...D$.P.L$8.
007BAC30 44 24 68 00 00 00 00 E8 A4 6D C4 FF 68 8C A8 99 D$h......m..h...
007BAC40 00 8D 4C 24 38 51 C7 44 24 3C 3C 00 99 00 E8 79 ..L$8Q.D$<<....y
007BAC50 A3 ED FF 8D 4C 24 70 8B E8 E8 42 99 FF FF 8B 45 ....L$p...B....E
007BAC60 00 80 78 1D 00 74 05 8B 7D 08 EB 18 8B 55 08 80 ..x..t..}....U..
007BAC70 7A 1D 00 74 04 8B F8 EB 0B 8B 4C 24 70 3B CD 8B z..t......L$p;..
007BAC80 79 08 75 67 80 7F 1D 00 8B 75 04 75 03 89 77 04 y.ug.....u.u..w.
007BAC90 8B 43 04 39 68 04 75 05 89 78 04 EB 0B 39 2E 75 .C.9h.u..x...9.u
007BACA0 04 89 3E EB 03 89 7E 08 8B 5B 04 39 2B 75 15 80 ..>...~..[.9+u..
007BACB0 7F 1D 00 74 04 8B C6 EB 09 57 E8 B1 94 FF FF 83 ...t.....W......
007BACC0 C4 04 89 03 8B 44 24 14 8B 58 04 39 6B 08 75 73 .....D$..X.9k.us
007BACD0 80 7F 1D 00 74 07 8B C6 89 43 08 EB 66 57 E8 3D ....t....C..fW.=
007BACE0 19 CF FF 83 C4 04 89 43 08 EB 58 89 48 04 8B 55 .......C..X.H..U
007BACF0 00 89 11 3B 4D 08 75 04 8B F1 EB 1A 80 7F 1D 00 ...;M.u.........
007BAD00 8B 71 04 75 03 89 77 04 89 3E 8B 45 08 89 41 08 .q.u..w..>.E..A.
007BAD10 8B 55 08 89 4A 04 8B 43 04 39 68 04 75 05 89 48 .U..J..C.9h.u..H
007BAD20 04 EB 0E 8B 45 04 39 28 75 04 89 08 EB 03 89 48 ....E.9(u......H
007BAD30 08 8B 45 04 89 41 04 8A 55 1C 8A 41 1C 88 51 1C ..E..A..U..A..Q.
007BAD40 88 45 1C BB 01 00 00 00 38 5D 1C 0F 85 FF 00 00 .E......8]......
007BAD50 00 8B 4C 24 14 8B 41 04 3B 78 04 0F 84 EC 00 00 ..L$..A.;x......
007BAD60 00 38 5F 1C 0F 85 E3 00 00 00 8B 06 3B F8 75 67 .8_.........;.ug
007BAD70 8B 46 08 80 78 1C 00 75 14 88 58 1C 56 C6 46 1C .F..x..u..X.V.F.
007BAD80 00 E8 AA 1A CF FF 8B 46 08 8B 4C 24 14 80 78 1D .......F..L$..x.
007BAD90 00 75 76 8B 10 38 5A 1C 75 08 8B 50 08 38 5A 1C .uv..8Z.u..P.8Z.
007BADA0 74 63 8B 50 08 38 5A 1C 75 16 8B 10 88 5A 1C 50 tc.P.8Z.u....Z.P
007BADB0 C6 40 1C 00 E8 D7 93 FF FF 8B 46 08 8B 4C 24 14 .@........F..L$.
007BADC0 8A 56 1C 88 50 1C 88 5E 1C 8B 40 08 56 88 58 1C .V..P..^..@.V.X.
007BADD0 E8 5B 1A CF FF EB 76 80 78 1C 00 75 13 88 58 1C .[....v.x..u..X.
007BADE0 56 C6 46 1C 00 E8 A6 93 FF FF 8B 06 8B 4C 24 14 V.F..........L$.
007BADF0 80 78 1D 00 75 13 8B 50 08 38 5A 1C 75 1E 8B 10 .x..u..P.8Z.u...
007BAE00 38 5A 1C 75 17 C6 40 1C 00 8B 41 04 8B FE 3B 78 8Z.u..@...A...;x
007BAE10 04 8B 76 04 0F 85 47 FF FF FF EB 31 8B 10 38 5A ..v...G....1..8Z
007BAE20 1C 75 16 8B 50 08 88 5A 1C 50 C6 40 1C 00 E8 FD .u..P..Z.P.@....
007BAE30 19 CF FF 8B 06 8B 4C 24 14 8A 56 1C 88 50 1C 88 ......L$..V..P..
007BAE40 5E 1C 8B 00 56 88 58 1C E8 43 93 FF FF 88 5F 1C ^...V.X..C...._.
007BAE50 8B 75 18 85 F6 74 18 8B CE E8 82 6C C4 FF 3B C3 .u...t.....l..;.
007BAE60 75 0D 85 F6 74 09 8B 16 8B 02 53 8B CE FF D0 55 u...t.....S....U
007BAE70 C7 45 18 00 00 00 00 E8 4A A1 ED FF 8B 4C 24 18 .E......J....L$.
007BAE80 8B 41 08 83 C4 04 85 C0 76 06 83 C0 FF 89 41 08 .A......v.....A.
007BAE90 8B 44 24 6C 8B 4C 24 70 89 08 8B 4C 24 5C 64 89 .D$l.L$p...L$\d.
007BAEA0 0D 00 00 00 00 59 5F 5E 5D 5B 83 C4 54 C2 08 00 .....Y_^][..T...
007BAEB0 51 53 8B D9 8B 4B 04 8B 41 04 80 78 1D 00 56 8B QS...K..A..x..V.
007BAEC0 74 24 14 57 8B F9 B1 01 88 4C 24 0C 75 34 55 8B t$.W.....L$.u4U.
007BAED0 6E 08 8B 48 14 3B E9 8B F8 72 5B 75 15 8B 0E 8B n..H.;...r[u....
007BAEE0 50 0C 3B CA 72 50 75 0A 66 8B 4E 04 66 3B 48 10 P.;.rPu.f.N.f;H.
007BAEF0 72 44 8B 40 08 32 C9 88 4C 24 10 80 78 1D 00 74 rD.@.2..L$..x..t
007BAF00 D1 5D 84 C9 8B D7 89 54 24 18 74 41 8B 53 04 3B .].....T$.tA.S.;
007BAF10 3A 75 2D 56 57 6A 01 8D 44 24 24 50 8B CB E8 BD :u-VWj..D$$P....
007BAF20 F4 FF FF 8B 08 8B 44 24 14 5F 5E 89 08 C6 40 04 ......D$._^...@.
007BAF30 01 5B 59 C2 08 00 8B 00 B1 01 88 4C 24 10 EB BB .[Y........L$...
007BAF40 8D 4C 24 18 E8 87 18 CF FF 8B 54 24 18 8B 42 14 .L$.......T$..B.
007BAF50 8B 4E 08 3B C1 72 17 75 23 8B 42 0C 8B 0E 3B C1 .N.;.r.u#.B...;.
007BAF60 72 0C 75 18 66 8B 42 10 66 3B 46 04 73 0E 8B 4C r.u.f.B.f;F.s..L
007BAF70 24 0C 56 57 51 8D 54 24 24 52 EB A0 8B 44 24 14 $.VWQ.T$$R...D$.
007BAF80 5F 5E 89 10 C6 40 04 00 5B 59 C2 08 00 CC CC CC _^...@..[Y......
007BAF90 51 56 8B F1 8B 46 04 8B 08 50 51 8D 44 24 0C 50 QV...F...PQ.D$.P
007BAFA0 8B CE E8 79 D4 FF FF 8B 4E 04 51 E8 16 A0 ED FF ...y....N.Q.....
007BAFB0 83 C4 04 33 C0 89 46 04 89 46 08 5E 59 C3 CC CC ...3..F..F.^Y...
007BAFC0 53 8B 5C 24 10 56 8B 74 24 10 57 8B F9 8B 47 04 S.\$.V.t$.W...G.
007BAFD0 3B 30 75 36 3B D8 75 32 8B 40 04 50 E8 9F E8 FF ;0u6;.u2.@.P....
007BAFE0 FF 8B 47 04 89 40 04 8B 47 04 C7 47 08 00 00 00 ..G..@..G..G....
007BAFF0 00 89 00 8B 47 04 89 40 08 8B 4F 04 8B 11 8B 44 ....G..@..O....D
007BB000 24 10 5F 5E 89 10 5B C2 0C 00 3B F3 74 5A 8B FF $._^..[...;.tZ..
007BB010 80 7E 29 00 8B CE 75 3F 8B 46 08 80 78 29 00 75 .~)...u?.F..x).u
007BB020 1B 8B F0 8B 06 80 78 29 00 75 2C EB 03 8D 49 00 ......x).u,...I.
007BB030 8B F0 8B 06 80 78 29 00 74 F6 EB 1B 8B 46 04 80 .....x).t....F..
007BB040 78 29 00 75 10 3B 70 08 75 0B 8B F0 8B 40 04 80 x).u.;p.u....@..
007BB050 78 29 00 74 F0 8B F0 51 8D 44 24 18 50 8B CF E8 x).t...Q.D$.P...
007BB060 7C EE FF FF 3B F3 75 A8 8B 44 24 10 5F 89 30 5E |...;.u..D$._.0^
007BB070 5B C2 0C 00 CC CC CC CC CC CC CC CC CC CC CC CC [...............
007BB080 6A FF 68 23 14 88 00 64 A1 00 00 00 00 50 83 EC j.h#...d.....P..
007BB090 08 56 57 A1 88 41 A1 00 33 C4 50 8D 44 24 14 64 .VW..A..3.P.D$.d
007BB0A0 A3 00 00 00 00 8B F9 89 7C 24 0C 8B 47 14 8B 08 ........|$..G...
007BB0B0 8D 77 10 50 51 8D 44 24 18 50 8B CE C7 44 24 28 .w.PQ.D$.P...D$(
007BB0C0 01 00 00 00 E8 17 D4 FF FF 8B 4E 04 51 E8 F4 9E ..........N.Q...
007BB0D0 ED FF 33 C0 83 C4 04 8D 4F 04 89 46 04 89 46 08 ..3.....O..F..F.
007BB0E0 E8 9B FA E0 FF C7 07 28 CE 8A 00 8B 4C 24 14 64 .......(....L$.d
007BB0F0 89 0D 00 00 00 00 59 5F 5E 83 C4 14 C3 CC CC CC ......Y_^.......
007BB100 53 8B 5C 24 10 56 8B 74 24 10 57 8B F9 8B 47 04 S.\$.V.t$.W...G.
007BB110 3B 30 75 36 3B D8 75 32 8B 40 04 50 E8 5F F2 FF ;0u6;.u2.@.P._..
007BB120 FF 8B 47 04 89 40 04 8B 47 04 C7 47 08 00 00 00 ..G..@..G..G....
007BB130 00 89 00 8B 47 04 89 40 08 8B 4F 04 8B 11 8B 44 ....G..@..O....D
007BB140 24 10 5F 5E 89 10 5B C2 0C 00 3B F3 74 5A 8B FF $._^..[...;.tZ..
007BB150 80 7E 11 00 8B CE 75 3F 8B 46 08 80 78 11 00 75 .~....u?.F..x..u
007BB160 1B 8B F0 8B 06 80 78 11 00 75 2C EB 03 8D 49 00 ......x..u,...I.
007BB170 8B F0 8B 06 80 78 11 00 74 F6 EB 1B 8B 46 04 80 .....x..t....F..
007BB180 78 11 00 75 10 3B 70 08 75 0B 8B F0 8B 40 04 80 x..u.;p.u....@..
007BB190 78 11 00 74 F0 8B F0 51 8D 44 24 18 50 8B CF E8 x..t...Q.D$.P...
007BB1A0 0C E4 FF FF 3B F3 75 A8 8B 44 24 10 5F 89 30 5E ....;.u..D$._.0^
007BB1B0 5B C2 0C 00 CC CC CC CC CC CC CC CC CC CC CC CC [...............
007BB1C0 51 56 8B F1 8B 46 04 8B 08 50 51 8D 44 24 0C 50 QV...F...PQ.D$.P
007BB1D0 8B CE E8 A9 E0 FF FF 8B 4E 04 51 E8 E6 9D ED FF ........N.Q.....
007BB1E0 83 C4 04 33 C0 89 46 04 89 46 08 5E 59 C3 CC CC ...3..F..F.^Y...
007BB1F0 83 EC 20 A1 88 41 A1 00 33 C4 89 44 24 1C 53 55 .. ..A..3..D$.SU
007BB200 8B 6C 24 30 56 57 8B F9 83 7F 0C FF 8D 77 0C 74 .l$0VW.......w.t
007BB210 62 83 7F 30 00 74 11 8B 47 38 6A 00 50 8D 4F 1C b..0.t..G8j.P.O.
007BB220 51 8B CF E8 D8 99 FF FF 8B 16 52 8B CF E8 4E F5 Q.........R...N.
007BB230 FF FF 8B 06 50 E8 C6 A6 ED FF 85 C0 75 1A 83 3E ....P.......u..>
007BB240 FF 74 0F 39 05 A8 EC A6 00 74 07 8B CE E8 0E 2C .t.9.....t.....,
007BB250 C8 FF C7 06 FF FF FF FF 83 3E FF 74 10 83 3D A8 .........>.t..=.
007BB260 EC A6 00 00 74 07 8B CE E8 F3 2B C8 FF C7 06 FF ....t.....+.....
007BB270 FF FF FF 33 C0 8D 9F 8C 00 00 00 6A 02 8B CE 89 ...3.......j....
007BB280 03 66 89 87 90 00 00 00 66 89 87 92 00 00 00 E8 .f......f.......
007BB290 1C 2D C8 FF 8B 06 83 F8 FF 75 24 68 FC 9D 98 00 .-.......u$h....
007BB2A0 E8 DB 59 D6 FF 83 C4 04 5F 5E 5D 32 C0 5B 8B 4C ..Y....._^]2.[.L
007BB2B0 24 1C 33 CC E8 D5 98 ED FF 83 C4 20 C2 08 00 6A $.3........ ...j
007BB2C0 00 50 8B CF E8 57 F4 FF FF 85 ED C7 44 24 14 00 .P...W......D$..
007BB2D0 00 00 00 74 0B 80 7D 00 00 C6 44 24 13 00 75 05 ...t..}...D$..u.
007BB2E0 C6 44 24 13 01 85 ED 74 5D 8B 0D 14 1B A5 00 8B .D$....t].......
007BB2F0 C5 8A 10 3A 11 75 1A 84 D2 74 12 8A 50 01 3A 51 ...:.u...t..P.:Q
007BB300 01 75 0E 83 C0 02 83 C1 02 84 D2 75 E4 33 C0 EB .u.........u.3..
007BB310 05 1B C0 83 D8 FF 85 C0 75 2C 68 CC 9D 98 00 E8 ........u,h.....
007BB320 5C 59 D6 FF 83 C4 04 8D 4C 24 14 51 8B CF E8 4D \Y......L$.Q...M
007BB330 C2 FF FF 84 C0 75 69 68 80 9D 98 00 E8 3F 59 D6 .....uih.....?Y.
007BB340 FF 83 C4 04 EB 5A 8D 54 24 1C 52 55 8B CE E8 9D .....Z.T$.RU....
007BB350 4D 00 00 85 C0 75 34 8D 44 24 1C 50 55 68 50 9D M....u4.D$.PUhP.
007BB360 98 00 E8 19 59 D6 FF 83 C4 0C 8D 4C 24 14 51 8D ....Y......L$.Q.
007BB370 54 24 20 52 8B CE E8 15 83 FF FF 85 C0 74 21 8D T$ R.........t!.
007BB380 44 24 1C 50 68 00 9D 98 00 EB 0D 80 7C 24 13 00 D$.Ph.......|$..
007BB390 75 0E 55 68 B0 9C 98 00 E8 E3 58 D6 FF 83 C4 08 u.Uh......X.....
007BB3A0 8B 4C 24 14 8B 6C 24 34 51 55 8B CE E8 6F 2C C8 .L$..l$4QU...o,.
007BB3B0 FF 85 C0 0F 84 95 00 00 00 8B 54 24 14 8D 4C 24 ..........T$..L$
007BB3C0 14 89 54 24 14 66 89 6C 24 18 66 C7 44 24 1A 00 ..T$.f.l$.f.D$..
007BB3D0 00 E8 3A 9D 00 00 8B F8 FF 15 E4 46 8A 00 8B 00 ..:........F....
007BB3E0 50 FF 15 2C 47 8A 00 50 57 68 74 9C 98 00 E8 8D P..,G..PWht.....
007BB3F0 58 D6 FF 8B 0E 83 C4 10 51 E8 02 A5 ED FF 85 C0 X.......Q.......
007BB400 75 1A 83 3E FF 74 0F 39 05 A8 EC A6 00 74 07 8B u..>.t.9.....t..
007BB410 CE E8 4A 2A C8 FF C7 06 FF FF FF FF 83 3E FF 74 ..J*.........>.t
007BB420 10 83 3D A8 EC A6 00 00 74 07 8B CE E8 2F 2A C8 ..=.....t..../*.
007BB430 FF 5F C7 06 FF FF FF FF 5E 5D 32 C0 5B 8B 4C 24 ._......^]2.[.L$
007BB440 1C 33 CC E8 46 97 ED FF 83 C4 20 C2 08 00 53 8D .3..F..... ...S.
007BB450 87 90 00 00 00 50 8B CE E8 A3 81 FF FF 83 3B 00 .....P........;.
007BB460 75 3F 8D 54 24 1C 52 8B CE E8 42 48 00 00 85 C0 u?.T$.R...BH....
007BB470 0F 85 88 00 00 00 53 8D 44 24 20 50 8B CE E8 0D ......S.D$ P....
007BB480 82 FF FF 85 C0 75 77 8B CB E8 82 9C 00 00 50 8D .....uw.......P.
007BB490 4C 24 20 51 68 28 9C 98 00 E8 E2 57 D6 FF 83 C4 L$ Qh(.....W....
007BB4A0 0C 8B CB E8 68 9C 00 00 50 68 EC 9B 98 00 E8 CD ....h...Ph......
007BB4B0 57 D6 FF 8B 06 83 C4 08 8D 54 24 14 52 68 7E 66 W........T$.Rh~f
007BB4C0 04 80 50 C7 44 24 20 01 00 00 00 E8 3C A4 ED FF ..P.D$ .....<...
007BB4D0 83 7F 30 00 74 11 8B 4F 38 6A 01 51 8D 57 1C 52 ..0.t..O8j.Q.W.R
007BB4E0 8B CF E8 19 97 FF FF 5F 5E 5D B0 01 5B 8B 4C 24 ......._^]..[.L$
007BB4F0 1C 33 CC E8 96 96 ED FF 83 C4 20 C2 08 00 68 A8 .3........ ...h.
007BB500 9B 98 00 E8 78 57 D6 FF 83 C4 04 8B CE E8 BE 2B ....xW.........+
007BB510 C8 FF 8B CE E8 87 98 FF FF 8B 4C 24 2C 5F 5E 5D ..........L$,_^]
007BB520 5B 33 CC 32 C0 E8 64 96 ED FF 83 C4 20 C2 08 00 [3.2..d..... ...
007BB530 56 57 8B F9 8B 87 4C 05 00 00 8B 30 3B F0 74 6A VW....L....0;.tj
007BB540 8B 4E 0C 80 B9 B9 00 00 00 00 75 10 80 B9 BA 00 .N........u.....
007BB550 00 00 00 75 07 6A 00 E8 E4 B6 00 00 80 7E 11 00 ...u.j.......~..
007BB560 75 40 8B 46 08 80 78 11 00 75 16 8B F0 8B 06 80 u@.F..x..u......
007BB570 78 11 00 75 2D 8B F0 8B 06 80 78 11 00 74 F6 EB x..u-.....x..t..
007BB580 21 8B 46 04 80 78 11 00 75 16 8D 9B 00 00 00 00 !.F..x..u.......
007BB590 3B 70 08 75 0B 8B F0 8B 40 04 80 78 11 00 74 F0 ;p.u....@..x..t.
007BB5A0 8B F0 3B B7 4C 05 00 00 75 96 8B 87 4C 05 00 00 ..;.L...u...L...
007BB5B0 8B 48 04 8D B7 48 05 00 00 51 8B CE E8 BF ED FF .H...H...Q......
007BB5C0 FF 8B 46 04 89 40 04 8B 46 04 C7 46 08 00 00 00 ..F..@..F..F....
007BB5D0 00 89 00 8B 76 04 5F 89 76 08 5E C3 CC CC CC CC ....v._.v.^.....
007BB5E0 56 57 8B F9 8B 87 EC 04 00 00 8B 48 04 8D B7 E8 VW.........H....
007BB5F0 04 00 00 51 8B CE E8 B5 06 DD FF 8B 46 04 89 40 ...Q........F..@
007BB600 04 8B 46 04 C7 46 08 00 00 00 00 89 00 8B 46 04 ..F..F........F.
007BB610 89 40 08 8B 87 E0 04 00 00 8B 56 04 89 97 E0 04 .@........V.....
007BB620 00 00 89 46 04 8B 4E 08 8B 87 E4 04 00 00 89 8F ...F..N.........
007BB630 E4 04 00 00 5F 89 46 08 5E C3 CC CC CC CC CC CC ...._.F.^.......
007BB640 6A FF 68 48 14 88 00 64 A1 00 00 00 00 50 83 EC j.hH...d.....P..
007BB650 20 53 55 56 57 A1 88 41 A1 00 33 C4 50 8D 44 24  SUVW..A..3.P.D$
007BB660 34 64 A3 00 00 00 00 8B F9 8B 6C 24 44 8B 45 00 4d........l$D.E.
007BB670 8B 4D 04 8B 54 24 48 89 44 24 1C 33 C0 89 4C 24 .M..T$H.D$.3..L$
007BB680 20 89 54 24 24 C7 44 24 18 50 98 98 00 89 44 24  .T$$.D$.P....D$
007BB690 28 89 44 24 2C 89 44 24 30 89 44 24 3C 8D 44 24 (.D$,.D$0.D$<.D$
007BB6A0 18 8D B7 F4 04 00 00 50 8B CE E8 71 93 FF FF 8B .......P...q....
007BB6B0 5E 04 3B C3 89 44 24 44 74 1A 83 C0 0C 50 8D 4C ^.;..D$Dt....P.L
007BB6C0 24 1C 51 8B CE E8 06 91 FF FF 84 C0 75 06 8D 44 $.Q.........u..D
007BB6D0 24 44 EB 08 89 5C 24 14 8D 44 24 14 8B 00 3B 87 $D...\$..D$...;.
007BB6E0 F8 04 00 00 74 19 8B 48 20 50 8D 54 24 4C C7 41 ....t..H P.T$L.A
007BB6F0 10 02 00 00 00 52 8B CE E8 E3 E7 FF FF EB 1A 8B .....R..........
007BB700 44 24 48 50 8B CD E8 05 9A 00 00 50 68 30 9E 98 D$HP.......Ph0..
007BB710 00 E8 6A 55 D6 FF 83 C4 0C 8D 4C 24 18 C7 44 24 ..jU......L$..D$
007BB720 3C FF FF FF FF E8 36 97 FF FF 8B 4C 24 34 64 89 <.....6....L$4d.
007BB730 0D 00 00 00 00 59 5F 5E 5D 5B 83 C4 2C C2 08 00 .....Y_^][..,...
007BB740 6A FF 68 79 14 88 00 64 A1 00 00 00 00 50 83 EC j.hy...d.....P..
007BB750 28 A1 88 41 A1 00 33 C4 89 44 24 24 53 55 56 57 (..A..3..D$$SUVW
007BB760 A1 88 41 A1 00 33 C4 50 8D 44 24 3C 64 A3 00 00 ..A..3.P.D$<d...
007BB770 00 00 8B 44 24 4C 8B 4C 24 50 8B 1D 28 47 8A 00 ...D$L.L$P..(G..
007BB780 89 44 24 14 89 4C 24 18 33 FF BD 20 00 00 00 90 .D$..L$.3.. ....
007BB790 57 E8 84 98 ED FF 8D 75 01 56 E8 EA 93 ED FF 8B W......u.V......
007BB7A0 F8 8B 44 24 5C 8D 54 24 60 52 50 56 57 FF D3 8B ..D$\.T$`RPVW...
007BB7B0 E8 83 C4 18 83 FD FF 75 04 8D 6C 36 FE 3B EE C6 .......u..l6.;..
007BB7C0 44 3E FF 00 7D CA 57 8D 4C 24 20 FF 15 34 43 8A D>..}.W.L$ ..4C.
007BB7D0 00 57 C7 44 24 48 00 00 00 00 E8 3B 98 ED FF 8B .W.D$H.....;....
007BB7E0 54 24 1C 83 C4 04 8D 4C 24 1C 51 8B 4C 24 18 52 T$.....L$.Q.L$.R
007BB7F0 E8 7B F1 FF FF 8D 4C 24 1C C7 44 24 44 FF FF FF .{....L$..D$D...
007BB800 FF FF 15 38 43 8A 00 8B 4C 24 3C 64 89 0D 00 00 ...8C...L$<d....
007BB810 00 00 59 5F 5E 5D 5B 8B 4C 24 24 33 CC E8 6C 93 ..Y_^][.L$$3..l.
007BB820 ED FF 83 C4 34 C3 CC CC CC CC CC CC CC CC CC CC ....4...........
007BB830 56 8B F1 8B 56 04 85 D2 75 04 33 C9 EB 08 8B 4E V...V...u.3....N
007BB840 08 2B CA C1 F9 02 85 D2 74 1F 8B 46 0C 2B C2 C1 .+......t..F.+..
007BB850 F8 02 3B C8 73 13 8B 46 08 8B 4C 24 08 8B 11 89 ..;.s..F..L$....
007BB860 10 83 C0 04 89 46 08 EB 12 8B 4C 24 08 8B 46 08 .....F....L$..F.
007BB870 51 6A 01 50 8B CE E8 35 DB FF FF 8A 56 10 8B 46 Qj.P...5....V..F
007BB880 08 8B 76 04 3B F0 88 54 24 08 74 22 8D 48 FC 8B ..v.;..T$.t".H..
007BB890 C1 2B C6 C1 F8 02 85 C0 7E 14 8B 54 24 08 8B 09 .+......~..T$...
007BB8A0 52 51 6A 00 50 56 E8 95 99 FF FF 83 C4 14 5E C2 RQj.PV........^.
007BB8B0 04 00 CC CC CC CC CC CC CC CC CC CC CC CC CC CC ................
007BB8C0 83 EC 08 56 8B F1 83 7E 08 00 57 75 21 8B 44 24 ...V...~..Wu!.D$
007BB8D0 1C 8B 4E 04 8B 7C 24 14 50 51 6A 01 57 8B CE E8 ..N..|$.PQj.W...
007BB8E0 FC EA FF FF 8B C7 5F 5E 83 C4 08 C2 0C 00 8B 46 ......_^.......F
007BB8F0 04 8B 7C 24 1C 53 8B 5C 24 1C 3B 18 55 75 2E 8D ..|$.S.\$.;.Uu..
007BB900 53 0C 52 57 E8 87 8E FF FF 84 C0 0F 84 2A 01 00 S.RW.........*..
007BB910 00 57 8B 7C 24 20 53 6A 01 57 8B CE E8 BF EA FF .W.|$ Sj.W......
007BB920 FF 5D 5B 8B C7 5F 5E 83 C4 08 C2 0C 00 3B D8 75 .][.._^......;.u
007BB930 31 8B 58 08 57 8D 43 0C 50 E8 52 8E FF FF 84 C0 1.X.W.C.P.R.....
007BB940 0F 84 F5 00 00 00 57 8B 7C 24 20 53 6A 00 57 8B ......W.|$ Sj.W.
007BB950 CE E8 8A EA FF FF 5D 5B 8B C7 5F 5E 83 C4 08 C2 ......][.._^....
007BB960 0C 00 8D 43 0C 50 57 E8 24 8E FF FF 84 C0 74 5B ...C.PW.$.....t[
007BB970 8D 4C 24 24 89 5C 24 24 E8 53 0E CF FF 8B 6C 24 .L$$.\$$.S....l$
007BB980 24 57 8D 4D 0C 51 8B CE E8 03 8E FF FF 84 C0 74 $W.M.Q.........t
007BB990 3A 8B 55 08 80 7A 1D 00 57 8B 7C 24 20 8B CE 74 :.U..z..W.|$ ..t
007BB9A0 15 55 6A 00 57 E8 36 EA FF FF 5D 5B 8B C7 5F 5E .Uj.W.6...][.._^
007BB9B0 83 C4 08 C2 0C 00 53 6A 01 57 E8 21 EA FF FF 5D ......Sj.W.!...]
007BB9C0 5B 8B C7 5F 5E 83 C4 08 C2 0C 00 57 8D 43 0C 50 [.._^......W.C.P
007BB9D0 8B CE E8 B9 8D FF FF 84 C0 74 60 8D 4C 24 24 89 .........t`.L$$.
007BB9E0 5C 24 24 E8 B8 8B FF FF 8B 6C 24 24 3B 6E 04 74 \$$......l$$;n.t
007BB9F0 10 8D 45 0C 50 57 8B CE E8 93 8D FF FF 84 C0 74 ..E.PW.........t
007BBA00 3A 8B 4B 08 80 79 1D 00 57 8B 7C 24 20 8B CE 74 :.K..y..W.|$ ..t
007BBA10 15 53 6A 00 57 E8 C6 E9 FF FF 5D 5B 8B C7 5F 5E .Sj.W.....][.._^
007BBA20 83 C4 08 C2 0C 00 55 6A 01 57 E8 B1 E9 FF FF 5D ......Uj.W.....]
007BBA30 5B 8B C7 5F 5E 83 C4 08 C2 0C 00 57 8D 54 24 14 [.._^......W.T$.
007BBA40 52 8B CE E8 68 F4 FF FF 8B 08 8B 44 24 1C 5D 5B R...h......D$.][
007BBA50 5F 89 08 5E 83 C4 08 C2 0C 00 CC CC CC CC CC CC _..^............
007BBA60 53 8B 5C 24 10 56 8B 74 24 10 57 8B F9 8B 47 04 S.\$.V.t$.W...G.
007BBA70 3B 30 75 36 3B D8 75 32 8B 40 04 50 E8 4F EB FF ;0u6;.u2.@.P.O..
007BBA80 FF 8B 47 04 89 40 04 8B 47 04 C7 47 08 00 00 00 ..G..@..G..G....
007BBA90 00 89 00 8B 47 04 89 40 08 8B 4F 04 8B 11 8B 44 ....G..@..O....D
007BBAA0 24 10 5F 5E 89 10 5B C2 0C 00 3B F3 74 5A 8B FF $._^..[...;.tZ..
007BBAB0 80 7E 1D 00 8B CE 75 3F 8B 46 08 80 78 1D 00 75 .~....u?.F..x..u
007BBAC0 1B 8B F0 8B 06 80 78 1D 00 75 2C EB 03 8D 49 00 ......x..u,...I.
007BBAD0 8B F0 8B 06 80 78 1D 00 74 F6 EB 1B 8B 46 04 80 .....x..t....F..
007BBAE0 78 1D 00 75 10 3B 70 08 75 0B 8B F0 8B 40 04 80 x..u.;p.u....@..
007BBAF0 78 1D 00 74 F0 8B F0 51 8D 44 24 18 50 8B CF E8 x..t...Q.D$.P...
007BBB00 DC F0 FF FF 3B F3 75 A8 8B 44 24 10 5F 89 30 5E ....;.u..D$._.0^
007BBB10 5B C2 0C 00 CC CC CC CC CC CC CC CC CC CC CC CC [...............
007BBB20 6A FF 68 C3 14 88 00 64 A1 00 00 00 00 50 51 55 j.h....d.....PQU
007BBB30 56 57 A1 88 41 A1 00 33 C4 50 8D 44 24 14 64 A3 VW..A..3.P.D$.d.
007BBB40 00 00 00 00 8B F9 89 7C 24 10 8D 77 04 33 ED 8B .......|$..w.3..
007BBB50 CE 89 6C 24 1C C7 07 88 9E 98 00 E8 C0 CC D0 FF ..l$............
007BBB60 89 46 04 89 6E 08 8D 77 10 8B CE C6 44 24 1C 01 .F..n..w....D$..
007BBB70 E8 5B 83 EA FF 89 46 04 C6 40 15 01 8B 46 04 89 .[....F..@...F..
007BBB80 40 04 8B 46 04 89 00 8B 46 04 89 40 08 89 6E 08 @..F....F..@..n.
007BBB90 89 6F 1C 8B C7 8B 4C 24 14 64 89 0D 00 00 00 00 .o....L$.d......
007BBBA0 59 5F 5E 5D 83 C4 10 C3 CC CC CC CC CC CC CC CC Y_^]............
007BBBB0 56 8B F1 E8 C8 F4 FF FF F6 44 24 08 01 74 09 56 V........D$..t.V
007BBBC0 E8 01 94 ED FF 83 C4 04 8B C6 5E C2 04 00 CC CC ..........^.....
007BBBD0 8B 44 24 04 56 8B F1 33 C9 89 4E 60 83 78 10 02 .D$.V..3..N`.x..
007BBBE0 75 14 50 E8 DE 93 ED FF 83 C4 04 83 86 70 04 00 u.P..........p..
007BBBF0 00 01 5E C2 04 00 8B 50 08 01 10 8B 50 0C 11 50 ..^....P....P..P
007BBC00 04 89 48 10 8D 44 24 08 50 8D 4E 4C E8 1F FC FF ..H..D$.P.NL....
007BBC10 FF B8 01 00 00 00 01 86 74 04 00 00 01 86 70 04 ........t.....p.
007BBC20 00 00 5E C2 04 00 CC CC CC CC CC CC CC CC CC CC ..^.............
007BBC30 83 EC 1C A1 88 41 A1 00 33 C4 89 44 24 18 53 55 .....A..3..D$.SU
007BBC40 56 8B 74 24 30 8B 46 0C 03 46 10 57 8B 7C 24 30 V.t$0.F..F.W.|$0
007BBC50 8B 17 8B D9 66 8B 4F 04 66 89 4C 24 1A 8D 4C 24 ....f.O.f.L$..L$
007BBC60 18 51 89 54 24 20 50 8D 56 48 52 8D 4B 0C 66 C7 .Q.T$ P.VHR.K.f.
007BBC70 44 24 24 02 00 E8 86 7C FF FF 8B E8 8B 46 0C 03 D$$....|.....F..
007BBC80 46 10 3B E8 75 27 83 83 0C 03 00 00 01 5F 83 C5 F.;.u'......._..
007BBC90 1C 01 AB 00 03 00 00 5E 5D 33 C0 5B 8B 4C 24 18 .......^]3.[.L$.
007BBCA0 33 CC E8 E7 8E ED FF 83 C4 1C C2 08 00 83 83 40 3..............@
007BBCB0 03 00 00 01 E8 2F 9C ED FF 3D 33 27 00 00 89 44 ...../...=3'...D
007BBCC0 24 14 74 0F 3D 14 27 00 00 C7 44 24 10 FD FF FF $.t.=.'...D$....
007BBCD0 FF 75 08 C7 44 24 10 F8 FF FF FF 83 FD FF 75 24 .u..D$........u$
007BBCE0 50 FF 15 2C 47 8A 00 83 C4 04 50 8B CF E8 1E 94 P..,G.....P.....
007BBCF0 00 00 50 68 EC 9E 98 00 57 53 E8 41 FA FF FF 83 ..Ph....WS.A....
007BBD00 C4 14 EB 2B 8B 5E 0C 03 5E 10 8B CF E8 FF 93 00 ...+.^..^.......
007BBD10 00 8B 4C 24 14 51 8B F0 FF 15 2C 47 8A 00 50 55 ..L$.Q....,G..PU
007BBD20 53 56 68 90 9E 98 00 E8 54 4F D6 FF 83 C4 18 8B SVh.....TO......
007BBD30 4C 24 28 8B 44 24 10 5F 5E 5D 5B 33 CC E8 4C 8E L$(.D$._^][3..L.
007BBD40 ED FF 83 C4 1C C2 08 00 CC CC CC CC CC CC CC CC ................
007BBD50 83 7C 24 04 00 55 8B E9 7F 07 83 C8 FF 5D C2 10 .|$..U.......]..
007BBD60 00 53 56 57 E8 E7 AD E6 FF DB 44 24 14 DC 0D 20 .SVW......D$... 
007BBD70 9A 8A 00 DE C9 E8 FC 92 ED FF 6A 20 8B F8 8B DA ..........j ....
007BBD80 E8 53 92 ED FF 8B F0 83 C4 04 89 74 24 14 0F 31 .S.........t$..1
007BBD90 03 C7 13 D3 80 7C 24 20 00 89 06 89 56 04 75 04 .....|$ ....V.u.
007BBDA0 33 FF 33 DB 8B 44 24 1C 8B 4C 24 18 89 7E 08 89 3.3..D$..L$..~..
007BBDB0 5E 0C C7 46 10 00 00 00 00 89 46 14 8D 54 24 14 ^..F......F..T$.
007BBDC0 89 4E 18 52 8D 4D 4C E8 64 FA FF FF 5F 8B C6 5E .N.R.ML.d..._..^
007BBDD0 5B 5D C2 10 00 CC CC CC CC CC CC CC CC CC CC CC []..............
007BBDE0 6A FF 68 F0 14 88 00 64 A1 00 00 00 00 50 83 EC j.h....d.....P..
007BBDF0 14 56 57 A1 88 41 A1 00 33 C4 50 8D 44 24 20 64 .VW..A..3.P.D$ d
007BBE00 A3 00 00 00 00 8B F9 8B 74 24 30 56 E8 BF 8A FF ........t$0V....
007BBE10 FF 3B 47 04 74 21 8B 4E 08 8B 50 14 3B CA 72 17 .;G.t!.N..P.;.r.
007BBE20 75 50 8B 0E 8B 50 0C 3B CA 72 0C 75 45 66 8B 4E uP...P.;.r.uEf.N
007BBE30 04 66 3B 48 10 73 3B 33 C9 89 4C 24 30 8B 16 89 .f;H.s;3..L$0...
007BBE40 54 24 10 8B 56 04 89 54 24 14 8B 56 08 89 4C 24 T$..V..T$..V..L$
007BBE50 28 89 54 24 18 89 4C 24 1C 8D 4C 24 10 51 50 8D (.T$..L$..L$.QP.
007BBE60 54 24 14 52 8B CF C6 44 24 34 01 E8 50 FA FF FF T$.R...D$4..P...
007BBE70 8B 00 83 C0 18 8B 4C 24 20 64 89 0D 00 00 00 00 ......L$ d......
007BBE80 59 5F 5E 83 C4 20 C2 04 00 CC CC CC CC CC CC CC Y_^.. ..........
007BBE90 51 83 7C 24 08 00 89 0C 24 7F 07 83 C8 FF 59 C2 Q.|$....$.....Y.
007BBEA0 0C 00 53 56 57 E8 A6 AC E6 FF DB 44 24 14 DC 0D ..SVW......D$...
007BBEB0 20 9A 8A 00 DE C9 E8 BB 91 ED FF 6A 20 8B F8 8B  ..........j ...
007BBEC0 DA E8 12 91 ED FF 8B F0 83 C4 04 89 74 24 14 0F ............t$..
007BBED0 31 8B 4C 24 18 03 C7 89 06 8B 44 24 1C 13 D3 89 1.L$......D$....
007BBEE0 56 04 C7 46 08 00 00 00 00 C7 46 0C 00 00 00 00 V..F......F.....
007BBEF0 C7 46 10 00 00 00 00 89 46 14 89 4E 18 8B 4C 24 .F......F..N..L$
007BBF00 0C 8D 54 24 14 52 83 C1 4C E8 22 F9 FF FF 5F 8B ..T$.R..L."..._.
007BBF10 C6 5E 5B 59 C2 0C 00 CC CC CC CC CC CC CC CC CC .^[Y............
007BBF20 51 56 8B F1 8B 46 04 8B 08 50 51 8D 44 24 0C 50 QV...F...PQ.D$.P
007BBF30 8B CE E8 89 F0 FF FF 8B 4E 04 51 E8 86 90 ED FF ........N.Q.....
007BBF40 83 C4 04 33 C0 89 46 04 89 46 08 5E 59 C3 CC CC ...3..F..F.^Y...
007BBF50 51 56 8B F1 8B 46 04 8B 08 50 51 8D 44 24 0C 50 QV...F...PQ.D$.P
007BBF60 8B CE E8 99 F1 FF FF 8B 4E 04 51 E8 56 90 ED FF ........N.Q.V...
007BBF70 83 C4 04 33 C0 89 46 04 89 46 08 5E 59 C3 CC CC ...3..F..F.^Y...
007BBF80 83 EC 08 56 57 8B 7C 24 14 8B F1 83 C7 3C 57 8D ...VW.|$.....<W.
007BBF90 8E D8 02 00 00 E8 C6 C8 FF FF 85 C0 75 34 8B CF ............u4..
007BBFA0 E8 6B 91 00 00 50 8D 44 24 0C 68 28 9F 98 00 50 .k...P.D$.h(...P
007BBFB0 C7 44 24 14 00 00 00 00 C7 44 24 18 06 00 00 00 .D$......D$.....
007BBFC0 E8 8B 3C E6 FF 83 C4 0C 5F 32 C0 5E 83 C4 08 C2 ..<....._2.^....
007BBFD0 04 00 80 BE 14 05 00 00 00 74 24 53 6A 01 8D 4E .........t$Sj..N
007BBFE0 04 51 68 00 87 93 03 8B CE E8 A2 FE FF FF 57 8D .Qh...........W.
007BBFF0 8E 3C 05 00 00 8B D8 E8 64 E2 FF FF 89 18 5B 5F .<......d.....[_
007BC000 B0 01 5E 83 C4 08 C2 04 00 CC CC CC CC CC CC CC ..^.............
007BC010 81 EC 14 01 00 00 53 55 56 8B F1 57 33 ED 8D BE ......SUV..W3...
007BC020 A0 03 00 00 83 C5 01 83 BE D4 02 00 00 00 74 1D ..............t.
007BC030 8B 94 24 2C 01 00 00 8B 8E D4 02 00 00 8B 01 8B ..$,............
007BC040 40 04 52 8B 94 24 2C 01 00 00 52 FF D0 8B CF E8 @.R..$,...R.....
007BC050 CC 83 FF FF 8B 8C 24 2C 01 00 00 8B 94 24 28 01 ......$,.....$(.
007BC060 00 00 51 52 8B CE E8 C5 FB FF FF 6A 01 8B CF 8B ..QR.......j....
007BC070 D8 E8 BA 83 FF FF 85 DB 0F 84 BE 00 00 00 83 FB ................
007BC080 FE 75 53 83 FD 03 7E 9C 8D 4C 24 10 83 C6 0C 51 .uS...~..L$....Q
007BC090 8B CE E8 C9 F1 C7 FF 84 C0 74 2C EB 03 8D 49 00 .........t,...I.
007BC0A0 8D 4C 24 10 E8 67 90 00 00 50 68 94 9F 98 00 E8 .L$..g...Ph.....
007BC0B0 CC 4B D6 FF 83 C4 08 8D 54 24 10 52 8B CE E8 9D .K......T$.R....
007BC0C0 F1 C7 FF 84 C0 75 D9 5F 5E 5D 8B C3 5B 81 C4 14 .....u._^]..[...
007BC0D0 01 00 00 C2 08 00 83 FB F8 75 AD 83 FD 03 7F A8 .........u......
007BC0E0 8B 46 0C 55 68 58 9F 98 00 C7 44 24 20 00 00 00 .F.UhX....D$ ...
007BC0F0 00 C7 44 24 24 10 27 00 00 89 44 24 2C C7 44 24 ..D$$.'...D$,.D$
007BC100 28 01 00 00 00 E8 76 4B D6 FF 83 C4 08 8B CF E8 (.....vK........
007BC110 0C 83 FF FF 8B 46 0C 8D 4C 24 18 51 6A 00 8D 54 .....F..L$.Qj..T
007BC120 24 28 52 6A 00 83 C0 01 50 E8 82 EC 06 00 6A 01 $(Rj....P.....j.
007BC130 8B CF E8 F9 82 FF FF E9 E8 FE FF FF 5F 5E 5D 33 ............_^]3
007BC140 C0 5B 81 C4 14 01 00 00 C2 08 00 CC CC CC CC CC .[..............
007BC150 6A FF 68 23 15 88 00 64 A1 00 00 00 00 50 51 56 j.h#...d.....PQV
007BC160 A1 88 41 A1 00 33 C4 50 8D 44 24 0C 64 A3 00 00 ..A..3.P.D$.d...
007BC170 00 00 8B F1 89 74 24 08 8B 44 24 1C 89 46 04 8B .....t$..D$..F..
007BC180 44 24 20 C7 06 C0 9F 98 00 8B 08 89 4E 08 8B 50 D$ .........N..P
007BC190 04 8B 44 24 24 85 C0 89 56 0C C7 44 24 14 00 00 ..D$$...V..D$...
007BC1A0 00 00 89 46 10 B9 01 00 00 00 74 03 01 48 04 8A ...F......t..H..
007BC1B0 44 24 2C 88 4C 24 14 8B 4C 24 28 69 C9 E8 03 00 D$,.L$..L$(i....
007BC1C0 00 6A 00 56 51 8B 4E 04 88 46 14 E8 C0 FC FF FF .j.VQ.N..F......
007BC1D0 8B C6 8B 4C 24 0C 64 89 0D 00 00 00 00 59 5E 83 ...L$.d......Y^.
007BC1E0 C4 10 C2 14 00 CC CC CC CC CC CC CC CC CC CC CC ................
007BC1F0 6A FF 68 48 15 88 00 64 A1 00 00 00 00 50 51 56 j.hH...d.....PQV
007BC200 57 A1 88 41 A1 00 33 C4 50 8D 44 24 10 64 A3 00 W..A..3.P.D$.d..
007BC210 00 00 00 8B F1 89 74 24 0C 8B 4E 10 33 FF 3B CF ......t$..N.3.;.
007BC220 89 7C 24 18 74 0E 83 41 04 FF 75 08 8B 01 8B 10 .|$.t..A..u.....
007BC230 6A 01 FF D2 89 7E 10 C7 06 28 CE 8A 00 8B 4C 24 j....~...(....L$
007BC240 10 64 89 0D 00 00 00 00 59 5F 5E 83 C4 10 C3 CC .d......Y_^.....
007BC250 56 8B F1 E8 98 FF FF FF F6 44 24 08 01 74 09 56 V........D$..t.V
007BC260 E8 61 8D ED FF 83 C4 04 8B C6 5E C2 04 00 CC CC .a........^.....
007BC270 6A FF 68 38 16 88 00 64 A1 00 00 00 00 50 81 EC j.h8...d.....P..
007BC280 04 01 00 00 53 55 56 57 A1 88 41 A1 00 33 C4 50 ....SUVW..A..3.P
007BC290 8D 84 24 18 01 00 00 64 A3 00 00 00 00 8B E9 8B ..$....d........
007BC2A0 B4 24 2C 01 00 00 33 DB 89 5C 24 2C 0F B7 46 48 .$,...3..\$,..FH
007BC2B0 A8 01 74 1B 8B 46 0C 83 C0 FE 83 F8 02 7C 4F 83 ..t..F.......|O.
007BC2C0 46 10 02 89 46 0C 66 8B 44 30 48 66 89 46 18 33 F...F.f.D0Hf.F.3
007BC2D0 FF 89 7C 24 20 0F B7 46 48 A8 20 89 BC 24 20 01 ..|$ ..FH. ..$ .
007BC2E0 00 00 BA 04 00 00 00 0F 84 3F 06 00 00 8B 46 0C .........?....F.
007BC2F0 8D 48 FE 83 F9 08 0F 8D 8A 00 00 00 8B 8C 24 30 .H............$0
007BC300 01 00 00 3B CF 74 4B E8 44 8E 00 00 EB 50 8B 8C ...;.tK.D....P..
007BC310 24 30 01 00 00 85 C9 74 07 E8 32 8E 00 00 EB 0C $0.....t..2.....
007BC320 8B 8C 24 28 01 00 00 E8 E4 8D 00 00 8B 4E 0C 83 ..$(.........N..
007BC330 E9 02 51 50 68 F0 A3 98 00 E8 42 49 D6 FF 83 C4 ..QPh.....BI....
007BC340 0C 83 85 48 03 00 00 01 B8 FC FF FF FF E9 E7 09 ...H............
007BC350 00 00 8B 8C 24 28 01 00 00 E8 B2 8D 00 00 8B 56 ....$(.........V
007BC360 0C 6A 08 83 EA 02 52 50 68 90 A3 98 00 E8 0E 49 .j....RPh......I
007BC370 D6 FF 83 C4 10 83 85 48 03 00 00 01 B8 FC FF FF .......H........
007BC380 FF E9 B3 09 00 00 3B CA 7C 10 83 C0 FC 01 56 10 ......;.|.....V.
007BC390 89 46 0C 8B 44 30 48 89 46 40 8B 46 0C 8D 48 FE .F..D0H.F@.F..H.
007BC3A0 3B CA 7C 10 83 C0 FC 01 56 10 89 46 0C 8B 54 30 ;.|.....V..F..T0
007BC3B0 48 89 56 3C 8B 46 3C 8B 7E 40 2B F8 83 C7 01 83 H.V<.F<.~@+.....
007BC3C0 FF 02 89 7C 24 30 7D 3E 8B 8C 24 30 01 00 00 85 ...|$0}>..$0....
007BC3D0 C9 74 07 E8 78 8D 00 00 EB 0C 8B 8C 24 28 01 00 .t..x.......$(..
007BC3E0 00 E8 2A 8D 00 00 57 50 68 38 A3 98 00 E8 8E 48 ..*...WPh8.....H
007BC3F0 D6 FF 83 C4 0C 83 85 48 03 00 00 01 B8 FC FF FF .......H........
007BC400 FF E9 33 09 00 00 8B 8C 24 28 01 00 00 8B 11 8B ..3.....$(......
007BC410 49 04 89 54 24 38 89 4C 24 3C 89 44 24 40 C7 44 I..T$8.L$<.D$@.D
007BC420 24 14 00 00 00 00 83 BC 24 30 01 00 00 00 8B BD $.......$0......
007BC430 98 00 00 00 8B DF C6 84 24 20 01 00 00 01 89 5C ........$ .....\
007BC440 24 24 74 3E 0F B7 46 48 A8 10 74 36 8B 8C 24 30 $$t>..FH..t6..$0
007BC450 01 00 00 8D 54 24 28 52 C6 44 24 1F 01 E8 4E B0 ....T$(R.D$...N.
007BC460 FF FF 50 8D 4C 24 18 C6 84 24 24 01 00 00 02 E8 ..P.L$...$$.....
007BC470 4C 2C E1 FF C6 84 24 20 01 00 00 01 8D 4C 24 28 L,....$ .....L$(
007BC480 EB 6A 8D 44 24 38 50 8D 4C 24 2C 51 8D 8D 94 00 .j.D$8P.L$,Q....
007BC490 00 00 C6 44 24 23 00 E8 D4 93 FF FF 8B 18 3B DF ...D$#........;.
007BC4A0 89 5C 24 24 74 05 8D 43 18 EB 1C C7 44 24 1C 00 .\$$t..C....D$..
007BC4B0 00 00 00 8D 44 24 1C C6 84 24 20 01 00 00 03 C7 ....D$...$ .....
007BC4C0 44 24 2C 01 00 00 00 50 8D 4C 24 18 E8 EF 2B E1 D$,....P.L$...+.
007BC4D0 FF F6 44 24 2C 01 C7 84 24 20 01 00 00 01 00 00 ..D$,...$ ......
007BC4E0 00 74 0E 83 64 24 2C FE 8D 4C 24 1C E8 BF FB C5 .t..d$,..L$.....
007BC4F0 FF 8B 7C 24 14 85 FF 0F 84 9C 00 00 00 8B CF E8 ..|$............
007BC500 1C 82 FF FF 84 C0 0F 84 85 00 00 00 80 7C 24 1B .............|$.
007BC510 00 75 7E 83 BC 24 30 01 00 00 00 74 0E 8B 8C 24 .u~..$0....t...$
007BC520 30 01 00 00 E8 27 8C 00 00 EB 0C 8B 8C 24 28 01 0....'.......$(.
007BC530 00 00 E8 D9 8B 00 00 8B 57 08 8B 4E 3C 52 51 50 ........W..N<RQP
007BC540 68 D0 A2 98 00 E8 36 47 D6 FF 83 C4 10 C7 44 24 h.....6G......D$
007BC550 1C 00 00 00 00 8D 54 24 1C 52 8D 4C 24 18 C6 84 ......T$.R.L$...
007BC560 24 24 01 00 00 04 E8 55 2B E1 FF 8D 4C 24 1C C6 $$.....U+...L$..
007BC570 84 24 20 01 00 00 01 E8 34 FB C5 FF 53 8D 44 24 .$ .....4...S.D$
007BC580 2C 50 8D 8D 94 00 00 00 E8 53 E6 FF FF 8B 7C 24 ,P.......S....|$
007BC590 14 85 FF 0F 85 3C 01 00 00 83 BC 24 30 01 00 00 .....<.....$0...
007BC5A0 00 74 64 8B 4E 30 3B 4E 3C 74 5C 8B 8C 24 30 01 .td.N0;N<t\..$0.
007BC5B0 00 00 E8 99 8B 00 00 8B 56 30 8B 4E 40 52 8B 56 ........V0.N@R.V
007BC5C0 3C 51 52 50 68 78 A2 98 00 E8 B2 46 D6 FF 83 85 <QRPhx.....F....
007BC5D0 48 03 00 00 01 83 C4 14 8D 4C 24 14 C6 84 24 20 H........L$...$ 
007BC5E0 01 00 00 00 E8 C7 FA C5 FF 8D 4C 24 20 C7 84 24 ..........L$ ..$
007BC5F0 20 01 00 00 FF FF FF FF E8 D3 87 E7 FF B8 FC FF  ...............
007BC600 FF FF E9 32 07 00 00 6A 20 E8 CA 89 ED FF 8B C8 ...2...j .......
007BC610 83 C4 04 85 C9 74 18 0F 31 56 52 8B 56 40 50 8B .....t..1VR.V@P.
007BC620 44 24 3C 83 C0 FF 50 52 E8 83 A4 FF FF EB 02 33 D$<...PR.......3
007BC630 C0 85 C0 89 44 24 1C 74 07 8B C8 E8 90 54 C4 FF ....D$.t.....T..
007BC640 8D 44 24 1C 50 8D 4C 24 18 C6 84 24 24 01 00 00 .D$.P.L$...$$...
007BC650 05 E8 6A 2A E1 FF 8D 4C 24 1C C6 84 24 20 01 00 ..j*...L$...$ ..
007BC660 00 01 E8 49 FA C5 FF 80 7C 24 1B 00 74 1F 51 8D ...I....|$..t.Q.
007BC670 54 24 18 8B CC 89 64 24 34 52 E8 D1 95 FF FF 8B T$....d$4R......
007BC680 8C 24 34 01 00 00 E8 55 AE FF FF EB 1C 8D 44 24 .$4....U......D$
007BC690 14 50 8D 4C 24 3C 51 8D 8D 94 00 00 00 E8 3E F7 .P.L$<Q.......>.
007BC6A0 FF FF 8B C8 E8 17 2A E1 FF 8D 4C 24 14 C6 84 24 ......*...L$...$
007BC6B0 20 01 00 00 00 E8 F6 F9 C5 FF 8D 4C 24 20 C7 84  ..........L$ ..
007BC6C0 24 20 01 00 00 FF FF FF FF E8 02 87 E7 FF 33 C0 $ ............3.
007BC6D0 E9 64 06 00 00 8B 57 08 3B 56 40 0F 84 06 01 00 .d....W.;V@.....
007BC6E0 00 0F B7 46 48 A8 10 75 4E 83 BC 24 30 01 00 00 ...FH..uN..$0...
007BC6F0 00 74 0E 8B 8C 24 30 01 00 00 E8 51 8A 00 00 EB .t...$0....Q....
007BC700 0C 8B 8C 24 28 01 00 00 E8 03 8A 00 00 8B 57 08 ...$(.........W.
007BC710 8B 4F 18 8B 49 30 52 8B 56 40 51 8B 4E 3C 52 8B .O..I0R.V@Q.N<R.
007BC720 56 30 51 52 50 68 F8 A1 98 00 E8 51 45 D6 FF 83 V0QRPh.....QE...
007BC730 C4 1C E9 72 FF FF FF 80 BD 14 05 00 00 00 74 70 ...r..........tp
007BC740 83 BC 24 30 01 00 00 00 74 0E 8B 8C 24 30 01 00 ..$0....t...$0..
007BC750 00 E8 FA 89 00 00 EB 0C 8B 8C 24 28 01 00 00 E8 ..........$(....
007BC760 AC 89 00 00 8B 4E 40 8B 57 08 51 52 50 68 98 A1 .....N@.W.QRPh..
007BC770 98 00 E8 09 45 D6 FF 83 85 48 03 00 00 01 83 C4 ....E....H......
007BC780 10 8D 4C 24 14 C6 84 24 20 01 00 00 00 E8 1E F9 ..L$...$ .......
007BC790 C5 FF 8D 4C 24 20 C7 84 24 20 01 00 00 FF FF FF ...L$ ..$ ......
007BC7A0 FF E8 2A 86 E7 FF B8 FC FF FF FF E9 89 05 00 00 ..*.............
007BC7B0 8B 8C 24 28 01 00 00 E8 54 89 00 00 8B 4E 40 51 ..$(....T....N@Q
007BC7C0 C7 44 24 34 00 00 00 00 C7 44 24 38 06 00 00 00 .D$4.....D$8....
007BC7D0 8B 57 08 52 50 8D 44 24 3C 68 98 A1 98 00 50 E8 .W.RP.D$<h....P.
007BC7E0 6C 34 E6 FF 83 C4 14 0F 31 89 47 10 8D 5F 18 89 l4......1.G.._..
007BC7F0 57 14 8B 03 85 C0 C7 44 24 1C 00 00 00 00 89 5C W......D$......\
007BC800 24 28 74 2B 8B 56 30 8B 48 30 3B CA 74 66 8B DA $(t+.V0.H0;.tf..
007BC810 2B D9 81 E3 FF FF FF 0F 81 FB 00 00 00 08 77 0B +.............w.
007BC820 89 44 24 1C 8B 40 08 85 C0 75 DC 8B 5C 24 28 50 .D$..@...u..\$(P
007BC830 8B CE E8 59 9B FF FF 83 7C 24 1C 00 75 7E 83 46 ...Y....|$..u~.F
007BC840 04 01 89 74 24 30 8D 54 24 30 52 8B CB C6 84 24 ...t$0.T$0R....$
007BC850 24 01 00 00 06 E8 16 D3 D6 FF 83 46 04 FF C6 84 $..........F....
007BC860 24 20 01 00 00 01 75 5E 8B 06 8B 10 6A 01 8B CE $ ....u^....j...
007BC870 FF D2 EB 52 8B 8C 24 30 01 00 00 85 C9 74 07 E8 ...R..$0.....t..
007BC880 CC 88 00 00 EB 0C 8B 8C 24 28 01 00 00 E8 7E 88 ........$(....~.
007BC890 00 00 8B 4E 30 51 50 68 58 A1 98 00 E8 DF 43 D6 ...N0QPhX.....C.
007BC8A0 FF 83 C4 0C 8D 4C 24 14 C6 84 24 20 01 00 00 00 .....L$...$ ....
007BC8B0 E8 FB F7 C5 FF 33 C0 E9 7D 04 00 00 8B 4C 24 1C .....3..}....L$.
007BC8C0 56 E8 CA 9A FF FF 83 47 0C FF 83 7F 0C 00 7F D4 V......G........
007BC8D0 53 8D 4C 24 24 E8 96 D2 D6 FF 80 7C 24 1B 00 8B S.L$$......|$...
007BC8E0 7C 24 20 8B F7 74 1B 51 8B 8C 24 34 01 00 00 8B |$ ..t.Q..$4....
007BC8F0 C4 89 64 24 34 C7 00 00 00 00 00 E8 E0 AB FF FF ..d$4...........
007BC900 EB 15 8B 44 24 24 50 8D 4C 24 34 51 8D 8D 94 00 ...D$$P.L$4Q....
007BC910 00 00 E8 C9 E2 FF FF 8D 4C 24 14 C6 84 24 20 01 ........L$...$ .
007BC920 00 00 00 E8 88 F7 C5 FF 8B 5C 24 2C 56 8D 8C 24 .........\$,V..$
007BC930 A4 00 00 00 E8 27 78 00 00 C7 44 24 30 00 00 00 .....'x...D$0...
007BC940 00 85 FF C6 84 24 20 01 00 00 08 74 1A 8B CF 33 .....$ ....t...3
007BC950 FF 85 C9 89 7C 24 20 74 0E 83 41 04 FF 75 08 8B ....|$ t..A..u..
007BC960 11 8B 02 6A 01 FF D0 8B 8C 24 30 01 00 00 85 C9 ...j.....$0.....
007BC970 C6 85 A5 00 00 00 00 C7 44 24 1C 00 00 00 00 74 ........D$.....t
007BC980 13 8D 54 24 24 52 E8 B5 89 FF FF 8B 4C 24 24 83 ..T$$R......L$$.
007BC990 CB 02 EB 0D 33 C9 89 4C 24 24 8D 44 24 24 83 CB ....3..L$$.D$$..
007BC9A0 04 8B 30 85 F6 89 74 24 14 74 04 83 46 04 01 F6 ..0...t$.t..F...
007BC9B0 C3 04 C7 84 24 20 01 00 00 0A 00 00 00 74 19 83 ....$ .......t..
007BC9C0 E3 FB 85 C9 89 5C 24 2C 74 0E 83 41 04 FF 75 08 .....\$,t..A..u.
007BC9D0 8B 01 8B 10 6A 01 FF D2 F6 C3 02 C6 84 24 20 01 ....j........$ .
007BC9E0 00 00 0B 74 26 8B 44 24 24 85 C0 74 16 83 40 04 ...t&.D$$..t..@.
007BC9F0 FF 8B C8 83 C0 04 83 38 00 75 08 8B 01 8B 10 6A .......8.u.....j
007BCA00 01 FF D2 C7 44 24 24 00 00 00 00 8D 44 24 48 50 ....D$$.....D$HP
007BCA10 8D 8C 24 A4 00 00 00 E8 F4 67 00 00 8D 4C 24 74 ..$......g...L$t
007BCA20 51 8D 8C 24 A4 00 00 00 C6 84 24 24 01 00 00 0C Q..$......$$....
007BCA30 E8 FB 67 00 00 8D 54 24 74 52 8D 4C 24 4C C6 84 ..g...T$tR.L$L..
007BCA40 24 24 01 00 00 0D E8 15 61 00 00 84 C0 0F 84 35 $$......a......5
007BCA50 02 00 00 80 BD A5 00 00 00 00 0F 85 20 02 00 00 ............ ...
007BCA60 8D 4C 24 48 E8 E7 62 00 00 8B 4D 40 0F B6 C0 8D .L$H..b...M@....
007BCA70 04 40 83 7C C1 0C 00 8D 34 C1 0F 84 37 01 00 00 .@.|....4...7...
007BCA80 56 8D 4C 24 4C E8 66 64 00 00 8B 9C 24 30 01 00 V.L$L.fd....$0..
007BCA90 00 8B F8 F6 47 01 20 89 6F 0C 89 5F 10 0F 85 5C ....G. .o.._...\
007BCAA0 01 00 00 8D 4C 24 48 E8 B4 65 00 00 85 C0 0F 84 ....L$H..e......
007BCAB0 83 01 00 00 8B 4F 08 03 C8 C6 44 24 3C 00 C7 44 .....O....D$<..D
007BCAC0 24 38 20 19 8B 00 89 44 24 40 89 4C 24 44 B8 01 $8 ....D$@.L$D..
007BCAD0 00 00 00 01 85 38 03 00 00 01 46 14 8B 47 08 01 .....8....F..G..
007BCAE0 46 10 8B 57 08 29 95 3C 03 00 00 8D 9D D0 03 00 F..W.).<........
007BCAF0 00 6A 00 8B CB C6 84 24 24 01 00 00 0E E8 2E 79 .j.....$$......y
007BCB00 FF FF 83 7C 24 14 00 75 1A 8B 4E 0C 8B 01 8B 40 ...|$..u..N....@
007BCB10 04 8D 54 24 38 52 8B 94 24 2C 01 00 00 57 52 FF ..T$8R..$,...WR.
007BCB20 D0 EB 1D 8B 76 0C 8B 4C 24 14 8B 11 8B 52 04 56 ....v..L$....R.V
007BCB30 8D 44 24 3C 50 8B 84 24 30 01 00 00 57 50 FF D2 .D$<P..$0...WP..
007BCB40 8B CB E8 D9 78 FF FF 6A 00 8D 4C 24 4C E8 EE 65 ....x..j..L$L..e
007BCB50 00 00 8B 44 24 44 2B 44 24 40 74 30 8B 8C 24 30 ...D$D+D$@t0..$0
007BCB60 01 00 00 85 C9 74 07 E8 E4 85 00 00 EB 0C 8B 8C .....t..........
007BCB70 24 28 01 00 00 E8 96 85 00 00 0F B6 0F 51 50 68 $(...........QPh
007BCB80 00 A1 98 00 E8 F7 40 D6 FF 83 C4 0C 8D 54 24 74 ......@......T$t
007BCB90 52 8D 4C 24 4C C6 84 24 24 01 00 00 0D C7 44 24 R.L$L..$$.....D$
007BCBA0 3C 64 C0 8A 00 E8 B6 5F 00 00 84 C0 0F 85 A1 FE <d....._........
007BCBB0 FF FF E9 C9 00 00 00 8B 8C 24 30 01 00 00 85 C9 .........$0.....
007BCBC0 74 07 E8 89 85 00 00 EB 0C 8B 8C 24 28 01 00 00 t..........$(...
007BCBD0 E8 3B 85 00 00 8D 4C 24 48 8B F0 E8 70 61 00 00 .;....L$H...pa..
007BCBE0 0F B6 C0 50 56 68 A0 A0 98 00 E8 91 40 D6 FF 83 ...PVh......@...
007BCBF0 C4 0C C7 44 24 1C FB FF FF FF E9 81 00 00 00 85 ...D$...........
007BCC00 DB 74 09 8B CB E8 46 85 00 00 EB 0C 8B 8C 24 28 .t....F.......$(
007BCC10 01 00 00 E8 F8 84 00 00 8D 4C 24 48 8B F0 E8 2D .........L$H...-
007BCC20 61 00 00 0F B6 C8 51 56 68 40 A0 98 00 E8 4E 40 a.....QVh@....N@
007BCC30 D6 FF 83 C4 0C EB 3A 85 DB 74 09 8B CB E8 0E 85 ......:..t......
007BCC40 00 00 EB 0C 8B 8C 24 28 01 00 00 E8 C0 84 00 00 ......$(........
007BCC50 8B 57 08 52 8D 4C 24 4C 8B F0 E8 F1 60 00 00 0F .W.R.L$L....`...
007BCC60 B6 C0 50 56 68 C8 9F 98 00 E8 12 40 D6 FF 83 C4 ..PVh......@....
007BCC70 10 83 85 48 03 00 00 01 C7 44 24 1C FC FF FF FF ...H.....D$.....
007BCC80 8B 74 24 14 8B 7C 24 20 8D 4C 24 74 51 8D 4C 24 .t$..|$ .L$tQ.L$
007BCC90 4C E8 CA 5E 00 00 84 C0 74 12 80 BD A5 00 00 00 L..^....t.......
007BCCA0 00 75 09 83 85 4C 03 00 00 01 EB 07 83 85 2C 03 .u...L........,.
007BCCB0 00 00 01 8B AD D0 02 00 00 85 ED 74 0A 8B 55 00 ...........t..U.
007BCCC0 8B 42 04 8B CD FF D0 8D 4C 24 74 C6 84 24 20 01 .B......L$t..$ .
007BCCD0 00 00 0C E8 68 5E 00 00 8D 4C 24 48 C6 84 24 20 ....h^...L$H..$ 
007BCCE0 01 00 00 0B E8 57 5E 00 00 83 CB FF 85 F6 C6 84 .....W^.........
007BCCF0 24 20 01 00 00 07 74 0F 01 5E 04 75 0A 8B 16 8B $ ....t..^.u....
007BCD00 02 6A 01 8B CE FF D0 8D 8C 24 A0 00 00 00 C6 84 .j.......$......
007BCD10 24 20 01 00 00 00 E8 45 71 00 00 85 FF 89 9C 24 $ .....Eq......$
007BCD20 20 01 00 00 74 0F 01 5F 04 75 0A 8B 17 8B 02 6A  ...t.._.u.....j
007BCD30 01 8B CF FF D0 8B 44 24 1C 8B 8C 24 18 01 00 00 ......D$...$....
007BCD40 64 89 0D 00 00 00 00 59 5F 5E 5D 5B 81 C4 10 01 d......Y_^][....
007BCD50 00 00 C2 0C 00 CC CC CC CC CC CC CC CC CC CC CC ................
007BCD60 51 56 8B 74 24 0C 83 BE 28 05 00 00 00 57 8B F9 QV.t$...(....W..
007BCD70 74 0C 8B 8E 28 05 00 00 56 E8 A2 DA FF FF 8B 4C t...(...V......L
007BCD80 24 14 85 C9 75 03 8D 4E 08 8B 46 0C 51 50 8B CF $...u..N..F.QP..
007BCD90 E8 8B D9 FF FF 84 C0 88 44 24 14 0F 84 A1 00 00 ........D$......
007BCDA0 00 83 BF 34 05 00 00 00 53 55 75 56 E8 9F 9D E6 ...4....SUuV....
007BCDB0 FF DC 0D 48 A4 98 00 E8 BA 82 ED FF 6A 20 8B E8 ...H........j ..
007BCDC0 8B DA E8 11 82 ED FF 8B F0 83 C4 04 89 74 24 10 .............t$.
007BCDD0 0F 31 03 C5 89 06 13 D3 89 56 04 89 6E 08 33 C0 .1.......V..n.3.
007BCDE0 89 5E 0C 89 46 10 89 46 14 8D 47 04 89 46 18 8D .^..F..F..G..F..
007BCDF0 44 24 10 50 8D 4F 4C E8 34 EA FF FF 89 B7 38 05 D$.P.OL.4.....8.
007BCE00 00 00 8B AF 30 05 00 00 8B 55 04 8D B7 2C 05 00 ....0....U...,..
007BCE10 00 8D 4C 24 18 51 52 55 8B CE E8 A1 4B 05 00 6A ..L$.QRU....K..j
007BCE20 01 8B CE 8B D8 E8 A6 7F FF FF 8B 4C 24 18 89 5D ...........L$..]
007BCE30 04 8B 43 04 89 18 8A 44 24 1C 5D 89 B9 28 05 00 ..C....D$.]..(..
007BCE40 00 5B 5F 5E 59 C2 08 00 CC CC CC CC CC CC CC CC .[_^Y...........
007BCE50 83 EC 14 53 55 56 8B F1 83 BE 00 05 00 00 00 57 ...SUV.........W
007BCE60 75 2D DB 86 0C 05 00 00 DA 8E 08 05 00 00 DC 0D u-..............
007BCE70 50 A4 98 00 E8 C7 81 ED FF 6A 01 6A 00 8D 4E 04 P........j.j..N.
007BCE80 51 50 8B CE E8 C7 EE FF FF 89 86 00 05 00 00 8B QP..............
007BCE90 7C 24 28 8B 07 8B 4F 04 8B 6C 24 2C 8D 54 24 18 |$(...O..l$,.T$.
007BCEA0 89 44 24 18 52 8D 44 24 2C 89 4C 24 20 8D 9E DC .D$.R.D$,.L$ ...
007BCEB0 04 00 00 50 8B CB 89 6C 24 28 E8 21 8A FF FF 8B ...P...l$(.!....
007BCEC0 08 3B 8E E0 04 00 00 75 3C 8D 54 24 18 52 8D 44 .;.....u<.T$.R.D
007BCED0 24 2C 50 8D 8E E8 04 00 00 E8 02 8A FF FF 8B 08 $,P.............
007BCEE0 3B 8E EC 04 00 00 75 1D 8D 54 24 18 52 8D 44 24 ;.....u..T$.R.D$
007BCEF0 14 50 8B CB E8 67 AB FF FF 5F 5E 5D 32 C0 5B 83 .P...g..._^]2.[.
007BCF00 C4 14 C2 08 00 55 8B CF E8 03 82 00 00 50 68 58 .....U.......PhX
007BCF10 A4 98 00 E8 68 3D D6 FF 83 C4 0C 5F 5E 5D B0 01 ....h=....._^]..
007BCF20 5B 83 C4 14 C2 08 00 CC CC CC CC CC CC CC CC CC [...............
007BCF30 51 56 8B F1 8B 46 04 8B 08 50 51 8D 44 24 0C 50 QV...F...PQ.D$.P
007BCF40 8B CE E8 19 EB FF FF 8B 4E 04 51 E8 76 80 ED FF ........N.Q.v...
007BCF50 83 C4 04 33 C0 89 46 04 89 46 08 5E 59 C3 CC CC ...3..F..F.^Y...
007BCF60 6A FF 68 C0 17 88 00 64 A1 00 00 00 00 50 83 EC j.h....d.....P..
007BCF70 14 53 55 56 57 A1 88 41 A1 00 33 C4 50 8D 44 24 .SUVW..A..3.P.D$
007BCF80 28 64 A3 00 00 00 00 8B F1 89 74 24 24 C7 06 00 (d........t$$...
007BCF90 A5 98 00 C7 46 04 F8 A4 98 00 C7 46 08 F0 A4 98 ....F......F....
007BCFA0 00 8B 86 84 00 00 00 33 DB 3B C3 C7 44 24 30 16 .......3.;..D$0.
007BCFB0 00 00 00 0F 84 98 00 00 00 50 68 C4 A4 98 00 E8 .........Ph.....
007BCFC0 BC 3C D6 FF 8B 86 80 00 00 00 8B 38 83 C4 08 3B .<.........8...;
007BCFD0 F8 74 56 8B 4F 10 3B CB 74 08 8B 01 8B 10 6A 01 .tV.O.;.t.....j.
007BCFE0 FF D2 38 5F 15 75 3A 8B 47 08 38 58 15 75 14 8B ..8_.u:.G.8X.u..
007BCFF0 F8 8B 07 38 58 15 75 29 8B F8 8B 07 38 58 15 74 ...8X.u)....8X.t
007BD000 F7 EB 1E 8B 47 04 38 58 15 75 14 EB 03 8D 49 00 ....G.8X.u....I.
007BD010 3B 78 08 75 0A 8B F8 8B 40 04 38 58 15 74 F1 8B ;x.u....@.8X.t..
007BD020 F8 3B BE 80 00 00 00 75 AA 8B 86 80 00 00 00 8B .;.....u........
007BD030 48 04 8D 7E 7C 51 8B CF E8 83 FE F0 FF 8B 47 04 H..~|Q........G.
007BD040 89 40 04 8B 47 04 89 5F 08 89 00 8B 7F 04 89 7F .@..G.._........
007BD050 08 8B 86 DC 02 00 00 8B 38 3B F8 74 79 8D 49 00 ........8;.ty.I.
007BD060 38 5F 19 8B CF 75 3A 8B 47 08 38 58 19 75 14 8B 8_...u:.G.8X.u..
007BD070 F8 8B 07 38 58 19 75 29 8B F8 8B 07 38 58 19 74 ...8X.u)....8X.t
007BD080 F7 EB 1E 8B 47 04 38 58 19 75 14 EB 03 8D 49 00 ....G.8X.u....I.
007BD090 3B 78 08 75 0A 8B F8 8B 40 04 38 58 19 74 F1 8B ;x.u....@.8X.t..
007BD0A0 F8 8B 49 14 38 99 C1 00 00 00 75 08 38 99 B9 00 ..I.8.....u.8...
007BD0B0 00 00 74 07 E8 37 82 00 00 EB 13 E8 90 80 00 00 ..t..7..........
007BD0C0 50 68 94 A4 98 00 E8 B5 3B D6 FF 83 C4 08 3B BE Ph......;.....;.
007BD0D0 DC 02 00 00 75 8A 39 5E 30 74 10 8B 56 38 53 52 ....u.9^0t..V8SR
007BD0E0 8D 46 1C 50 8B CE E8 15 7B FF FF 8B 8E 28 05 00 .F.P....{....(..
007BD0F0 00 3B CB 74 06 56 E8 25 D7 FF FF 83 7E 0C FF 8D .;.t.V.%....~...
007BD100 7E 0C 74 26 8B 0F 51 E8 F4 87 ED FF 3B C3 75 1A ~.t&..Q.....;.u.
007BD110 83 3F FF 74 0F 39 1D A8 EC A6 00 74 07 8B CF E8 .?.t.9.....t....
007BD120 3C 0D C8 FF C7 07 FF FF FF FF 8B 86 00 05 00 00 <...............
007BD130 3B C3 74 0D C7 40 10 02 00 00 00 89 9E 00 05 00 ;.t..@..........
007BD140 00 53 8B CE E8 27 B5 FF FF 8B 86 18 05 00 00 3B .S...'.........;
007BD150 C3 74 0D C7 40 10 02 00 00 00 89 9E 18 05 00 00 .t..@...........
007BD160 8D 6E 4C 8B 45 04 3B C3 0F 84 C3 00 00 00 8B 55 .nL.E.;........U
007BD170 08 2B D0 C1 FA 02 0F 84 B5 00 00 00 8B 46 50 8A .+...........FP.
007BD180 4D 10 8B 38 8B 55 08 88 4C 24 1C 8B 4D 04 8B C2 M..8.U..L$..M...
007BD190 2B C1 83 E0 FC 83 F8 04 7E 28 8D 42 FC 8B 52 FC +.......~(.B..R.
007BD1A0 89 54 24 20 8B 11 89 10 8B 54 24 1C 52 8B 54 24 .T$ .....T$.R.T$
007BD1B0 24 52 2B C1 C1 F8 02 50 53 51 E8 D1 80 FF FF 83 $R+....PSQ......
007BD1C0 C4 14 8B 45 04 3B C3 74 12 8B 4D 08 8B D1 2B D0 ...E.;.t..M...+.
007BD1D0 C1 FA 02 74 06 83 C1 FC 89 4D 08 B8 02 00 00 00 ...t.....M......
007BD1E0 89 47 10 89 5E 60 39 47 10 89 7C 24 20 75 15 57 .G..^`9G..|$ u.W
007BD1F0 E8 D1 7D ED FF 83 C4 04 83 86 70 04 00 00 01 E9 ..}.......p.....
007BD200 5F FF FF FF 8B 47 08 01 07 8B 4F 0C 8D 54 24 20 _....G....O..T$ 
007BD210 11 4F 04 52 8B CD 89 5F 10 E8 12 E6 FF FF 83 86 .O.R..._........
007BD220 74 04 00 00 01 83 86 70 04 00 00 01 E9 32 FF FF t......p.....2..
007BD230 FF 8D 8E 90 05 00 00 E8 44 D9 E0 FF BF 28 CE 8A ........D....(..
007BD240 00 8D 8E 6C 05 00 00 89 BE 8C 05 00 00 C6 44 24 ...l..........D$
007BD250 30 14 E8 29 DE FF FF 8D 8E 58 05 00 00 E8 1E D9 0..).....X......
007BD260 E0 FF 89 BE 54 05 00 00 8B 86 4C 05 00 00 8B 08 ....T.....L.....
007BD270 8D BE 48 05 00 00 50 51 8D 44 24 28 50 8B CF C6 ..H...PQ.D$(P...
007BD280 44 24 3C 12 E8 77 DE FF FF 8B 47 04 50 E8 34 7D D$<..w....G.P.4}
007BD290 ED FF 89 5F 04 89 5F 08 8B 86 40 05 00 00 8B 08 ..._.._...@.....
007BD2A0 83 C4 04 8D BE 3C 05 00 00 50 51 8D 4C 24 28 51 .....<...PQ.L$(Q
007BD2B0 8B CF C6 44 24 3C 11 E8 44 95 FF FF 8B 47 04 50 ...D$<..D....G.P
007BD2C0 E8 01 7D ED FF 83 C4 04 8D 8E 2C 05 00 00 89 5F ..}.......,...._
007BD2D0 04 89 5F 08 E8 A7 D8 E0 FF 8B 86 20 05 00 00 8B .._........ ....
007BD2E0 08 8D BE 1C 05 00 00 50 51 8D 54 24 28 52 8B CF .......PQ.T$(R..
007BD2F0 C6 44 24 3C 0F E8 86 BF FF FF 8B 47 04 50 E8 C3 .D$<.......G.P..
007BD300 7C ED FF 89 5F 04 89 5F 08 8B 86 F8 04 00 00 8B |..._.._........
007BD310 08 83 C4 04 8D BE F4 04 00 00 50 51 8D 44 24 28 ..........PQ.D$(
007BD320 50 8B CF C6 44 24 3C 0E E8 93 DC FF FF 8B 47 04 P...D$<.......G.
007BD330 50 E8 90 7C ED FF 89 5F 04 89 5F 08 8B 86 EC 04 P..|..._.._.....
007BD340 00 00 8B 08 8D BE E8 04 00 00 83 C4 04 C6 44 24 ..............D$
007BD350 30 0D 50 51 8D 4C 24 28 51 8B CF E8 A0 AD FF FF 0.PQ.L$(Q.......
007BD360 8B 47 04 50 E8 5D 7C ED FF 89 5F 04 89 5F 08 8B .G.P.]|..._.._..
007BD370 86 E0 04 00 00 8B 08 83 C4 04 8D BE DC 04 00 00 ................
007BD380 50 51 8D 54 24 28 52 8B CF C6 44 24 3C 0C E8 6D PQ.T$(R...D$<..m
007BD390 AD FF FF 8B 47 04 50 E8 2A 7C ED FF 89 5F 04 89 ....G.P.*|..._..
007BD3A0 5F 08 8B 86 DC 02 00 00 8B 08 83 C4 04 8D BE D8 _...............
007BD3B0 02 00 00 50 51 8D 44 24 28 50 8B CF C6 44 24 3C ...PQ.D$(P...D$<
007BD3C0 0B E8 5A B0 FF FF 8B 47 04 50 E8 F7 7B ED FF 89 ..Z....G.P..{...
007BD3D0 5F 04 89 5F 08 8B 86 B8 00 00 00 8B 08 83 C4 04 _.._............
007BD3E0 8D BE B4 00 00 00 50 51 8D 4C 24 28 51 8B CF C6 ......PQ.L$(Q...
007BD3F0 44 24 3C 0A E8 47 AC FF FF 8B 47 04 50 E8 C4 7B D$<..G....G.P..{
007BD400 ED FF 89 5F 04 89 5F 08 8B 86 AC 00 00 00 8B 08 ..._.._.........
007BD410 83 C4 04 8D BE A8 00 00 00 50 51 8D 54 24 28 52 .........PQ.T$(R
007BD420 8B CF C6 44 24 3C 09 E8 14 AC FF FF 8B 47 04 50 ...D$<.......G.P
007BD430 E8 91 7B ED FF 89 5F 04 89 5F 08 8B 86 98 00 00 ..{..._.._......
007BD440 00 8B 08 8D BE 94 00 00 00 83 C4 04 50 C6 44 24 ............P.D$
007BD450 34 08 51 8D 44 24 28 50 8B CF E8 01 E6 FF FF 8B 4.Q.D$(P........
007BD460 47 04 50 E8 5E 7B ED FF 89 5F 04 89 5F 08 8B 8E G.P.^{..._.._...
007BD470 88 00 00 00 83 C4 04 3B CB C6 44 24 30 07 74 0E .......;..D$0.t.
007BD480 83 41 04 FF 75 08 8B 11 8B 02 6A 01 FF D0 89 9E .A..u.....j.....
007BD490 88 00 00 00 8B 86 80 00 00 00 8B 08 8D 7E 7C 50 .............~|P
007BD4A0 51 8D 4C 24 28 51 8B CF C6 44 24 3C 06 E8 EE 87 Q.L$(Q...D$<....
007BD4B0 FF FF 8B 47 04 50 E8 0B 7B ED FF 89 5F 04 89 5F ...G.P..{..._.._
007BD4C0 08 8B 45 04 83 C4 04 3B C3 74 09 50 E8 F5 7A ED ..E....;.t.P..z.
007BD4D0 FF 83 C4 04 89 5D 04 89 5D 08 89 5D 0C 8B 46 40 .....]..]..]..F@
007BD4E0 3B C3 74 09 50 E8 DC 7A ED FF 83 C4 04 8D 4E 1C ;.t.P..z......N.
007BD4F0 89 5E 40 89 5E 44 89 5E 48 C6 44 24 30 03 FF 15 .^@.^D.^H.D$0...
007BD500 38 43 8A 00 8B 56 0C 8D 7E 0C 52 E8 F0 83 ED FF 8C...V..~.R.....
007BD510 85 C0 75 1A 83 3F FF 74 0F 39 1D A8 EC A6 00 74 ..u..?.t.9.....t
007BD520 07 8B CF E8 38 09 C8 FF C7 07 FF FF FF FF C7 46 ....8..........F
007BD530 08 4C 97 98 00 C7 46 04 28 CE 8A 00 C7 06 14 CE .L....F.(.......
007BD540 8A 00 8B 4C 24 28 64 89 0D 00 00 00 00 59 5F 5E ...L$(d......Y_^
007BD550 5D 5B 83 C4 20 C3 CC CC CC CC CC CC CC CC CC CC ][.. ...........
007BD560 83 E9 04 E9 F8 09 00 00 CC CC CC CC CC CC CC CC ................
007BD570 83 E9 08 E9 E8 09 00 00 CC CC CC CC CC CC CC CC ................
007BD580 6A FF 68 EB 17 88 00 64 A1 00 00 00 00 50 51 53 j.h....d.....PQS
007BD590 55 56 57 A1 88 41 A1 00 33 C4 50 8D 44 24 18 64 UVW..A..3.P.D$.d
007BD5A0 A3 00 00 00 00 8B F1 80 7E 70 00 75 79 83 7E 64 ........~p.uy.~d
007BD5B0 00 8B 1D B4 45 8A 00 74 0F FF D3 99 B9 40 42 0F ....E..t.....@B.
007BD5C0 00 F7 F9 3B 56 64 7C 5E 8B 46 6C 85 C0 75 07 32 ...;Vd|^.Fl..u.2
007BD5D0 C0 E9 B1 00 00 00 8B 7E 68 3B C7 7E 10 8B EF FF .......~h;.~....
007BD5E0 D3 8B 4E 6C 2B CD 99 F7 F9 8B FA 03 FD 83 FF 02 ..Nl+...........
007BD5F0 7C DD 6A 18 E8 DF 79 ED FF 83 C4 04 89 44 24 14 |.j...y......D$.
007BD600 85 C0 C7 44 24 20 00 00 00 00 74 79 8B 54 24 30 ...D$ ....ty.T$0
007BD610 8B 4C 24 2C 52 8B 54 24 2C 57 51 52 56 8B C8 E8 .L$,R.T$,WQRV...
007BD620 2C EB FF FF EB 5F 8B 7C 24 2C 81 7F 30 00 00 00 ,...._.|$,..0...
007BD630 10 8B 4C 24 28 74 32 8B 47 34 85 C0 74 1A 50 E8 ..L$(t2.G4..t.P.
007BD640 CC 7A 00 00 50 8B 47 30 50 68 A0 A5 98 00 E8 2D .z..P.G0Ph.....-
007BD650 36 D6 FF 83 C4 10 EB 29 E8 B3 7A 00 00 8B 4F 30 6......)..z...O0
007BD660 50 51 68 58 A5 98 00 EB 10 E8 A2 7A 00 00 0F B6 PQhX.......z....
007BD670 57 24 50 52 68 08 A5 98 00 E8 02 36 D6 FF 83 C4 W$PRh......6....
007BD680 0C C6 46 70 00 B0 01 8B 4C 24 18 64 89 0D 00 00 ..Fp....L$.d....
007BD690 00 00 59 5F 5E 5D 5B 83 C4 10 C2 0C 00 CC CC CC ..Y_^][.........
007BD6A0 6A FF 68 18 18 88 00 64 A1 00 00 00 00 50 83 EC j.h....d.....P..
007BD6B0 24 56 57 A1 88 41 A1 00 33 C4 50 8D 44 24 30 64 $VW..A..3.P.D$0d
007BD6C0 A3 00 00 00 00 8B F1 8B 44 24 40 8B 08 8B 50 04 ........D$@...P.
007BD6D0 8B 44 24 44 89 4C 24 18 89 44 24 20 8B 44 24 48 .D$D.L$..D$ .D$H
007BD6E0 33 C9 3B C1 89 54 24 1C C7 44 24 14 50 98 98 00 3.;..T$..D$.P...
007BD6F0 89 44 24 24 74 04 83 40 04 01 89 4C 24 28 89 4C .D$$t..@...L$(.L
007BD700 24 2C 89 4C 24 38 8D 4C 24 14 51 8D 54 24 10 52 $,.L$8.L$.Q.T$.R
007BD710 8D 8E F4 04 00 00 E8 A5 C6 FF FF 8B 00 6A 01 8D .............j..
007BD720 78 0C 8B 86 0C 05 00 00 56 57 50 8B CE E8 1E E6 x.......VWP.....
007BD730 FF FF 8D 4C 24 14 89 47 14 C7 44 24 38 FF FF FF ...L$..G..D$8...
007BD740 FF E8 1A 77 FF FF 8B 4C 24 30 64 89 0D 00 00 00 ...w...L$0d.....
007BD750 00 59 5F 5E 83 C4 30 C2 0C 00 CC CC CC CC CC CC .Y_^..0.........
007BD760 6A FF 68 7B 19 88 00 64 A1 00 00 00 00 50 83 EC j.h{...d.....P..
007BD770 24 53 55 56 57 A1 88 41 A1 00 33 C4 50 8D 44 24 $SUVW..A..3.P.D$
007BD780 38 64 A3 00 00 00 00 8B F1 89 74 24 14 33 DB 89 8d........t$.3..
007BD790 5C 24 40 C7 46 04 28 CE 8A 00 C7 46 08 4C 97 98 \$@.F.(....F.L..
007BD7A0 00 C7 06 00 A5 98 00 C7 46 04 F8 A4 98 00 C7 46 ........F......F
007BD7B0 08 F0 A4 98 00 C7 46 0C FF FF FF FF 88 5E 10 88 ......F......^..
007BD7C0 5E 11 66 89 5E 12 89 5E 14 89 5E 18 8D 4E 1C C6 ^.f.^..^..^..N..
007BD7D0 44 24 40 03 FF 15 B0 43 8A 00 8D 44 24 20 50 8D D$@....C...D$ P.
007BD7E0 4E 3C 68 00 01 00 00 C6 44 24 48 04 89 5E 38 88 N<h.....D$H..^8.
007BD7F0 5C 24 28 C6 44 24 29 02 89 5C 24 2C C7 44 24 30 \$(.D$)..\$,.D$0
007BD800 8F 69 8A 00 89 5C 24 34 89 5C 24 38 89 5C 24 3C .i...\$4.\$8.\$<
007BD810 E8 AB CA FF FF 8D 6E 4C 89 5D 04 89 5D 08 89 5D ......nL.]..]..]
007BD820 0C 88 5D 10 C6 44 24 40 06 89 5E 60 89 5E 64 89 ..]..D$@..^`.^d.
007BD830 5E 68 89 5E 6C 88 5E 70 0F 31 8B C8 89 54 24 1C ^h.^l.^p.1...T$.
007BD840 B8 8F 58 8B 4F F7 E1 8B C1 2B C2 D1 E8 03 C2 C1 ..X.O....+......
007BD850 E8 10 69 C0 A0 86 01 00 2B C8 81 C1 75 27 00 00 ..i.....+...u'..
007BD860 89 4E 74 8D 7E 7C 8B CF C7 46 78 01 00 00 00 E8 .Nt.~|...Fx.....
007BD870 5C 66 EA FF 89 47 04 C6 40 15 01 8B 47 04 89 40 \f...G..@...G..@
007BD880 04 8B 47 04 89 00 8B 47 04 89 40 08 89 5F 08 89 ..G....G..@.._..
007BD890 9E 88 00 00 00 8D BE 94 00 00 00 C6 44 24 40 08 ............D$@.
007BD8A0 8B CF E8 69 F4 CE FF 89 47 04 C6 40 1D 01 8B 47 ...i....G..@...G
007BD8B0 04 89 40 04 8B 47 04 89 00 8B 47 04 89 40 08 89 ..@..G....G..@..
007BD8C0 5F 08 8D BE A8 00 00 00 8B CF C6 44 24 40 09 89 _..........D$@..
007BD8D0 9E A0 00 00 00 88 9E A4 00 00 00 88 9E A6 00 00 ................
007BD8E0 00 E8 EA 65 EA FF 89 47 04 C6 40 15 01 8B 47 04 ...e...G..@...G.
007BD8F0 89 40 04 8B 47 04 89 00 8B 47 04 89 40 08 89 5F .@..G....G..@.._
007BD900 08 8D BE B4 00 00 00 8B CF C6 44 24 40 0A E8 BD ..........D$@...
007BD910 65 EA FF 89 47 04 C6 40 15 01 8B 47 04 89 40 04 e...G..@...G..@.
007BD920 8B 47 04 89 00 8B 47 04 89 40 08 89 5F 08 8D BE .G....G..@.._...
007BD930 D8 02 00 00 8B CF C6 44 24 40 0B C7 86 C8 02 00 .......D$@......
007BD940 00 FF FF FF FF 89 9E CC 02 00 00 89 9E D0 02 00 ................
007BD950 00 89 9E D4 02 00 00 E8 A4 79 FF FF 89 47 04 C6 .........y...G..
007BD960 40 19 01 8B 47 04 89 40 04 8B 47 04 89 00 8B 47 @...G..@..G....G
007BD970 04 89 40 08 89 5F 08 C6 44 24 40 0C 89 9E E4 02 ..@.._..D$@.....
007BD980 00 00 89 9E E8 02 00 00 89 9E EC 02 00 00 89 9E ................
007BD990 F0 02 00 00 89 9E F4 02 00 00 89 9E F8 02 00 00 ................
007BD9A0 89 9E FC 02 00 00 89 9E 00 03 00 00 89 9E 04 03 ................
007BD9B0 00 00 89 9E 08 03 00 00 89 9E 0C 03 00 00 89 9E ................
007BD9C0 10 03 00 00 89 9E 14 03 00 00 89 9E 18 03 00 00 ................
007BD9D0 89 9E 1C 03 00 00 89 9E 20 03 00 00 89 9E 24 03 ........ .....$.
007BD9E0 00 00 89 9E 28 03 00 00 89 9E 2C 03 00 00 89 9E ....(.....,.....
007BD9F0 30 03 00 00 89 9E 34 03 00 00 89 9E 38 03 00 00 0.....4.....8...
007BDA00 89 9E 3C 03 00 00 89 9E 40 03 00 00 89 9E 44 03 ..<.....@.....D.
007BDA10 00 00 89 9E 48 03 00 00 89 9E 4C 03 00 00 89 9E ....H.....L.....
007BDA20 50 03 00 00 89 9E 54 03 00 00 89 9E 58 03 00 00 P.....T.....X...
007BDA30 89 9E 5C 03 00 00 89 9E 60 03 00 00 89 9E 64 03 ..\.....`.....d.
007BDA40 00 00 89 9E 68 03 00 00 89 9E 6C 03 00 00 89 9E ....h.....l.....
007BDA50 70 03 00 00 89 9E 74 03 00 00 89 9E 78 03 00 00 p.....t.....x...
007BDA60 89 9E 7C 03 00 00 89 9E 8C 03 00 00 89 9E 90 03 ..|.............
007BDA70 00 00 89 9E 94 03 00 00 89 9E 98 03 00 00 B8 00 ................
007BDA80 CA 9A 3B 89 86 88 03 00 00 89 9E A0 03 00 00 89 ..;.............
007BDA90 9E A4 03 00 00 89 9E A8 03 00 00 89 9E AC 03 00 ................
007BDAA0 00 89 86 B8 03 00 00 89 9E BC 03 00 00 89 9E C0 ................
007BDAB0 03 00 00 89 9E C4 03 00 00 89 9E C8 03 00 00 89 ................
007BDAC0 9E D0 03 00 00 89 9E D4 03 00 00 89 9E D8 03 00 ................
007BDAD0 00 89 9E DC 03 00 00 89 86 E8 03 00 00 89 9E EC ................
007BDAE0 03 00 00 89 9E F0 03 00 00 89 9E F4 03 00 00 89 ................
007BDAF0 9E F8 03 00 00 89 9E 00 04 00 00 89 9E 04 04 00 ................
007BDB00 00 89 9E 08 04 00 00 89 9E 0C 04 00 00 89 86 18 ................
007BDB10 04 00 00 89 9E 1C 04 00 00 89 9E 20 04 00 00 89 ........... ....
007BDB20 9E 24 04 00 00 89 9E 28 04 00 00 8D BE DC 04 00 .$.....(........
007BDB30 00 8B CF 89 9E 30 04 00 00 89 9E 34 04 00 00 89 .....0.....4....
007BDB40 9E 38 04 00 00 89 9E 3C 04 00 00 89 9E 40 04 00 .8.....<.....@..
007BDB50 00 89 9E 44 04 00 00 89 9E 48 04 00 00 89 9E 4C ...D.....H.....L
007BDB60 04 00 00 89 9E D8 04 00 00 E8 92 77 FF FF 89 47 ...........w...G
007BDB70 04 C6 40 19 01 8B 47 04 89 40 04 8B 47 04 89 00 ..@...G..@..G...
007BDB80 8B 47 04 89 40 08 89 5F 08 8D BE E8 04 00 00 8B .G..@.._........
007BDB90 CF C6 44 24 40 0D E8 65 77 FF FF 89 47 04 C6 40 ..D$@..ew...G..@
007BDBA0 19 01 8B 47 04 89 40 04 8B 47 04 89 00 8B 47 04 ...G..@..G....G.
007BDBB0 89 40 08 89 5F 08 8D BE F4 04 00 00 8B CF C6 44 .@.._..........D
007BDBC0 24 40 0E E8 A8 2A CB FF 89 47 04 C6 40 29 01 8B $@...*...G..@)..
007BDBD0 47 04 89 40 04 8B 47 04 89 00 8B 47 04 89 40 08 G..@..G....G..@.
007BDBE0 89 5F 08 8D BE 1C 05 00 00 8B CF C6 44 24 40 0F ._..........D$@.
007BDBF0 89 9E 00 05 00 00 C7 86 08 05 00 00 32 00 00 00 ............2...
007BDC00 C7 86 0C 05 00 00 40 0D 03 00 88 9E 14 05 00 00 ......@.........
007BDC10 89 9E 18 05 00 00 E8 45 75 FF FF 89 47 04 C6 40 .......Eu...G..@
007BDC20 51 01 8B 47 04 89 40 04 8B 47 04 89 00 8B 47 04 Q..G..@..G....G.
007BDC30 89 40 08 89 5F 08 8D BE 2C 05 00 00 8B CF C6 44 .@.._...,......D
007BDC40 24 40 10 89 9E 28 05 00 00 E8 D2 AB D0 FF 89 47 $@...(.........G
007BDC50 04 89 5F 08 8D BE 3C 05 00 00 8B CF C6 44 24 40 .._...<......D$@
007BDC60 11 89 9E 38 05 00 00 E8 94 76 FF FF 89 47 04 C6 ...8.....v...G..
007BDC70 40 19 01 8B 47 04 89 40 04 8B 47 04 89 00 8B 47 @...G..@..G....G
007BDC80 04 89 40 08 89 5F 08 8D BE 48 05 00 00 8B CF C6 ..@.._...H......
007BDC90 44 24 40 12 E8 17 B6 00 00 89 47 04 C6 40 11 01 D$@.......G..@..
007BDCA0 8B 47 04 89 40 04 8B 47 04 89 00 8B 47 04 89 40 .G..@..G....G..@
007BDCB0 08 89 5F 08 8D BE 54 05 00 00 8B CF C6 44 24 40 .._...T......D$@
007BDCC0 13 E8 7A B6 FF FF C7 07 50 9B 98 00 8D 8E 6C 05 ..z.....P.....l.
007BDCD0 00 00 C6 44 24 40 14 E8 44 DE FF FF 8D BE 8C 05 ...D$@..D.......
007BDCE0 00 00 8B CF C6 44 24 40 15 E8 52 B6 FF FF C7 07 .....D$@..R.....
007BDCF0 60 9B 98 00 38 9E 14 05 00 00 C6 44 24 40 16 0F `...8......D$@..
007BDD00 94 C1 88 9E A4 05 00 00 88 8E A5 05 00 00 C6 86 ................
007BDD10 A6 05 00 00 01 E8 06 8E E6 FF 0F 31 89 86 D0 04 ...........1....
007BDD20 00 00 89 96 D4 04 00 00 8D 86 90 04 00 00 B9 08 ................
007BDD30 00 00 00 EB 0B 8D A4 24 00 00 00 00 8D 64 24 00 .......$.....d$.
007BDD40 8B 96 D0 04 00 00 89 10 8B 96 D4 04 00 00 89 50 ...............P
007BDD50 04 83 C0 08 83 E9 01 75 E7 8B 44 24 4C 8B 4C 24 .......u..D$L.L$
007BDD60 48 50 51 8B CE 89 9E C0 00 00 00 89 9E C4 01 00 HPQ.............
007BDD70 00 C7 86 C8 02 00 00 FF FF FF FF E8 70 D4 FF FF ............p...
007BDD80 8B 0D A0 1B A5 00 0F B6 C1 8D 14 40 8B 46 40 8D ...........@.F@.
007BDD90 04 D0 89 08 8B 0D A4 1B A5 00 89 48 04 8B 15 A8 ...........H....
007BDDA0 1B A5 00 89 50 08 89 70 0C 8B 15 D0 EC A6 00 8B ....P..p........
007BDDB0 3D E4 B7 98 00 6A FF 52 83 C7 48 FF 15 F4 40 8A =....j.R..H...@.
007BDDC0 00 A1 C8 EC A6 00 3B C3 C6 05 D4 EC A6 00 01 74 ......;........t
007BDDD0 0B 8B F8 8B 00 A3 C8 EC A6 00 EB 12 57 E8 A7 6D ............W..m
007BDDE0 ED FF 83 C4 04 83 05 CC EC A6 00 01 8B F8 8B 0D ................
007BDDF0 D0 EC A6 00 51 88 1D D4 EC A6 00 FF 15 F0 40 8A ....Q.........@.
007BDE00 00 89 7C 24 4C 3B FB C6 44 24 40 17 74 0B 8B CF ..|$L;..D$@.t...
007BDE10 E8 DB 4B 00 00 8B F8 EB 02 33 FF 3B FB 89 7C 24 ..K......3.;..|$
007BDE20 4C 74 04 83 47 04 01 8B 8E 88 00 00 00 3B CF C6 Lt..G........;..
007BDE30 44 24 40 18 74 20 3B FB 89 BE 88 00 00 00 74 04 D$@.t ;.......t.
007BDE40 83 47 04 01 3B CB 74 0E 83 41 04 FF 75 08 8B 11 .G..;.t..A..u...
007BDE50 8B 02 6A 01 FF D0 3B FB C6 44 24 40 16 74 10 83 ..j...;..D$@.t..
007BDE60 47 04 FF 75 0A 8B 17 8B 02 6A 01 8B CF FF D0 6A G..u.....j.....j
007BDE70 40 8D 8E 50 04 00 00 53 51 E8 A2 71 ED FF E8 CD @..P...SQ..q....
007BDE80 8C E6 FF DC C0 E8 EC 71 ED FF 6A 20 89 44 24 28 .......q..j .D$(
007BDE90 89 54 24 2C E8 3F 71 ED FF 8B F8 83 C4 10 89 7C .T$,.?q........|
007BDEA0 24 4C 0F 31 8B 4C 24 18 03 C1 13 54 24 1C 89 07 $L.1.L$....T$...
007BDEB0 89 57 04 8B 54 24 1C 89 4F 08 89 57 0C 89 5F 10 .W..T$..O..W.._.
007BDEC0 8D 46 04 89 5F 14 89 47 18 8D 44 24 4C 50 8B CD .F.._..G..D$LP..
007BDED0 E8 5B D9 FF FF 89 BE 18 05 00 00 E8 70 8C E6 FF .[..........p...
007BDEE0 DC 0D A0 DE 8A 00 E8 8B 71 ED FF 6A 20 89 44 24 ........q..j .D$
007BDEF0 1C 89 54 24 20 E8 DE 70 ED FF 8B F8 83 C4 04 89 ..T$ ..p........
007BDF00 7C 24 4C 0F 31 8B 4C 24 18 03 C1 13 54 24 1C 89 |$L.1.L$....T$..
007BDF10 07 89 57 04 89 4F 08 8B 4C 24 1C 89 4F 0C 89 5F ..W..O..L$..O.._
007BDF20 10 8D 54 24 4C 8D 46 04 89 5F 14 52 8B CD 89 47 ..T$L.F.._.R...G
007BDF30 18 E8 FA D8 FF FF 89 BE A0 00 00 00 8B C6 8B 4C ...............L
007BDF40 24 38 64 89 0D 00 00 00 00 59 5F 5E 5D 5B 83 C4 $8d......Y_^][..
007BDF50 30 C2 08 00 CC CC CC CC CC CC CC CC CC CC CC CC 0...............
007BDF60 56 8B F1 E8 F8 EF FF FF F6 44 24 08 01 74 09 56 V........D$..t.V
007BDF70 E8 51 70 ED FF 83 C4 04 8B C6 5E C2 04 00 CC CC .Qp.......^.....
007BDF80 6A FF 68 C1 19 88 00 64 A1 00 00 00 00 50 51 53 j.h....d.....PQS
007BDF90 55 56 57 A1 88 41 A1 00 33 C4 50 8D 44 24 18 64 UVW..A..3.P.D$.d
007BDFA0 A3 00 00 00 00 8B E9 33 FF 89 7C 24 14 80 7C 24 .......3..|$..|$
007BDFB0 34 00 74 19 8B 44 24 2C 8B 48 10 03 48 0C 01 8D 4.t..D$,.H..H...
007BDFC0 04 03 00 00 83 85 10 03 00 00 01 EB 13 8B 54 24 ..............T$
007BDFD0 2C 0F B7 42 48 A8 08 75 07 83 85 18 03 00 00 01 ,..BH..u........
007BDFE0 8B 44 24 2C 8B 4C 24 28 57 50 51 8B CD E8 8E F5 .D$,.L$(WPQ.....
007BDFF0 FF FF 84 C0 0F 85 E0 00 00 00 8B 4C 24 30 3B CF ...........L$0;.
007BE000 74 15 8D 54 24 34 52 E8 74 94 FF FF 8B 7C 24 34 t..T$4R.t....|$4
007BE010 BB 01 00 00 00 EB 0D 89 7C 24 34 8D 44 24 34 BB ........|$4.D$4.
007BE020 02 00 00 00 8B 30 85 F6 89 74 24 30 74 07 8B CE .....0...t$0t...
007BE030 E8 9B 3A C4 FF F6 C3 02 C7 44 24 20 01 00 00 00 ..:......D$ ....
007BE040 74 21 83 E3 FD 85 FF 89 5C 24 14 74 16 8B CF E8 t!......\$.t....
007BE050 8C 3A C4 FF 83 F8 01 75 0A 8B 07 8B 10 6A 01 8B .:.....u.....j..
007BE060 CF FF D2 F6 C3 01 C6 44 24 20 02 74 2A 8B 4C 24 .......D$ .t*.L$
007BE070 34 85 C9 74 1A 8B F9 E8 64 3A C4 FF 83 F8 01 75 4..t....d:.....u
007BE080 0E 85 FF 74 0A 8B 07 8B 10 6A 01 8B CF FF D2 C7 ...t.....j......
007BE090 44 24 34 00 00 00 00 85 F6 8B 4C 24 2C 8B 54 24 D$4.......L$,.T$
007BE0A0 28 51 52 74 0C 8B 06 8B 40 04 55 8B CE FF D0 EB (QRt....@.U.....
007BE0B0 07 8B CD E8 58 DF FF FF 85 F6 C7 44 24 20 FF FF ....X......D$ ..
007BE0C0 FF FF 74 16 8B CE E8 15 3A C4 FF 83 F8 01 75 0A ..t.....:.....u.
007BE0D0 8B 06 8B 10 6A 01 8B CE FF D2 8B 4C 24 18 64 89 ....j......L$.d.
007BE0E0 0D 00 00 00 00 59 5F 5E 5D 5B 83 C4 10 C2 10 00 .....Y_^][......
007BE0F0 6A FF 68 01 1A 88 00 64 A1 00 00 00 00 50 83 EC j.h....d.....P..
007BE100 0C 53 55 56 57 A1 88 41 A1 00 33 C4 50 8D 44 24 .SUVW..A..3.P.D$
007BE110 20 64 A3 00 00 00 00 8B F1 33 ED 89 6C 24 18 8B  d.......3..l$..
007BE120 5E 10 0F B7 43 48 A8 08 74 32 8B 7E 04 8D 46 08 ^...CH..t2.~..F.
007BE130 50 8D 44 24 18 50 8D 8F D8 02 00 00 E8 2F 74 FF P.D$.P......./t.
007BE140 FF 8B BF DC 02 00 00 8B 44 24 14 3B C7 74 07 8B ........D$.;.t..
007BE150 40 14 8B C8 EB 08 33 C0 8B C8 EB 02 33 C9 80 7E @.....3.....3..~
007BE160 14 00 74 15 6A 01 51 53 8D 4E 08 51 8B 4E 04 E8 ..t.j.QS.N.Q.N..
007BE170 0C FE FF FF E9 DB 00 00 00 3B CD 74 15 8D 54 24 .........;.t..T$
007BE180 14 52 E8 F9 92 FF FF 8B 6C 24 14 BB 01 00 00 00 .R......l$......
007BE190 EB 0D 89 6C 24 14 8D 44 24 14 BB 02 00 00 00 8B ...l$..D$.......
007BE1A0 38 85 FF 89 7C 24 1C 74 07 8B CF E8 20 39 C4 FF 8...|$.t.... 9..
007BE1B0 F6 C3 02 C7 44 24 28 02 00 00 00 74 22 83 E3 FD ....D$(....t"...
007BE1C0 85 ED 89 5C 24 18 74 17 8B CD E8 11 39 C4 FF 83 ...\$.t.....9...
007BE1D0 F8 01 75 0B 8B 45 00 8B 10 6A 01 8B CD FF D2 F6 ..u..E...j......
007BE1E0 C3 01 C6 44 24 28 03 74 2A 8B 4C 24 14 85 C9 74 ...D$(.t*.L$...t
007BE1F0 1A 8B D9 E8 E8 38 C4 FF 83 F8 01 75 0E 85 DB 74 .....8.....u...t
007BE200 0A 8B 03 8B 10 6A 01 8B CB FF D2 C7 44 24 14 00 .....j......D$..
007BE210 00 00 00 85 FF 8B 46 10 8B 4E 04 50 8D 46 08 50 ......F..N.P.F.P
007BE220 74 0C 8B 17 8B 52 04 51 8B CF FF D2 EB 05 E8 DD t....R.Q........
007BE230 DD FF FF 85 FF C7 44 24 28 FF FF FF FF 74 15 8B ......D$(....t..
007BE240 CF E8 9A 38 C4 FF 83 F8 01 75 09 8B 17 50 8B 02 ...8.....u...P..
007BE250 8B CF FF D0 8B 16 8B 02 6A 01 8B CE FF D0 33 C0 ........j.....3.
007BE260 8B 4C 24 20 64 89 0D 00 00 00 00 59 5F 5E 5D 5B .L$ d......Y_^][
007BE270 83 C4 18 C2 08 00 CC CC CC CC CC CC CC CC CC CC ................
007BE280 83 EC 08 53 56 8B 74 24 14 83 46 18 01 8B 46 18 ...SV.t$..F...F.
007BE290 57 8B F9 8B 8F 08 05 00 00 3B C1 7F 32 8B 46 10 W........;..2.F.
007BE2A0 6A 01 50 8D 5E 04 53 8B CF E8 D2 F2 FF FF 84 C0 j.P.^.S.........
007BE2B0 0F 85 A5 00 00 00 8B 46 10 6A 01 6A 00 50 53 8B .......F.j.j.PS.
007BE2C0 CF E8 BA FC FF FF 5F 5E 5B 83 C4 08 C2 04 00 55 ......_^[......U
007BE2D0 56 8D 4C 24 20 8D 9F F4 04 00 00 51 8B CB E8 6D V.L$ ......Q...m
007BE2E0 76 FF FF 8B 6C 24 1C 3B AF F8 04 00 00 8B 46 0C v...l$.;......F.
007BE2F0 8D 4E 04 74 3C 8B 97 08 05 00 00 52 50 E8 0E 6E .N.t<......RP..n
007BE300 00 00 50 68 38 A6 98 00 E8 73 29 D6 FF 8B 4D 20 ..Ph8....s)...M 
007BE310 83 C4 10 55 8D 54 24 20 C7 41 10 02 00 00 00 52 ...U.T$ .A.....R
007BE320 8B CB E8 B9 BB FF FF 5D 5F 5E 5B 83 C4 08 C2 04 .......]_^[.....
007BE330 00 50 C7 44 24 14 00 00 00 00 C7 44 24 18 06 00 .P.D$......D$...
007BE340 00 00 E8 C9 6D 00 00 50 8D 4C 24 18 68 F0 A5 98 ....m..P.L$.h...
007BE350 00 51 E8 F9 18 E6 FF 83 C4 10 5D 5F 5E 5B 83 C4 .Q........]_^[..
007BE360 08 C2 04 00 CC CC CC CC CC CC CC CC CC CC CC CC ................
007BE370 51 8B 4C 24 0C E8 06 FF FF FF 33 C0 C2 08 00 CC Q.L$......3.....
007BE380 83 EC 30 53 55 56 57 8B F9 8D 8F 70 03 00 00 89 ..0SUVW....p....
007BE390 7C 24 10 E8 88 60 FF FF 8B 5C 24 48 8B CB E8 BD |$...`...\$H....
007BE3A0 60 00 00 8B 73 14 3B 73 18 0F 84 92 00 00 00 8D `...s.;s........
007BE3B0 6F 7C 81 7F 74 40 42 0F 00 7E 07 C7 47 74 01 00 o|..t@B..~..Gt..
007BE3C0 00 00 8B 5F 74 8D 43 01 6A 18 89 5C 24 34 89 47 ..._t.C.j..\$4.G
007BE3D0 74 E8 02 6C ED FF 33 FF 83 C4 04 3B C7 74 20 8B t..l..3....;.t .
007BE3E0 4E 04 8B 16 89 48 10 8B 4C 24 4C 89 78 08 C7 00 N....H..L$L.x...
007BE3F0 0C 98 98 00 89 58 04 89 50 0C 89 48 14 8B F8 8D .....X..P..H....
007BE400 54 24 30 52 8B CD E8 D5 B8 FF FF 83 7C 24 4C 00 T$0R........|$L.
007BE410 89 38 8B 46 0C 89 18 75 12 8B 4C 24 10 8B 56 08 .8.F...u..L$..V.
007BE420 51 57 52 E8 68 DA FF FF 89 47 08 8B 44 24 48 8B QWR.h....G..D$H.
007BE430 7C 24 10 83 C6 10 3B 70 18 0F 85 73 FF FF FF 8B |$....;p...s....
007BE440 D8 33 ED 8B CB 89 6C 24 18 E8 12 49 00 00 8B 73 .3....l$...I...s
007BE450 04 8B 53 4C 33 C9 3B F1 89 44 24 3C 89 6C 24 24 ..SL3.;..D$<.l$$
007BE460 89 6C 24 20 89 54 24 14 0F 84 0E 03 00 00 EB 04 .l$ .T$.........
007BE470 8B 54 24 14 80 BF A4 05 00 00 00 74 0A 83 46 10 .T$........t..F.
007BE480 04 66 81 4E 48 00 01 39 4C 24 4C 74 05 66 83 4E .f.NH..9L$Lt.f.N
007BE490 48 08 8B 46 10 01 46 0C 66 F7 46 48 00 01 8B 46 H..F..F.f.FH...F
007BE4A0 0C 89 4C 24 28 74 15 83 C0 FC 89 46 0C 89 4C 30 ..L$(t.....F..L0
007BE4B0 48 8B 46 0C 8D 44 30 48 89 44 24 28 F6 46 48 02 H.F..D0H.D$(.FH.
007BE4C0 0F 84 14 01 00 00 8B 4B 3C 8B 7E 0C 33 C0 3B 4B .......K<.~.3.;K
007BE4D0 40 89 7C 24 38 89 4C 24 1C 0F 84 E1 00 00 00 90 @.|$8.L$........
007BE4E0 8B 39 0F B7 47 0C 83 46 0C FE 8B 4E 0C 66 89 44 .9..G..F...N.f.D
007BE4F0 31 48 8B 5E 0C 0F BF 57 0C 8D 4C 33 48 2B DA 89 1H.^...W..L3H+..
007BE500 5E 0C 66 8B 47 04 8D 5C 33 48 66 89 03 8B 6F 14 ^.f.G..\3Hf...o.
007BE510 83 C3 02 3B 6F 18 89 4C 24 34 74 24 8D 64 24 00 ...;o..L$4t$.d$.
007BE520 0F B7 4D 04 8B 55 00 51 52 53 E8 01 6B ED FF 0F ..M..U.QRS..k...
007BE530 B7 45 04 83 C5 08 83 C4 0C 03 D8 3B 6F 18 75 E0 .E.........;o.u.
007BE540 8B 4F 08 89 0B F6 47 04 02 74 19 8B 07 0F B7 50 .O....G..t.....P
007BE550 2C 83 C0 28 8B 00 52 50 83 C3 04 53 E8 CF 6A ED ,..(..RP...S..j.
007BE560 FF 83 C4 0C 8B 44 24 10 83 80 14 03 00 00 01 80 .....D$.........
007BE570 B8 A6 05 00 00 00 74 20 0F BF 4F 0C 8B 57 08 51 ......t ..O..W.Q
007BE580 8B 4C 24 48 52 E8 86 6B 00 00 50 68 80 A6 98 00 .L$HR..k..Ph....
007BE590 E8 EB 26 D6 FF 83 C4 10 8B 4C 24 1C 8B 44 24 48 ..&......L$..D$H
007BE5A0 83 C1 04 3B 48 40 89 4C 24 1C 0F 85 30 FF FF FF ...;H@.L$...0...
007BE5B0 8B 44 24 34 8B 6C 24 18 8B 7C 24 38 8B 54 24 14 .D$4.l$..|$8.T$.
007BE5C0 66 8B 08 66 F7 D1 66 89 08 8B 46 0C 8D 4C 30 48 f..f..f...F..L0H
007BE5D0 66 2B F8 89 4E 28 66 89 7E 2C F6 46 48 80 BF FC f+..N(f.~,.FH...
007BE5E0 FF FF FF 74 28 8B 44 24 4C 8B 40 14 01 7E 0C 8B ...t(.D$L.@..~..
007BE5F0 4E 0C 89 46 34 89 44 31 48 8B 4C 24 4C 8B 41 28 N..F4.D1H.L$L.A(
007BE600 01 7E 0C 8B 4E 0C 89 46 38 89 44 31 48 F6 46 48 .~..N..F8.D1H.FH
007BE610 04 8B 5C 24 48 74 36 83 46 0C FF 8A 46 24 8B 4E ..\$Ht6.F...F$.N
007BE620 0C 88 44 31 48 3B 53 50 74 23 8D 9B 00 00 00 00 ..D1H;SPt#......
007BE630 39 32 75 15 8B 42 04 01 7E 0C 8B 4E 0C 83 C2 08 92u..B..~..N....
007BE640 89 44 31 48 3B 53 50 75 E7 89 54 24 14 0F B7 46 .D1H;SPu..T$...F
007BE650 48 A8 40 74 4B 8B 4C 24 4C 85 C9 74 0B A8 10 74 H.@tK.L$L..t...t
007BE660 07 E8 CA 6D 00 00 EB 13 8B 4C 24 10 8B 41 78 8D ...m.....L$..Ax.
007BE670 50 01 81 E2 FF FF FF 0F 89 51 78 01 7E 0C 8B 4E P........Qx.~..N
007BE680 0C 89 46 30 89 44 31 48 3B 73 04 75 13 8B 46 30 ..F0.D1H;s.u..F0
007BE690 8B 4C 24 3C 8D 54 08 FF 89 44 24 24 89 54 24 20 .L$<.T...D$$.T$ 
007BE6A0 F6 46 48 01 8D 46 48 74 10 0F B7 4E 18 83 46 0C .FH..FHt...N..F.
007BE6B0 FE 8B 56 0C 66 89 4C 32 48 F6 00 20 74 1C 01 7E ..V.f.L2H.. t..~
007BE6C0 0C 8B 4E 0C 8B 54 24 20 89 54 31 48 01 7E 0C 8B ..N..T$ .T1H.~..
007BE6D0 4E 0C 8B 54 24 24 89 54 31 48 66 F7 00 00 01 74 N..T$$.T1Hf....t
007BE6E0 1A 8B 54 24 28 33 C9 3B C2 73 0E EB 03 8D 49 00 ..T$(3.;.s....I.
007BE6F0 33 08 83 C0 04 3B C2 72 F7 89 0A F6 46 48 10 74 3....;.r....FH.t
007BE700 66 8B 44 24 4C 33 C9 3B C1 74 49 39 48 10 75 0A f.D$L3.;.tI9H.u.
007BE710 89 4C 24 2C 89 4C 24 30 EB 12 8D 44 24 2C 50 8D .L$,.L$0...D$,P.
007BE720 4C 24 34 51 56 8B CB E8 94 46 00 00 8B 54 24 2C L$4QV....F...T$,
007BE730 8B 44 24 30 8B 4E 30 52 50 56 51 8B 4C 24 5C E8 .D$0.N0RPVQ.L$\.
007BE740 0C 86 00 00 84 C0 75 1F 85 ED 75 1B 89 74 24 18 ......u...u..t$.
007BE750 8B EE EB 13 8B 56 30 8B 44 24 44 8B 4C 24 10 56 .....V0.D$D.L$.V
007BE760 52 50 E8 39 EF FF FF 8B 76 08 8B 5C 24 48 8B 7C RP.9....v..\$H.|
007BE770 24 10 33 C9 3B F1 0F 85 F4 FC FF FF 8B 73 04 3B $.3.;........s.;
007BE780 F5 74 1B 8B 4C 24 4C 8B 54 24 44 6A 00 51 56 52 .t..L$L.T$Dj.QVR
007BE790 8B CF E8 E9 F7 FF FF 8B 76 08 3B F5 75 E5 6A 01 ........v.;.u.j.
007BE7A0 8D 8F 70 03 00 00 E8 85 5C FF FF 83 87 28 03 00 ..p.....\....(..
007BE7B0 00 01 8B 43 70 01 87 30 03 00 00 8B 4B 24 85 C9 ...Cp..0....K$..
007BE7C0 75 12 33 C0 01 87 34 03 00 00 5F 5E 5D 5B 83 C4 u.3...4..._^][..
007BE7D0 30 C2 0C 00 8B 43 28 2B C1 C1 F8 03 01 87 34 03 0....C(+......4.
007BE7E0 00 00 5F 5E 5D 5B 83 C4 30 C2 0C 00 CC CC CC CC .._^][..0.......
007BE7F0 55 8B EC 6A FF 68 7E 1A 88 00 64 A1 00 00 00 00 U..j.h~...d.....
007BE800 50 81 EC A0 00 00 00 53 56 57 A1 88 41 A1 00 33 P......SVW..A..3
007BE810 C5 50 8D 45 F4 64 A3 00 00 00 00 89 65 F0 8B D9 .P.E.d......e...
007BE820 89 5D E0 8B 8B D4 02 00 00 85 C9 8B 75 0C 74 0C .]..........u.t.
007BE830 8B 01 8B 55 08 8B 40 08 56 52 FF D0 0F B7 46 48 ...U..@.VR....FH
007BE840 8D 7E 48 0F B7 C8 0F B7 C9 F7 C1 00 FC FF FF 89 .~H.............
007BE850 7D E4 74 46 80 BB 14 05 00 00 00 75 1D 8B 4D 08 }.tF.......u..M.
007BE860 0F B7 C0 0F B7 D0 52 E8 A4 68 00 00 50 68 28 AE ......R..h..Ph(.
007BE870 98 00 E8 09 24 D6 FF 83 C4 0C 83 83 48 03 00 00 ....$.......H...
007BE880 01 B8 FC FF FF FF 8B 4D F4 64 89 0D 00 00 00 00 .......M.d......
007BE890 59 5F 5E 5B 8B E5 5D C2 08 00 0F B7 C0 A8 08 75 Y_^[..]........u
007BE8A0 07 83 83 24 03 00 00 01 80 BB 14 05 00 00 00 74 ...$...........t
007BE8B0 40 0F B7 07 A9 00 02 00 00 74 36 8B 4D 08 E8 4D @........t6.M..M
007BE8C0 68 00 00 50 68 D8 AD 98 00 E8 B2 23 D6 FF 83 C4 h..Ph......#....
007BE8D0 08 83 83 48 03 00 00 01 B8 FC FF FF FF 8B 4D F4 ...H..........M.
007BE8E0 64 89 0D 00 00 00 00 59 5F 5E 5B 8B E5 5D C2 08 d......Y_^[..]..
007BE8F0 00 8B 46 0C 8B 4E 10 03 C1 83 F8 02 7F 37 8B 4D ..F..N.......7.M
007BE900 08 50 E8 09 68 00 00 50 68 90 AD 98 00 E8 6E 23 .P..h..Ph.....n#
007BE910 D6 FF 83 C4 0C 83 83 48 03 00 00 01 B8 FC FF FF .......H........
007BE920 FF 8B 4D F4 64 89 0D 00 00 00 00 59 5F 5E 5B 8B ..M.d......Y_^[.
007BE930 E5 5D C2 08 00 0F B7 07 A9 00 01 00 00 0F 84 CE .]..............
007BE940 00 00 00 8D 46 44 50 8B CE E8 A2 5C FF FF 84 C0 ....FDP....\....
007BE950 75 3D 8B 46 0C 03 46 10 8B 4D 08 50 E8 AF 67 00 u=.F..F..M.P..g.
007BE960 00 50 68 40 AD 98 00 E8 14 23 D6 FF 83 C4 0C 83 .Ph@.....#......
007BE970 83 48 03 00 00 01 B8 FC FF FF FF 8B 4D F4 64 89 .H..........M.d.
007BE980 0D 00 00 00 00 59 5F 5E 5B 8B E5 5D C2 08 00 8B .....Y_^[..]....
007BE990 56 0C 33 C9 89 4C 32 48 8B 56 0C 8B C7 8D 54 32 V.3..L2H.V....T2
007BE9A0 48 3B C2 73 14 8B 7E 0C 8D 7C 37 48 8D 64 24 00 H;.s..~..|7H.d$.
007BE9B0 33 08 83 C0 04 3B C7 72 F7 8B 46 44 89 02 8B 7E 3....;.r..FD...~
007BE9C0 44 3B CF 74 49 8B 46 0C 03 46 10 8B 55 E4 0F B7 D;.tI.F..F..U...
007BE9D0 12 57 51 8B 4D 08 50 0F B7 C2 50 E8 30 67 00 00 .WQ.M.P...P.0g..
007BE9E0 50 68 D8 AC 98 00 E8 95 22 D6 FF 83 C4 18 83 83 Ph......".......
007BE9F0 48 03 00 00 01 B8 FC FF FF FF 8B 4D F4 64 89 0D H..........M.d..
007BEA00 00 00 00 00 59 5F 5E 5B 8B E5 5D C2 08 00 8B 7D ....Y_^[..]....}
007BEA10 E4 0F B7 07 A8 02 0F 84 75 01 00 00 C6 45 EB 00 ........u....E..
007BEA20 80 7D EB 00 0F 85 67 01 00 00 8B 46 0C 83 C0 FE .}....g....F....
007BEA30 83 F8 02 7C 62 83 46 10 02 89 46 0C 0F B7 4C 30 ...|b.F...F...L0
007BEA40 48 66 85 C9 7D 09 F7 D1 0F B7 C9 C6 45 EB 01 0F Hf..}.......E...
007BEA50 BF C9 8D 50 FE 3B D1 89 4D E4 7D 72 83 C0 FE 50 ...P.;..M.}r...P
007BEA60 51 8B 4D 08 E8 A7 66 00 00 50 68 60 AC 98 00 E8 Q.M...f..Ph`....
007BEA70 0C 22 D6 FF 83 C4 10 83 83 48 03 00 00 01 B8 FC .".......H......
007BEA80 FF FF FF 8B 4D F4 64 89 0D 00 00 00 00 59 5F 5E ....M.d......Y_^
007BEA90 5B 8B E5 5D C2 08 00 8B 4D 08 50 E8 70 66 00 00 [..]....M.P.pf..
007BEAA0 50 68 08 AC 98 00 E8 D5 21 D6 FF 83 C4 0C 83 83 Ph......!.......
007BEAB0 48 03 00 00 01 B8 FC FF FF FF 8B 4D F4 64 89 0D H..........M.d..
007BEAC0 00 00 00 00 59 5F 5E 5B 8B E5 5D C2 08 00 6A 48 ....Y_^[..]...jH
007BEAD0 E8 4B 5E FF FF 83 C4 04 89 45 DC 85 C0 C7 45 FC .K^......E....E.
007BEAE0 00 00 00 00 74 0E 8B C8 E8 03 3F 00 00 8B F8 89 ....t.....?.....
007BEAF0 45 DC EB 05 33 FF 89 7D DC 85 FF 89 7D EC 74 04 E...3..}....}.t.
007BEB00 83 47 04 01 8B 4D E4 29 4E 0C 8B 46 0C 51 8D 44 .G...M.)N..F.Q.D
007BEB10 30 48 50 8D 4F 48 51 C7 45 FC 01 00 00 00 E8 0D 0HP.OHQ.E.......
007BEB20 65 ED FF 8B 45 08 8B 55 E4 83 C4 0C 57 50 8B CB e...E..U....WP..
007BEB30 89 57 0C C6 45 FC 02 E8 B4 FC FF FF EB 35 8B 4D .W..E........5.M
007BEB40 D0 8B 41 04 50 E8 26 30 C9 FF 8B 4D 08 83 C4 04 ..A.P.&0...M....
007BEB50 50 E8 BA 65 00 00 50 68 A8 AB 98 00 E8 1F 21 D6 P..e..Ph......!.
007BEB60 FF 83 C4 0C B8 6A EB 7B 00 C3 8B 5D E0 8B 75 0C .....j.{...]..u.
007BEB70 8B 7D DC 83 C8 FF 01 47 04 89 45 FC 0F 85 9E FE .}.....G..E.....
007BEB80 FF FF 8B 17 8B 02 6A 01 8B CF FF D0 E9 8F FE FF ......j.........
007BEB90 FF C7 45 EC 00 00 00 00 0F B7 46 48 84 C0 B9 04 ..E.......FH....
007BEBA0 00 00 00 89 4D FC C6 45 0F 00 0F 89 15 01 00 00 ....M..E........
007BEBB0 83 BB E4 02 00 00 00 75 36 8B 4D 08 E8 4F 65 00 .......u6.M..Oe.
007BEBC0 00 50 68 50 AB 98 00 E8 B4 20 D6 FF 83 C4 08 83 .PhP..... ......
007BEBD0 83 48 03 00 00 01 B8 FC FF FF FF 8B 4D F4 64 89 .H..........M.d.
007BEBE0 0D 00 00 00 00 59 5F 5E 5B 8B E5 5D C2 08 00 8B .....Y_^[..]....
007BEBF0 46 0C 8D 50 FE 3B D1 0F 8C 49 01 00 00 01 4E 10 F..P.;...I....N.
007BEC00 83 C0 FC 89 46 0C 8B 44 30 48 8D 4E 38 51 8B CE ....F..D0H.N8Q..
007BEC10 89 46 34 E8 D8 59 FF FF 84 C0 0F 84 26 01 00 00 .F4..Y......&...
007BEC20 8B 8B E4 02 00 00 8D 45 EB 50 8B 46 34 C6 45 EB .......E.P.F4.E.
007BEC30 00 8B 11 8B 52 04 56 50 FF D2 85 C0 89 45 E4 74 ....R.VP.....E.t
007BEC40 04 83 40 08 01 8D 45 E4 50 8D 4D EC C6 45 FC 05 ..@...E.P.M..E..
007BEC50 E8 0B 61 FF FF 8D 4D E4 C6 45 FC 04 E8 6F 5F FF ..a...M..E...o_.
007BEC60 FF 80 7D EB 00 0F 85 D0 03 00 00 8B 7D EC 85 FF ..}.........}...
007BEC70 75 3D 8B 4E 34 51 8D 8B 6C 05 00 00 E8 7F DF 00 u=.N4Q..l.......
007BEC80 00 85 C0 89 45 E4 74 04 83 40 08 01 8D 55 E4 52 ....E.t..@...U.R
007BEC90 8D 4D EC C6 45 FC 06 E8 C4 60 FF FF 8D 4D E4 C6 .M..E....`...M..
007BECA0 45 FC 04 E8 28 5F FF FF 8B 7D EC 85 FF 74 4E 8B E...(_...}...tN.
007BECB0 46 0C 03 46 10 8B CF 50 E8 23 68 00 00 85 FF 0F F..F...P.#h.....
007BECC0 85 39 01 00 00 0F B7 46 48 A8 08 0F 84 64 01 00 .9.....FH....d..
007BECD0 00 8B 55 08 52 8D 45 E0 50 8D 8B D8 02 00 00 E8 ..U.R.E.P.......
007BECE0 8C 68 FF FF 8B 83 DC 02 00 00 8B 4D E0 3B C8 0F .h.........M.;..
007BECF0 84 8E 00 00 00 8B 79 14 E9 88 00 00 00 8B 4E 34 ......y.......N4
007BED00 51 8B 4D 08 E8 07 64 00 00 50 68 00 AB 98 00 E8 Q.M...d..Ph.....
007BED10 6C 1F D6 FF 83 C4 0C 83 83 48 03 00 00 01 8D 4D l........H.....M
007BED20 EC C7 45 FC FF FF FF FF E8 A3 5E FF FF B8 FC FF ..E.......^.....
007BED30 FF FF 8B 4D F4 64 89 0D 00 00 00 00 59 5F 5E 5B ...M.d......Y_^[
007BED40 8B E5 5D C2 08 00 8B 76 0C 8B 4D 08 83 EE 02 56 ..]....v..M....V
007BED50 E8 BB 63 00 00 50 68 A0 AA 98 00 E8 20 1F D6 FF ..c..Ph..... ...
007BED60 83 C4 0C 83 83 48 03 00 00 01 B8 FC FF FF FF 8B .....H..........
007BED70 4D F4 64 89 0D 00 00 00 00 59 5F 5E 5B 8B E5 5D M.d......Y_^[..]
007BED80 C2 08 00 33 FF 85 FF 89 7D E0 74 04 83 47 08 01 ...3....}.t..G..
007BED90 8D 4D E0 51 8D 4D EC C6 45 FC 08 E8 C0 5F FF FF .M.Q.M..E...._..
007BEDA0 85 FF C6 45 FC 04 74 11 83 47 08 FF 8D 4F 04 75 ...E..t..G...O.u
007BEDB0 08 8B 11 8B 02 6A 01 FF D0 8B 7D EC 85 FF 75 3E .....j....}...u>
007BEDC0 8B 4D 08 E8 48 63 00 00 50 68 48 AA 98 00 E8 AD .M..Hc..PhH.....
007BEDD0 1E D6 FF 83 C4 08 8D 4D EC C7 45 FC FF FF FF FF .......M..E.....
007BEDE0 E8 EB 5D FF FF B8 FD FF FF FF 8B 4D F4 64 89 0D ..]........M.d..
007BEDF0 00 00 00 00 59 5F 5E 5B 8B E5 5D C2 08 00 80 BF ....Y_^[..].....
007BEE00 C0 00 00 00 00 74 0F 8B CF E8 42 63 00 00 50 68 .....t....Bc..Ph
007BEE10 F0 A9 98 00 EB B8 80 BF CD 00 00 00 00 74 16 0F .............t..
007BEE20 B7 46 48 0F B7 C8 F7 C1 00 02 00 00 74 3C C6 87 .FH.........t<..
007BEE30 CD 00 00 00 00 0F B7 46 48 A8 04 0F 84 42 01 00 .......FH....B..
007BEE40 00 8D 7E 24 57 8B CE E8 D4 57 FF FF 84 C0 75 3B ..~$W....W....u;
007BEE50 8B 76 0C 8B 4D 08 83 EE 02 56 E8 B1 62 00 00 50 .v..M....V..b..P
007BEE60 68 98 A9 98 00 E9 A5 FE FF FF 0F B7 C0 0F B7 C8 h...............
007BEE70 51 8B CF E8 D8 62 00 00 50 68 30 A9 98 00 E8 FD Q....b..Ph0.....
007BEE80 1D D6 FF 83 C4 0C E9 4B FF FF FF 8A 07 84 C0 75 .......K.......u
007BEE90 1B 8B 4D 08 E8 77 62 00 00 50 68 E8 A8 98 00 E8 ..M..wb..Ph.....
007BEEA0 DC 1D D6 FF 83 C4 08 E9 6B FE FF FF 8B 7E 0C 0F ........k....~..
007BEEB0 B6 C0 8D 0C 85 00 00 00 00 8D 57 FE 3B D1 7D 1E ..........W.;.}.
007BEEC0 51 8B 4D 08 52 50 E8 45 62 00 00 50 68 88 A8 98 Q.M.RP.Eb..Ph...
007BEED0 00 E8 AA 1D D6 FF 83 C4 14 E9 39 FE FF FF 83 7D ..........9....}
007BEEE0 EC 00 74 4B 33 FF 85 C0 0F 86 95 00 00 00 8B FF ..tK3...........
007BEEF0 8D 55 E4 52 8B CE E8 F5 56 FF FF 8B 45 E4 8B 4D .U.R....V...E..M
007BEF00 EC 50 E8 A9 75 00 00 84 C0 74 0D 0F B6 4E 24 83 .P..u....t...N$.
007BEF10 C7 01 3B F9 72 DA EB 6B 8B 55 E4 8B 4D 08 52 E8 ..;.r..k.U..M.R.
007BEF20 EC 61 00 00 50 68 40 A8 98 00 E9 E0 FD FF FF 0F .a..Ph@.........
007BEF30 B7 56 48 F6 C2 08 75 2F 33 FF 85 C0 76 45 8B FF .VH...u/3...vE..
007BEF40 8D 45 E0 50 8B CE E8 A5 56 FF FF 8B 4D E0 8B 55 .E.P....V...M..U
007BEF50 08 51 52 8B CB E8 E6 C6 FF FF 0F B6 46 24 83 C7 .QR.........F$..
007BEF60 01 3B F8 72 DB EB 1C 2B F9 8B 4D 08 50 89 7E 0C .;.r...+..M.P.~.
007BEF70 E8 9B 61 00 00 50 68 F8 A7 98 00 E8 00 1D D6 FF ..a..Ph.........
007BEF80 83 C4 0C 0F B7 46 48 A8 40 74 29 8D 4E 30 51 8B .....FH.@t).N0Q.
007BEF90 CE E8 5A 56 FF FF 84 C0 75 1A 8B 76 0C 8B 4D 08 ..ZV....u..v..M.
007BEFA0 83 EE 02 56 E8 67 61 00 00 50 68 98 A7 98 00 E9 ...V.ga..Ph.....
007BEFB0 5B FD FF FF 0F B7 46 48 A8 10 0F 84 23 01 00 00 [.....FH....#...
007BEFC0 8B 46 30 3D 00 00 00 10 75 1B 8B 4D 08 E8 3E 61 .F0=....u..M..>a
007BEFD0 00 00 50 68 18 A7 98 00 E8 A3 1C D6 FF 83 C4 08 ..Ph............
007BEFE0 E9 32 FD FF FF 8B 7D EC 85 FF 74 74 8B 55 08 52 .2....}...tt.U.R
007BEFF0 50 56 8D 45 D4 50 8B CF E8 63 7E 00 00 80 BF B8 PV.E.P...c~.....
007BF000 00 00 00 00 74 04 C6 45 0F 01 83 7D D4 00 0F 85 ....t..E...}....
007BF010 CF 00 00 00 80 7D D8 00 0F 84 F9 FC FF FF 8B 4D .....}.........M
007BF020 EC 83 83 20 03 00 00 01 83 79 3C 00 74 0D 80 7D ... .....y<.t..}
007BF030 0F 00 74 07 6A 00 E8 05 7C 00 00 8D 4D EC C7 45 ..t.j...|...M..E
007BF040 FC FF FF FF FF E8 86 5B FF FF 33 C0 8B 4D F4 64 .......[..3..M.d
007BF050 89 0D 00 00 00 00 59 5F 5E 5B 8B E5 5D C2 08 00 ......Y_^[..]...
007BF060 80 BB 14 05 00 00 00 74 1B 8B 4D 08 E8 9F 60 00 .......t..M...`.
007BF070 00 50 68 C8 A6 98 00 E8 04 1C D6 FF 83 C4 08 E9 .Ph.............
007BF080 93 FC FF FF 6A 00 6A 00 8D 8D 54 FF FF FF E8 0D ....j.j...T.....
007BF090 50 00 00 8B 4E 30 51 8D 8D 54 FF FF FF C6 45 FC P...N0Q..T....E.
007BF0A0 09 E8 4A 57 00 00 8B 7D 08 6A 00 8D 95 54 FF FF ..JW...}.j...T..
007BF0B0 FF 52 57 8B CB E8 C6 F2 FF FF 8B 46 30 50 57 8B .RW........F0PW.
007BF0C0 CB E8 8A DD FF FF 84 C0 C6 45 FC 04 8D 8D 54 FF .........E....T.
007BF0D0 FF FF 74 0A E8 87 4D 00 00 E9 5D FF FF FF E8 7D ..t...M...]....}
007BF0E0 4D 00 00 33 C9 8B FE BA 01 00 00 00 01 56 04 89 M..3.........V..
007BF0F0 4D E4 89 7D E0 89 4D DC C6 45 FC 0B EB 0A 8B FF M..}..M..E......
007BF100 8B 4D DC BA 01 00 00 00 8B 45 EC 85 C0 74 0D 80 .M.......E...t..
007BF110 B8 B9 00 00 00 00 0F 85 C0 00 00 00 8B 77 08 85 .............w..
007BF120 F6 89 75 D8 74 03 01 56 04 3B CE C6 45 FC 0C 74 ..u.t..V.;..E..t
007BF130 1C 85 F6 89 75 DC 74 03 01 56 04 85 C9 74 0E 83 ....u.t..V...t..
007BF140 41 04 FF 75 08 8B 11 8B 02 6A 01 FF D0 85 F6 C6 A..u.....j......
007BF150 45 FC 0B 74 10 83 46 04 FF 75 0A 8B 16 8B 02 6A E..t..F..u.....j
007BF160 01 8B CE FF D0 C7 45 D8 00 00 00 00 8B 4F 08 85 ......E......O..
007BF170 C9 C6 45 FC 0D 74 15 C7 47 08 00 00 00 00 83 41 ..E..t..G......A
007BF180 04 FF 75 08 8B 11 8B 02 6A 01 FF D0 8B 4D EC 8B ..u.....j....M..
007BF190 55 08 51 57 52 8B CB C6 45 FC 0B E8 D0 D0 FF FF U.QWR...E.......
007BF1A0 83 7D E4 00 75 03 89 45 E4 8B 45 DC 3B F8 74 21 .}..u..E..E.;.t!
007BF1B0 85 C0 8B CF 8B F8 89 7D E0 74 04 83 40 04 01 85 .......}.t..@...
007BF1C0 C9 74 0E 83 41 04 FF 75 08 8B 01 8B 10 6A 01 FF .t..A..u.....j..
007BF1D0 D2 85 FF 0F 85 27 FF FF FF 8B 45 EC 85 C0 74 34 .....'....E...t4
007BF1E0 8B 75 EC 8B CE E8 86 4E FF FF 84 C0 75 26 38 45 .u.....N....u&8E
007BF1F0 0F 74 21 83 7E 3C 00 74 1B 8B CE E8 40 5F 00 00 .t!.~<.t....@_..
007BF200 83 C0 04 8B 00 80 78 24 00 76 09 6A 00 8B CE E8 ......x$.v.j....
007BF210 2C 7A 00 00 8D 4D DC C6 45 FC 0A E8 B0 5B E7 FF ,z...M..E....[..
007BF220 8D 4D E0 C6 45 FC 04 E8 A4 5B E7 FF 8D 4D EC C7 .M..E....[...M..
007BF230 45 FC FF FF FF FF E8 95 59 FF FF 8B 45 E4 8B 4D E.......Y...E..M
007BF240 F4 64 89 0D 00 00 00 00 59 5F 5E 5B 8B E5 5D C2 .d......Y_^[..].
007BF250 08 00 CC CC CC CC CC CC CC CC CC CC CC CC CC CC ................
007BF260 6A FF 68 A8 1A 88 00 64 A1 00 00 00 00 50 51 53 j.h....d.....PQS
007BF270 55 56 57 A1 88 41 A1 00 33 C4 50 8D 44 24 18 64 UVW..A..3.P.D$.d
007BF280 A3 00 00 00 00 8B F9 C7 44 24 14 00 00 00 00 80 ........D$......
007BF290 BF A5 05 00 00 00 8B 6C 24 2C 74 22 0F B7 45 48 .......l$,t"..EH
007BF2A0 0F B7 C8 F6 C1 08 74 16 0F B7 C8 F7 C1 00 02 00 ......t.........
007BF2B0 00 74 0B 0F B7 C0 84 C0 78 04 B0 01 EB 02 32 C0 .t......x.....2.
007BF2C0 8B 5C 24 28 50 53 8B CF E8 43 84 FF FF 8B F0 85 .\$(PS...C......
007BF2D0 F6 0F 84 AE 00 00 00 8B 45 10 03 45 0C 8B CE 50 ........E..E...P
007BF2E0 E8 FB 61 00 00 8D 4C 24 14 51 8B CE E8 8F 81 FF ..a...L$.Q......
007BF2F0 FF 83 38 00 74 0E 80 BE C0 00 00 00 00 C6 44 24 ..8.t.........D$
007BF300 28 01 74 05 C6 44 24 28 00 8B 4C 24 14 85 C9 74 (.t..D$(..L$...t
007BF310 1E 8B E9 E8 C8 27 C4 FF 83 F8 01 75 0E 85 ED 74 .....'.....u...t
007BF320 0A 8B 55 00 50 8B 02 8B CD FF D0 8B 6C 24 2C 80 ..U.P.......l$,.
007BF330 7C 24 28 00 74 4F 8D 4C 24 2C 51 8B CE E8 3E 81 |$(.tO.L$,Q...>.
007BF340 FF FF 8B 08 8B 11 8B 42 08 55 53 57 C7 44 24 2C .......B.USW.D$,
007BF350 00 00 00 00 FF D0 8B 4C 24 2C 85 C9 8B F8 C7 44 .......L$,.....D
007BF360 24 20 FF FF FF FF 74 19 8B F1 E8 71 27 C4 FF 83 $ ....t....q'...
007BF370 F8 01 75 0D 85 F6 74 09 8B 16 50 8B 02 8B CE FF ..u...t...P.....
007BF380 D0 8B C7 EB 46 80 BF 14 05 00 00 00 74 34 53 8D ....F.......t4S.
007BF390 4C 24 2C 51 8D 8F 3C 05 00 00 E8 D1 61 FF FF 8B L$,Q..<.....a...
007BF3A0 10 3B 97 40 05 00 00 74 19 8B CB E8 60 5D 00 00 .;.@...t....`]..
007BF3B0 50 68 70 AE 98 00 E8 C5 18 D6 FF 83 C4 08 33 C0 Php...........3.
007BF3C0 EB 09 55 53 8B CF E8 25 F4 FF FF 8B 4C 24 18 64 ..US...%....L$.d
007BF3D0 89 0D 00 00 00 00 59 5F 5E 5D 5B 83 C4 10 C2 08 ......Y_^][.....
007BF3E0 00 CC CC CC CC CC CC CC CC CC CC CC CC CC CC CC ................
007BF3F0 55 8B EC 6A FF 68 EB 1A 88 00 64 A1 00 00 00 00 U..j.h....d.....
007BF400 50 83 EC 38 53 56 57 A1 88 41 A1 00 33 C5 50 8D P..8SVW..A..3.P.
007BF410 45 F4 64 A3 00 00 00 00 89 65 F0 8B F1 89 75 E8 E.d......e....u.
007BF420 E8 0B C1 FF FF 8B 46 50 85 C0 8D 5E 4C 0F 84 FE ......FP...^L...
007BF430 00 00 00 8B 4B 08 2B C8 C1 F9 02 0F 84 F0 00 00 ....K.+.........
007BF440 00 8B 4E 50 0F 31 8B 09 8B 79 04 3B FA 72 17 77 ..NP.1...y.;.r.w
007BF450 06 8B 11 3B D0 76 0F 8B 46 50 8B 00 83 78 10 02 ...;.v..FP...x..
007BF460 0F 85 CB 00 00 00 80 BE A6 00 00 00 00 0F 85 BE ................
007BF470 00 00 00 8B 46 50 8B 38 8B CB 89 7D EC E8 FE A7 ....FP.8...}....
007BF480 FF FF 83 7F 10 02 74 36 C7 47 10 01 00 00 00 89 ......t6.G......
007BF490 7E 60 8B 4F 18 8B 47 14 8B 11 8B 52 04 50 57 C7 ~`.O..G....R.PW.
007BF4A0 45 FC 00 00 00 00 FF D2 8B 47 08 0B 47 0C C7 45 E........G..G..E
007BF4B0 FC FF FF FF FF 75 07 C7 47 10 02 00 00 00 33 C0 .....u..G.....3.
007BF4C0 89 46 60 83 7F 10 02 89 7D EC 75 39 57 E8 F4 5A .F`.....}.u9W..Z
007BF4D0 ED FF 83 C4 04 83 86 70 04 00 00 01 E9 44 FF FF .......p.....D..
007BF4E0 FF 8B 45 EC 8B 48 08 0B 48 0C 75 07 C7 40 10 02 ..E..H..H.u..@..
007BF4F0 00 00 00 8B 4D E8 50 E8 D4 C6 FF FF 6A 00 6A 00 ....M.P.....j.j.
007BF500 E8 C7 5A ED FF 8B 57 08 01 17 8B 4F 0C 8D 55 EC ..Z...W....O..U.
007BF510 11 4F 04 52 8B CB 89 47 10 E8 12 C3 FF FF 83 86 .O.R...G........
007BF520 74 04 00 00 01 83 86 70 04 00 00 01 E9 F4 FE FF t......p........
007BF530 FF 0F 31 8B DA 8B F8 E8 E4 75 E6 FF 2B BE E8 02 ..1......u..+...
007BF540 00 00 1B 9E EC 02 00 00 3B DA 0F 82 D4 00 00 00 ........;.......
007BF550 77 08 3B F8 0F 82 CA 00 00 00 8D BE F4 02 00 00 w.;.............
007BF560 57 8D 9E F0 02 00 00 53 8D 4E 0C E8 20 06 00 00 W......S.N.. ...
007BF570 8B 03 3B 86 F8 02 00 00 7E 15 3D 00 00 02 00 7E ..;.....~.=....~
007BF580 0E 50 68 78 AF 98 00 E8 F4 16 D6 FF 83 C4 08 8B .Phx............
007BF590 07 3B 86 FC 02 00 00 7E 15 3D 00 00 10 00 7E 0E .;.....~.=....~.
007BF5A0 50 68 4C AF 98 00 E8 D5 16 D6 FF 83 C4 08 8B 0B PhL.............
007BF5B0 3B 8E F8 02 00 00 8D 86 F8 02 00 00 7D 02 8B D8 ;...........}...
007BF5C0 8B 13 89 10 8B 0F 3B 8E FC 02 00 00 8D 86 FC 02 ......;.........
007BF5D0 00 00 7D 02 8B F8 8B 17 8B 8E 4C 04 00 00 89 10 ..}.......L.....
007BF5E0 8B 86 48 04 00 00 8B 96 38 04 00 00 03 96 30 04 ..H.....8.....0.
007BF5F0 00 00 89 86 40 04 00 00 8B 86 3C 04 00 00 13 86 ....@.....<.....
007BF600 34 04 00 00 89 8E 44 04 00 00 89 96 48 04 00 00 4.....D.....H...
007BF610 89 86 4C 04 00 00 0F 31 89 86 E8 02 00 00 89 96 ..L....1........
007BF620 EC 02 00 00 8D 8E D0 03 00 00 89 4D EC E8 EE 4D ...........M...M
007BF630 FF FF 8D BE 00 04 00 00 8B CF E8 E1 4D FF FF 8B ............M...
007BF640 8E 88 00 00 00 83 86 50 04 00 00 01 8D 55 DC 52 .......P.....U.R
007BF650 8D 46 0C 50 E8 67 34 00 00 8B D8 85 DB 0F 9F C1 .F.P.g4.........
007BF660 51 8B CF E8 C8 4D FF FF 85 DB 0F 8E 6B 01 00 00 Q....M......k...
007BF670 8D 43 1C 01 86 3C 03 00 00 8B 86 88 00 00 00 B9 .C...<..........
007BF680 01 00 00 00 01 8E 54 04 00 00 01 8E 1C 03 00 00 ......T.........
007BF690 8D 53 1C 01 96 08 03 00 00 85 C0 89 45 E8 74 03 .S..........E.t.
007BF6A0 01 48 04 8B 0D D0 EC A6 00 8B 3D E4 B7 98 00 6A .H........=....j
007BF6B0 FF 51 C7 45 FC 02 00 00 00 83 C7 48 FF 15 F4 40 .Q.E.......H...@
007BF6C0 8A 00 A1 C8 EC A6 00 85 C0 C6 05 D4 EC A6 00 01 ................
007BF6D0 74 0A 8B 10 89 15 C8 EC A6 00 EB 10 57 E8 A7 54 t...........W..T
007BF6E0 ED FF 83 C4 04 83 05 CC EC A6 00 01 8B F8 A1 D0 ................
007BF6F0 EC A6 00 50 C6 05 D4 EC A6 00 00 FF 15 F0 40 8A ...P..........@.
007BF700 00 89 7D E4 85 FF C6 45 FC 03 74 0B 8B CF E8 DD ..}....E..t.....
007BF710 32 00 00 8B F8 EB 02 33 FF 85 FF 89 7D E4 74 04 2......3....}.t.
007BF720 83 47 04 01 8B 8E 88 00 00 00 3B CF C6 45 FC 04 .G........;..E..
007BF730 74 20 85 FF 89 BE 88 00 00 00 74 04 83 47 04 01 t ........t..G..
007BF740 85 C9 74 0E 83 41 04 FF 75 08 8B 11 8B 02 6A 01 ..t..A..u.....j.
007BF750 FF D0 85 FF C6 45 FC 02 74 10 83 47 04 FF 75 0A .....E..t..G..u.
007BF760 8B 17 8B 02 6A 01 8B CF FF D0 8B 7D E8 57 8D 4D ....j......}.W.M
007BF770 DC 51 8B CE 89 5F 0C E8 E4 FA FF FF 8B 4D EC 6A .Q..._.......M.j
007BF780 01 8B F0 E8 A8 4C FF FF 85 F6 74 24 8B 55 DC 8B .....L....t$.U..
007BF790 45 E0 68 D0 84 9F 00 8D 4D BC 51 89 75 C0 C7 45 E.h.....M.Q.u..E
007BF7A0 BC C8 97 98 00 89 55 C4 89 45 C8 E8 1C 58 ED FF ......U..E...X..
007BF7B0 83 C8 FF 01 47 04 89 45 FC 75 0A 8B 17 8B 02 6A ....G..E.u.....j
007BF7C0 01 8B CF FF D0 B0 01 8B 4D F4 64 89 0D 00 00 00 ........M.d.....
007BF7D0 00 59 5F 5E 5B 8B E5 5D C2 04 00 8B 4D EC 6A 00 .Y_^[..]....M.j.
007BF7E0 E8 4B 4C FF FF 83 FB FF 74 40 83 86 58 04 00 00 .KL.....t@..X...
007BF7F0 01 FF 15 E4 46 8A 00 8B 08 51 FF 15 2C 47 8A 00 ....F....Q..,G..
007BF800 50 68 08 AF 98 00 E8 75 14 D6 FF 83 C4 0C 68 C0 Ph.....u......h.
007BF810 84 9F 00 8D 55 D4 52 C7 45 D4 C0 97 98 00 C7 45 ....U.R.E......E
007BF820 D8 FD FF FF FF E8 A2 57 ED FF E8 B9 60 ED FF 3D .......W....`..=
007BF830 33 27 00 00 75 16 32 C0 8B 4D F4 64 89 0D 00 00 3'..u.2..M.d....
007BF840 00 00 59 5F 5E 5B 8B E5 5D C2 04 00 83 86 58 04 ..Y_^[..].....X.
007BF850 00 00 01 3D 46 27 00 00 0F 84 67 FF FF FF 50 68 ...=F'....g...Ph
007BF860 C0 AE 98 00 E8 17 14 D6 FF 83 C4 08 68 C0 84 9F ............h...
007BF870 00 8D 45 CC 50 C7 45 CC C0 97 98 00 C7 45 D0 FD ..E.P.E......E..
007BF880 FF FF FF E8 44 57 ED FF CC CC CC CC CC CC CC CC ....DW..........
007BF890 8B C1 8B 4C 24 04 C7 00 C0 97 98 00 8B 51 04 89 ...L$........Q..
007BF8A0 50 04 C2 04 00 CC CC CC CC CC CC CC CC CC CC CC P...............
007BF8B0 8B C1 8B 4C 24 04 C7 00 C0 97 98 00 8B 51 04 89 ...L$........Q..
007BF8C0 50 04 C7 00 C8 97 98 00 8B 51 08 89 50 08 8B 49 P........Q..P..I
007BF8D0 0C 89 48 0C C2 04 00 CC CC CC CC CC CC CC CC CC ..H.............
007BF8E0 6A 01 83 C1 F8 E8 06 FB FF FF 33 C0 C2 04 00 CC j.........3.....
007BF8F0 55 8B EC 83 E4 C0 6A FF 68 18 1B 88 00 64 A1 00 U.....j.h....d..
007BF900 00 00 00 50 83 EC 68 53 56 57 A1 88 41 A1 00 33 ...P..hSVW..A..3
007BF910 C4 50 8D 44 24 78 64 A3 00 00 00 00 8B D9 89 5C .P.D$xd........\
007BF920 24 18 8B 7D 08 3B BB FC 04 00 00 75 1F 8D 4B FC $..}.;.....u..K.
007BF930 E8 AB BC FF FF 33 C0 8B 4C 24 78 64 89 0D 00 00 .....3..L$xd....
007BF940 00 00 59 5F 5E 5B 8B E5 5D C2 08 00 3B BB 14 05 ..Y_^[..]...;...
007BF950 00 00 75 21 6A 00 8D 4B FC E8 12 8D FF FF 33 C0 ..u!j..K......3.
007BF960 8B 4C 24 78 64 89 0D 00 00 00 00 59 5F 5E 5B 8B .L$xd......Y_^[.
007BF970 E5 5D C2 08 00 3B BB 34 05 00 00 75 40 8B 83 2C .]...;.4...u@..,
007BF980 05 00 00 8B 30 3B F0 74 1D 8D A4 24 00 00 00 00 ....0;.t...$....
007BF990 8B C6 8B 48 08 8B 36 6A 00 E8 52 FA FF FF 3B B3 ...H..6j..R...;.
007BF9A0 2C 05 00 00 75 EA 33 C0 8B 4C 24 78 64 89 0D 00 ,...u.3..L$xd...
007BF9B0 00 00 00 59 5F 5E 5B 8B E5 5D C2 08 00 3B BB 9C ...Y_^[..]...;..
007BF9C0 00 00 00 0F 85 23 01 00 00 8B 83 94 00 00 00 8B .....#..........
007BF9D0 08 89 4C 24 14 0F 31 3B 8B 94 00 00 00 8B F8 89 ..L$..1;........
007BF9E0 54 24 28 89 7C 24 24 0F 84 3E 01 00 00 EB 05 90 T$(.|$$..>......
007BF9F0 8B 7C 24 24 8B F1 8D 4C 24 14 89 74 24 10 E8 9D .|$$...L$..t$...
007BFA00 4B FF FF 8D 46 0C 8B 70 0C 85 F6 89 74 24 1C 74 K...F..p....t$.t
007BFA10 07 8B CE E8 B8 20 C4 FF 2B 7E 10 8B 5C 24 28 1B ..... ..+~..\$(.
007BFA20 5E 14 C7 84 24 80 00 00 00 00 00 00 00 75 09 83 ^...$........u..
007BFA30 FF 0A 0F 86 7E 00 00 00 8B 4E 18 E8 60 30 00 00 ....~....N..`0..
007BFA40 50 8B C3 8B CB 25 FF FF FF 7F 81 E1 00 00 00 80 P....%..........
007BFA50 89 44 24 34 89 7C 24 30 DF 6C 24 30 89 4C 24 3C .D$4.|$0.l$0.L$<
007BFA60 C7 44 24 38 00 00 00 00 DF 6C 24 38 D9 E0 DE C1 .D$8.....l$8....
007BFA70 DD 5C 24 40 E8 D7 70 E6 FF DC 7C 24 40 8B 4C 24 .\$@..p...|$@.L$
007BFA80 14 83 EC 08 83 C1 0C DD 1C 24 E8 81 56 00 00 50 .........$..V..P
007BFA90 68 A8 AF 98 00 E8 E6 11 D6 FF 8B 44 24 24 83 C4 h..........D$$..
007BFAA0 14 50 8D 4C 24 24 51 8B 4C 24 20 81 C1 90 00 00 .P.L$$Q.L$ .....
007BFAB0 00 E8 2A B1 FF FF 8B CE C7 84 24 80 00 00 00 FF ..*.......$.....
007BFAC0 FF FF FF E8 18 20 C4 FF 83 F8 01 75 09 8B 16 50 ..... .....u...P
007BFAD0 8B 02 8B CE FF D0 8B 4C 24 14 8B 54 24 18 3B 8A .......L$..T$.;.
007BFAE0 94 00 00 00 0F 85 06 FF FF FF EB 3F 83 7D 0C 01 ...........?.}..
007BFAF0 75 39 8B B3 3C 05 00 00 8B 06 3B C6 89 44 24 18 u9..<.....;..D$.
007BFB00 74 29 39 78 14 74 13 8D 4C 24 18 E8 D0 BC DC FF t)9x.t..L$......
007BFB10 8B 44 24 18 3B C6 75 EA EB 11 50 8D 44 24 24 50 .D$.;.u...P.D$$P
007BFB20 8D 8B 38 05 00 00 E8 85 5E FF FF B8 01 00 00 00 ..8.....^.......
007BFB30 8B 4C 24 78 64 89 0D 00 00 00 00 59 5F 5E 5B 8B .L$xd......Y_^[.
007BFB40 E5 5D C2 08 00 CC CC CC CC CC CC CC CC CC CC CC .]..............
007BFB50 56 8B 74 24 08 56 E8 5B B2 06 00 83 F8 FF 74 0A V.t$.V.[......t.
007BFB60 8B 4C 24 0C 89 01 33 C0 5E C3 56 E8 28 B2 06 00 .L$...3.^.V.(...
007BFB70 85 C0 74 11 8B 50 0C 8B 02 8B 08 8B 54 24 0C 89 ..t..P......T$..
007BFB80 0A 33 C0 5E C3 83 C8 FF 5E C3 CC CC CC CC CC CC .3.^....^.......
007BFB90 83 C8 FF C2 08 00 CC CC CC CC CC CC CC CC CC CC ................
007BFBA0 81 EC 94 01 00 00 A1 88 41 A1 00 33 C4 89 84 24 ........A..3...$
007BFBB0 90 01 00 00 80 3D B0 EC A6 00 00 75 15 8D 04 24 .....=.....u...$
007BFBC0 50 68 02 02 00 00 C6 05 B0 EC A6 00 01 E8 EA B1 Ph..............
007BFBD0 06 00 8B 8C 24 90 01 00 00 33 CC E8 AE 4F ED FF ....$....3...O..
007BFBE0 81 C4 94 01 00 00 C3 CC CC CC CC CC CC CC CC CC ................
007BFBF0 53 55 56 57 8B 7C 24 18 85 FF 8B E9 7E 61 8B 5C SUVW.|$.....~a.\
007BFC00 24 14 8B 0D AC EC A6 00 85 C9 89 7C 24 14 74 36 $..........|$.t6
007BFC10 8B 01 8B 50 08 FF D2 89 44 24 18 3B C7 8D 44 24 ...P....D$.;..D$
007BFC20 18 7C 04 8D 44 24 14 8B 30 8B 0D AC EC A6 00 8B .|..D$..0.......
007BFC30 01 8B 50 04 56 56 FF D2 50 53 E8 F1 53 ED FF 83 ..P.VV..PS..S...
007BFC40 C4 0C 8B C6 EB 0D 8B 45 00 6A 00 57 53 50 E8 6F .......E.j.WSP.o
007BFC50 B1 06 00 85 C0 7E 11 2B F8 03 D8 85 FF 7F A3 5F .....~.+......._
007BFC60 5E 5D B0 01 5B C2 08 00 75 16 68 24 B0 98 00 E8 ^]..[...u.h$....
007BFC70 0C 10 D6 FF 83 C4 04 5F 5E 5D 32 C0 5B C2 08 00 ......._^]2.[...
007BFC80 FF 15 E4 46 8A 00 8B 08 51 FF 15 2C 47 8A 00 50 ...F....Q..,G..P
007BFC90 68 00 B0 98 00 E8 E6 0F D6 FF 83 C4 0C 5F 5E 5D h............_^]
007BFCA0 32 C0 5B C2 08 00 CC CC CC CC CC CC CC CC CC CC 2.[.............
007BFCB0 83 3D A8 EC A6 00 00 0F 84 9C 00 00 00 A1 B8 EC .=..............
007BFCC0 A6 00 56 8B 30 3B F0 57 74 65 8B 3D E4 43 8A 00 ..V.0;.Wte.=.C..
007BFCD0 8D 46 0C 68 C4 22 98 00 50 FF D7 83 C4 08 84 C0 .F.h."..P.......
007BFCE0 75 55 38 46 2D 75 40 8B 46 08 80 78 2D 00 75 1C uU8F-u@.F..x-.u.
007BFCF0 8B F0 8B 06 80 78 2D 00 75 2D 8D 9B 00 00 00 00 .....x-.u-......
007BFD00 8B F0 8B 06 80 78 2D 00 74 F6 EB 1B 8B 46 04 80 .....x-.t....F..
007BFD10 78 2D 00 75 10 3B 70 08 75 0B 8B F0 8B 40 04 80 x-.u.;p.u....@..
007BFD20 78 2D 00 74 F0 8B F0 3B 35 B8 EC A6 00 75 A1 5F x-.t...;5....u._
007BFD30 83 C8 FF 5E C2 04 00 8D 4E 0C FF 15 54 43 8A 00 ...^....N...TC..
007BFD40 8B 54 24 0C 8A 08 88 0A 83 C0 01 83 C2 01 84 C9 .T$.............
007BFD50 75 F2 5F 33 C0 5E C2 04 00 8B 44 24 04 8B 0D 58 u._3.^....D$...X
007BFD60 94 98 00 89 08 8A 15 5C 94 98 00 88 50 04 33 C0 .......\....P.3.
007BFD70 C2 04 00 CC CC CC CC CC CC CC CC CC CC CC CC CC ................
007BFD80 6A FF 68 49 1B 88 00 64 A1 00 00 00 00 50 83 EC j.hI...d.....P..
007BFD90 48 53 55 56 57 A1 88 41 A1 00 33 C4 50 8D 44 24 HSUVW..A..3.P.D$
007BFDA0 5C 64 A3 00 00 00 00 8B E9 8B 44 24 70 80 78 2D \d........D$p.x-
007BFDB0 00 74 3C 68 94 6D 8A 00 8D 4C 24 1C FF 15 34 43 .t<h.m...L$...4C
007BFDC0 8A 00 8D 44 24 18 50 8D 4C 24 38 C7 44 24 68 00 ...D$.P.L$8.D$h.
007BFDD0 00 00 00 E8 08 1C C4 FF 68 8C A8 99 00 8D 4C 24 ........h.....L$
007BFDE0 38 51 C7 44 24 3C 3C 00 99 00 E8 DD 51 ED FF 8B 8Q.D$<<.....Q...
007BFDF0 D8 8D 4C 24 70 89 5C 24 14 E8 C2 10 DF FF 8B 03 ..L$p.\$........
007BFE00 80 78 2D 00 74 05 8B 7B 08 EB 18 8B 53 08 80 7A .x-.t..{....S..z
007BFE10 2D 00 74 04 8B F8 EB 0B 8B 4C 24 70 3B CB 8B 79 -.t......L$p;..y
007BFE20 08 75 6B 80 7F 2D 00 8B 73 04 75 03 89 77 04 8B .uk..-..s.u..w..
007BFE30 45 04 39 58 04 75 05 89 78 04 EB 0B 39 1E 75 04 E.9X.u..x...9.u.
007BFE40 89 3E EB 03 89 7E 08 8B 5D 04 8B 03 3B 44 24 14 .>...~..]...;D$.
007BFE50 75 15 80 7F 2D 00 74 04 8B C6 EB 09 57 E8 6E 70 u...-.t.....W.np
007BFE60 C4 FF 83 C4 04 89 03 8B 5D 04 8B 4C 24 14 39 4B ........]..L$.9K
007BFE70 08 75 72 80 7F 2D 00 74 07 8B C6 89 43 08 EB 65 .ur..-.t....C..e
007BFE80 57 E8 DA 6A D2 FF 83 C4 04 89 43 08 EB 57 89 48 W..j......C..W.H
007BFE90 04 8B 13 89 11 3B 4B 08 75 04 8B F1 EB 1A 80 7F .....;K.u.......
007BFEA0 2D 00 8B 71 04 75 03 89 77 04 89 3E 8B 43 08 89 -..q.u..w..>.C..
007BFEB0 41 08 8B 53 08 89 4A 04 8B 45 04 39 58 04 75 05 A..S..J..E.9X.u.
007BFEC0 89 48 04 EB 0E 8B 43 04 39 18 75 04 89 08 EB 03 .H....C.9.u.....
007BFED0 89 48 08 8B 43 04 89 41 04 8A 53 2C 8A 41 2C 88 .H..C..A..S,.A,.
007BFEE0 51 2C 88 43 2C 8B 44 24 14 B3 01 38 58 2C 0F 85 Q,.C,.D$...8X,..
007BFEF0 F2 00 00 00 8B 4D 04 3B 79 04 0F 84 E3 00 00 00 .....M.;y.......
007BFF00 38 5F 2C 0F 85 DA 00 00 00 8B 06 3B F8 75 63 8B 8_,........;.uc.
007BFF10 46 08 80 78 2C 00 75 12 88 58 2C 56 8B CD C6 46 F..x,.u..X,V...F
007BFF20 2C 00 E8 29 23 D2 FF 8B 46 08 80 78 2D 00 75 72 ,..)#...F..x-.ur
007BFF30 8B 10 38 5A 2C 75 08 8B 48 08 38 59 2C 74 5F 8B ..8Z,u..H.8Y,t_.
007BFF40 48 08 38 59 2C 75 12 88 5A 2C 50 8B CD C6 40 2C H.8Y,u..Z,P...@,
007BFF50 00 E8 EA 07 C6 FF 8B 46 08 8A 4E 2C 88 48 2C 88 .......F..N,.H,.
007BFF60 5E 2C 8B 50 08 56 8B CD 88 5A 2C E8 E0 22 D2 FF ^,.P.V...Z,.."..
007BFF70 EB 71 80 78 2C 00 75 11 88 58 2C 56 8B CD C6 46 .q.x,.u..X,V...F
007BFF80 2C 00 E8 B9 07 C6 FF 8B 06 80 78 2D 00 75 13 8B ,.........x-.u..
007BFF90 50 08 38 5A 2C 75 1E 8B 08 38 59 2C 75 17 C6 40 P.8Z,u...8Y,u..@
007BFFA0 2C 00 8B 55 04 8B FE 3B 7A 04 8B 76 04 0F 85 4D ,..U...;z..v...M
007BFFB0 FF FF FF EB 2E 8B 08 38 59 2C 75 11 88 5A 2C 50 .......8Y,u..Z,P
007BFFC0 8B CD C6 40 2C 00 E8 85 22 D2 FF 8B 06 8A 4E 2C ...@,...".....N,
007BFFD0 88 48 2C 88 5E 2C 8B 10 56 8B CD 88 5A 2C E8 5D .H,.^,..V...Z,.]
007BFFE0 07 C6 FF 88 5F 2C 8B 4C 24 14 83 C1 0C FF 15 38 ...._,.L$......8
007BFFF0 43 8A 00 8B 44 24 14 50 E8 C9 4F ED FF 8B 45 08 C...D$.P..O...E.
007C0000 83 C4 04 85 C0 76 06 83 C0 FF 89 45 08 8B 44 24 .....v.....E..D$
007C0010 6C 8B 4C 24 70 89 08 8B 4C 24 5C 64 89 0D 00 00 l.L$p...L$\d....
007C0020 00 00 59 5F 5E 5D 5B 83 C4 54 C2 08 00 CC CC CC ..Y_^][..T......
007C0030 53 8B 5C 24 10 56 8B 74 24 10 57 8B F9 8B 47 04 S.\$.V.t$.W...G.
007C0040 3B 30 75 36 3B D8 75 32 8B 40 04 50 E8 AF 95 E6 ;0u6;.u2.@.P....
007C0050 FF 8B 47 04 89 40 04 8B 47 04 C7 47 08 00 00 00 ..G..@..G..G....
007C0060 00 89 00 8B 47 04 89 40 08 8B 4F 04 8B 11 8B 44 ....G..@..O....D
007C0070 24 10 5F 5E 89 10 5B C2 0C 00 3B F3 74 5A 8B FF $._^..[...;.tZ..
007C0080 80 7E 2D 00 8B CE 75 3F 8B 46 08 80 78 2D 00 75 .~-...u?.F..x-.u
007C0090 1B 8B F0 8B 06 80 78 2D 00 75 2C EB 03 8D 49 00 ......x-.u,...I.
007C00A0 8B F0 8B 06 80 78 2D 00 74 F6 EB 1B 8B 46 04 80 .....x-.t....F..
007C00B0 78 2D 00 75 10 3B 70 08 75 0B 8B F0 8B 40 04 80 x-.u.;p.u....@..
007C00C0 78 2D 00 74 F0 8B F0 51 8D 44 24 18 50 8B CF E8 x-.t...Q.D$.P...
007C00D0 AC FC FF FF 3B F3 75 A8 8B 44 24 10 5F 89 30 5E ....;.u..D$._.0^
007C00E0 5B C2 0C 00 CC CC CC CC CC CC CC CC CC CC CC CC [...............
007C00F0 6A FF 68 81 1B 88 00 64 A1 00 00 00 00 50 83 EC j.h....d.....P..
007C0100 6C A1 88 41 A1 00 33 C4 89 44 24 68 53 55 56 57 l..A..3..D$hSUVW
007C0110 A1 88 41 A1 00 33 C4 50 8D 84 24 80 00 00 00 64 ..A..3.P..$....d
007C0120 A3 00 00 00 00 89 4C 24 28 8B BC 24 90 00 00 00 ......L$(..$....
007C0130 85 FF 8B AC 24 94 00 00 00 89 7C 24 20 89 6C 24 ....$.....|$ .l$
007C0140 24 C6 45 00 00 0F 84 80 02 00 00 80 3F 00 0F 84 $.E.........?...
007C0150 77 02 00 00 8B 1D DC 45 8A 00 6A 10 8D 44 24 60 w......E..j..D$`
007C0160 57 50 C7 44 24 28 20 00 00 00 FF D3 6A 2F 57 C6 WP.D$( .....j/W.
007C0170 84 24 80 00 00 00 00 C7 44 24 28 00 00 00 00 FF .$......D$(.....
007C0180 15 B0 46 8A 00 8B F0 83 C4 14 85 F6 74 5C 2B C7 ..F.........t\+.
007C0190 83 F8 10 7F 55 8D 4C 24 14 51 8D 54 24 60 52 C6 ....U.L$.Q.T$`R.
007C01A0 44 04 64 00 E8 A7 F9 FF FF 85 C0 0F 94 C3 83 C6 D.d.............
007C01B0 01 56 FF 15 8C 46 8A 00 89 44 24 28 83 C0 FF 83 .V...F...D$(....
007C01C0 C4 0C B9 1F 00 00 00 3B C8 1B C0 83 C0 01 22 D8 .......;......".
007C01D0 75 5C 56 8D 54 24 60 52 68 10 B1 98 00 E8 9E 0A u\V.T$`Rh.......
007C01E0 D6 FF 83 C4 0C E9 E1 01 00 00 8D 44 24 14 50 8D ...........D$.P.
007C01F0 4C 24 60 51 8B 4C 24 30 E8 93 34 FF FF 85 C0 75 L$`Q.L$0..4....u
007C0200 0F 6A 10 8D 54 24 60 52 55 FF D3 83 C4 0C EB 1E .j..T$`RU.......
007C0210 8D 44 24 14 50 57 E8 35 F9 FF FF 83 C4 08 85 C0 .D$.PW.5........
007C0220 0F 85 97 01 00 00 C7 44 24 1C 20 00 00 00 80 7D .......D$. ....}
007C0230 00 00 0F 85 81 01 00 00 8B 4C 24 14 BB 20 00 00 .........L$.. ..
007C0240 00 2B 5C 24 1C 51 E8 DF 56 ED FF 33 ED 33 C9 89 .+\$.Q..V..3.3..
007C0250 44 24 3C 89 6C 24 30 89 6C 24 34 89 4C 24 38 39 D$<.l$0.l$4.L$89
007C0260 0D A8 EC A6 00 89 8C 24 88 00 00 00 74 36 8B 0D .......$....t6..
007C0270 B8 EC A6 00 8B 01 3B C1 89 44 24 18 74 75 8B FF ......;..D$.tu..
007C0280 83 C0 0C 50 8D 4C 24 30 E8 43 3C C4 FF 8D 4C 24 ...P.L$0.C<...L$
007C0290 18 E8 2A 0C DF FF 8B 44 24 18 3B 05 B8 EC A6 00 ..*....D$.;.....
007C02A0 75 DE EB 4B A1 4C 1B A5 00 3B C1 74 46 BE 4C 1B u..K.L...;.tF.L.
007C02B0 A5 00 50 8D 4C 24 44 FF 15 34 43 8A 00 8D 54 24 ..P.L$D..4C...T$
007C02C0 40 52 8D 4C 24 30 C6 84 24 8C 00 00 00 01 E8 FD @R.L$0..$.......
007C02D0 3B C4 FF 8D 4C 24 40 C6 84 24 88 00 00 00 00 FF ;...L$@..$......
007C02E0 15 38 43 8A 00 8B 46 08 83 C6 08 85 C0 75 C3 8B .8C...F......u..
007C02F0 6C 24 34 8B 74 24 30 3B F5 74 5B 8B CE C7 44 24 l$4.t$0;.t[...D$
007C0300 18 00 00 00 00 FF 15 54 43 8A 00 8B 4C 24 28 8B .......TC...L$(.
007C0310 F8 8D 44 24 18 50 57 E8 74 33 FF FF 85 C0 75 18 ..D$.PW.t3....u.
007C0320 8B 4C 24 18 51 E8 00 56 ED FF 8B 54 24 3C 8B CB .L$.Q..V...T$<..
007C0330 D3 E8 D3 EA 3B C2 74 09 83 C6 1C 3B F5 75 BC EB ....;.t....;.u..
007C0340 11 8B 44 24 24 6A 10 57 50 FF 15 DC 45 8A 00 83 ..D$$j.WP...E...
007C0350 C4 0C 8B 7C 24 20 8B 4C 24 24 80 39 00 75 46 8B ...|$ .L$$.9.uF.
007C0360 54 24 1C 0F B6 44 24 17 0F B6 4C 24 16 52 50 8B T$...D$...L$.RP.
007C0370 44 24 1C 51 0F B6 D4 52 0F B6 C0 50 57 68 A0 B0 D$.Q...R...PWh..
007C0380 98 00 E8 F9 08 D6 FF 83 C4 1C 8D 4C 24 2C C7 84 ...........L$,..
007C0390 24 88 00 00 00 FF FF FF FF E8 62 35 C4 FF B8 FE $.........b5....
007C03A0 FF FF FF EB 29 8D 4C 24 2C C7 84 24 88 00 00 00 ....).L$,..$....
007C03B0 FF FF FF FF E8 47 35 C4 FF 33 C0 EB 11 57 68 48 .....G5..3...WhH
007C03C0 B0 98 00 E8 B8 08 D6 FF 83 C4 08 83 C8 FF 8B 8C ................
007C03D0 24 80 00 00 00 64 89 0D 00 00 00 00 59 5F 5E 5D $....d......Y_^]
007C03E0 5B 8B 4C 24 68 33 CC E8 A2 47 ED FF 83 C4 78 C2 [.L$h3...G....x.
007C03F0 08 00 CC CC CC CC CC CC CC CC CC CC CC CC CC CC ................
007C0400 C7 01 5C B1 98 00 C3 CC CC CC CC CC CC CC CC CC ..\.............
007C0410 F6 44 24 04 01 56 8B F1 C7 06 5C B1 98 00 74 09 .D$..V....\...t.
007C0420 56 E8 A0 4B ED FF 83 C4 04 8B C6 5E C2 04 00 CC V..K.......^....
007C0430 51 56 8B 74 24 0C 8B CE C7 44 24 04 00 00 00 00 QV.t$....D$.....
007C0440 FF 15 B0 43 8A 00 8B C6 5E 59 C2 04 00 CC CC CC ...C....^Y......
007C0450 8A 44 24 04 88 41 04 C2 04 00 CC CC CC CC CC CC .D$..A..........
007C0460 6A FF 68 B9 1B 88 00 64 A1 00 00 00 00 50 83 EC j.h....d.....P..
007C0470 44 A1 88 41 A1 00 33 C4 50 8D 44 24 48 64 A3 00 D..A..3.P.D$Hd..
007C0480 00 00 00 68 98 69 8A 00 8D 4C 24 08 FF 15 34 43 ...h.i...L$...4C
007C0490 8A 00 8D 44 24 04 50 8D 4C 24 24 C7 44 24 54 00 ...D$.P.L$$.D$T.
007C04A0 00 00 00 E8 38 15 C4 FF 68 68 9C 99 00 8D 4C 24 ....8...hh....L$
007C04B0 24 51 C7 44 24 28 30 00 99 00 E8 0D 4B ED FF CC $Q.D$(0.....K...
007C04C0 6A FF 68 E9 1B 88 00 64 A1 00 00 00 00 50 83 EC j.h....d.....P..
007C04D0 44 A1 88 41 A1 00 33 C4 50 8D 44 24 48 64 A3 00 D..A..3.P.D$Hd..
007C04E0 00 00 00 68 98 69 8A 00 8D 4C 24 08 FF 15 34 43 ...h.i...L$...4C
007C04F0 8A 00 8D 44 24 04 50 8D 4C 24 24 C7 44 24 54 00 ...D$.P.L$$.D$T.
007C0500 00 00 00 E8 D8 14 C4 FF 68 68 9C 99 00 8D 4C 24 ........hh....L$
007C0510 24 51 C7 44 24 28 30 00 99 00 E8 AD 4A ED FF CC $Q.D$(0.....J...
007C0520 8B 51 0C 85 D2 75 03 33 C0 C3 8B 41 10 2B C2 C1 .Q...u.3...A.+..
007C0530 F8 03 C3 CC CC CC CC CC CC CC CC CC CC CC CC CC ................
007C0540 C7 01 74 97 98 00 C3 CC CC CC CC CC CC CC CC CC ..t.............
007C0550 8B 44 24 04 33 C9 89 08 66 89 48 04 66 89 48 06 .D$.3...f.H.f.H.
007C0560 C2 04 00 CC CC CC CC CC CC CC CC CC CC CC CC CC ................
007C0570 6A FF 68 20 1C 88 00 64 A1 00 00 00 00 50 83 EC j.h ...d.....P..
007C0580 44 A1 88 41 A1 00 33 C4 89 44 24 40 56 A1 88 41 D..A..3..D$@V..A
007C0590 A1 00 33 C4 50 8D 44 24 4C 64 A3 00 00 00 00 8B ..3.P.D$Ld......
007C05A0 F1 8D 4C 24 10 E8 76 BD CC FF C7 44 24 10 D8 18 ..L$..v....D$...
007C05B0 8B 00 C6 44 24 14 03 68 F8 B1 98 00 8D 4C 24 2C ...D$..h.....L$,
007C05C0 C7 44 24 58 00 00 00 00 C6 44 24 20 21 C6 44 24 .D$X.....D$ !.D$
007C05D0 21 01 FF 15 E0 43 8A 00 C7 44 24 08 68 B1 98 00 !....C...D$.h...
007C05E0 89 74 24 0C 8B 4E 40 8D 44 24 08 50 6A FF 51 8D .t$..N@.D$.Pj.Q.
007C05F0 4C 24 1C C6 44 24 60 01 E8 63 B9 00 00 85 C0 74 L$..D$`..c.....t
007C0600 14 50 E8 69 15 C9 FF 50 68 A8 B1 98 00 E8 6E 06 .P.i...Ph.....n.
007C0610 D6 FF 83 C4 0C 8D 4C 24 10 C7 44 24 08 74 97 98 ......L$..D$.t..
007C0620 00 C7 44 24 54 FF FF FF FF C7 44 24 10 D8 18 8B ..D$T.....D$....
007C0630 00 E8 4A BD CC FF 8B 4C 24 4C 64 89 0D 00 00 00 ..J....L$Ld.....
007C0640 00 59 5E 8B 4C 24 40 33 CC E8 40 45 ED FF 83 C4 .Y^.L$@3..@E....
007C0650 50 C3 CC CC CC CC CC CC CC CC CC CC CC CC CC CC P...............
007C0660 8B 4C 24 08 8B 44 24 0C 3B C8 74 26 8B 54 24 10 .L$..D$.;.t&.T$.
007C0670 56 8B 32 57 39 31 75 0A 66 8B 79 04 66 3B 7A 04 V.2W91u.f.y.f;z.
007C0680 74 07 83 C1 08 3B C8 75 EB 8B 44 24 0C 5F 89 08 t....;.u..D$._..
007C0690 5E C3 8B 44 24 04 89 08 C3 CC CC CC CC CC CC CC ^..D$...........
007C06A0 8B 54 24 1C 8B 4C 24 0C 56 8B 74 24 18 8D 49 00 .T$..L$.V.t$..I.
007C06B0 3B CE 74 0E 8A 01 3A 02 75 08 83 C1 01 83 C2 01 ;.t...:.u.......
007C06C0 EB EE 8B 44 24 08 8B 74 24 0C 89 48 04 8B 4C 24 ...D$..t$..H..L$
007C06D0 1C 89 30 89 48 08 89 50 0C 5E C3 CC CC CC CC CC ..0.H..P.^......
007C06E0 53 56 8B 74 24 0C 8B 06 8B 50 04 57 8B F9 8A 1F SV.t$....P.W....
007C06F0 6A 01 8B CE FF D2 88 18 8B 06 8B 50 04 8A 5F 01 j..........P.._.
007C0700 6A 01 8B CE FF D2 88 18 8B 06 8B 50 04 66 8B 5F j..........P.f._
007C0710 02 6A 02 8B CE FF D2 66 89 18 8B 06 8B 50 04 8B .j.....f.....P..
007C0720 5F 04 6A 04 8B CE FF D2 83 C7 08 57 56 89 18 E8 _.j........WV...
007C0730 CC 28 C9 FF 83 C4 08 5F 5E 5B C2 04 00 CC CC CC .(....._^[......
007C0740 55 8B EC 6A FF 68 61 1C 88 00 64 A1 00 00 00 00 U..j.ha...d.....
007C0750 50 83 EC 0C 53 56 57 A1 88 41 A1 00 33 C5 50 8D P...SVW..A..3.P.
007C0760 45 F4 64 A3 00 00 00 00 89 65 F0 6A 30 E8 66 48 E.d......e.j0.fH
007C0770 ED FF 8B F0 83 C4 04 89 75 EC C7 45 FC 00 00 00 ........u..E....
007C0780 00 89 75 E8 85 F6 C6 45 FC 01 74 30 8B 4D 0C 8B ..u....E..t0.M..
007C0790 45 08 8B 55 10 8B 5D 14 89 4E 04 8D 7E 0C 53 8B E..U..]..N..~.S.
007C07A0 CF 89 06 89 56 08 FF 15 3C 43 8A 00 8B 43 1C 8A ....V...<C...C..
007C07B0 4D 18 89 47 1C 88 4E 2C C6 46 2D 00 8B C6 8B 4D M..G..N,.F-....M
007C07C0 F4 64 89 0D 00 00 00 00 59 5F 5E 5B 8B E5 5D C2 .d......Y_^[..].
007C07D0 14 00 8B 55 EC 52 E8 EB 47 ED FF 83 C4 04 6A 00 ...U.R..G.....j.
007C07E0 6A 00 E8 E5 47 ED FF CC CC CC CC CC CC CC CC CC j...G...........
007C07F0 6A FF 68 88 1C 88 00 64 A1 00 00 00 00 50 83 EC j.h....d.....P..
007C0800 34 A1 88 41 A1 00 33 C4 89 44 24 30 53 56 57 A1 4..A..3..D$0SVW.
007C0810 88 41 A1 00 33 C4 50 8D 44 24 44 64 A3 00 00 00 .A..3.P.D$Dd....
007C0820 00 8B 74 24 54 8B F9 6A 40 8D 4C 24 14 E8 0E 25 ..t$T..j@.L$...%
007C0830 C8 FF 8B 44 24 10 8B 50 04 6A 04 8D 4C 24 14 C7 ...D$..P.j..L$..
007C0840 44 24 50 00 00 00 00 FF D2 C7 00 6F 00 00 00 8B D$P........o....
007C0850 44 24 10 8B 50 04 8B 5F 38 6A 04 8D 4C 24 14 FF D$..P.._8j..L$..
007C0860 D2 89 18 8B 4F 40 66 8B 7E 04 8B 54 24 1C 8B 44 ....O@f.~..T$..D
007C0870 24 20 66 89 7C 24 32 8B 3E 89 7C 24 34 8D 7C 24 $ f.|$2.>.|$4.|$
007C0880 30 57 2B C2 50 52 66 C7 44 24 3C 02 00 E8 6E 30 0W+.PRf.D$<...n0
007C0890 FF FF 8B 4C 24 20 2B 4C 24 1C 3B C1 74 15 8B CE ...L$ +L$.;.t...
007C08A0 E8 6B 48 00 00 50 68 08 B2 98 00 E8 D0 03 D6 FF .kH..Ph.........
007C08B0 83 C4 08 80 7C 24 2C 00 C7 44 24 10 8C C0 8A 00 ....|$,..D$.....
007C08C0 C7 44 24 14 78 C0 8A 00 74 0D 8B 54 24 1C 52 E8 .D$.x...t..T$.R.
007C08D0 46 47 ED FF 83 C4 04 8B 4C 24 44 64 89 0D 00 00 FG......L$Dd....
007C08E0 00 00 59 5F 5E 5B 8B 4C 24 30 33 CC E8 9D 42 ED ..Y_^[.L$03...B.
007C08F0 FF 83 C4 40 C2 04 00 CC CC CC CC CC CC CC CC CC ...@............
007C0900 55 8B EC 83 E4 F8 83 EC 44 53 56 8B 71 58 3B 71 U.......DSV.qX;q
007C0910 5C 57 89 4C 24 14 0F 84 B5 00 00 00 8D 64 24 00 \W.L$........d$.
007C0920 83 7E 14 00 0F 84 B2 00 00 00 8B CE FF 15 5C 43 .~............\C
007C0930 8A 00 8B 7D 08 8B CF 8B D8 FF 15 5C 43 8A 00 3B ...}.......\C..;
007C0940 C3 72 7E 8D 44 24 20 50 8B CF FF 15 6C 44 8A 00 .r~.D$ P....lD..
007C0950 8B 38 8B 58 04 8D 4C 24 28 51 8B CE FF 15 68 44 .8.X..L$(Q....hD
007C0960 8A 00 8B 10 8B 40 04 8D 4C 24 30 51 8B CE 89 54 .....@..L$0Q...T
007C0970 24 1C 89 44 24 20 FF 15 6C 44 8A 00 8B 4C 24 14 $..D$ ..lD...L$.
007C0980 C6 44 24 10 00 8B 54 24 10 52 8B 54 24 20 51 8B .D$...T$.R.T$ Q.
007C0990 4C 24 20 53 57 52 8B 50 04 8B 00 51 52 50 8D 4C L$ SWR.P...QRP.L
007C09A0 24 60 51 E8 F8 FC FF FF 83 C4 24 8D 54 24 38 52 $`Q.......$.T$8R
007C09B0 8B CE FF 15 68 44 8A 00 8B 4C 24 44 3B 48 04 74 ....hD...L$D;H.t
007C09C0 1B 8B 54 24 14 83 C6 1C 3B 72 5C 0F 85 4F FF FF ..T$....;r\..O..
007C09D0 FF 32 C0 5F 5E 5B 8B E5 5D C2 04 00 5F 5E B0 01 .2._^[..]..._^..
007C09E0 5B 8B E5 5D C2 04 00 CC CC CC CC CC CC CC CC CC [..]............
007C09F0 6A FF 68 B8 1C 88 00 64 A1 00 00 00 00 50 83 EC j.h....d.....P..
007C0A00 34 A1 88 41 A1 00 33 C4 89 44 24 30 53 56 57 A1 4..A..3..D$0SVW.
007C0A10 88 41 A1 00 33 C4 50 8D 44 24 44 64 A3 00 00 00 .A..3.P.D$Dd....
007C0A20 00 8B 74 24 54 8B 5C 24 60 8B F9 6A 40 8D 4C 24 ..t$T.\$`..j@.L$
007C0A30 14 E8 0A 23 C8 FF 8B 44 24 10 8B 50 04 6A 04 8D ...#...D$..P.j..
007C0A40 4C 24 14 C7 44 24 50 00 00 00 00 FF D2 C7 00 6B L$..D$P........k
007C0A50 00 00 00 8B 44 24 10 8B 50 04 6A 01 8D 4C 24 14 ....D$..P.j..L$.
007C0A60 FF D2 8A 4C 24 58 88 08 8B 54 24 10 8B 42 04 6A ...L$X...T$..B.j
007C0A70 01 8D 4C 24 14 FF D0 8A 4C 24 5C 8D 56 04 88 08 ..L$....L$\.V...
007C0A80 52 8D 44 24 14 50 E8 75 25 C9 FF 83 C4 08 8D 4C R.D$.P.u%......L
007C0A90 24 10 51 53 8B CE E8 65 CE 00 00 8B 77 0C 3B 77 $.QS...e....w.;w
007C0AA0 10 74 42 BB 02 00 00 00 EB 06 8D 9B 00 00 00 00 .tB.............
007C0AB0 66 8B 56 04 8B 06 66 89 54 24 32 8B 54 24 20 89 f.V...f.T$2.T$ .
007C0AC0 44 24 34 8B 44 24 1C 8D 4C 24 30 51 8B 4F 40 2B D$4.D$..L$0Q.O@+
007C0AD0 D0 52 50 66 89 5C 24 3C E8 23 2E FF FF 83 C6 08 .RPf.\$<.#......
007C0AE0 3B 77 10 75 CB 80 7C 24 2C 00 C7 44 24 10 8C C0 ;w.u..|$,..D$...
007C0AF0 8A 00 C7 44 24 14 78 C0 8A 00 74 0D 8B 44 24 1C ...D$.x...t..D$.
007C0B00 50 E8 14 45 ED FF 83 C4 04 8B 4C 24 44 64 89 0D P..E......L$Dd..
007C0B10 00 00 00 00 59 5F 5E 5B 8B 4C 24 30 33 CC E8 6B ....Y_^[.L$03..k
007C0B20 40 ED FF 83 C4 40 C2 10 00 CC CC CC CC CC CC CC @....@..........
007C0B30 8B 4C 24 10 8B 54 24 0C 8D 44 24 14 50 8B 44 24 .L$..T$..D$.P.D$
007C0B40 0C 51 8B 4C 24 0C 52 50 E8 A3 FE FF FF C3 CC CC .Q.L$.RP........
007C0B50 6A FF 68 E9 1C 88 00 64 A1 00 00 00 00 50 83 EC j.h....d.....P..
007C0B60 44 53 55 56 57 A1 88 41 A1 00 33 C4 50 8D 44 24 DSUVW..A..3.P.D$
007C0B70 58 64 A3 00 00 00 00 8B F9 81 7F 08 FE FF FF 07 Xd..............
007C0B80 72 3C 68 80 6D 8A 00 8D 4C 24 18 FF 15 34 43 8A r<h.m...L$...4C.
007C0B90 00 8D 44 24 14 50 8D 4C 24 34 C7 44 24 64 00 00 ..D$.P.L$4.D$d..
007C0BA0 00 00 E8 39 0E C4 FF 68 68 9C 99 00 8D 4C 24 34 ...9...hh....L$4
007C0BB0 51 C7 44 24 38 30 00 99 00 E8 0E 44 ED FF 8B 54 Q.D$80.....D...T
007C0BC0 24 74 8B 47 04 8B 74 24 70 6A 00 52 50 56 50 E8 $t.G..t$pj.RPVP.
007C0BD0 6C FB FF FF 8B E8 8B 47 04 BB 01 00 00 00 01 5F l......G......._
007C0BE0 08 3B F0 75 10 89 68 04 8B 47 04 89 28 8B 4F 04 .;.u..h..G..(.O.
007C0BF0 89 69 08 EB 22 80 7C 24 6C 00 74 0D 89 2E 8B 47 .i..".|$l.t....G
007C0C00 04 3B 30 75 12 89 28 EB 0E 89 6E 08 8B 47 04 3B .;0u..(...n..G.;
007C0C10 70 08 75 03 89 68 08 8B 55 04 80 7A 2C 00 8D 45 p.u..h..U..z,..E
007C0C20 04 8B F5 0F 85 EC 00 00 00 8D A4 24 00 00 00 00 ...........$....
007C0C30 8B 08 8B 51 04 3B 0A 75 51 8B 52 08 80 7A 2C 00 ...Q.;.uQ.R..z,.
007C0C40 75 19 88 59 2C 88 5A 2C 8B 10 8B 4A 04 C6 41 2C u..Y,.Z,...J..A,
007C0C50 00 8B 10 8B 72 04 E9 AA 00 00 00 3B 71 08 75 0A ....r......;q.u.
007C0C60 8B F1 56 8B CF E8 E6 15 D2 FF 8B 46 04 88 58 2C ..V........F..X,
007C0C70 8B 4E 04 8B 51 04 C6 42 2C 00 8B 46 04 8B 48 04 .N..Q..B,..F..H.
007C0C80 51 8B CF E8 B8 FA C5 FF EB 7B 8B 12 80 7A 2C 00 Q........{...z,.
007C0C90 75 16 88 59 2C 88 5A 2C 8B 10 8B 4A 04 C6 41 2C u..Y,.Z,...J..A,
007C0CA0 00 8B 10 8B 72 04 EB 5D 3B 31 75 0A 8B F1 56 8B ....r..];1u...V.
007C0CB0 CF E8 8A FA C5 FF 8B 46 04 88 58 2C 8B 4E 04 8B .......F..X,.N..
007C0CC0 51 04 C6 42 2C 00 8B 46 04 8B 40 04 8B 48 08 8B Q..B,..F..@..H..
007C0CD0 11 89 50 08 8B 11 80 7A 2D 00 75 03 89 42 04 8B ..P....z-.u..B..
007C0CE0 50 04 89 51 04 8B 57 04 3B 42 04 75 05 89 4A 04 P..Q..W.;B.u..J.
007C0CF0 EB 0E 8B 50 04 3B 02 75 04 89 0A EB 03 89 4A 08 ...P.;.u......J.
007C0D00 89 01 89 48 04 8B 4E 04 80 79 2C 00 8D 46 04 0F ...H..N..y,..F..
007C0D10 84 1B FF FF FF 8B 57 04 8B 42 04 88 58 2C 8B 44 ......W..B..X,.D
007C0D20 24 68 89 28 8B 4C 24 58 64 89 0D 00 00 00 00 59 $h.(.L$Xd......Y
007C0D30 5F 5E 5D 5B 83 C4 50 C2 10 00 CC CC CC CC CC CC _^][..P.........
007C0D40 53 8B D9 8B 43 4C 56 8B 30 3B F0 74 60 57 8B FF S...CLV.0;.t`W..
007C0D50 8B 7E 28 8D 47 04 50 8B CB E8 A2 FB FF FF 88 47 .~(.G.P........G
007C0D60 34 80 7E 2D 00 75 40 8B 46 08 80 78 2D 00 75 1C 4.~-.u@.F..x-.u.
007C0D70 8B F0 8B 06 80 78 2D 00 75 2D 8D 9B 00 00 00 00 .....x-.u-......
007C0D80 8B F0 8B 06 80 78 2D 00 74 F6 EB 1B 8B 46 04 80 .....x-.t....F..
007C0D90 78 2D 00 75 10 3B 70 08 75 0B 8B F0 8B 40 04 80 x-.u.;p.u....@..
007C0DA0 78 2D 00 74 F0 8B F0 3B 73 4C 75 A4 5F 5E 5B C3 x-.t...;sLu._^[.
007C0DB0 51 53 55 8B 6C 24 14 56 8B D9 57 8B 7B 04 8B 77 QSU.l$.V..W.{..w
007C0DC0 04 80 7E 2D 00 B0 01 88 44 24 10 75 28 8D 49 00 ..~-....D$.u(.I.
007C0DD0 8D 46 0C 50 55 8B FE FF 15 0C 44 8A 00 83 C4 08 .F.PU.....D.....
007C0DE0 84 C0 88 44 24 10 74 04 8B 36 EB 03 8B 76 08 80 ...D$.t..6...v..
007C0DF0 7E 2D 00 74 DB 84 C0 8B F7 89 74 24 1C 74 38 8B ~-.t......t$.t8.
007C0E00 4B 04 3B 39 75 24 55 57 6A 01 8D 54 24 28 52 8B K.;9u$UWj..T$(R.
007C0E10 CB E8 3A FD FF FF 8B 08 8B 44 24 18 5F 5E 5D 89 ..:......D$._^].
007C0E20 08 C6 40 04 01 5B 59 C2 08 00 8D 4C 24 1C E8 8D ..@..[Y....L$...
007C0E30 4A E3 FF 8B 74 24 1C 8D 56 0C 55 52 FF 15 0C 44 J...t$..V.UR...D
007C0E40 8A 00 83 C4 08 84 C0 74 27 8B 44 24 10 55 57 50 .......t'.D$.UWP
007C0E50 8D 4C 24 28 51 8B CB E8 F4 FC FF FF 8B 10 8B 44 .L$(Q..........D
007C0E60 24 18 5F 5E 5D 89 10 C6 40 04 01 5B 59 C2 08 00 $._^]...@..[Y...
007C0E70 8B 44 24 18 5F 89 30 5E 5D C6 40 04 00 5B 59 C2 .D$._.0^].@..[Y.
007C0E80 08 00 CC CC CC CC CC CC CC CC CC CC CC CC CC CC ................
007C0E90 6A FF 68 19 1D 88 00 64 A1 00 00 00 00 50 83 EC j.h....d.....P..
007C0EA0 48 53 55 56 57 A1 88 41 A1 00 33 C4 50 8D 44 24 HSUVW..A..3.P.D$
007C0EB0 5C 64 A3 00 00 00 00 8B E9 8B 44 24 70 80 78 2D \d........D$p.x-
007C0EC0 00 74 3C 68 94 6D 8A 00 8D 4C 24 1C FF 15 34 43 .t<h.m...L$...4C
007C0ED0 8A 00 8D 44 24 18 50 8D 4C 24 38 C7 44 24 68 00 ...D$.P.L$8.D$h.
007C0EE0 00 00 00 E8 F8 0A C4 FF 68 8C A8 99 00 8D 4C 24 ........h.....L$
007C0EF0 38 51 C7 44 24 3C 3C 00 99 00 E8 CD 40 ED FF 8B 8Q.D$<<.....@...
007C0F00 D8 8D 4C 24 70 89 5C 24 14 E8 B2 FF DE FF 8B 03 ..L$p.\$........
007C0F10 80 78 2D 00 74 05 8B 7B 08 EB 18 8B 53 08 80 7A .x-.t..{....S..z
007C0F20 2D 00 74 04 8B F8 EB 0B 8B 4C 24 70 3B CB 8B 79 -.t......L$p;..y
007C0F30 08 75 6B 80 7F 2D 00 8B 73 04 75 03 89 77 04 8B .uk..-..s.u..w..
007C0F40 45 04 39 58 04 75 05 89 78 04 EB 0B 39 1E 75 04 E.9X.u..x...9.u.
007C0F50 89 3E EB 03 89 7E 08 8B 5D 04 8B 03 3B 44 24 14 .>...~..]...;D$.
007C0F60 75 15 80 7F 2D 00 74 04 8B C6 EB 09 57 E8 5E 5F u...-.t.....W.^_
007C0F70 C4 FF 83 C4 04 89 03 8B 5D 04 8B 4C 24 14 39 4B ........]..L$.9K
007C0F80 08 75 72 80 7F 2D 00 74 07 8B C6 89 43 08 EB 65 .ur..-.t....C..e
007C0F90 57 E8 CA 59 D2 FF 83 C4 04 89 43 08 EB 57 89 48 W..Y......C..W.H
007C0FA0 04 8B 13 89 11 3B 4B 08 75 04 8B F1 EB 1A 80 7F .....;K.u.......
007C0FB0 2D 00 8B 71 04 75 03 89 77 04 89 3E 8B 43 08 89 -..q.u..w..>.C..
007C0FC0 41 08 8B 53 08 89 4A 04 8B 45 04 39 58 04 75 05 A..S..J..E.9X.u.
007C0FD0 89 48 04 EB 0E 8B 43 04 39 18 75 04 89 08 EB 03 .H....C.9.u.....
007C0FE0 89 48 08 8B 43 04 89 41 04 8A 53 2C 8A 41 2C 88 .H..C..A..S,.A,.
007C0FF0 51 2C 88 43 2C 8B 44 24 14 B3 01 38 58 2C 0F 85 Q,.C,.D$...8X,..
007C1000 F2 00 00 00 8B 4D 04 3B 79 04 0F 84 E3 00 00 00 .....M.;y.......
007C1010 38 5F 2C 0F 85 DA 00 00 00 8B 06 3B F8 75 63 8B 8_,........;.uc.
007C1020 46 08 80 78 2C 00 75 12 88 58 2C 56 8B CD C6 46 F..x,.u..X,V...F
007C1030 2C 00 E8 19 12 D2 FF 8B 46 08 80 78 2D 00 75 72 ,.......F..x-.ur
007C1040 8B 10 38 5A 2C 75 08 8B 48 08 38 59 2C 74 5F 8B ..8Z,u..H.8Y,t_.
007C1050 48 08 38 59 2C 75 12 88 5A 2C 50 8B CD C6 40 2C H.8Y,u..Z,P...@,
007C1060 00 E8 DA F6 C5 FF 8B 46 08 8A 4E 2C 88 48 2C 88 .......F..N,.H,.
007C1070 5E 2C 8B 50 08 56 8B CD 88 5A 2C E8 D0 11 D2 FF ^,.P.V...Z,.....
007C1080 EB 71 80 78 2C 00 75 11 88 58 2C 56 8B CD C6 46 .q.x,.u..X,V...F
007C1090 2C 00 E8 A9 F6 C5 FF 8B 06 80 78 2D 00 75 13 8B ,.........x-.u..
007C10A0 50 08 38 5A 2C 75 1E 8B 08 38 59 2C 75 17 C6 40 P.8Z,u...8Y,u..@
007C10B0 2C 00 8B 55 04 8B FE 3B 7A 04 8B 76 04 0F 85 4D ,..U...;z..v...M
007C10C0 FF FF FF EB 2E 8B 08 38 59 2C 75 11 88 5A 2C 50 .......8Y,u..Z,P
007C10D0 8B CD C6 40 2C 00 E8 75 11 D2 FF 8B 06 8A 4E 2C ...@,..u......N,
007C10E0 88 48 2C 88 5E 2C 8B 10 56 8B CD 88 5A 2C E8 4D .H,.^,..V...Z,.M
007C10F0 F6 C5 FF 88 5F 2C 8B 4C 24 14 83 C1 0C FF 15 38 ...._,.L$......8
007C1100 43 8A 00 8B 44 24 14 50 E8 B9 3E ED FF 8B 45 08 C...D$.P..>...E.
007C1110 83 C4 04 85 C0 76 06 83 C0 FF 89 45 08 8B 44 24 .....v.....E..D$
007C1120 6C 8B 4C 24 70 89 08 8B 4C 24 5C 64 89 0D 00 00 l.L$p...L$\d....
007C1130 00 00 59 5F 5E 5D 5B 83 C4 54 C2 08 00 CC CC CC ..Y_^][..T......
007C1140 53 55 8B E9 8B 9D A4 00 00 00 3B 9D A8 00 00 00 SU........;.....
007C1150 56 57 74 4A 8B 45 64 85 C0 8B 3B 76 2F 80 7F 34 VWtJ.Ed...;v/..4
007C1160 00 74 29 8B 77 30 3B F0 76 22 8D 4F 04 FF 15 54 .t).w0;.v".O...T
007C1170 43 8A 00 2B 75 64 50 56 6A 04 6A 00 8D 45 68 50 C..+udPVj.j..EhP
007C1180 8D 45 FC 50 E8 A7 F9 FF FF 83 C4 18 83 C3 04 C7 .E.P............
007C1190 47 30 00 00 00 00 3B 9D A8 00 00 00 75 B6 8B 8D G0....;.....u...
007C11A0 A8 00 00 00 8B B5 A4 00 00 00 3B F1 74 28 8B C1 ..........;.t(..
007C11B0 2B C1 C1 F8 02 85 C0 8D 14 85 00 00 00 00 8D 3C +..............<
007C11C0 32 7E 0D 52 51 52 56 FF 15 5C 46 8A 00 83 C4 10 2~.RQRV..\F.....
007C11D0 89 BD A8 00 00 00 5F 5E 5D 33 C0 5B C2 08 00 CC ......_^]3.[....
007C11E0 83 EC 08 56 8B F1 83 7E 08 00 57 75 21 8B 44 24 ...V...~..Wu!.D$
007C11F0 1C 8B 4E 04 8B 7C 24 14 50 51 6A 01 57 8B CE E8 ..N..|$.PQj.W...
007C1200 4C F9 FF FF 8B C7 5F 5E 83 C4 08 C2 0C 00 8B 46 L....._^.......F
007C1210 04 8B 7C 24 1C 53 8B 5C 24 1C 3B 18 55 75 32 8D ..|$.S.\$.;.Uu2.
007C1220 53 0C 52 57 FF 15 0C 44 8A 00 83 C4 08 84 C0 0F S.RW...D........
007C1230 84 3A 01 00 00 57 8B 7C 24 20 53 6A 01 57 8B CE .:...W.|$ Sj.W..
007C1240 E8 0B F9 FF FF 5D 5B 8B C7 5F 5E 83 C4 08 C2 0C .....][.._^.....
007C1250 00 3B D8 75 3B 8B 40 08 83 C0 0C 57 50 FF 15 0C .;.u;.@....WP...
007C1260 44 8A 00 83 C4 08 84 C0 0F 84 01 01 00 00 8B 46 D..............F
007C1270 04 8B 48 08 57 8B 7C 24 20 51 6A 00 57 8B CE E8 ..H.W.|$ Qj.W...
007C1280 CC F8 FF FF 5D 5B 8B C7 5F 5E 83 C4 08 C2 0C 00 ....][.._^......
007C1290 8D 43 0C 50 57 FF 15 0C 44 8A 00 83 C4 08 84 C0 .C.PW...D.......
007C12A0 74 5B 8D 4C 24 24 89 5C 24 24 E8 11 46 E3 FF 8B t[.L$$.\$$..F...
007C12B0 6C 24 24 57 8D 55 0C 52 8B CE E8 11 43 C4 FF 84 l$$W.U.R....C...
007C12C0 C0 74 3A 8B 45 08 80 78 2D 00 57 8B 7C 24 20 8B .t:.E..x-.W.|$ .
007C12D0 CE 74 15 55 6A 00 57 E8 74 F8 FF FF 5D 5B 8B C7 .t.Uj.W.t...][..
007C12E0 5F 5E 83 C4 08 C2 0C 00 53 6A 01 57 E8 5F F8 FF _^......Sj.W._..
007C12F0 FF 5D 5B 8B C7 5F 5E 83 C4 08 C2 0C 00 8D 43 0C .][.._^.......C.
007C1300 57 50 FF 15 0C 44 8A 00 83 C4 08 84 C0 74 60 8D WP...D.......t`.
007C1310 4C 24 24 89 5C 24 24 E8 A4 FB DE FF 8B 6C 24 24 L$$.\$$......l$$
007C1320 3B 6E 04 74 10 8D 4D 0C 51 57 8B CE E8 9F 42 C4 ;n.t..M.QW....B.
007C1330 FF 84 C0 74 3A 8B 53 08 80 7A 2D 00 57 8B 7C 24 ...t:.S..z-.W.|$
007C1340 20 8B CE 74 15 53 6A 00 57 E8 02 F8 FF FF 5D 5B  ..t.Sj.W.....][
007C1350 8B C7 5F 5E 83 C4 08 C2 0C 00 55 6A 01 57 E8 ED .._^......Uj.W..
007C1360 F7 FF FF 5D 5B 8B C7 5F 5E 83 C4 08 C2 0C 00 57 ...][.._^......W
007C1370 8D 44 24 14 50 8B CE E8 34 FA FF FF 8B 08 8B 44 .D$.P...4......D
007C1380 24 1C 5D 5B 5F 89 08 5E 83 C4 08 C2 0C 00 CC CC $.][_..^........
007C1390 8B 44 24 0C 53 56 8B F1 8B 08 89 4C 24 14 8B 4E .D$.SV.....L$..N
007C13A0 04 85 C9 57 75 04 33 FF EB 08 8B 7E 0C 2B F9 C1 ...Wu.3....~.+..
007C13B0 FF 02 8B 5C 24 14 85 DB 0F 84 81 01 00 00 85 C9 ...\$...........
007C13C0 75 04 33 C0 EB 08 8B 46 08 2B C1 C1 F8 02 BA FF u.3....F.+......
007C13D0 FF FF 3F 2B D0 3B D3 73 05 E8 E2 F0 FF FF 85 C9 ..?+.;.s........
007C13E0 75 04 33 C0 EB 08 8B 46 08 2B C1 C1 F8 02 03 C3 u.3....F.+......
007C13F0 3B F8 55 0F 83 B4 00 00 00 8B C7 D1 E8 BA FF FF ;.U.............
007C1400 FF 3F 2B D0 3B D7 73 04 33 FF EB 02 03 F8 85 C9 .?+.;.s.3.......
007C1410 75 04 33 C0 EB 08 8B 46 08 2B C1 C1 F8 02 03 C3 u.3....F.+......
007C1420 3B F8 73 12 85 C9 75 04 33 FF EB 08 8B 7E 08 2B ;.s...u.3....~.+
007C1430 F9 C1 FF 02 03 FB 6A 00 57 E8 42 10 FF FF 8B 4E ......j.W.B....N
007C1440 04 83 C4 08 8B E8 8B 44 24 14 55 50 51 8B CE E8 .......D$.UPQ...
007C1450 AC 13 FF FF 8D 54 24 1C 52 53 50 8B CE E8 BE 89 .....T$.RSP.....
007C1460 EA FF 8B 4C 24 14 50 8B 46 08 50 51 8B CE E8 8D ...L$.P.F.PQ....
007C1470 13 FF FF 8B 46 04 85 C0 75 04 33 C9 EB 08 8B 4E ....F...u.3....N
007C1480 08 2B C8 C1 F9 02 03 D9 85 C0 74 09 50 E8 34 3B .+........t.P.4;
007C1490 ED FF 83 C4 04 8D 54 BD 00 8D 44 9D 00 89 6E 04 ......T...D...n.
007C14A0 5D 5F 89 56 0C 89 46 08 5E 5B C2 0C 00 8B 6E 08 ]_.V..F.^[....n.
007C14B0 8B 7C 24 14 8B CD 2B CF C1 F9 02 8D 04 9D 00 00 .|$...+.........
007C14C0 00 00 3B CB 89 44 24 14 8B CE 73 46 03 C7 50 55 ..;..D$...sF..PU
007C14D0 57 E8 2A 13 FF FF 8B 46 08 8B C8 2B CF C1 F9 02 W.*....F...+....
007C14E0 8D 54 24 1C 52 2B D9 53 50 8B CE E8 30 89 EA FF .T$.R+.SP...0...
007C14F0 8B 44 24 14 01 46 08 8B 76 08 8D 54 24 1C 52 2B .D$..F..v..T$.R+
007C1500 F0 56 57 E8 68 22 CF FF 83 C4 0C 5D 5F 5E 5B C2 .VW.h".....]_^[.
007C1510 0C 00 55 8B DD 2B D8 55 53 E8 E2 12 FF FF 55 53 ..U..+.US.....US
007C1520 57 89 46 08 E8 77 95 D4 FF 8B 4C 24 20 8D 44 24 W.F..w....L$ .D$
007C1530 28 50 03 CF 51 57 E8 35 22 CF FF 83 C4 18 5D 5F (P..QW.5".....]_
007C1540 5E 5B C2 0C 00 CC CC CC CC CC CC CC CC CC CC CC ^[..............
007C1550 6A FF 68 49 1D 88 00 64 A1 00 00 00 00 50 51 56 j.hI...d.....PQV
007C1560 A1 88 41 A1 00 33 C4 50 8D 44 24 0C 64 A3 00 00 ..A..3.P.D$.d...
007C1570 00 00 8B F1 8B 46 5C 8B 4E 58 8D 54 24 1C 52 50 .....F\.NX.T$.RP
007C1580 51 8D 44 24 14 50 C7 44 24 24 00 00 00 00 E8 2D Q.D$.P.D$$.....-
007C1590 C0 C8 FF 8B 00 83 C4 10 3B 46 5C 74 17 50 8D 4C ........;F\t.P.L
007C15A0 24 0C 51 8D 4E 54 E8 65 04 D0 FF 8B CE E8 8E F7 $.Q.NT.e........
007C15B0 FF FF EB 18 8D 4C 24 1C FF 15 54 43 8A 00 50 68 .....L$...TC..Ph
007C15C0 50 B2 98 00 E8 B7 F6 D5 FF 83 C4 08 8D 4C 24 1C P............L$.
007C15D0 C7 44 24 14 FF FF FF FF FF 15 38 43 8A 00 8B 4C .D$.......8C...L
007C15E0 24 0C 64 89 0D 00 00 00 00 59 5E 83 C4 10 C2 1C $.d......Y^.....
007C15F0 00 CC CC CC CC CC CC CC CC CC CC CC CC CC CC CC ................
007C1600 53 8B 5C 24 08 56 57 8B F1 8B 7E 10 8B 46 0C 53 S.\$.VW...~..F.S
007C1610 57 50 8D 44 24 1C 50 E8 44 F0 FF FF 8B 00 83 C4 WP.D$.P.D.......
007C1620 10 3B C7 74 4D 8B D7 83 C0 08 3B C2 74 17 8D 48 .;.tM.....;.t..H
007C1630 F8 8B 38 89 39 8B 78 04 89 79 04 83 C0 08 83 C1 ..8.9.x..y......
007C1640 08 3B C2 75 EC 83 46 10 F8 8B 46 0C 85 C0 75 04 .;.u..F...F...u.
007C1650 33 F6 EB 08 8B 76 10 2B F0 C1 FE 03 56 8B CB E8 3....v.+....V...
007C1660 AC 3A 00 00 50 68 B0 B2 98 00 E8 11 F6 D5 FF 83 .:..Ph..........
007C1670 C4 0C 5F 5E 5B C2 04 00 CC CC CC CC CC CC CC CC .._^[...........
007C1680 6A FF 68 78 1D 88 00 64 A1 00 00 00 00 50 83 EC j.hx...d.....P..
007C1690 20 53 56 57 A1 88 41 A1 00 33 C4 50 8D 44 24 30  SVW..A..3.P.D$0
007C16A0 64 A3 00 00 00 00 8B F1 8B 5C 24 40 53 E8 DE F8 d........\$@S...
007C16B0 DE FF 8B F8 3B 7E 04 74 12 8D 47 0C 50 53 FF 15 ....;~.t..G.PS..
007C16C0 0C 44 8A 00 83 C4 08 84 C0 74 53 53 8D 4C 24 14 .D.......tSS.L$.
007C16D0 FF 15 3C 43 8A 00 33 C0 89 44 24 2C 8D 4C 24 10 ..<C..3..D$,.L$.
007C16E0 51 57 8D 54 24 48 52 8B CE 89 44 24 44 E8 EE FA QW.T$HR...D$D...
007C16F0 FF FF 8B 30 8D 4C 24 10 C7 44 24 38 FF FF FF FF ...0.L$..D$8....
007C1700 FF 15 38 43 8A 00 8D 46 28 8B 4C 24 30 64 89 0D ..8C...F(.L$0d..
007C1710 00 00 00 00 59 5F 5E 5B 83 C4 2C C2 04 00 8D 47 ....Y_^[..,....G
007C1720 28 8B 4C 24 30 64 89 0D 00 00 00 00 59 5F 5E 5B (.L$0d......Y_^[
007C1730 83 C4 2C C2 04 00 CC CC CC CC CC CC CC CC CC CC ..,.............
007C1740 55 8B EC 6A FF 68 A0 1D 88 00 64 A1 00 00 00 00 U..j.h....d.....
007C1750 50 83 EC 10 53 56 57 A1 88 41 A1 00 33 C5 50 8D P...SVW..A..3.P.
007C1760 45 F4 64 A3 00 00 00 00 89 65 F0 8B F1 8B 45 10 E.d......e....E.
007C1770 8B 08 8B 50 04 8B 46 04 85 C0 89 4D E4 89 55 E8 ...P..F....M..U.
007C1780 75 04 33 FF EB 08 8B 7E 0C 2B F8 C1 FF 03 8B 55 u.3....~.+.....U
007C1790 0C 85 D2 0F 84 E9 01 00 00 85 C0 75 04 33 C9 EB ...........u.3..
007C17A0 08 8B 4E 08 2B C8 C1 F9 03 BB FF FF FF 1F 2B D9 ..N.+.........+.
007C17B0 3B DA 73 05 E8 A7 EC FF FF 85 C0 75 04 33 C9 EB ;.s........u.3..
007C17C0 08 8B 4E 08 2B C8 C1 F9 03 03 CA 3B F9 0F 83 FC ..N.+......;....
007C17D0 00 00 00 8B CF D1 E9 BB FF FF FF 1F 2B D9 3B DF ............+.;.
007C17E0 73 04 33 FF EB 02 03 F9 85 C0 75 04 33 C9 EB 08 s.3.......u.3...
007C17F0 8B 4E 08 2B C8 C1 F9 03 03 CA 3B F9 73 13 85 C0 .N.+......;.s...
007C1800 75 04 33 C9 EB 08 8B 4E 08 2B C8 C1 F9 03 8D 3C u.3....N.+.....<
007C1810 11 6A 00 57 E8 F7 7B E1 FF 8B 55 0C C6 45 10 00 .j.W..{...U..E..
007C1820 8B 4D 10 51 8B 4D 08 52 8B D8 8B 46 04 56 53 51 .M.Q.M.R...F.VSQ
007C1830 50 89 5D EC C7 45 FC 00 00 00 00 E8 40 28 E5 FF P.]..E......@(..
007C1840 8B 4D 0C 83 C4 20 8D 55 E4 52 51 50 8B CE E8 AD .M... .U.RQP....
007C1850 9E DF FF 8B 4E 08 C6 45 10 00 8B 55 10 52 8B 55 ....N..E...U.R.U
007C1860 0C 52 56 50 8B 45 08 51 50 E8 12 28 E5 FF 8B 4E .RVP.E.QP..(...N
007C1870 04 83 C4 18 85 C9 75 04 33 C0 EB 08 8B 46 08 2B ......u.3....F.+
007C1880 C1 C1 F8 03 01 45 0C 85 C9 74 09 51 E8 35 37 ED .....E...t.Q.57.
007C1890 FF 83 C4 04 8B 55 0C 8D 0C FB 8D 04 D3 89 4E 0C .....U........N.
007C18A0 89 46 08 89 5E 04 8B 4D F4 64 89 0D 00 00 00 00 .F..^..M.d......
007C18B0 59 5F 5E 5B 8B E5 5D C2 0C 00 8B 4D EC 51 E8 03 Y_^[..]....M.Q..
007C18C0 37 ED FF 83 C4 04 6A 00 6A 00 E8 FD 36 ED FF 8B 7.....j.j...6...
007C18D0 5E 08 8B 7D 08 8B C3 2B C7 C1 F8 03 3B C2 73 66 ^..}...+....;.sf
007C18E0 8D 04 D5 00 00 00 00 89 45 08 03 C7 50 53 57 8B ........E...PSW.
007C18F0 CE E8 CA 61 C5 FF 8B 46 08 8B D0 8D 4D E4 51 8B ...a...F....M.Q.
007C1900 4D 0C 2B D7 C1 FA 03 2B CA 51 50 8B CE C7 45 FC M.+....+.QP...E.
007C1910 02 00 00 00 E8 E7 9D DF FF 8B 45 08 01 46 08 8B ..........E..F..
007C1920 76 08 8D 4D E4 51 2B F0 56 57 E8 71 4D C5 FF 83 v..M.Q+.VW.qM...
007C1930 C4 0C 8B 4D F4 64 89 0D 00 00 00 00 59 5F 5E 5B ...M.d......Y_^[
007C1940 8B E5 5D C2 0C 00 8D 0C D5 00 00 00 00 53 8B C3 ..]..........S..
007C1950 2B C1 53 89 4D 08 50 8B CE 89 45 0C E8 5F 61 C5 +.S.M.P...E.._a.
007C1960 FF 8B 55 0C 53 52 57 89 46 08 E8 31 28 EA FF 8B ..U.SRW.F..1(...
007C1970 4D 08 8D 45 E4 50 03 CF 51 57 E8 21 4D C5 FF 83 M..E.P..QW.!M...
007C1980 C4 18 8B 4D F4 64 89 0D 00 00 00 00 59 5F 5E 5B ...M.d......Y_^[
007C1990 8B E5 5D C2 0C 00 CC CC CC CC CC CC CC CC CC CC ..].............
007C19A0 53 8B 5C 24 10 56 8B 74 24 10 57 8B F9 8B 47 04 S.\$.V.t$.W...G.
007C19B0 3B 30 75 36 3B D8 75 32 8B 40 04 50 E8 3F 7C E6 ;0u6;.u2.@.P.?|.
007C19C0 FF 8B 47 04 89 40 04 8B 47 04 C7 47 08 00 00 00 ..G..@..G..G....
007C19D0 00 89 00 8B 47 04 89 40 08 8B 4F 04 8B 11 8B 44 ....G..@..O....D
007C19E0 24 10 5F 5E 89 10 5B C2 0C 00 3B F3 74 5A 8B FF $._^..[...;.tZ..
007C19F0 80 7E 2D 00 8B CE 75 3F 8B 46 08 80 78 2D 00 75 .~-...u?.F..x-.u
007C1A00 1B 8B F0 8B 06 80 78 2D 00 75 2C EB 03 8D 49 00 ......x-.u,...I.
007C1A10 8B F0 8B 06 80 78 2D 00 74 F6 EB 1B 8B 46 04 80 .....x-.t....F..
007C1A20 78 2D 00 75 10 3B 70 08 75 0B 8B F0 8B 40 04 80 x-.u.;p.u....@..
007C1A30 78 2D 00 74 F0 8B F0 51 8D 44 24 18 50 8B CF E8 x-.t...Q.D$.P...
007C1A40 4C F4 FF FF 3B F3 75 A8 8B 44 24 10 5F 89 30 5E L...;.u..D$._.0^
007C1A50 5B C2 0C 00 CC CC CC CC CC CC CC CC CC CC CC CC [...............
007C1A60 8D 44 24 04 50 E8 96 FB FF FF C2 08 00 CC CC CC .D$.P...........
007C1A70 6A FF 68 C8 1D 88 00 64 A1 00 00 00 00 50 51 56 j.h....d.....PQV
007C1A80 57 A1 88 41 A1 00 33 C4 50 8D 44 24 10 64 A3 00 W..A..3.P.D$.d..
007C1A90 00 00 00 8B F1 89 74 24 0C 8B 46 24 33 FF 3B C7 ......t$..F$3.;.
007C1AA0 89 7C 24 18 74 09 50 E8 1A 35 ED FF 83 C4 04 8D .|$.t.P..5......
007C1AB0 4E 04 89 7E 24 89 7E 28 89 7E 2C FF 15 38 43 8A N..~$.~(.~,..8C.
007C1AC0 00 C7 06 5C B1 98 00 8B 4C 24 10 64 89 0D 00 00 ...\....L$.d....
007C1AD0 00 00 59 5F 5E 83 C4 10 C3 CC CC CC CC CC CC CC ..Y_^...........
007C1AE0 56 8B 71 04 85 F6 75 04 33 D2 EB 08 8B 51 08 2B V.q...u.3....Q.+
007C1AF0 D6 C1 FA 02 85 F6 74 21 8B 41 0C 2B C6 C1 F8 02 ......t!.A.+....
007C1B00 3B D0 73 15 8B 41 08 8B 54 24 08 8B 12 89 10 83 ;.s..A..T$......
007C1B10 C0 04 89 41 08 5E C2 04 00 8B 54 24 08 8B 41 08 ...A.^....T$..A.
007C1B20 52 6A 01 50 E8 67 F8 FF FF 5E C2 04 00 CC CC CC Rj.P.g...^......
007C1B30 6A FF 68 F9 1D 88 00 64 A1 00 00 00 00 50 51 56 j.h....d.....PQV
007C1B40 A1 88 41 A1 00 33 C4 50 8D 44 24 0C 64 A3 00 00 ..A..3.P.D$.d...
007C1B50 00 00 8B F1 8B 46 5C 8B 4E 58 8D 54 24 1C 52 50 .....F\.NX.T$.RP
007C1B60 51 8D 44 24 14 50 C7 44 24 24 00 00 00 00 E8 4D Q.D$.P.D$$.....M
007C1B70 BA C8 FF 8B 00 83 C4 10 3B 46 5C 8D 4C 24 1C 75 ........;F\.L$.u
007C1B80 12 51 8D 4E 54 E8 46 23 C4 FF 8B CE E8 AF F1 FF .Q.NT.F#........
007C1B90 FF EB 14 FF 15 54 43 8A 00 50 68 F0 B2 98 00 E8 .....TC..Ph.....
007C1BA0 DC F0 D5 FF 83 C4 08 8D 4C 24 1C C7 44 24 14 FF ........L$..D$..
007C1BB0 FF FF FF FF 15 38 43 8A 00 8B 4C 24 0C 64 89 0D .....8C...L$.d..
007C1BC0 00 00 00 00 59 5E 83 C4 10 C2 1C 00 CC CC CC CC ....Y^..........
007C1BD0 6A FF 68 57 1E 88 00 64 A1 00 00 00 00 50 83 EC j.hW...d.....P..
007C1BE0 3C 53 55 56 57 A1 88 41 A1 00 33 C4 50 8D 44 24 <SUVW..A..3.P.D$
007C1BF0 50 64 A3 00 00 00 00 8B F1 33 DB 89 5C 24 14 8B Pd.......3..\$..
007C1C00 46 0C 3B C3 0F 84 4A 01 00 00 8B 4E 10 2B C8 C1 F.;...J....N.+..
007C1C10 F9 03 0F 84 3C 01 00 00 38 5E 3C 0F 84 33 01 00 ....<...8^<..3..
007C1C20 00 8B 6C 24 68 55 8D 4C 24 1C FF 15 34 43 8A 00 ..l$hU.L$...4C..
007C1C30 8D 54 24 18 52 8D 44 24 6C 8D 4E 48 50 89 5C 24 .T$.R.D$l.NHP.\$
007C1C40 60 E8 9A 0D E5 FF 8D 4C 24 18 C7 44 24 58 FF FF `......L$..D$X..
007C1C50 FF FF FF 15 38 43 8A 00 8B 46 4C 8B 4C 24 68 3B ....8C...FL.L$h;
007C1C60 C8 74 0C 8B 79 28 89 7C 24 68 E9 9F 00 00 00 6A .t..y(.|$h.....j
007C1C70 38 E8 62 33 ED FF 8B F8 83 C4 04 89 7C 24 68 85 8.b3........|$h.
007C1C80 FF C7 44 24 58 01 00 00 00 74 32 55 8D 4C 24 1C ..D$X....t2U.L$.
007C1C90 FF 15 34 43 8A 00 8D 4C 24 18 51 BB 01 00 00 00 ..4C...L$.Q.....
007C1CA0 8B CE C6 44 24 5C 02 89 5C 24 18 E8 50 EC FF FF ...D$\..\$..P...
007C1CB0 8B CF 50 55 E8 97 BF 00 00 8B F8 EB 02 33 FF F6 ..PU.........3..
007C1CC0 C3 01 89 7C 24 68 C7 44 24 58 FF FF FF FF 74 0A ...|$h.D$X....t.
007C1CD0 8D 4C 24 18 FF 15 38 43 8A 00 55 8D 4C 24 38 FF .L$...8C..U.L$8.
007C1CE0 15 34 43 8A 00 8D 54 24 34 52 8D 4E 48 C7 44 24 .4C...T$4R.NH.D$
007C1CF0 5C 04 00 00 00 E8 86 F9 FF FF 8D 4C 24 34 89 38 \..........L$4.8
007C1D00 C7 44 24 58 FF FF FF FF FF 15 38 43 8A 00 BB 01 .D$X......8C....
007C1D10 00 00 00 01 5F 30 8B 46 68 85 C0 76 0B 80 7F 34 ...._0.Fh..v...4
007C1D20 00 74 05 39 47 30 77 2C 8B 44 24 6C 8B 4C 24 64 .t.9G0w,.D$l.L$d
007C1D30 8B 54 24 60 50 51 52 57 8B CE E8 B1 EC FF FF 39 .T$`PQRW.......9
007C1D40 5F 30 75 10 8D 44 24 68 50 8D 8E A4 00 00 00 E8 _0u..D$hP.......
007C1D50 8C FD FF FF 32 C0 8B 4C 24 50 64 89 0D 00 00 00 ....2..L$Pd.....
007C1D60 00 59 5F 5E 5D 5B 83 C4 48 C2 10 00 CC CC CC CC .Y_^][..H.......
007C1D70 51 56 8B F1 8B 56 04 85 D2 75 04 33 C9 EB 08 8B QV...V...u.3....
007C1D80 4E 08 2B CA C1 F9 03 85 D2 74 3C 8B 46 0C 2B C2 N.+......t<.F.+.
007C1D90 C1 F8 03 3B C8 73 30 8B 4C 24 0C 8B 54 24 0C 57 ...;.s0.L$..T$.W
007C1DA0 8B 7E 08 C6 44 24 08 00 8B 44 24 08 50 51 56 52 .~..D$...D$.PQVR
007C1DB0 6A 01 57 E8 B8 0F 00 00 83 C4 18 83 C7 08 89 7E j.W............~
007C1DC0 08 5F 5E 59 C2 04 00 8B 4C 24 0C 8B 46 08 51 6A ._^Y....L$..F.Qj
007C1DD0 01 50 8B CE E8 67 F9 FF FF 5E 59 C2 04 00 CC CC .P...g...^Y.....
007C1DE0 51 56 8B F1 8B 46 04 8B 08 50 51 8D 44 24 0C 50 QV...F...PQ.D$.P
007C1DF0 8B CE E8 A9 FB FF FF 8B 4E 04 51 E8 C6 31 ED FF ........N.Q..1..
007C1E00 83 C4 04 33 C0 89 46 04 89 46 08 5E 59 C3 CC CC ...3..F..F.^Y...
007C1E10 6A FF 68 F5 1E 88 00 64 A1 00 00 00 00 50 83 EC j.h....d.....P..
007C1E20 0C 53 56 57 A1 88 41 A1 00 33 C4 50 8D 44 24 1C .SVW..A..3.P.D$.
007C1E30 64 A3 00 00 00 00 8B F1 89 74 24 14 C7 06 44 B3 d........t$...D.
007C1E40 98 00 C7 46 04 3C B3 98 00 56 C7 44 24 28 07 00 ...F.<...V.D$(..
007C1E50 00 00 E8 A9 46 C6 FF 8B C8 E8 82 4A E6 FF 8B 86 ....F......J....
007C1E60 A8 00 00 00 33 DB 3B C3 74 09 50 E8 56 31 ED FF ....3.;.t.P.V1..
007C1E70 83 C4 04 8D 4E 6C 89 9E A8 00 00 00 89 9E AC 00 ....Nl..........
007C1E80 00 00 89 9E B0 00 00 00 C6 44 24 24 05 E8 DE FB .........D$$....
007C1E90 FF FF 8D 4E 54 C6 44 24 24 04 E8 61 1A C4 FF 8B ...NT.D$$..a....
007C1EA0 46 4C 8B 08 8D 7E 48 50 51 8D 44 24 20 50 8B CF FL...~HPQ.D$ P..
007C1EB0 C6 44 24 30 03 E8 E6 FA FF FF 8B 47 04 50 E8 03 .D$0.......G.P..
007C1EC0 31 ED FF 83 C4 04 8D 4E 18 89 5F 04 89 5F 08 C6 1......N.._.._..
007C1ED0 44 24 24 02 FF 15 38 43 8A 00 8B 46 0C 3B C3 74 D$$...8C...F.;.t
007C1EE0 09 50 E8 DF 30 ED FF 83 C4 04 89 5E 0C 89 5E 10 .P..0......^..^.
007C1EF0 89 5E 14 C7 46 04 28 CE 8A 00 C7 06 44 86 8A 00 .^..F.(.....D...
007C1F00 8B 4C 24 1C 64 89 0D 00 00 00 00 59 5F 5E 5B 83 .L$.d......Y_^[.
007C1F10 C4 18 C3 CC CC CC CC CC CC CC CC CC CC CC CC CC ................
007C1F20 83 E9 04 E9 38 02 00 00 CC CC CC CC CC CC CC CC ....8...........
007C1F30 6A FF 68 20 1F 88 00 64 A1 00 00 00 00 50 83 EC j.h ...d.....P..
007C1F40 5C A1 88 41 A1 00 33 C4 89 44 24 58 53 55 56 57 \..A..3..D$XSUVW
007C1F50 A1 88 41 A1 00 33 C4 50 8D 44 24 70 64 A3 00 00 ..A..3.P.D$pd...
007C1F60 00 00 8B BC 24 80 00 00 00 8B F1 8B 5E 10 8B 46 ....$.......^..F
007C1F70 0C 57 53 50 8D 44 24 40 50 E8 E2 E6 FF FF 83 C4 .WSP.D$@P.......
007C1F80 10 39 18 74 17 8B CF E8 84 31 00 00 50 68 8C B3 .9.t.....1..Ph..
007C1F90 98 00 E8 E9 EC D5 FF 83 C4 08 EB 09 57 8D 4E 08 ............W.N.
007C1FA0 E8 CB FD FF FF 6A 40 8D 4C 24 18 E8 90 0D C8 FF .....j@.L$......
007C1FB0 8B 54 24 14 8B 42 04 6A 04 8D 4C 24 18 C7 44 24 .T$..B.j..L$..D$
007C1FC0 7C 00 00 00 00 FF D0 8D 4C 24 50 C7 00 6C 00 00 |.......L$P..l..
007C1FD0 00 FF 15 B0 43 8A 00 80 3D 31 7B A6 00 00 8A 4E ....C...=1{....N
007C1FE0 34 C6 44 24 78 01 C6 44 24 48 06 88 4C 24 49 74 4.D$x..D$H..L$It
007C1FF0 07 A1 38 7B A6 00 EB 06 FF 15 4C 40 8A 00 80 3D ..8{......L@...=
007C2000 31 7B A6 00 00 89 44 24 4C 74 07 A1 3C 7B A6 00 1{....D$Lt..<{..
007C2010 EB 20 68 54 94 98 00 FF 15 88 46 8A 00 83 C4 04 . hT......F.....
007C2020 85 C0 74 0C 50 FF 15 8C 46 8A 00 83 C4 04 EB 02 ..t.P...F.......
007C2030 33 C0 8D 56 18 52 8D 4C 24 54 66 89 44 24 4E FF 3..V.R.L$Tf.D$N.
007C2040 15 58 43 8A 00 8D 44 24 14 50 8D 4C 24 4C E8 8D .XC...D$.P.L$L..
007C2050 E6 FF FF 8B 17 8B 4C 24 20 8B 44 24 24 0F B7 6F ......L$ .D$$..o
007C2060 04 8B 5E 40 89 54 24 3C 8D 54 24 38 2B C1 52 50 ..^@.T$<.T$8+.RP
007C2070 51 8B CB 66 C7 44 24 44 02 00 66 89 6C 24 46 E8 Q..f.D$D..f.l$F.
007C2080 7C 18 FF FF 8B 46 0C 85 C0 75 04 33 C9 EB 08 8B |....F...u.3....
007C2090 4E 10 2B C8 C1 F9 03 51 8B CF E8 71 30 00 00 50 N.+....Q...q0..P
007C20A0 68 4C B3 98 00 E8 D6 EB D5 FF 83 C4 0C 83 7E 38 hL............~8
007C20B0 00 7E 08 57 8B CE E8 35 E7 FF FF 8D 4C 24 50 C6 .~.W...5....L$P.
007C20C0 44 24 78 00 FF 15 38 43 8A 00 80 7C 24 30 00 C7 D$x...8C...|$0..
007C20D0 44 24 14 8C C0 8A 00 C7 44 24 18 78 C0 8A 00 74 D$......D$.x...t
007C20E0 0D 8B 44 24 20 50 E8 2F 2F ED FF 83 C4 04 8B 4C ..D$ P.//......L
007C20F0 24 70 64 89 0D 00 00 00 00 59 5F 5E 5D 5B 8B 4C $pd......Y_^][.L
007C2100 24 58 33 CC E8 85 2A ED FF 83 C4 68 C2 04 00 CC $X3...*....h....
007C2110 8B 44 24 04 83 EC 08 66 83 78 10 00 74 23 8B 54 .D$....f.x..t#.T
007C2120 24 10 66 8B 40 12 8B 49 04 89 14 24 8D 14 24 52 $.f.@..I...$..$R
007C2130 66 89 44 24 08 66 C7 44 24 0A 00 00 E8 EF FD FF f.D$.f.D$.......
007C2140 FF B0 01 83 C4 08 C2 08 00 CC CC CC CC CC CC CC ................
007C2150 8D 44 24 04 50 E8 D6 FD FF FF C2 08 00 CC CC CC .D$.P...........
007C2160 56 8B F1 E8 A8 FC FF FF F6 44 24 08 01 74 09 56 V........D$..t.V
007C2170 E8 51 2E ED FF 83 C4 04 8B C6 5E C2 04 00 CC CC .Q........^.....
007C2180 51 56 68 08 B7 98 00 8B F1 E8 F2 EA D5 FF 83 C4 QVh.............
007C2190 04 8B CE E8 D8 E3 FF FF 8B 4E 0C 85 C9 75 04 33 .........N...u.3
007C21A0 C0 EB 08 8B 46 10 2B C1 C1 F8 03 53 57 50 68 E8 ....F.+....SWPh.
007C21B0 B6 98 00 E8 C8 EA D5 FF 83 C4 08 56 E8 3F 43 C6 ...........V.?C.
007C21C0 FF 8B C8 E8 C8 47 E6 FF 68 B0 B6 98 00 33 C9 51 .....G..h....3.Q
007C21D0 B8 50 21 7C 00 50 33 FF 57 BA 50 05 7C 00 52 56 .P!|.P3.W.P.|.RV
007C21E0 8D 44 24 24 68 A4 B6 98 00 50 E8 A1 08 C6 FF 8B .D$$h....P......
007C21F0 4C 24 2C 83 C4 20 83 CB FF 85 C9 74 0D 01 59 04 L$,.. .....t..Y.
007C2200 75 08 8B 11 8B 02 6A 01 FF D0 68 68 B6 98 00 33 u.....j...hh...3
007C2210 C9 51 B8 60 1A 7C 00 50 33 FF 57 BA 50 05 7C 00 .Q.`.|.P3.W.P.|.
007C2220 52 56 8D 4C 24 24 68 5C B6 98 00 51 E8 5F 08 C6 RV.L$$h\...Q._..
007C2230 FF 8B 4C 24 2C 83 C4 20 85 C9 74 0D 01 59 04 75 ..L$,.. ..t..Y.u
007C2240 08 8B 11 8B 02 6A 01 FF D0 68 28 B6 98 00 33 C9 .....j...h(...3.
007C2250 51 B8 20 05 7C 00 50 56 8D 4C 24 1C 68 1C B6 98 Q. .|.PV.L$.h...
007C2260 00 51 E8 29 08 C6 FF 8B 4C 24 24 83 C4 18 85 C9 .Q.)....L$$.....
007C2270 74 0D 01 59 04 75 08 8B 11 8B 02 6A 01 FF D0 68 t..Y.u.....j...h
007C2280 E8 B5 98 00 6A 02 8D 4E 3C 51 8D 54 24 18 68 D8 ....j..N<Q.T$.h.
007C2290 B5 98 00 52 E8 F7 07 C6 FF 8B 4C 24 20 83 C4 14 ...R......L$ ...
007C22A0 85 C9 74 0D 01 59 04 75 08 8B 01 8B 10 6A 01 FF ..t..Y.u.....j..
007C22B0 D2 68 60 B5 98 00 68 60 F2 41 00 68 E0 F8 41 00 .h`...h`.A.h..A.
007C22C0 E8 3B 42 C6 FF 50 8D 44 24 1C 68 48 B5 98 00 50 .;B..P.D$.hH...P
007C22D0 E8 BB 07 C6 FF 8B 4C 24 24 83 C4 18 85 C9 74 0D ......L$$.....t.
007C22E0 01 59 04 75 08 8B 11 8B 02 6A 01 FF D0 68 F0 B4 .Y.u.....j...h..
007C22F0 98 00 6A 02 8D 4E 68 51 8D 54 24 18 68 D8 B4 98 ..j..NhQ.T$.h...
007C2300 00 52 E8 89 07 C6 FF 8B 4C 24 20 83 C4 14 85 C9 .R......L$ .....
007C2310 74 0D 01 59 04 75 08 8B 01 8B 10 6A 01 FF D2 68 t..Y.u.....j...h
007C2320 A4 B4 98 00 33 C9 51 B8 30 1B 7C 00 50 33 FF 57 ....3.Q.0.|.P3.W
007C2330 BA 30 04 7C 00 52 56 8D 44 24 24 68 84 B4 98 00 .0.|.RV.D$$h....
007C2340 50 E8 4A 07 C6 FF 8B 4C 24 2C 83 C4 20 85 C9 74 P.J....L$,.. ..t
007C2350 0D 01 59 04 75 08 8B 11 8B 02 6A 01 FF D0 68 50 ..Y.u.....j...hP
007C2360 B4 98 00 33 C9 51 B8 50 15 7C 00 50 33 FF 57 BA ...3.Q.P.|.P3.W.
007C2370 30 04 7C 00 52 56 8D 4C 24 24 68 30 B4 98 00 51 0.|.RV.L$$h0...Q
007C2380 E8 0B 07 C6 FF 8B 4C 24 2C 83 C4 20 85 C9 74 0D ......L$,.. ..t.
007C2390 01 59 04 75 08 8B 11 8B 02 6A 01 FF D0 68 E0 B3 .Y.u.....j...h..
007C23A0 98 00 68 50 04 7C 00 68 60 FA 61 00 E8 4F 41 C6 ..hP.|.h`.a..OA.
007C23B0 FF 50 8D 4C 24 1C 68 C0 B3 98 00 51 E8 CF 06 C6 .P.L$.h....Q....
007C23C0 FF 8B 4C 24 24 83 C4 18 85 C9 74 0D 01 59 04 75 ..L$$.....t..Y.u
007C23D0 08 8B 11 8B 02 6A 01 FF D0 85 F6 5F 89 35 C0 EC .....j....._.5..
007C23E0 A6 00 5B 74 05 8D 46 04 EB 02 33 C0 8B 4E 44 6A ..[t..F...3..NDj
007C23F0 01 6A 00 50 68 40 42 0F 00 E8 52 99 FF FF 89 46 .j.Ph@B...R....F
007C2400 64 5E 59 C3 CC CC CC CC CC CC CC CC CC CC CC CC d^Y.............
007C2410 6A FF 68 B2 1F 88 00 64 A1 00 00 00 00 50 51 53 j.h....d.....PQS
007C2420 56 57 A1 88 41 A1 00 33 C4 50 8D 44 24 14 64 A3 VW..A..3.P.D$.d.
007C2430 00 00 00 00 8B F1 89 74 24 10 33 DB 89 5C 24 1C .......t$.3..\$.
007C2440 C7 46 04 28 CE 8A 00 C7 06 44 B3 98 00 C7 46 04 .F.(.....D....F.
007C2450 3C B3 98 00 89 5E 0C 89 5E 10 89 5E 14 8D 44 24 <....^..^..^..D$
007C2460 24 50 8D 4E 18 C6 44 24 20 03 FF 15 3C 43 8A 00 $P.N..D$ ...<C..
007C2470 8A 4C 24 48 8A 54 24 4C 8B 44 24 40 88 4E 34 8B .L$H.T$L.D$@.N4.
007C2480 4C 24 44 89 4E 44 8D 7E 48 8B CF C6 44 24 1C 04 L$D.ND.~H...D$..
007C2490 89 5E 38 88 56 3C 89 46 40 E8 E2 F6 04 00 89 47 .^8.V<.F@......G
007C24A0 04 C6 40 2D 01 8B 47 04 89 40 04 8B 47 04 89 00 ..@-..G..@..G...
007C24B0 8B 47 04 89 40 08 89 5F 08 89 5E 58 89 5E 5C 89 .G..@.._..^X.^\.
007C24C0 5E 60 8B 54 24 50 53 68 20 B7 98 00 8D 4E 6C C6 ^`.T$PSh ....Nl.
007C24D0 44 24 24 06 89 5E 64 89 56 68 E8 71 B7 00 00 89 D$$..^d.Vh.q....
007C24E0 9E A8 00 00 00 89 9E AC 00 00 00 89 9E B0 00 00 ................
007C24F0 00 8B CE C6 44 24 1C 08 E8 83 FC FF FF 8D 4C 24 ....D$........L$
007C2500 24 C7 44 24 1C FF FF FF FF FF 15 38 43 8A 00 8B $.D$.......8C...
007C2510 C6 8B 4C 24 14 64 89 0D 00 00 00 00 59 5F 5E 5B ..L$.d......Y_^[
007C2520 83 C4 10 C2 30 00 CC CC CC CC CC CC CC CC CC CC ....0...........
007C2530 83 EC 1C A1 88 41 A1 00 33 C4 89 44 24 18 8B 44 .....A..3..D$..D
007C2540 24 24 8B 09 55 8B 6C 24 24 57 8D 54 24 0C 89 44 $$..U.l$$W.T$..D
007C2550 24 08 52 8D 44 24 14 50 51 C7 44 24 18 10 00 00 $.R.D$.PQ.D$....
007C2560 00 E8 62 88 06 00 8B F8 83 FF FF 75 15 5F 33 C0 ..b........u._3.
007C2570 5D 8B 4C 24 18 33 CC E8 12 26 ED FF 83 C4 1C C2 ].L$.3...&......
007C2580 08 00 53 56 6A 10 E8 4D 2A ED FF 33 DB 83 C4 04 ..SVj..M*..3....
007C2590 3B C3 74 1B C7 00 FF FF FF FF C6 40 04 01 88 58 ;.t........@...X
007C25A0 05 66 89 58 06 89 58 08 89 58 0C 8B F0 EB 02 33 .f.X..X..X.....3
007C25B0 F6 83 3E FF 74 0F 39 1D A8 EC A6 00 74 07 8B CE ..>.t.9.....t...
007C25C0 E8 9B B8 C7 FF 3B EB 89 3E 74 09 66 8B 54 24 1A .....;..>t.f.T$.
007C25D0 66 89 55 00 8B 44 24 10 3B C3 74 06 8B 4C 24 1C f.U..D$.;.t..L$.
007C25E0 89 08 8B 4C 24 28 8B C6 5E 5B 5F 5D 33 CC E8 9B ...L$(..^[_]3...
007C25F0 25 ED FF 83 C4 1C C2 08 00 CC CC CC CC CC CC CC %...............
007C2600 6A FF 68 D9 1F 88 00 64 A1 00 00 00 00 50 83 EC j.h....d.....P..
007C2610 24 A1 88 41 A1 00 33 C4 89 44 24 20 56 57 A1 88 $..A..3..D$ VW..
007C2620 41 A1 00 33 C4 50 8D 44 24 30 64 A3 00 00 00 00 A..3.P.D$0d.....
007C2630 8B F1 8B 0E 6A 00 6A 00 E8 F3 FE FF FF 85 C0 89 ....j.j.........
007C2640 46 04 75 07 32 C0 E9 93 00 00 00 8B 10 8D 4C 24 F.u.2.........L$
007C2650 0C 51 68 7E 66 04 80 52 C7 44 24 18 00 00 00 00 .Qh~f..R.D$.....
007C2660 E8 A7 32 ED FF 8D 4C 24 10 FF 15 B0 43 8A 00 68 ..2...L$....C..h
007C2670 58 B7 98 00 8D 4C 24 14 C7 44 24 3C 00 00 00 00 X....L$..D$<....
007C2680 FF 15 E0 43 8A 00 A1 00 D0 A0 00 50 8D 4C 24 14 ...C.......P.L$.
007C2690 FF 15 B8 43 8A 00 68 40 B7 98 00 8D 4C 24 14 FF ...C..h@....L$..
007C26A0 15 B8 43 8A 00 8D 4C 24 10 FF 15 44 43 8A 00 8D ..C...L$...DC...
007C26B0 4C 24 10 8B F8 FF 15 54 43 8A 00 8B 76 04 8B 0E L$.....TC...v...
007C26C0 6A 00 57 50 51 E8 18 32 ED FF 8D 4C 24 10 C7 44 j.WPQ..2...L$..D
007C26D0 24 38 FF FF FF FF FF 15 38 43 8A 00 B0 01 8B 4C $8......8C.....L
007C26E0 24 30 64 89 0D 00 00 00 00 59 5F 5E 8B 4C 24 20 $0d......Y_^.L$ 
007C26F0 33 CC E8 97 24 ED FF 83 C4 30 C3 CC CC CC CC CC 3...$....0......
007C2700 6A FF 68 28 20 88 00 64 A1 00 00 00 00 50 81 EC j.h( ..d.....P..
007C2710 C8 00 00 00 A1 88 41 A1 00 33 C4 89 84 24 C4 00 ......A..3...$..
007C2720 00 00 53 55 56 57 A1 88 41 A1 00 33 C4 50 8D 84 ..SUVW..A..3.P..
007C2730 24 DC 00 00 00 64 A3 00 00 00 00 8B B4 24 EC 00 $....d.......$..
007C2740 00 00 8B F9 8B CE FF 15 54 43 8A 00 50 68 C8 B7 ........TC..Ph..
007C2750 98 00 E8 29 E5 D5 FF 83 C4 08 83 7F 04 00 75 0F ...)..........u.
007C2760 8B CF E8 99 FE FF FF 84 C0 0F 84 F2 01 00 00 56 ...............V
007C2770 8D 44 24 24 68 B8 B7 98 00 50 FF 15 70 44 8A 00 .D$$h....P..pD..
007C2780 68 E8 B1 8D 00 50 8D 4C 24 50 51 C7 84 24 FC 00 h....P.L$PQ..$..
007C2790 00 00 00 00 00 00 FF 15 D4 43 8A 00 83 C4 18 8D .........C......
007C27A0 4C 24 20 C6 84 24 E4 00 00 00 02 FF 15 38 43 8A L$ ..$.......8C.
007C27B0 00 8D 4C 24 3C FF 15 44 43 8A 00 8D 4C 24 3C 8B ..L$<..DC...L$<.
007C27C0 F0 FF 15 54 43 8A 00 8B 4F 04 8B 11 6A 00 56 50 ...TC...O...j.VP
007C27D0 52 E8 0C 31 ED FF 80 BC 24 F0 00 00 00 00 8D 4C R..1....$......L
007C27E0 24 3C 0F 84 68 01 00 00 68 9C B7 98 00 FF 15 E0 $<..h...h.......
007C27F0 43 8A 00 8D 4C 24 3C FF 15 44 43 8A 00 8D 4C 24 C...L$<..DC...L$
007C2800 3C 8B F0 FF 15 54 43 8A 00 8B 4F 04 6A 00 56 50 <....TC...O.j.VP
007C2810 8B 01 50 E8 CA 30 ED FF C6 44 24 17 00 C7 44 24 ..P..0...D$...D$
007C2820 18 80 00 00 00 8B 0D AC EC A6 00 85 C9 8B 47 04 ..............G.
007C2830 74 3D 8B 11 8B 42 08 FF D0 89 44 24 1C 3D 80 00 t=...B....D$.=..
007C2840 00 00 8D 44 24 1C 7C 04 8D 44 24 18 8B 30 8B 0D ...D$.|..D$..0..
007C2850 AC EC A6 00 8B 11 8B 42 04 56 56 FF D0 50 8D 4C .......B.VV..P.L
007C2860 24 60 51 E8 C8 27 ED FF 83 C4 0C 8B DE EB 16 8B $`Q..'..........
007C2870 00 6A 00 68 80 00 00 00 8D 54 24 60 52 50 E8 3F .j.h.....T$`RP.?
007C2880 85 06 00 8B D8 85 DB 7E 5B 33 ED 85 DB 7E 48 90 .......~[3...~H.
007C2890 80 7C 2C 58 0A 75 39 68 8C B7 98 00 8D 4C 24 40 .|,X.u9h.....L$@
007C28A0 C6 44 24 1B 01 FF 15 E0 43 8A 00 8D 4C 24 3C FF .D$.....C...L$<.
007C28B0 15 44 43 8A 00 8D 4C 24 3C 8B F0 FF 15 54 43 8A .DC...L$<....TC.
007C28C0 00 8B 4F 04 8B 09 6A 00 56 50 51 E8 12 30 ED FF ..O...j.VPQ..0..
007C28D0 83 C5 01 3B EB 7C B9 80 7C 24 17 00 0F 84 43 FF ...;.|..|$....C.
007C28E0 FF FF 85 DB 7D 66 8B 77 04 8B 16 52 E8 0F 30 ED ....}f.w...R..0.
007C28F0 FF 85 C0 75 1A 83 3E FF 74 0F 39 05 A8 EC A6 00 ...u..>.t.9.....
007C2900 74 07 8B CE E8 57 B5 C7 FF C7 06 FF FF FF FF 8B t....W..........
007C2910 77 04 85 F6 74 2F 8B 06 50 E8 E2 2F ED FF 85 C0 w...t/..P../....
007C2920 75 1A 83 3E FF 74 0F 39 05 A8 EC A6 00 74 07 8B u..>.t.9.....t..
007C2930 CE E8 2A B5 C7 FF C7 06 FF FF FF FF 56 E8 84 26 ..*.........V..&
007C2940 ED FF 83 C4 04 C7 47 04 00 00 00 00 8D 4C 24 3C ......G......L$<
007C2950 C7 84 24 E4 00 00 00 FF FF FF FF FF 15 38 43 8A ..$..........8C.
007C2960 00 8B 8C 24 DC 00 00 00 64 89 0D 00 00 00 00 59 ...$....d......Y
007C2970 5F 5E 5D 5B 8B 8C 24 C4 00 00 00 33 CC E8 0C 22 _^][..$....3..."
007C2980 ED FF 81 C4 D4 00 00 00 C2 08 00 CC CC CC CC CC ................
007C2990 8B 0D C4 EC A6 00 85 C9 74 0F 8B 44 24 08 8B 54 ........t..D$..T
007C29A0 24 04 50 52 E8 57 FD FF FF C3 CC CC CC CC CC CC $.PR.W..........
007C29B0 66 83 79 18 00 66 8B 44 24 04 75 18 0F B7 54 24 f.y..f.D$.u...T$
007C29C0 08 66 89 41 18 8D 44 0A 48 89 41 1C 66 C7 00 00 .f.A..D.H.A.f...
007C29D0 00 C2 08 00 8B 51 1C 66 89 02 0F B7 54 24 08 8D .....Q.f....T$..
007C29E0 44 0A 48 89 41 1C 66 C7 00 00 00 C2 08 00 CC CC D.H.A.f.........
007C29F0 8B C1 33 C9 BA 00 00 00 10 89 48 04 C7 00 E8 B7 ..3.......H.....
007C2A00 98 00 89 48 08 89 48 0C 89 48 10 89 48 14 66 89 ...H..H..H..H.f.
007C2A10 48 18 89 48 1C C7 40 20 01 00 00 00 88 48 24 89 H..H..@ .....H$.
007C2A20 50 30 89 48 34 89 48 38 89 50 3C 89 50 40 89 48 P0.H4.H8.P<.P@.H
007C2A30 44 89 48 28 C3 CC CC CC CC CC CC CC CC CC CC CC D.H(............
007C2A40 6A FF 68 68 20 88 00 64 A1 00 00 00 00 50 51 56 j.hh ..d.....PQV
007C2A50 57 A1 88 41 A1 00 33 C4 50 8D 44 24 10 64 A3 00 W..A..3.P.D$.d..
007C2A60 00 00 00 8B F1 89 74 24 0C 8B 4E 08 33 FF 3B CF ......t$..N.3.;.
007C2A70 89 7C 24 18 74 0E 83 41 04 FF 75 08 8B 01 8B 10 .|$.t..A..u.....
007C2A80 6A 01 FF D2 89 7E 08 C7 06 78 6D 8A 00 8B 4C 24 j....~...xm...L$
007C2A90 10 64 89 0D 00 00 00 00 59 5F 5E 83 C4 10 C3 CC .d......Y_^.....
007C2AA0 8B 49 08 85 C9 B8 01 00 00 00 74 0E 8D 64 24 00 .I........t..d$.
007C2AB0 8B 49 08 83 C0 01 85 C9 75 F6 C3 CC CC CC CC CC .I......u.......
007C2AC0 8B 44 24 08 56 50 83 C0 04 50 8B F1 8B 4C 24 10 .D$.VP...P...L$.
007C2AD0 68 C0 05 00 00 8D 46 48 50 E8 72 A3 CC FF 85 C0 h.....FHP.r.....
007C2AE0 7C 03 89 46 0C 5E C2 08 00 CC CC CC CC CC CC CC |..F.^..........
007C2AF0 56 8B F1 E8 48 FF FF FF F6 44 24 08 01 74 30 A1 V...H....D$..t0.
007C2B00 D0 EC A6 00 6A FF 50 FF 15 F4 40 8A 00 8B 0D C8 ....j.P...@.....
007C2B10 EC A6 00 89 0E 8B 15 D0 EC A6 00 52 89 35 C8 EC ...........R.5..
007C2B20 A6 00 C6 05 D4 EC A6 00 00 FF 15 F0 40 8A 00 8B ............@...
007C2B30 C6 5E C2 04 00 CC CC CC CC CC CC CC CC CC CC CC .^..............
007C2B40 56 8B F1 8B 46 10 85 C0 74 10 50 E8 CA 24 ED FF V...F...t.P..$..
007C2B50 83 C4 04 C7 46 10 00 00 00 00 5E C3 CC CC CC CC ....F.....^.....
007C2B60 8B 01 8B 54 24 04 3B 02 75 13 85 C0 74 0A 66 8B ...T$.;.u...t.f.
007C2B70 41 06 66 3B 42 06 75 05 33 C0 C2 04 00 B8 01 00 A.f;B.u.3.......
007C2B80 00 00 C2 04 00 CC CC CC CC CC CC CC CC CC CC CC ................
007C2B90 6A FF 68 99 20 88 00 64 A1 00 00 00 00 50 83 EC j.h. ..d.....P..
007C2BA0 44 A1 88 41 A1 00 33 C4 50 8D 44 24 48 64 A3 00 D..A..3.P.D$Hd..
007C2BB0 00 00 00 68 98 69 8A 00 8D 4C 24 08 FF 15 34 43 ...h.i...L$...4C
007C2BC0 8A 00 8D 44 24 04 50 8D 4C 24 24 C7 44 24 54 00 ...D$.P.L$$.D$T.
007C2BD0 00 00 00 E8 08 EE C3 FF 68 68 9C 99 00 8D 4C 24 ........hh....L$
007C2BE0 24 51 C7 44 24 28 30 00 99 00 E8 DD 23 ED FF CC $Q.D$(0.....#...
007C2BF0 6A FF 68 C9 20 88 00 64 A1 00 00 00 00 50 83 EC j.h. ..d.....P..
007C2C00 44 A1 88 41 A1 00 33 C4 50 8D 44 24 48 64 A3 00 D..A..3.P.D$Hd..
007C2C10 00 00 00 68 98 69 8A 00 8D 4C 24 08 FF 15 34 43 ...h.i...L$...4C
007C2C20 8A 00 8D 44 24 04 50 8D 4C 24 24 C7 44 24 54 00 ...D$.P.L$$.D$T.
007C2C30 00 00 00 E8 A8 ED C3 FF 68 68 9C 99 00 8D 4C 24 ........hh....L$
007C2C40 24 51 C7 44 24 28 30 00 99 00 E8 7D 23 ED FF CC $Q.D$(0....}#...
007C2C50 6A FF 68 F9 20 88 00 64 A1 00 00 00 00 50 83 EC j.h. ..d.....P..
007C2C60 44 A1 88 41 A1 00 33 C4 50 8D 44 24 48 64 A3 00 D..A..3.P.D$Hd..
007C2C70 00 00 00 68 98 69 8A 00 8D 4C 24 08 FF 15 34 43 ...h.i...L$...4C
007C2C80 8A 00 8D 44 24 04 50 8D 4C 24 24 C7 44 24 54 00 ...D$.P.L$$.D$T.
007C2C90 00 00 00 E8 48 ED C3 FF 68 68 9C 99 00 8D 4C 24 ....H...hh....L$
007C2CA0 24 51 C7 44 24 28 30 00 99 00 E8 1D 23 ED FF CC $Q.D$(0.....#...
007C2CB0 80 79 01 01 75 24 8B 41 04 83 F8 04 7D 1C 8D 0C .y..u$.A....}...
007C2CC0 C5 00 00 00 00 B8 01 00 00 00 D3 E0 83 E8 01 39 ...............9
007C2CD0 44 24 04 7C 05 33 C0 C2 04 00 B8 01 00 00 00 C2 D$.|.3..........
007C2CE0 04 00 CC CC CC CC CC CC CC CC CC CC CC CC CC CC ................
007C2CF0 6A FF 68 29 21 88 00 64 A1 00 00 00 00 50 83 EC j.h)!..d.....P..
007C2D00 44 A1 88 41 A1 00 33 C4 50 8D 44 24 48 64 A3 00 D..A..3.P.D$Hd..
007C2D10 00 00 00 68 98 69 8A 00 8D 4C 24 08 FF 15 34 43 ...h.i...L$...4C
007C2D20 8A 00 8D 44 24 04 50 8D 4C 24 24 C7 44 24 54 00 ...D$.P.L$$.D$T.
007C2D30 00 00 00 E8 A8 EC C3 FF 68 68 9C 99 00 8D 4C 24 ........hh....L$
007C2D40 24 51 C7 44 24 28 30 00 99 00 E8 7D 22 ED FF CC $Q.D$(0....}"...
007C2D50 0F B7 41 06 8B 09 8A 44 08 48 C3 CC CC CC CC CC ..A....D.H......
007C2D60 8B 49 04 E9 38 FD FF FF CC CC CC CC CC CC CC CC .I..8...........
