;;; Segment .text (00401000)

;; fn00731A20: 00731A20
;;   Called from:
;;     0070765B (in fn00707640)
;;     00709E55 (in fn00708DC0)
;;     00709F34 (in fn00708DC0)
;;     00709FF0 (in fn00708DC0)
fn00731A20 proc
	push	ebx
	push	edi
	mov	edi,[esp+0Ch]
	xor	ebx,ebx
	test	edi,edi
	jz	731AC1h

l00731A30:
	mov	eax,[edi+4h]
	cmp	eax,0A26EF0h
	jz	731AF5h

l00731A3E:
	push	0A26EF0h
	push	eax
	call	6D5670h
	add	esp,8h
	test	eax,eax
	jnz	731AF5h

l00731A54:
	push	esi
	push	8CCA78h
	push	edi
	call	6DF760h
	mov	esi,eax
	add	esp,8h
	test	esi,esi
	jnz	731A70h

l00731A69:
	call	6E1160h
	jmp	731AA8h

l00731A70:
	mov	eax,[esi+4h]
	cmp	eax,0A1E7E8h
	jz	731A8Ch

l00731A7A:
	push	0A1E7E8h
	push	eax
	call	6D5670h
	add	esp,8h
	test	eax,eax
	jz	731A97h

l00731A8C:
	push	esi
	call	7051A0h
	add	esp,4h
	mov	ebx,eax

l00731A97:
	add	dword ptr [esi],0FFh
	jnz	731AA8h

l00731A9C:
	mov	eax,[esi+4h]
	mov	ecx,[eax+18h]
	push	esi
	call	ecx
	add	esp,4h

l00731AA8:
	mov	edx,[esp+14h]
	push	edx
	call	7050A0h
	mov	esi,eax
	add	esp,4h
	test	esi,esi
	jnz	731AC6h

l00731ABB:
	call	6E1160h

l00731AC0:
	pop	esi

l00731AC1:
	pop	edi
	mov	eax,ebx
	pop	ebx
	ret

l00731AC6:
	push	esi
	push	8CCA78h
	push	edi
	call	6DF800h
	add	esp,0Ch
	test	eax,eax
	jz	731ADEh

l00731AD9:
	call	6E1160h

l00731ADE:
	add	dword ptr [esi],0FFh
	jnz	731AC0h

l00731AE3:
	mov	eax,[esi+4h]
	mov	ecx,[eax+18h]
	push	esi
	call	ecx
	add	esp,4h
	pop	esi
	pop	edi
	mov	eax,ebx
	pop	ebx
	ret

l00731AF5:
	mov	eax,[edi+18h]
	mov	edx,[esp+10h]
	mov	[edi+18h],edx
	pop	edi
	pop	ebx
	ret
00731B02       CC CC CC CC CC CC CC CC CC CC CC CC CC CC   ..............

;; fn00731B10: 00731B10
;;   Called from:
;;     006E18D3 (in fn006E1780)
;;     006E1908 (in fn006E1780)
;;     006E81AF (in fn006E8060)
;;     006E839C (in fn006E8060)
;;     00709E82 (in fn00708DC0)
;;     00731D9D (in fn00731D30)
fn00731B10 proc
	push	esi
	mov	esi,[esp+0Ch]
	test	esi,esi
	jnz	731B31h

l00731B19:
	mov	eax,[0A16B7Ch]
	push	8DB234h
	push	eax
	call	6E0F80h
	add	esp,8h
	or	eax,0FFh
	pop	esi
	ret

l00731B31:
	mov	eax,[esi+4h]
	cmp	eax,0A26EF0h
	push	ebx
	push	ebp
	push	edi
	jz	731C6Dh

l00731B42:
	push	0A26EF0h
	push	eax
	call	6D5670h
	add	esp,8h
	test	eax,eax
	jnz	731C6Dh

l00731B58:
	push	8CC530h
	push	esi
	call	6DF760h
	mov	ebx,eax
	add	esp,8h
	test	ebx,ebx
	jz	731CFCh

l00731B70:
	test	byte ptr [esp+1Ch],1h
	jz	731BA4h

l00731B77:
	mov	edi,[esp+14h]
	mov	eax,[edi+4h]
	cmp	eax,0A23B20h
	jz	731B9Fh

l00731B85:
	push	0A23B20h
	push	eax
	call	6D5670h
	add	esp,8h
	test	eax,eax
	jnz	731B9Fh

l00731B97:
	push	edi
	call	6DDF70h
	jmp	731BAEh

l00731B9F:
	add	dword ptr [edi],1h
	jmp	731BB3h

l00731BA4:
	mov	ecx,[esp+14h]
	push	ecx
	call	6DDDB0h

l00731BAE:
	mov	edi,eax
	add	esp,4h

l00731BB3:
	test	edi,edi
	jnz	731BD0h

l00731BB7:
	add	dword ptr [ebx],0FFh
	jnz	731C03h

l00731BBC:
	mov	edx,[ebx+4h]
	mov	eax,[edx+18h]
	push	ebx
	call	eax
	add	esp,4h
	pop	edi
	pop	ebp
	pop	ebx
	or	eax,0FFh
	pop	esi
	ret

l00731BD0:
	push	edi
	push	1h
	call	6DFF80h
	mov	esi,eax
	add	esp,8h
	test	esi,esi
	jnz	731C0Bh

l00731BE1:
	add	dword ptr [edi],0FFh
	jnz	731BF2h

l00731BE6:
	mov	ecx,[edi+4h]
	mov	edx,[ecx+18h]
	push	edi
	call	edx
	add	esp,4h

l00731BF2:
	add	dword ptr [ebx],0FFh
	jnz	731C03h

l00731BF7:
	mov	eax,[ebx+4h]
	mov	ecx,[eax+18h]
	push	ebx
	call	ecx
	add	esp,4h

l00731C03:
	pop	edi
	pop	ebp
	pop	ebx
	or	eax,0FFh
	pop	esi
	ret

l00731C0B:
	push	0h
	push	esi
	push	ebx
	call	707680h
	add	esp,0Ch
	add	dword ptr [esi],0FFh
	mov	ebp,eax
	jnz	731C2Ah

l00731C1E:
	mov	edx,[esi+4h]
	mov	eax,[edx+18h]
	push	esi
	call	eax
	add	esp,4h

l00731C2A:
	add	dword ptr [edi],0FFh
	jnz	731C3Bh

l00731C2F:
	mov	ecx,[edi+4h]
	mov	edx,[ecx+18h]
	push	edi
	call	edx
	add	esp,4h

l00731C3B:
	add	dword ptr [ebx],0FFh
	jnz	731C4Ch

l00731C40:
	mov	eax,[ebx+4h]
	mov	ecx,[eax+18h]
	push	ebx
	call	ecx
	add	esp,4h

l00731C4C:
	test	ebp,ebp
	jz	731CFCh

l00731C54:
	add	dword ptr [ebp+0h],0FFh
	jnz	731C66h

l00731C5A:
	mov	edx,[ebp+4h]
	mov	eax,[edx+18h]
	push	ebp
	call	eax
	add	esp,4h

l00731C66:
	pop	edi
	pop	ebp
	pop	ebx
	xor	eax,eax
	pop	esi
	ret

l00731C6D:
	mov	eax,[esi+4h]
	cmp	eax,0A26EF0h
	jz	731C89h

l00731C77:
	push	0A26EF0h
	push	eax
	call	6D5670h
	add	esp,8h
	test	eax,eax
	jz	731C8Eh

l00731C89:
	mov	ebp,[esi+8h]
	jmp	731C90h

l00731C8E:
	xor	ebp,ebp

l00731C90:
	test	ebp,ebp
	mov	edi,[esi+3Ch]
	jnz	731CB3h

l00731C97:
	mov	ecx,[0A17E2Ch]
	push	8DB028h
	push	ecx
	call	6E0F80h
	add	esp,8h
	pop	edi
	pop	ebp
	pop	ebx
	or	eax,0FFh
	pop	esi
	ret

l00731CB3:
	mov	ebx,[esp+1Ch]
	test	bl,1h
	mov	esi,[esp+14h]
	jz	731D04h

l00731CC0:
	mov	eax,[esi+4h]
	cmp	eax,0A23B20h
	jz	731CDCh

l00731CCA:
	push	0A23B20h
	push	eax
	call	6D5670h
	add	esp,8h
	test	eax,eax
	jz	731D04h

l00731CDC:
	cmp	edi,0A163B8h
	jz	731D04h

l00731CE4:
	push	8D1DC8h
	add	edi,14h
	push	edi
	push	esi
	call	71FB20h
	mov	esi,eax
	add	esp,0Ch
	test	esi,esi
	jnz	731D07h

l00731CFC:
	pop	edi
	pop	ebp
	pop	ebx
	or	eax,0FFh
	pop	esi
	ret

l00731D04:
	add	dword ptr [esi],1h

l00731D07:
	push	ebx
	push	ebp
	push	esi
	call	6DEFC0h
	add	esp,0Ch
	add	dword ptr [esi],0FFh
	mov	edi,eax
	jnz	731D25h

l00731D19:
	mov	edx,[esi+4h]
	mov	eax,[edx+18h]
	push	esi
	call	eax
	add	esp,4h

l00731D25:
	mov	eax,edi
	pop	edi
	pop	ebp
	pop	ebx
	pop	esi
	ret
00731D2C                                     CC CC CC CC             ....

;; fn00731D30: 00731D30
;;   Called from:
;;     006E17C5 (in fn006E1780)
;;     006E1873 (in fn006E1780)
;;     006E188C (in fn006E1780)
;;     006E1897 (in fn006E1780)
;;     006E18AC (in fn006E1780)
;;     006E18CA (in fn006E1780)
;;     006E18FB (in fn006E1780)
;;     006E1913 (in fn006E1780)
;;     006E7FD8 (in fn006E7F60)
;;     006E7FDF (in fn006E7F60)
;;     006E8009 (in fn006E7F60)
;;     006E801C (in fn006E7F60)
;;     006E8036 (in fn006E7F60)
;;     006E804B (in fn006E7F60)
;;     006E81C2 (in fn006E8060)
;;     006E81DB (in fn006E8060)
;;     006E81E9 (in fn006E8060)
;;     006E820A (in fn006E8060)
;;     006E8215 (in fn006E8060)
;;     006E82BB (in fn006E8060)
;;     006E82E8 (in fn006E8060)
;;     006E82F5 (in fn006E8060)
;;     006E832D (in fn006E8060)
;;     006E838A (in fn006E8060)
;;     006E83C9 (in fn006E8060)
;;     0070766D (in fn00707640)
;;     00709E67 (in fn00708DC0)
;;     00709FDE (in fn00708DC0)
;;     00716A8A (in fn00716A00)
;;     00716ABE (in fn00716A00)
;;     0072FA30 (in fn0072F830)
;;     0072FAAC (in fn0072F830)
;;     0072FABC (in fn0072F830)
;;     0072FAE0 (in fn0072F830)
;;     0072FC35 (in fn0072FBB0)
fn00731D30 proc
	push	edi
	mov	edi,[esp+0Ch]
	test	edi,edi
	jnz	731D5Ah

l00731D39:
	call	6E0FC0h
	test	eax,eax
	jnz	731D55h

l00731D42:
	mov	eax,[0A18720h]
	push	8DB250h
	push	eax
	call	6E0F80h
	add	esp,8h

l00731D55:
	or	eax,0FFh
	pop	edi
	ret

l00731D5A:
	mov	eax,[edi+4h]
	cmp	eax,0A26EF0h
	jz	731DBDh

l00731D64:
	push	0A26EF0h
	push	eax
	call	6D5670h
	add	esp,8h
	test	eax,eax
	jnz	731DBDh

l00731D76:
	call	6E0FC0h
	test	eax,eax
	jnz	731D55h

l00731D7F:
	mov	ecx,[esp+8h]
	push	esi
	push	ecx
	call	6ECAC0h
	mov	esi,eax
	add	esp,4h
	test	esi,esi
	jnz	731D99h

l00731D93:
	pop	esi
	or	eax,0FFh
	pop	edi
	ret

l00731D99:
	push	1h
	push	edi
	push	esi
	call	731B10h
	add	esp,0Ch
	add	dword ptr [esi],0FFh
	mov	edi,eax
	jnz	731DB8h

l00731DAC:
	mov	edx,[esi+4h]
	mov	eax,[edx+18h]
	push	esi
	call	eax
	add	esp,4h

l00731DB8:
	pop	esi
	mov	eax,edi
	pop	edi
	ret

l00731DBD:
	mov	eax,[edi+4h]
	cmp	eax,0A26EF0h
	jz	731DD9h

l00731DC7:
	push	0A26EF0h
	push	eax
	call	6D5670h
	add	esp,8h
	test	eax,eax
	jz	731DE0h

l00731DD9:
	mov	edi,[edi+8h]
	test	edi,edi
	jnz	731DF9h

l00731DE0:
	mov	ecx,[0A17E2Ch]
	push	8DB028h
	push	ecx
	call	6E0F80h
	add	esp,8h
	or	eax,0FFh
	pop	edi
	ret

l00731DF9:
	mov	edx,[esp+8h]
	push	edi
	push	edx
	call	dword ptr [8A46ECh]
	add	esp,8h
	xor	eax,eax
	pop	edi
	ret
00731E0C                                     CC CC CC CC             ....
00731E10 56 8B 74 24 08 8B 46 04 3D E8 E7 A1 00 57 0F 84 V.t$..F.=....W..
00731E20 30 01 00 00 68 E8 E7 A1 00 50 E8 41 38 FA FF 83 0...h....P.A8...
00731E30 C4 08 85 C0 0F 85 1A 01 00 00 8B 46 04 3D 00 F4 ...........F.=..
00731E40 A1 00 0F 84 04 01 00 00 68 00 F4 A1 00 50 E8 1D ........h....P..
00731E50 38 FA FF 83 C4 08 85 C0 0F 85 EE 00 00 00 68 1C 8.............h.
00731E60 AF 8D 00 56 E8 F7 D8 FA FF 8B F8 83 C4 08 85 FF ...V............
00731E70 0F 84 BD 00 00 00 6A 00 6A 00 57 E8 00 58 FD FF ......j.j.W..X..
00731E80 83 C4 0C 83 07 FF 8B F0 75 0C 8B 47 04 8B 48 18 ........u..G..H.
00731E90 57 FF D1 83 C4 04 85 F6 74 5D 8B 46 04 3D E8 E7 W.......t].F.=..
00731EA0 A1 00 74 74 68 E8 E7 A1 00 50 E8 C1 37 FA FF 83 ..tth....P..7...
00731EB0 C4 08 85 C0 75 62 8B 46 04 3D 00 F4 A1 00 74 3D ....ub.F.=....t=
00731EC0 68 00 F4 A1 00 50 E8 A5 37 FA FF 83 C4 08 85 C0 h....P..7.......
00731ED0 75 2B 8B 15 7C 6B A1 00 68 DC B2 8D 00 52 E8 9D u+..|k..h....R..
00731EE0 F0 FA FF 83 C4 08 83 06 FF 75 0C 8B 46 04 8B 48 .........u..F..H
00731EF0 18 56 FF D1 83 C4 04 5F 83 C8 FF 5E C3 56 E8 ED .V....._...^.V..
00731F00 E9 FD FF 83 C4 04 83 06 FF 8B F8 75 52 8B 56 04 ...........uR.V.
00731F10 8B 42 18 56 FF D0 EB 44 56 E8 82 32 FD FF 83 C4 .B.V...DV..2....
00731F20 04 83 06 FF 8B F8 75 37 8B 4E 04 8B 51 18 56 FF ......u7.N..Q.V.
00731F30 D2 EB 29 A1 7C 6B A1 00 68 A8 B2 8D 00 50 E8 3D ..).|k..h....P.=
00731F40 F0 FA FF 83 C4 08 5F 83 C8 FF 5E C3 56 E8 9E E9 ......_...^.V...
00731F50 FD FF EB 06 56 E8 46 32 FD FF 8B F8 83 C4 04 85 ....V.F2........
00731F60 FF 7D 1B 8B 0D 2C 7E A1 00 57 68 74 B2 8D 00 51 .}...,~..Wht...Q
00731F70 E8 5B F6 FA FF 83 C4 0C 5F 83 C8 FF 5E C3 8B C7 .[......_...^...
00731F80 5F 5E C3 CC CC CC CC CC CC CC CC CC CC CC CC CC _^..............

;; fn00731F90: 00731F90
;;   Called from:
;;     006E1B26 (in fn006E1AB0)
;;     0072FA68 (in fn0072F830)
;;     00753664 (in fn00753600)
fn00731F90 proc
	push	ecx
	mov	ecx,[esp+14h]
	mov	eax,[esp+8h]
	push	esi
	push	edi
	xor	edi,edi
	xor	esi,esi
	test	ecx,ecx
	mov	[esp+8h],eax
	jz	732000h

l00731FA7:
	mov	eax,[ecx+4h]
	cmp	eax,0A26EF0h
	jz	731FD9h

l00731FB1:
	push	0A26EF0h
	push	eax
	call	6D5670h
	add	esp,8h
	test	eax,eax
	jnz	731FD5h

l00731FC3:
	call	dword ptr [8A46E4h]
	pop	edi
	mov	dword ptr [eax],6h
	xor	eax,eax
	pop	esi
	pop	ecx
	ret

l00731FD5:
	mov	ecx,[esp+1Ch]

l00731FD9:
	cmp	[ecx+30h],esi
	jnz	731FFAh

l00731FDE:
	mov	ecx,[esp+18h]
	mov	edx,[esp+14h]
	mov	eax,[esp+10h]
	push	ecx
	push	edx
	push	eax
	call	dword ptr [8A474Ch]
	add	esp,0Ch
	pop	edi
	pop	esi
	pop	ecx
	ret

l00731FFA:
	mov	edi,[ecx+34h]
	mov	esi,[ecx+38h]

l00732000:
	mov	eax,[esp+14h]
	push	ebx
	mov	ebx,[esp+1Ch]
	sub	eax,1h
	test	eax,eax
	push	ebp
	mov	ebp,[8A4748h]
	mov	[esp+1Ch],eax
	jle	732093h

l0073201B:
	jmp	732020h
0073201D                                        8D 49 00              .I.

l00732020:
	push	ebx
	call	ebp
	add	esp,4h
	cmp	eax,0FFh
	jz	732088h

l0073202B:
	test	esi,esi
	jz	732049h

l0073202F:
	xor	esi,esi
	cmp	eax,0Ah
	jnz	732046h

l00732036:
	push	ebx
	or	edi,4h
	call	ebp
	add	esp,4h
	cmp	eax,0FFh
	jz	73208Fh

l00732044:
	jmp	732049h

l00732046:
	or	edi,1h

l00732049:
	cmp	eax,0Dh
	jnz	73205Ah

l0073204E:
	mov	esi,1h
	mov	eax,0Ah
	jmp	732062h

l0073205A:
	cmp	eax,0Ah
	jnz	732062h

l0073205F:
	or	edi,2h

l00732062:
	mov	ecx,[esp+10h]
	mov	[ecx],al
	add	ecx,1h
	cmp	eax,0Ah
	mov	[esp+10h],ecx
	jz	732083h

l00732074:
	mov	ecx,[esp+1Ch]
	sub	ecx,1h
	test	ecx,ecx
	mov	[esp+1Ch],ecx
	jg	732020h

l00732083:
	cmp	eax,0FFh
	jnz	73208Fh

l00732088:
	test	esi,esi
	jz	73208Fh

l0073208C:
	or	edi,1h

l0073208F:
	mov	ecx,[esp+24h]

l00732093:
	test	ecx,ecx
	mov	edx,[esp+10h]
	mov	byte ptr [edx],0h
	jz	7320B8h

l0073209E:
	mov	[ecx+34h],edi
	mov	[ecx+38h],esi
	mov	ecx,[esp+18h]
	mov	eax,edx
	sub	eax,ecx
	pop	ebp
	neg	eax
	pop	ebx
	sbb	eax,eax
	pop	edi
	and	eax,ecx
	pop	esi
	pop	ecx
	ret

l007320B8:
	test	esi,esi
	jz	7320D2h

l007320BC:
	push	ebx
	call	ebp
	add	esp,4h
	cmp	eax,0Ah
	jz	7320D2h

l007320C7:
	push	ebx
	push	eax
	call	dword ptr [8A4744h]
	add	esp,8h

l007320D2:
	mov	ecx,[esp+18h]
	mov	eax,[esp+10h]
	sub	eax,ecx
	pop	ebp
	neg	eax
	pop	ebx
	sbb	eax,eax
	pop	edi
	and	eax,ecx
	pop	esi
	pop	ecx
	ret
007320E8                         CC CC CC CC CC CC CC CC         ........
007320F0 51 53 8B 5C 24 18 85 DB 56 8B 74 24 10 0F 84 09 QS.\$...V.t$....
00732100 01 00 00 8B 43 04 3D F0 6E A2 00 74 16 68 F0 6E ....C.=.n..t.h.n
00732110 A2 00 50 E8 58 35 FA FF 83 C4 08 85 C0 0F 84 E9 ..P.X5..........
00732120 00 00 00 83 7B 30 00 75 1A 8B 44 24 18 8B 4C 24 ....{0.u..D$..L$
00732130 14 50 51 6A 01 56 FF 15 3C 46 8A 00 83 C4 10 5E .PQj.V..<F.....^
00732140 5B 59 C3 8B 53 34 55 8B 6C 24 18 85 ED 57 8B 7B [Y..S4U.l$...W.{
00732150 38 89 54 24 10 0F 84 9B 00 00 00 EB 03 8D 49 00 8.T$..........I.
00732160 8B 44 24 20 50 55 6A 01 56 8B DE FF 15 3C 46 8A .D$ PUj.V....<F.
00732170 00 83 C4 10 85 C0 74 7A 2B E8 BA 00 00 00 00 0F ......tz+.......
00732180 95 C2 8A 0B 83 E8 01 83 C3 01 80 F9 0D 75 0D C6 .............u..
00732190 06 0A 83 C6 01 BF 01 00 00 00 EB 2D 85 FF 74 11 ...........-..t.
007321A0 80 F9 0A 75 18 83 4C 24 10 04 33 FF 83 C5 01 EB ...u..L$..3.....
007321B0 18 80 F9 0A 75 0C 83 4C 24 10 02 EB 05 83 4C 24 ....u..L$.....L$
007321C0 10 01 88 0E 83 C6 01 33 FF 85 C0 75 B5 85 D2 75 .......3...u...u
007321D0 06 85 ED 75 8B EB 1B 85 FF 74 17 8B 4C 24 20 51 ...u.....t..L$ Q
007321E0 FF 15 C8 45 8A 00 83 C4 04 85 C0 74 05 83 4C 24 ...E.......t..L$
007321F0 10 01 8B 5C 24 24 8B 54 24 10 89 7B 38 5F 5D 8B ...\$$.T$..{8_].
00732200 C6 2B 44 24 10 5E 89 53 34 5B 59 C3 FF 15 E4 46 .+D$.^.S4[Y....F
00732210 8A 00 5E C7 00 06 00 00 00 33 C0 5B 59 C3 CC CC ..^......3.[Y...
00732220 56 8B 74 24 08 83 7E 40 00 74 09 56 E8 5F 93 FC V.t$..~@.t.V._..
00732230 FF 83 C4 04 83 7E 08 00 74 52 83 7E 14 00 74 4C .....~..tR.~..tL
00732240 53 57 E8 99 49 FD FF 8B 4E 14 8B F8 8B 46 08 50 SW..I...N....F.P
00732250 FF D1 57 8B D8 E8 C6 49 FD FF 83 C4 08 83 FB FF ..W....I........
00732260 75 28 8B 3D E4 46 8A 00 FF D7 8B D8 FF D7 8B 13 u(.=.F..........
00732270 52 8B F8 FF 15 2C 47 8A 00 50 8B 07 50 68 FC B2 R....,G..P..Ph..
00732280 8D 00 E8 99 48 FE FF 83 C4 10 5F 5B 8B 4E 2C 51 ....H....._[.N,Q
00732290 E8 7B CA FA FF 8B 46 0C 83 C4 04 85 C0 74 17 83 .{....F......t..
007322A0 00 FF 8B 46 0C 83 38 00 75 0C 8B 50 04 50 8B 42 ...F..8.u..P.P.B
007322B0 18 FF D0 83 C4 04 8B 46 10 85 C0 74 17 83 00 FF .......F...t....
007322C0 8B 46 10 83 38 00 75 0C 8B 48 04 8B 51 18 50 FF .F..8.u..H..Q.P.
007322D0 D2 83 C4 04 8B 46 3C 85 C0 74 17 83 00 FF 8B 46 .....F<..t.....F
007322E0 3C 83 38 00 75 0C 8B 48 04 8B 51 18 50 FF D2 83 <.8.u..H..Q.P...
007322F0 C4 04 8B 46 20 85 C0 74 10 50 E8 11 CA FA FF 83 ...F ..t.P......
00732300 C4 04 C7 46 20 00 00 00 00 8B 46 04 8B 88 A0 00 ...F .....F.....
00732310 00 00 56 FF D1 83 C4 04 5E C3 CC CC CC CC CC CC ..V.....^.......
00732320 51 53 8B 5C 24 0C 56 33 F6 39 73 08 75 19 A1 2C QS.\$.V3.9s.u..,
00732330 7E A1 00 68 28 B0 8D 00 50 E8 42 EC FA FF 83 C4 ~..h(...P.B.....
00732340 08 5E 33 C0 5B 59 C3 8B 43 20 3B C6 74 0C 50 E8 .^3.[Y..C ;.t.P.
00732350 BC C9 FA FF 83 C4 04 89 73 20 8B 44 24 14 8D 4C ........s .D$..L
00732360 24 08 51 8D 54 24 14 52 68 1C B3 8D 00 50 89 74 $.Q.T$.Rh....P.t
00732370 24 18 E8 39 59 FB FF 83 C4 10 85 C0 74 C3 8B 44 $..9Y.......t..D
00732380 24 10 81 78 04 00 F4 A1 00 55 74 26 8B 48 04 68 $..x.....Ut&.H.h
00732390 00 F4 A1 00 51 E8 D6 32 FA FF 83 C4 08 85 C0 75 ....Q..2.......u
007323A0 0D 8B 54 24 14 52 E8 F5 2D FD FF 99 EB 0A 8B 44 ..T$.R..-......D
007323B0 24 14 50 E8 28 F1 FD FF 83 C4 04 8B EA 8B F0 E8 $.P.(...........
007323C0 FC EB FA FF 85 C0 75 4A 57 E8 12 48 FD FF 8B F8 ......uJW..H....
007323D0 FF 15 E4 46 8A 00 C7 00 00 00 00 00 8B 44 24 10 ...F.........D$.
007323E0 55 56 8B 73 08 E8 E6 DF FF FF 57 8B F0 E8 2E 48 UV.s......W....H
007323F0 FD FF 83 C4 0C 85 F6 5F 74 1F A1 58 72 A1 00 50 ......._t..Xr..P
00732400 E8 EB EF FA FF 8B 4B 08 51 FF 15 88 45 8A 00 83 ......K.Q...E...
00732410 C4 08 5D 5E 33 C0 5B 59 C3 5D C7 43 38 00 00 00 ..]^3.[Y.].C8...
00732420 00 83 05 B8 63 A1 00 01 5E B8 B8 63 A1 00 5B 59 ....c...^..c..[Y
00732430 C3 CC CC CC CC CC CC CC CC CC CC CC CC CC CC CC ................
00732440 83 EC 08 53 8B 5C 24 10 83 7B 08 00 C7 44 24 04 ...S.\$..{...D$.
00732450 FF FF FF FF 75 1A A1 2C 7E A1 00 68 28 B0 8D 00 ....u..,~..h(...
00732460 50 E8 1A EB FA FF 83 C4 08 33 C0 5B 83 C4 08 C3 P........3.[....
00732470 8B 43 20 85 C0 74 2A 8B 4B 24 2B 4B 28 85 C9 7E .C ..t*.K$+K(..~
00732480 20 80 38 00 74 1B 8B 15 2C 7E A1 00 68 48 B0 8D  .8.t...,~..hH..
00732490 00 52 E8 E9 EA FA FF 83 C4 08 33 C0 5B 83 C4 08 .R........3.[...
007324A0 C3 8B 4C 24 14 8D 44 24 04 50 68 68 B3 8D 00 51 ..L$..D$.Phh...Q
007324B0 E8 FB 57 FB FF 83 C4 0C 85 C0 74 AD 55 8B 6C 24 ..W.......t.U.l$
007324C0 08 85 ED 7D 0C 6A 00 E8 F4 E3 FF FF 83 C4 04 8B ...}.j..........
007324D0 E8 81 FD FF FF FF 7F 76 1C 8B 15 98 85 A1 00 68 .......v.......h
007324E0 28 B3 8D 00 52 E8 96 EA FA FF 83 C4 08 5D 33 C0 (...R........]3.
007324F0 5B 83 C4 08 C3 55 6A 00 E8 B3 A4 FB FF 83 C4 08 [....Uj.........
00732500 85 C0 89 44 24 14 74 E5 56 57 33 FF E8 CF 46 FD ...D$.t.VW3...F.
00732510 FF 89 44 24 14 FF 15 E4 46 8A 00 89 38 8B 43 08 ..D$....F...8.C.
00732520 8B 4C 24 1C 53 50 83 C1 14 55 51 E8 C0 FB FF FF .L$.SP...UQ.....
00732530 8B 54 24 24 52 8B F0 E8 E4 46 FD FF 83 C4 14 85 .T$$R....F......
00732540 F6 74 73 03 FE 3B FD 0F 82 CB 00 00 00 83 7C 24 .ts..;........|$
00732550 10 00 0F 8D CD 00 00 00 55 E8 62 E3 FF FF 8B E8 ........U.b.....
00732560 8D 44 24 20 55 50 E8 85 9F FB FF 83 C4 0C 85 C0 .D$ UP..........
00732570 0F 8C 98 00 00 00 E8 65 46 FD FF 89 44 24 14 FF .......eF...D$..
00732580 15 E4 46 8A 00 C7 00 00 00 00 00 8B 4B 08 8B 44 ..F.........K..D
00732590 24 1C 53 51 8B D5 2B D7 52 8D 4C 07 14 51 E8 4D $.SQ..+.R.L..Q.M
007325A0 FB FF FF 8B 54 24 24 52 8B F0 E8 71 46 FD FF 83 ....T$$R...qF...
007325B0 C4 14 85 F6 75 8D 8B 43 08 50 FF 15 8C 45 8A 00 ....u..C.P...E..
007325C0 83 C4 04 85 C0 74 5E 8B 4B 08 51 FF 15 88 45 8A .....t^.K.Q...E.
007325D0 00 83 C4 04 85 FF 76 0B FF 15 E4 46 8A 00 83 38 ......v....F...8
007325E0 0B 74 42 8B 15 58 72 A1 00 52 E8 01 EE FA FF 8B .tB..Xr..R......
007325F0 44 24 20 83 00 FF 8B 44 24 20 83 C4 04 83 38 00 D$ ....D$ ....8.
00732600 75 0C 8B 48 04 8B 51 18 50 FF D2 83 C4 04 5F 5E u..H..Q.P....._^
00732610 5D 33 C0 5B 83 C4 08 C3 8B 43 08 50 FF 15 88 45 ]3.[.....C.P...E
00732620 8A 00 83 C4 04 3B FD 74 0E 8D 4C 24 1C 57 51 E8 .....;.t..L$.WQ.
00732630 BC 9E FB FF 83 C4 08 8B 44 24 1C 5F 5E 5D 5B 83 ........D$._^][.
00732640 C4 08 C3 CC CC CC CC CC CC CC CC CC CC CC CC CC ................
00732650 51 57 8B 7C 24 0C 83 7F 08 00 75 18 A1 2C 7E A1 QW.|$.....u..,~.
00732660 00 68 28 B0 8D 00 50 E8 14 E9 FA FF 83 C4 08 33 .h(...P........3
00732670 C0 5F 59 C3 8B 47 20 85 C0 74 28 8B 4F 24 2B 4F ._Y..G ..t(.O$+O
00732680 28 85 C9 7E 1E 80 38 00 74 19 8B 15 2C 7E A1 00 (..~..8.t...,~..
00732690 68 48 B0 8D 00 52 E8 E5 E8 FA FF 83 C4 08 33 C0 hH...R........3.
007326A0 5F 59 C3 8B 54 24 10 8D 44 24 0C 50 8D 4C 24 08 _Y..T$..D$.P.L$.
007326B0 51 68 70 B3 8D 00 52 E8 F4 55 FB FF 83 C4 10 85 Qhp...R..U......
007326C0 C0 74 AC 53 55 33 ED 39 6C 24 14 56 7E 4B 8B FF .t.SU3.9l$.V~K..
007326D0 E8 0B 45 FD FF 8B D8 FF 15 E4 46 8A 00 C7 00 00 ..E.......F.....
007326E0 00 00 00 8B 47 08 8B 4C 24 18 8B 54 24 10 57 50 ....G..L$..T$.WP
007326F0 51 8D 04 2A 50 E8 F6 F9 FF FF 53 8B F0 E8 1E 45 Q..*P.....S....E
00732700 FD FF 83 C4 14 85 F6 74 1F 8B 44 24 18 2B C6 03 .......t..D$.+..
00732710 EE 85 C0 89 44 24 18 7F B7 55 E8 01 2A FD FF 83 ....D$...U..*...
00732720 C4 04 5E 5D 5B 5F 59 C3 8B 4F 08 51 FF 15 8C 45 ..^][_Y..O.Q...E
00732730 8A 00 83 C4 04 85 C0 74 E0 8B 15 58 72 A1 00 52 .......t...Xr..R
00732740 E8 AB EC FA FF 8B 47 08 50 FF 15 88 45 8A 00 83 ......G.P...E...
00732750 C4 08 5E 5D 5B 33 C0 5F 59 C3 CC CC CC CC CC CC ..^][3._Y.......
00732760 B8 28 20 00 00 E8 36 2B F6 FF A1 88 41 A1 00 33 .( ...6+....A..3
00732770 C4 89 84 24 24 20 00 00 8B 8C 24 30 20 00 00 55 ...$$ ....$0 ..U
00732780 33 ED 57 8B BC 24 34 20 00 00 39 6F 08 8D 44 24 3.W..$4 ..9o..D$
00732790 2C 89 7C 24 0C 89 6C 24 20 89 44 24 10 C7 44 24 ,.|$..l$ .D$..D$
007327A0 28 00 20 00 00 89 6C 24 14 89 6C 24 24 89 6C 24 (. ...l$..l$$.l$
007327B0 1C 75 2D 8B 0D 2C 7E A1 00 68 28 B0 8D 00 51 E8 .u-..,~..h(...Q.
007327C0 BC E7 FA FF 83 C4 08 5F 33 C0 5D 8B 8C 24 24 20 ......._3.]..$$ 
007327D0 00 00 33 CC E8 B5 23 F6 FF 81 C4 28 20 00 00 C3 ..3...#....( ...
007327E0 8B 47 20 3B C5 74 3B 8B 57 24 2B 57 28 85 D2 7E .G ;.t;.W$+W(..~
007327F0 31 80 38 00 74 2C A1 2C 7E A1 00 68 48 B0 8D 00 1.8.t,.,~..hH...
00732800 50 E8 7A E7 FA FF 83 C4 08 5F 33 C0 5D 8B 8C 24 P.z......_3.]..$
00732810 24 20 00 00 33 CC E8 73 23 F6 FF 81 C4 28 20 00 $ ..3..s#....( .
00732820 00 C3 8D 54 24 20 52 68 74 B3 8D 00 51 E8 7E 54 ...T$ Rht...Q.~T
00732830 FB FF 83 C4 0C 85 C0 74 8E 55 E8 11 FE FB FF 83 .......t.U......
00732840 C4 04 3B C5 89 44 24 18 0F 84 79 FF FF FF 53 56 ..;..D$...y...SV
00732850 EB 12 EB 0C 8D A4 24 00 00 00 00 EB 03 8D 49 00 ......$.......I.
00732860 8B 7C 24 14 83 7C 24 24 00 0F 85 D9 01 00 00 E8 .|$..|$$........
00732870 6C 43 FD FF 89 44 24 24 FF 15 E4 46 8A 00 8B 74 lC...D$$...F...t
00732880 24 30 C7 00 00 00 00 00 8B 4F 08 8B 44 24 18 57 $0.......O..D$.W
00732890 51 2B F5 8D 1C 28 56 53 E8 53 F8 FF FF 8B 54 24 Q+...(VS.S....T$
007328A0 34 52 8B F8 E8 77 43 FD FF 83 C4 14 3B FE 1B C0 4R...wC.....;...
007328B0 F7 D8 85 FF 89 44 24 24 0F 84 86 01 00 00 01 7C .....D$$.......|
007328C0 24 2C 57 6A 0A 53 8B 1D FC 46 8A 00 FF D3 8B F0 $,Wj.S...F......
007328D0 83 C4 0C 03 EF 85 F6 75 71 8B 44 24 30 03 C0 3D .......uq.D$0..=
007328E0 FF FF FF 7F 89 44 24 30 0F 87 8D 01 00 00 39 74 .....D$0......9t
007328F0 24 1C 50 75 30 56 E8 B5 A0 FB FF 83 C4 08 85 C0 $.Pu0V..........
00732900 89 44 24 1C 0F 84 DE 01 00 00 55 8D 4C 24 38 83 .D$.......U.L$8.
00732910 C0 14 51 50 89 44 24 24 E8 13 27 F6 FF 83 C4 0C ..QP.D$$..'.....
00732920 E9 3B FF FF FF 8D 54 24 20 52 E8 C1 9B FB FF 83 .;....T$ R......
00732930 C4 08 85 C0 0F 8C AE 01 00 00 8B 44 24 1C 83 C0 ...........D$...
00732940 14 89 44 24 18 E9 16 FF FF FF 8B 7C 24 18 03 EF ..D$.......|$...
00732950 83 C6 01 8B CE 2B CF 51 57 E8 52 A0 FB FF 83 C4 .....+.QW.R.....
00732960 08 85 C0 89 44 24 10 0F 84 7B 01 00 00 8B 54 24 ....D$...{....T$
00732970 20 50 52 E8 98 00 FC FF 8B F8 8B 44 24 18 83 00  PR........D$...
00732980 FF 8B 44 24 18 83 C4 08 83 38 00 75 0C 8B 48 04 ..D$.....8.u..H.
00732990 8B 51 18 50 FF D2 83 C4 04 85 FF 0F 85 47 01 00 .Q.P.........G..
007329A0 00 8B C5 2B C6 50 6A 0A 56 8B FE FF D3 8B F0 83 ...+.Pj.V.......
007329B0 C4 0C 85 F6 75 9A 8B 4C 24 18 2B EF 55 57 51 FF ....u..L$.+.UWQ.
007329C0 15 90 45 8A 00 8B 44 24 34 83 C4 0C 85 C0 0F 8E ..E...D$4.......
007329D0 8C FE FF FF 39 44 24 2C 8B 7C 24 14 0F 82 82 FE ....9D$,.|$.....
007329E0 FF FF 85 ED 0F 84 1B 01 00 00 8B 44 24 18 55 50 ...........D$.UP
007329F0 E8 BB 9F FB FF 83 C4 08 85 C0 89 44 24 10 0F 84 ...........D$...
00732A00 E4 00 00 00 83 7C 24 28 00 0F 8E A9 00 00 00 6A .....|$(.......j
00732A10 00 57 E8 69 E2 FF FF 8B F0 83 C4 08 85 F6 75 71 .W.i..........uq
00732A20 8B 44 24 10 83 00 FF 8B 44 24 10 39 30 0F 85 B5 .D$.....D$.90...
00732A30 00 00 00 8B 48 04 8B 51 18 50 FF D2 83 C4 04 E9 ....H..Q.P......
00732A40 A4 00 00 00 8B 7C 24 14 8B 57 08 52 C7 44 24 2C .....|$..W.R.D$,
00732A50 00 00 00 00 FF 15 8C 45 8A 00 83 C4 04 85 C0 74 .......E.......t
00732A60 81 A1 58 72 A1 00 50 E8 84 E9 FA FF 8B 4F 08 51 ..Xr..P......O.Q
00732A70 FF 15 88 45 8A 00 83 C4 08 EB 6D 8B 15 98 85 A1 ...E......m.....
00732A80 00 68 C8 B0 8D 00 52 E8 F4 E4 FA FF 83 C4 08 EB .h....R.........
00732A90 57 8D 44 24 10 56 50 E8 A4 99 FB FF 83 C4 08 83 W.D$.VP.........
00732AA0 06 FF 75 0C 8B 4E 04 8B 51 18 56 FF D2 83 C4 04 ..u..N..Q.V.....
00732AB0 8B 44 24 10 85 C0 74 30 50 8B 44 24 24 50 E8 4D .D$...t0P.D$$P.M
00732AC0 FF FB FF 8B F0 8B 44 24 18 83 00 FF 8B 44 24 18 ......D$.....D$.
00732AD0 83 C4 08 83 38 00 75 0C 8B 48 04 8B 51 18 50 FF ....8.u..H..Q.P.
00732AE0 D2 83 C4 04 85 F6 74 1D 8B 44 24 20 83 00 FF 75 ......t..D$ ...u
00732AF0 0C 8B 48 04 8B 51 18 50 FF D2 83 C4 04 C7 44 24 ..H..Q.P......D$
00732B00 20 00 00 00 00 8B 44 24 1C 85 C0 5E 5B 74 18 83  .....D$...^[t..
00732B10 00 FF 8B 44 24 14 83 38 00 75 0C 8B 48 04 8B 51 ...D$..8.u..H..Q
00732B20 18 50 FF D2 83 C4 04 8B 8C 24 2C 20 00 00 8B 44 .P.......$, ...D
00732B30 24 18 5F 5D 33 CC E8 53 20 F6 FF 81 C4 28 20 00 $._]3..S ....( .
00732B40 00 C3 CC CC CC CC CC CC CC CC CC CC CC CC CC CC ................
00732B50 57 8B F8 8B 46 20 85 C0 74 1F 8B 4E 24 2B 4E 28 W...F ..t..N$+N(
00732B60 83 F9 01 0F 8D AE 00 00 00 50 E8 A1 C1 FA FF 83 .........P......
00732B70 C4 04 C7 46 20 00 00 00 00 57 E8 51 C1 FA FF 83 ...F ....W.Q....
00732B80 C4 04 85 C0 89 46 20 75 0A E8 82 E6 FA FF 83 C8 .....F u........
00732B90 FF 5F C3 53 E8 47 40 FD FF 8B D8 FF 15 E4 46 8A ._.S.G@.......F.
00732BA0 00 C7 00 00 00 00 00 8B 56 08 8B 46 20 56 52 57 ........V..F VRW
00732BB0 50 E8 3A F5 FF FF 53 8B F8 E8 62 40 FD FF 83 C4 P.:...S...b@....
00732BC0 14 85 FF 5B 75 46 8B 4E 08 51 FF 15 8C 45 8A 00 ...[uF.N.Q...E..
00732BD0 83 C4 04 85 C0 74 35 8B 15 58 72 A1 00 52 E8 0D .....t5..Xr..R..
00732BE0 E8 FA FF 8B 46 08 50 FF 15 88 45 8A 00 8B 46 20 ....F.P...E...F 
00732BF0 83 C4 08 85 C0 74 10 50 E8 13 C1 FA FF 83 C4 04 .....t.P........
00732C00 C7 46 20 00 00 00 00 83 C8 FF 5F C3 8B 46 20 89 .F ......._..F .
00732C10 46 28 03 C7 89 46 24 33 C0 5F C3 CC CC CC CC CC F(...F$3._......
00732C20 56 8B 74 24 08 83 7E 20 00 57 8B 7C 24 14 75 10 V.t$..~ .W.|$.u.
00732C30 8B C7 E8 19 FF FF FF 85 C0 7D 05 5F 33 C0 5E C3 .........}._3.^.
00732C40 8B 46 28 55 8B 6E 24 2B E8 75 13 8B 44 24 14 50 .F(U.n$+.u..D$.P
00732C50 6A 00 E8 59 9D FB FF 83 C4 08 5D 5F 5E C3 53 55 j..Y......]_^.SU
00732C60 6A 0A 50 FF 15 FC 46 8A 00 8B D8 83 C4 0C 85 DB j.P...F.........
00732C70 74 4A 8B 4C 24 18 83 C3 01 8B EB 2B 6E 28 8D 14 tJ.L$......+n(..
00732C80 29 52 6A 00 E8 27 9D FB FF 8B F8 83 C4 08 85 FF )Rj..'..........
00732C90 74 63 8B 46 28 8B 4C 24 18 55 50 8D 54 0F 14 52 tc.F(.L$.UP.T..R
00732CA0 E8 8B 23 F6 FF 83 C4 0C 3B 5E 24 89 5E 28 75 69 ..#.....;^$.^(ui
00732CB0 E8 7B EB FF FF 5B 5D 8B C7 5F 5E C3 8B 46 28 8B .{...[].._^..F(.
00732CC0 54 24 18 8B 5E 20 8B CF C1 F9 02 03 CF 89 44 24 T$..^ ........D$
00732CD0 14 51 8D 04 2A 50 56 C7 46 20 00 00 00 00 E8 3D .Q..*PV.F .....=
00732CE0 FF FF FF 8B F8 83 C4 0C 85 FF 75 10 53 E8 1E C0 ..........u.S...
00732CF0 FA FF 83 C4 04 5B 5D 5F 33 C0 5E C3 8B 4C 24 14 .....[]_3.^..L$.
00732D00 8B 54 24 18 55 51 8D 44 17 14 50 E8 20 23 F6 FF .T$.UQ.D..P. #..
00732D10 53 E8 FA BF FA FF 83 C4 10 5B 5D 8B C7 5F 5E C3 S........[].._^.
00732D20 8B 44 24 04 83 78 08 00 75 16 A1 2C 7E A1 00 68 .D$..x..u..,~..h
00732D30 28 B0 8D 00 50 E8 46 E2 FA FF 83 C4 08 33 C0 C3 (...P.F......3..
00732D40 68 00 20 00 00 6A 00 50 E8 D3 FE FF FF 83 C4 0C h. ..j.P........
00732D50 85 C0 74 17 83 78 08 00 75 13 83 00 FF 75 0C 8B ..t..x..u....u..
00732D60 48 04 8B 51 18 50 FF D2 83 C4 04 33 C0 C3 CC CC H..Q.P.....3....
00732D70 DD 44 24 18 8B 44 24 04 DC 44 24 08 DD 18 DD 44 .D$..D$..D$....D
00732D80 24 20 DC 44 24 10 DD 58 08 C3 CC CC CC CC CC CC $ .D$..X........
00732D90 DD 44 24 08 8B 44 24 04 DC 64 24 18 DD 18 DD 44 .D$..D$..d$....D
00732DA0 24 10 DC 64 24 20 DD 58 08 C3 CC CC CC CC CC CC $..d$ .X........
00732DB0 DD 44 24 08 8B 44 24 04 D9 E0 DD 18 DD 44 24 10 .D$..D$......D$.
00732DC0 D9 E0 DD 58 08 C3 CC CC CC CC CC CC CC CC CC CC ...X............
00732DD0 DD 44 24 18 8B 44 24 04 D9 C0 DD 44 24 08 DC C9 .D$..D$....D$...
00732DE0 DD 44 24 20 D9 C0 DD 44 24 10 DC C9 D9 CC DE E1 .D$ ...D$.......
00732DF0 DD 18 DE C9 D9 C9 DE CA DE C1 DD 58 08 C3 CC CC ...........X....
00732E00 DD 44 24 18 D9 EE DB F1 D9 C1 76 02 D9 E0 DD 44 .D$.......v....D
00732E10 24 20 D9 CA DB F2 D9 C2 76 02 D9 E0 D9 CA DB F2 $ ......v.......
00732E20 DD DA 72 5A D9 C9 DF E9 DD D8 9F F6 C4 44 7A 1C ..rZ.........Dz.
00732E30 DD D8 DD D8 FF 15 E4 46 8A 00 D9 EE C7 00 21 00 .......F......!.
00732E40 00 00 8B 44 24 04 DD 50 08 DD 18 C3 D9 C0 8B 44 ...D$..P.......D
00732E50 24 04 D8 F2 D9 C0 DE CA D9 C9 DE C2 D9 E8 DE F2 $...............
00732E60 DD 44 24 10 D9 C0 D8 CA DD 44 24 08 DC C1 D9 C9 .D$......D$.....
00732E70 D8 CC DD 18 DE CA DE E1 DE C9 DD 58 08 C3 DD D9 ...........X....
00732E80 8B 44 24 04 DD D8 D9 C1 D8 F1 D9 C0 DE CB D9 CA .D$.............
00732E90 DE C1 D9 E8 DE F1 D9 C1 DD 44 24 08 DC C9 DD 44 .........D$....D
00732EA0 24 10 DC C2 D9 CA D8 CB DD 18 D9 CB DE C9 DE E2 $...............
00732EB0 DE C9 DD 58 08 C3 CC CC CC CC CC CC CC CC CC CC ...X............
00732EC0 DD 44 24 18 83 EC 08 D9 C0 D9 EE D9 C0 D9 CA DF .D$.............
00732ED0 EA DD D9 DD 44 24 28 9F F6 C4 44 7A 23 D9 C0 D9 ....D$(...Dz#...
00732EE0 C2 D9 C9 DF E9 DD D8 9F F6 C4 44 7A 13 8B 44 24 ..........Dz..D$
00732EF0 0C DD D8 DD D9 D9 E8 DD 18 DD 58 08 83 C4 08 C3 ..........X.....
00732F00 DD 44 24 10 D9 C0 D9 C3 D9 C9 DF E9 DD D8 DD 44 .D$............D
00732F10 24 18 9F F6 C4 44 7A 49 D9 C0 D9 C4 D9 C9 DF E9 $....DzI........
00732F20 DD D8 9F F6 C4 44 7A 39 DD D9 DD D8 D9 C1 D9 C9 .....Dz9........
00732F30 DF E9 DD D8 9F F6 C4 44 7A 08 DB F1 DD D9 76 14 .......Dz.....v.
00732F40 EB 02 DD D8 DD D8 FF 15 E4 46 8A 00 D9 EE C7 00 .........F......
00732F50 21 00 00 00 8B 44 24 0C DD 10 DD 58 08 83 C4 08 !....D$....X....
00732F60 C3 DD DB 83 EC 10 DD D9 DD DA DD 5C 24 08 DD 1C ...........\$...
00732F70 24 FF 15 50 47 8A 00 DD 54 24 10 83 C4 10 DD 44 $..PG...T$.....D
00732F80 24 20 E8 9D 22 F6 FF DD 44 24 18 DD 44 24 10 D9 $ .."...D$..D$..
00732F90 F3 DD 44 24 20 D8 C9 DD 44 24 28 D9 C0 D9 EE D9 ..D$ ...D$(.....
00732FA0 C9 DF E9 DD D8 9F F6 C4 44 7B 2B DC CA D9 CA D9 ........D{+.....
00732FB0 EA DE C9 D9 C0 D9 FC D9 C9 D8 E1 D9 F0 D9 E8 DE ................
00732FC0 C1 D9 FD DD D9 DE FB DD 04 24 D9 ED D9 C9 D9 F1 .........$......
00732FD0 DE CA DE C1 EB 04 DD DA DD D9 D9 C0 8B 44 24 0C .............D$.
00732FE0 D9 FF D8 CA DD 18 D9 FE DE C9 DD 58 08 83 C4 08 ...........X....
00732FF0 C3 CC CC CC CC CC CC CC CC CC CC CC CC CC CC CC ................
00733000 DD 44 24 04 56 8B 35 B0 6F A2 00 DD 44 24 10 DD .D$.V.5.o...D$..
00733010 05 00 C0 8A 00 89 30 8B 35 B4 6F A2 00 89 70 04 ......0.5.o...p.
00733020 8B 35 B8 6F A2 00 89 70 08 8B 35 BC 6F A2 00 89 .5.o...p..5.o...
00733030 70 0C B9 01 00 00 00 5E EB 06 D9 C9 D9 CA D9 C9 p......^........
00733040 3B D1 7C 41 85 CA 74 20 DD 00 DD 40 08 D9 C4 D8 ;.|A..t ...@....
00733050 CA D9 C4 D8 CA DE E9 D9 C5 DE CA D9 C4 DE CB D9 ................
00733060 C9 DE C2 DD 18 DD 58 08 D9 C2 03 C9 85 C9 D8 CB ......X.........
00733070 D9 C2 D8 CB DE E9 D9 CA DE CB DC CA 7F BC DD D9 ................
00733080 DD D9 DD D8 C3 DD DA DD D8 DD D8 C3 CC CC CC CC ................
00733090 8B 54 24 14 8B 4C 24 04 83 EC 20 8D 42 64 83 EC .T$..L$... .Bd..
007330A0 10 3D C8 00 00 00 8B C4 0F 87 96 00 00 00 85 D2 .=..............
007330B0 89 08 8B 4C 24 38 89 48 04 8B 4C 24 3C 89 48 08 ...L$8.H..L$<.H.
007330C0 8B 4C 24 40 89 48 0C 8D 44 24 10 7E 24 E8 2E FF .L$@.H..D$.~$...
007330D0 FF FF 8B 10 8B 48 04 89 16 8B 50 08 8B 40 0C 89 .....H....P..@..
007330E0 4E 04 89 56 08 89 46 0C 83 C4 10 8B C6 83 C4 20 N..V..F........ 
007330F0 C3 F7 DA E8 08 FF FF FF 8B 10 8B CC 89 11 8B 50 ...............P
00733100 04 89 51 04 8B 50 08 8B 40 0C 89 51 08 8B 15 B4 ..Q..P..@..Q....
00733110 6F A2 00 89 41 0C 8B 0D B0 6F A2 00 83 EC 10 8B o...A....o......
00733120 C4 89 08 8B 0D B8 6F A2 00 89 50 04 8B 15 BC 6F ......o...P....o
00733130 A2 00 89 48 08 89 50 0C 8D 44 24 30 50 E8 BE FC ...H..P..D$0P...
00733140 FF FF EB 33 DB 44 24 44 8B 54 24 38 D9 EE 83 EC ...3.D$D.T$8....
00733150 10 D9 C9 DD 18 DD 58 08 8B C4 89 08 8B 4C 24 4C ......X......L$L
00733160 89 50 04 8B 54 24 50 89 48 08 89 50 0C 8D 44 24 .P..T$P.H..P..D$
00733170 30 50 E8 49 FD FF FF 8B 08 8B 50 04 89 0E 8B 48 0P.I......P....H
00733180 08 89 56 04 8B 50 0C 89 4E 08 89 56 0C 83 C4 24 ..V..P..N..V...$
00733190 8B C6 83 C4 20 C3 CC CC CC CC CC CC CC CC CC CC .... ...........
007331A0 6A 00 50 8B 80 98 00 00 00 FF D0 83 C4 08 85 C0 j.P.............
007331B0 74 1C 8B 4C 24 04 8B 54 24 08 89 48 08 8B 4C 24 t..L$..T$..H..L$
007331C0 0C 89 50 0C 8B 54 24 10 89 48 10 89 50 14 C3 CC ..P..T$..H..P...

;; fn007331D0: 007331D0
;;   Called from:
;;     006E9DDD (in fn006E9BD0)
;;     00736B26 (in fn007367D0)
;;     00736BEA (in fn007367D0)
;;     0073D212 (in fn0073D140)
fn007331D0 proc
	push	18h
	call	723860h
	add	esp,4h
	test	eax,eax
	jnz	7331E3h

l007331DE:
	jmp	6E1210h

l007331E3:
	mov	ecx,[esp+4h]
	mov	edx,[esp+8h]
	mov	[eax+8h],ecx
	mov	ecx,[esp+0Ch]
	mov	[eax+0Ch],edx
	mov	edx,[esp+10h]
	mov	[eax+10h],ecx
	mov	dword ptr [eax+4h],0A27190h
	mov	dword ptr [eax],1h
	mov	[eax+14h],edx
	ret
0073320D                                        CC CC CC              ...
00733210 83 EC 10 DD 44 24 14 6A 00 DD 5C 24 04 50 DD 44 ....D$.j..\$.P.D
00733220 24 24 8B 80 98 00 00 00 DD 5C 24 10 FF D0 83 C4 $$.......\$.....
00733230 08 85 C0 74 0D DD 04 24 DD 58 08 DD 44 24 08 DD ...t...$.X..D$..
00733240 58 10 83 C4 10 C3 CC CC CC CC CC CC CC CC CC CC X...............

;; fn00733250: 00733250
;;   Called from:
;;     0073619B (in fn00735890)
;;     00736248 (in fn00735890)
fn00733250 proc
	push	esi
	mov	esi,[esp+8h]
	mov	eax,[esi+4h]
	cmp	eax,0A27190h
	jz	73327Ch

l0073325F:
	push	0A27190h
	push	eax
	call	6D5670h
	add	esp,8h
	test	eax,eax
	jnz	73327Ch

l00733271:
	push	esi
	call	6FF3E0h
	add	esp,4h
	pop	esi
	ret

l0073327C:
	fld	double ptr [esi+8h]
	pop	esi
	ret
00733281    CC CC CC CC CC CC CC CC CC CC CC CC CC CC CC  ...............

;; fn00733290: 00733290
;;   Called from:
;;     007361F5 (in fn00735890)
;;     007362D4 (in fn00735890)
fn00733290 proc
	push	esi
	mov	esi,[esp+8h]
	mov	eax,[esi+4h]
	cmp	eax,0A27190h
	jz	7332B5h

l0073329F:
	push	0A27190h
	push	eax
	call	6D5670h
	add	esp,8h
	test	eax,eax
	jnz	7332B5h

l007332B1:
	fldz
	pop	esi
	ret

l007332B5:
	fld	double ptr [esi+10h]
	pop	esi
	ret
007332BA                               CC CC CC CC CC CC           ......

;; fn007332C0: 007332C0
;;   Called from:
;;     006E613A (in fn006E5C60)
fn007332C0 proc
	push	esi
	mov	esi,[esp+0Ch]
	mov	eax,[esi+4h]
	cmp	eax,0A27190h
	jz	7332F9h

l007332CF:
	push	0A27190h
	push	eax
	call	6D5670h
	add	esp,8h
	test	eax,eax
	jnz	7332F9h

l007332E1:
	push	esi
	call	6FF3E0h
	fldz
	mov	eax,[esp+0Ch]
	fxch	st(0),st(1)
	fstp	double ptr [eax]
	add	esp,4h
	pop	esi
	fstp	double ptr [eax+8h]
	ret

l007332F9:
	mov	eax,[esp+8h]
	mov	ecx,[esi+8h]
	mov	edx,[esi+0Ch]
	mov	[eax],ecx
	mov	ecx,[esi+10h]
	mov	[eax+4h],edx
	mov	edx,[esi+14h]
	mov	[eax+8h],ecx
	mov	[eax+0Ch],edx
	pop	esi
	ret
00733316                   CC CC CC CC CC CC CC CC CC CC       ..........
00733320 8B 44 24 04 8B 48 04 8B 91 A0 00 00 00 89 44 24 .D$..H........D$
00733330 04 FF E2 CC CC CC CC CC CC CC CC CC CC CC CC CC ................
00733340 81 EC A4 00 00 00 A1 88 41 A1 00 33 C4 89 84 24 ........A..3...$
00733350 A0 00 00 00 D9 EE 55 DD 46 08 8B AC 24 AC 00 00 ......U.F...$...
00733360 00 53 DF E9 DD D8 9F F6 C4 44 68 50 68 8D 00 6A .S.......DhPh..j
00733370 20 7A 49 8D 44 24 10 50 E8 63 1C FF FF DD 46 10  zI.D$.P.c....F.
00733380 83 C4 08 DD 1C 24 8D 4C 24 0C 51 83 C5 FF 55 57 .....$.L$.Q...UW
00733390 E8 EB BE 01 00 6A 01 68 04 B4 8D 00 57 FF 15 54 .....j.h....W..T
007333A0 47 8A 00 83 C4 20 5D 8B 8C 24 A0 00 00 00 33 CC G.... ]..$....3.
007333B0 E8 D9 17 F6 FF 81 C4 A4 00 00 00 C3 8D 54 24 10 .............T$.
007333C0 52 E8 1A 1C FF FF DD 46 08 83 C4 08 DD 1C 24 8D R......F......$.
007333D0 44 24 0C 50 8D 4C 24 70 6A 40 51 E8 A0 BE 01 00 D$.P.L$pj@Q.....
007333E0 53 68 FC B3 8D 00 8D 54 24 20 6A 20 52 E8 EE 1B Sh.....T$ j R...
007333F0 FF FF DD 46 10 83 C4 1C DD 1C 24 8D 44 24 0C 50 ...F......$.D$.P
00733400 8D 4C 24 30 6A 40 51 E8 74 BE 01 00 8D 54 24 38 .L$0j@Q.t....T$8
00733410 52 8D 44 24 7C 50 68 F4 B3 8D 00 55 57 E8 BE 1B R.D$|Ph....UW...
00733420 FF FF 8B 8C 24 CC 00 00 00 83 C4 28 5D 33 CC E8 ....$......(]3..
00733430 5A 17 F6 FF 81 C4 A4 00 00 00 C3 CC CC CC CC CC Z...............
00733440 83 EC 68 A1 88 41 A1 00 33 C4 89 44 24 64 53 8B ..h..A..3..D$dS.
00733450 5C 24 78 80 E3 01 F6 DB 55 8B 6C 24 78 56 8B 74 \$x.....U.l$xV.t
00733460 24 78 57 6A 64 1B DB 83 E3 FB 83 C3 11 8D 7C 24 $xWjd.........|$
00733470 14 E8 CA FE FF FF 8B C7 55 50 FF 15 EC 46 8A 00 ........UP...F..
00733480 8B 8C 24 80 00 00 00 83 C4 0C 5F 5E 5D 5B 33 CC ..$......._^][3.
00733490 33 C0 E8 F7 16 F6 FF 83 C4 68 C3 CC CC CC CC CC 3........h......
007334A0 83 EC 68 A1 88 41 A1 00 33 C4 89 44 24 64 53 56 ..h..A..3..D$dSV
007334B0 8B 74 24 74 57 6A 64 BB 11 00 00 00 8D 7C 24 10 .t$tWjd......|$.
007334C0 E8 7B FE FF FF 8B C7 50 E8 F3 95 FB FF 8B 4C 24 .{.....P......L$
007334D0 78 83 C4 08 5F 5E 5B 33 CC E8 B0 16 F6 FF 83 C4 x..._^[3........
007334E0 68 C3 CC CC CC CC CC CC CC CC CC CC CC CC CC CC h...............
007334F0 83 EC 68 A1 88 41 A1 00 33 C4 89 44 24 64 53 56 ..h..A..3..D$dSV
00733500 8B 74 24 74 57 6A 64 BB 0C 00 00 00 8D 7C 24 10 .t$tWjd......|$.
00733510 E8 2B FE FF FF 8B C7 50 E8 A3 95 FB FF 8B 4C 24 .+.....P......L$
00733520 78 83 C4 08 5F 5E 5B 33 CC E8 60 16 F6 FF 83 C4 x..._^[3..`.....
00733530 68 C3 CC CC CC CC CC CC CC CC CC CC CC CC CC CC h...............
00733540 56 57 8B 7C 24 0C DD 47 08 83 EC 08 DD 1C 24 E8 VW.|$..G......$.
00733550 CC C0 FA FF 8B F0 83 C4 08 83 FE FF 75 06 5F 83 ............u._.
00733560 C8 FF 5E C3 DD 47 10 83 EC 08 DD 1C 24 E8 AE C0 ..^..G......$...
00733570 FA FF 83 C4 08 83 F8 FF 74 E4 69 C0 43 42 0F 00 ........t.i.CB..
00733580 03 C6 83 F8 FF 75 05 B8 FE FF FF FF 5F 5E C3 CC .....u......_^..
00733590 83 EC 10 8B 44 24 18 DD 40 08 6A 18 DD 40 10 8B ....D$..@.j..@..
007335A0 44 24 18 DD 40 08 DD 40 10 D9 CB DE C1 DD 5C 24 D$..@..@......\$
007335B0 04 DE C1 DD 5C 24 0C E8 A4 02 FF FF 83 C4 04 85 ....\$..........
007335C0 C0 75 08 83 C4 10 E9 45 DC FA FF DD 04 24 C7 40 .u.....E.....$.@
007335D0 04 90 71 A2 00 DD 58 08 C7 00 01 00 00 00 DD 44 ..q...X........D
007335E0 24 08 DD 58 10 83 C4 10 C3 CC CC CC CC CC CC CC $..X............
007335F0 83 EC 10 8B 44 24 18 DD 40 08 6A 18 DD 40 10 8B ....D$..@.j..@..
00733600 44 24 18 DD 40 10 DD 40 08 DE E3 D9 CA DD 5C 24 D$..@..@......\$
00733610 04 DE E9 DD 5C 24 0C E8 44 02 FF FF 83 C4 04 85 ....\$..D.......
00733620 C0 75 08 83 C4 10 E9 E5 DB FA FF DD 04 24 C7 40 .u...........$.@
00733630 04 90 71 A2 00 DD 58 08 C7 00 01 00 00 00 DD 44 ..q...X........D
00733640 24 08 DD 58 10 83 C4 10 C3 CC CC CC CC CC CC CC $..X............
00733650 83 EC 10 8B 44 24 18 DD 40 08 6A 18 DD 40 10 8B ....D$..@.j..@..
00733660 44 24 18 DD 40 08 DD 40 10 D9 C3 D8 CA D9 C3 D8 D$..@..@........
00733670 CA DE E9 DD 5C 24 04 D9 CA DE C9 D9 C9 DE CA DE ....\$..........
00733680 C1 DD 5C 24 0C E8 D6 01 FF FF 83 C4 04 85 C0 75 ..\$...........u
00733690 08 83 C4 10 E9 77 DB FA FF DD 04 24 C7 40 04 90 .....w.....$.@..
007336A0 71 A2 00 DD 58 08 C7 00 01 00 00 00 DD 44 24 08 q...X........D$.
007336B0 DD 58 10 83 C4 10 C3 CC CC CC CC CC CC CC CC CC .X..............
007336C0 83 EC 10 53 55 56 8B 35 E4 46 8A 00 57 FF D6 C7 ...SUV.5.F..W...
007336D0 00 00 00 00 00 8B 44 24 28 8B 50 08 83 C0 08 83 ......D$(.P.....
007336E0 EC 10 8B CC 89 11 8B 50 04 89 51 04 8B 50 08 8B .......P..Q..P..
007336F0 40 0C 89 51 08 89 41 0C 8B 44 24 34 8B 50 08 83 @..Q..A..D$4.P..
00733700 C0 08 83 EC 10 8B CC 89 11 8B 50 04 89 51 04 8B ..........P..Q..
00733710 50 08 8B 40 0C 89 51 08 89 41 0C 8D 4C 24 30 51 P..@..Q..A..L$0Q
00733720 E8 DB F6 FF FF 8B 50 0C 8B 38 8B 58 04 8B 68 08 ......P..8.X..h.
00733730 83 C4 24 89 54 24 1C FF D6 83 38 21 75 1D A1 9C ..$.T$....8!u...
00733740 85 A1 00 68 08 B4 8D 00 50 E8 32 D8 FA FF 83 C4 ...h....P.2.....
00733750 08 33 C0 5F 5E 5D 5B 83 C4 10 C3 6A 18 E8 FE 00 .3._^][....j....
00733760 FF FF 83 C4 04 85 C0 75 0C 5F 5E 5D 5B 83 C4 10 .......u._^][...
00733770 E9 9B DA FA FF 8B 4C 24 1C 89 78 08 5F 89 58 0C ......L$..x._.X.
00733780 5E 89 68 10 5D C7 40 04 90 71 A2 00 C7 00 01 00 ^.h.].@..q......
00733790 00 00 89 48 14 5B 83 C4 10 C3 CC CC CC CC CC CC ...H.[..........
007337A0 83 EC 10 83 3D 04 4B A7 00 02 53 55 56 57 7C 1D ....=.K...SUVW|.
007337B0 A1 34 8A A1 00 6A 01 68 1C B4 8D 00 50 E8 AE E1 .4...j.h....P...
007337C0 FA FF 83 C4 0C 85 C0 0F 8C 8A 00 00 00 8B 35 E4 ..............5.
007337D0 46 8A 00 FF D6 C7 00 00 00 00 00 8B 44 24 28 8B F...........D$(.
007337E0 50 08 83 C0 08 83 EC 10 8B CC 89 11 8B 50 04 89 P............P..
007337F0 51 04 8B 50 08 8B 40 0C 89 51 08 89 41 0C 8B 44 Q..P..@..Q..A..D
00733800 24 34 8B 50 08 83 C0 08 83 EC 10 8B CC 89 11 8B $4.P............
00733810 50 04 89 51 04 8B 50 08 8B 40 0C 89 51 08 89 41 P..Q..P..@..Q..A
00733820 0C 8D 4C 24 30 51 E8 D5 F5 FF FF 8B 50 0C 8B 38 ..L$0Q......P..8
00733830 8B 58 04 8B 68 08 83 C4 24 89 54 24 1C FF D6 83 .X..h...$.T$....
00733840 38 21 75 1D A1 9C 85 A1 00 68 08 B4 8D 00 50 E8 8!u......h....P.
00733850 2C D7 FA FF 83 C4 08 33 C0 5F 5E 5D 5B 83 C4 10 ,......3._^][...
00733860 C3 6A 18 E8 F8 FF FE FF 83 C4 04 85 C0 75 0C 5F .j...........u._
00733870 5E 5D 5B 83 C4 10 E9 95 D9 FA FF 8B 4C 24 1C 89 ^][.........L$..
00733880 78 08 5F 89 58 0C 5E 89 68 10 5D C7 40 04 90 71 x._.X.^.h.].@..q
00733890 A2 00 C7 00 01 00 00 00 89 48 14 5B 83 C4 10 C3 .........H.[....
007338A0 A1 34 8A A1 00 83 EC 20 53 56 57 6A 01 68 4C B4 .4..... SVWj.hL.
007338B0 8D 00 50 E8 B8 E0 FA FF 83 C4 0C 85 C0 0F 8C 83 ..P.............
007338C0 00 00 00 8B 1D E4 46 8A 00 FF D3 8B 74 24 34 8B ......F.....t$4.
007338D0 7C 24 30 C7 00 00 00 00 00 8B 4E 08 8B 56 0C 83 |$0.......N..V..
007338E0 EC 10 8B C4 89 08 8B 4E 10 89 50 04 8B 56 14 89 .......N..P..V..
007338F0 48 08 8B 4F 08 89 50 0C 8B 57 0C 83 EC 10 8B C4 H..O..P..W......
00733900 89 08 8B 4F 10 89 50 04 8B 57 14 89 48 08 89 50 ...O..P..W..H..P
00733910 0C 8D 44 24 3C 50 E8 E5 F4 FF FF DD 00 DD 5C 24 ..D$<P........\$
00733920 30 83 C4 24 DD 40 08 DD 5C 24 14 FF D3 83 38 21 0..$.@..\$....8!
00733930 75 1D 8B 0D 9C 85 A1 00 68 38 B4 8D 00 51 E8 3D u.......h8...Q.=
00733940 D6 FA FF 83 C4 08 33 C0 5F 5E 5B 83 C4 20 C3 DD ......3._^[.. ..
00733950 44 24 0C 83 EC 08 DD 1C 24 E8 C0 18 F6 FF DD 46 D$......$......F
00733960 08 83 EC 08 DD 46 10 8B C4 D9 C1 D8 CB D9 C1 D9 .....F..........
00733970 EE DC C9 D9 CA DE E1 D9 CA DE CC DE CA D9 CA DE ................
00733980 C1 DD 47 08 DE E2 DC 6F 10 D9 C9 DD 18 DD 58 08 ..G....o......X.
00733990 E8 3B F8 FF FF 83 C4 10 5F 5E 5B 83 C4 20 C3 CC .;......_^[.. ..
007339A0 55 8B EC 83 E4 C0 A1 34 8A A1 00 83 EC 34 53 56 U......4.....4SV
007339B0 57 6A 01 68 4C B4 8D 00 50 E8 B2 DF FA FF 83 C4 Wj.hL...P.......
007339C0 0C 85 C0 0F 8C 81 00 00 00 8B 1D E4 46 8A 00 FF ............F...
007339D0 D3 8B 75 0C 8B 7D 08 C7 00 00 00 00 00 8B 4E 08 ..u..}........N.
007339E0 8B 56 0C 83 EC 10 8B C4 89 08 8B 4E 10 89 50 04 .V.........N..P.
007339F0 8B 56 14 89 48 08 8B 4F 08 89 50 0C 8B 57 0C 83 .V..H..O..P..W..
00733A00 EC 10 8B C4 89 08 8B 4F 10 89 50 04 8B 57 14 89 .......O..P..W..
00733A10 48 08 89 50 0C 8D 44 24 50 50 E8 E1 F3 FF FF DD H..P..D$PP......
00733A20 00 DD 5C 24 44 83 C4 24 DD 40 08 DD 5C 24 28 FF ..\$D..$.@..\$(.
00733A30 D3 83 38 21 75 1D 8B 0D 9C 85 A1 00 68 78 B4 8D ..8!u.......hx..
00733A40 00 51 E8 39 D5 FA FF 83 C4 08 33 C0 5F 5E 5B 8B .Q.9......3._^[.
00733A50 E5 5D C3 DD 44 24 20 83 EC 08 DD 1C 24 E8 BC 17 .]..D$ .....$...
00733A60 F6 FF D9 EE 83 EC 08 D9 C0 8B C4 DD 46 08 DD 46 ............F..F
00733A70 10 D9 C1 D8 CD D9 C1 D8 CD DE E9 D9 C9 D8 CD D9 ................
00733A80 CA DE CC D9 C9 DE C3 DD 47 10 DD 47 08 DE E2 D9 ........G..G....
00733A90 C9 DD 5C 24 30 DE E2 D9 C9 DD 5C 24 38 D9 C9 DD ..\$0.....\$8...
00733AA0 18 DD 58 08 E8 27 F7 FF FF DD 44 24 30 8B F0 8B ..X..'....D$0...
00733AB0 C4 DD 18 DD 44 24 38 DD 58 08 E8 11 F7 FF FF 8B ....D$8.X.......
00733AC0 F8 57 56 6A 02 E8 B6 C4 FA FF 83 C4 1C 85 F6 8B .WVj............
00733AD0 D8 74 11 83 06 FF 75 0C 8B 56 04 8B 42 18 56 FF .t....u..V..B.V.
00733AE0 D0 83 C4 04 85 FF 74 11 83 07 FF 75 0C 8B 4F 04 ......t....u..O.
00733AF0 8B 51 18 57 FF D2 83 C4 04 5F 5E 8B C3 5B 8B E5 .Q.W....._^..[..
00733B00 5D C3 CC CC CC CC CC CC CC CC CC CC CC CC CC CC ]...............
00733B10 55 8B EC 83 E4 F8 83 EC 28 81 7D 10 B8 63 A1 00 U.......(.}..c..
00733B20 56 57 74 1B A1 2C 7E A1 00 68 C8 B4 8D 00 50 E8 VWt..,~..h....P.
00733B30 4C D4 FA FF 83 C4 08 33 C0 5F 5E 8B E5 5D C3 8B L......3._^..]..
00733B40 3D E4 46 8A 00 FF D7 8B 75 0C C7 00 00 00 00 00 =.F.....u.......
00733B50 DD 46 08 DD 46 10 D9 C1 E8 E3 14 F6 FF D9 EE D9 .F..F...........
00733B60 C9 8B C8 89 4C 24 0C DF E9 DD D8 9F F6 C4 44 7A ....L$........Dz
00733B70 41 DB 44 24 0C D9 C9 DF E9 DD D8 9F F6 C4 44 7A A.D$..........Dz
00733B80 33 8B 45 08 8B 50 08 51 83 C0 08 83 EC 10 8B CC 3.E..P.Q........
00733B90 89 11 8B 50 04 89 51 04 8B 50 08 8B 40 0C 89 51 ...P..Q..P..@..Q
00733BA0 08 8D 74 24 34 89 41 0C E8 E3 F4 FF FF 83 C4 14 ..t$4.A.........
00733BB0 EB 4D DD D8 8B 4E 08 8B 56 0C 83 EC 10 8B C4 89 .M...N..V.......
00733BC0 08 8B 4E 10 89 50 04 8B 56 14 89 48 08 89 50 0C ..N..P..V..H..P.
00733BD0 8B 45 08 8B 50 08 83 C0 08 83 EC 10 8B CC 89 11 .E..P...........
00733BE0 8B 50 04 89 51 04 8B 50 08 8B 40 0C 89 51 08 89 .P..Q..P..@..Q..
00733BF0 41 0C 8D 4C 24 40 51 E8 C4 F2 FF FF 83 C4 24 DD A..L$@Q.......$.
00733C00 00 8B 0D 18 47 8A 00 DD 54 24 10 DD 40 08 DD 54 ....G...T$..@..T
00733C10 24 18 D9 C1 DD 01 D9 C9 DF E9 DD D8 9F F6 C4 44 $..............D
00733C20 7B 3D DD 01 D9 E0 D9 C0 D9 CB DF EB DD DA 9F F6 {=..............
00733C30 C4 44 7B 2B D9 C0 DD 01 D9 C9 DF E9 DD D8 9F F6 .D{+............
00733C40 C4 44 7B 1B DF E9 DD D8 9F F6 C4 44 7B 15 FF D7 .D{........D{...
00733C50 83 38 22 75 1D FF D7 C7 00 00 00 00 00 EB 13 DD .8"u............
00733C60 D9 DD D8 FF D7 83 38 00 75 08 FF D7 C7 00 22 00 ......8.u.....".
00733C70 00 00 FF D7 83 38 21 75 1C 8B 15 9C 85 A1 00 68 .....8!u.......h
00733C80 A4 B4 8D 00 52 E8 F6 D2 FA FF 83 C4 08 33 C0 5F ....R........3._
00733C90 5E 8B E5 5D C3 FF D7 83 38 22 75 1B A1 98 85 A1 ^..]....8"u.....
00733CA0 00 68 8C B4 8D 00 50 E8 D4 D2 FA FF 83 C4 08 33 .h....P........3
00733CB0 C0 5F 5E 8B E5 5D C3 DD 44 24 10 83 EC 10 8B C4 ._^..]..D$......
00733CC0 DD 18 DD 44 24 28 DD 58 08 E8 02 F5 FF FF 83 C4 ...D$(.X........
00733CD0 10 5F 5E 8B E5 5D C3 CC CC CC CC CC CC CC CC CC ._^..]..........
00733CE0 8B 44 24 08 8B 4C 24 04 50 51 E8 B1 FC FF FF 83 .D$..L$.PQ......
00733CF0 C4 08 85 C0 74 1C 56 8B 70 0C 83 06 01 83 00 FF ....t.V.p.......
00733D00 75 0C 8B 50 04 50 8B 42 18 FF D0 83 C4 04 8B C6 u..P.P.B........
00733D10 5E C3 33 C0 C3 CC CC CC CC CC CC CC CC CC CC CC ^.3.............
00733D20 83 EC 10 8B 44 24 14 DD 40 08 6A 18 D9 E0 DD 5C ....D$..@.j....\
00733D30 24 04 DD 40 10 D9 E0 DD 5C 24 0C E8 20 FB FE FF $..@....\$.. ...
00733D40 83 C4 04 85 C0 75 08 83 C4 10 E9 C1 D4 FA FF DD .....u..........
00733D50 04 24 C7 40 04 90 71 A2 00 DD 58 08 C7 00 01 00 .$.@..q...X.....
00733D60 00 00 DD 44 24 08 DD 58 10 83 C4 10 C3 CC CC CC ...D$..X........
00733D70 8B 44 24 04 81 78 04 90 71 A2 00 75 04 83 00 01 .D$..x..q..u....
00733D80 C3 53 8B 58 10 55 8B 68 14 56 8B 70 08 57 8B 78 .S.X.U.h.V.p.W.x
00733D90 0C 6A 18 E8 C8 FA FE FF 83 C4 04 85 C0 75 09 5F .j...........u._
00733DA0 5E 5D 5B E9 68 D4 FA FF 89 70 08 89 78 0C 5F 89 ^][.h....p..x._.
00733DB0 58 10 5E 89 68 14 5D C7 40 04 90 71 A2 00 C7 00 X.^.h.].@..q....
00733DC0 01 00 00 00 5B C3 CC CC CC CC CC CC CC CC CC CC ....[...........
00733DD0 8B 44 24 04 DD 40 10 83 EC 10 DD 5C 24 08 DD 40 .D$..@.....\$..@
00733DE0 08 DD 1C 24 FF 15 50 47 8A 00 83 C4 08 DD 1C 24 ...$..PG.......$
00733DF0 E8 6B B2 FC FF 83 C4 08 C3 CC CC CC CC CC CC CC .k..............
00733E00 8B 4C 24 04 DD 41 08 D9 EE D9 C0 D9 CA DF EA DD .L$..A..........
00733E10 D9 9F F6 C4 44 7A 10 DD 41 10 DF E9 DD D8 9F F6 ....Dz..A.......
00733E20 C4 44 7A 05 33 C0 C3 DD D8 B8 01 00 00 00 C3 CC .Dz.3...........
00733E30 83 EC 10 D9 EE 56 8B 74 24 1C DD 5C 24 0C 8B 06 .....V.t$..\$...
00733E40 8B 40 04 3D E8 E7 A1 00 0F 84 29 01 00 00 68 E8 .@.=......)...h.
00733E50 E7 A1 00 50 E8 17 18 FA FF 83 C4 08 85 C0 0F 85 ...P............
00733E60 13 01 00 00 8B 0E 8B 41 04 3D 00 F4 A1 00 0F 84 .......A.=......
00733E70 A1 00 00 00 68 00 F4 A1 00 50 E8 F1 17 FA FF 83 ....h....P......
00733E80 C4 08 85 C0 0F 85 8B 00 00 00 8B 16 8B 42 04 3D .............B.=
00733E90 B8 E4 A1 00 74 4F 68 B8 E4 A1 00 50 E8 CF 17 FA ....tOh....P....
00733EA0 FF 83 C4 08 85 C0 75 3D 8B 06 8B 40 04 3D 90 71 ......u=...@.=.q
00733EB0 A2 00 74 1C 68 90 71 A2 00 50 E8 B1 17 FA FF 83 ..t.h.q..P......
00733EC0 C4 08 85 C0 75 0A B8 01 00 00 00 5E 83 C4 10 C3 ....u......^....
00733ED0 8B 4C 24 18 8B 01 83 00 01 8B 36 83 06 01 33 C0 .L$.......6...3.
00733EE0 5E 83 C4 10 C3 8B 16 52 E8 F3 B4 FC FF 83 EC 0C ^......R........
00733EF0 8B C4 DD 18 DD 44 24 1C DD 58 08 E8 D0 F2 FF FF .....D$..X......
00733F00 89 06 8B 44 24 28 8B 00 83 00 01 83 C4 10 33 C0 ...D$(........3.
00733F10 5E 83 C4 10 C3 8B 0E 51 E8 33 D2 FD FF DD 54 24 ^......Q.3....T$
00733F20 08 D9 C0 83 C4 04 DD 05 F8 86 8A 00 D9 C9 DF E9 ................
00733F30 DD D8 9F F6 C4 44 7A 17 DD D8 E8 81 D0 FA FF 85 .....Dz.........
00733F40 C0 74 08 83 C8 FF 5E 83 C4 10 C3 DD 44 24 04 83 .t....^.....D$..
00733F50 EC 10 8B C4 DD 18 DD 44 24 1C DD 58 08 E8 6E F2 .......D$..X..n.
00733F60 FF FF 8B 54 24 28 89 06 8B 02 83 00 01 83 C4 10 ...T$(..........
00733F70 33 C0 5E 83 C4 10 C3 8B 06 50 E8 21 12 FD FF 89 3.^......P.!....
00733F80 44 24 20 DB 44 24 20 6A 18 DD 5C 24 0C E8 CE F8 D$ .D$ j..\$....
00733F90 FE FF 83 C4 08 85 C0 75 17 E8 72 D2 FA FF 8B 4C .......u..r....L
00733FA0 24 18 89 06 8B 01 83 00 01 33 C0 5E 83 C4 10 C3 $........3.^....
00733FB0 DD 44 24 04 8B 4C 24 18 DD 58 08 C7 40 04 90 71 .D$..L$..X..@..q
00733FC0 A2 00 DD 44 24 0C C7 00 01 00 00 00 DD 58 10 89 ...D$........X..
00733FD0 06 8B 01 83 00 01 33 C0 5E 83 C4 10 C3 CC CC CC ......3.^.......
00733FE0 83 EC 20 8D 44 24 28 50 8D 4C 24 28 51 E8 2E AB .. .D$(P.L$(Q...
00733FF0 FA FF 83 C4 08 85 C0 0F 8C 0E 01 00 00 0F 8F 80 ................
00734000 00 00 00 8B 44 24 24 81 78 04 90 71 A2 00 74 19 ....D$$.x..q..t.
00734010 8B 50 04 68 90 71 A2 00 52 E8 52 16 FA FF 83 C4 .P.h.q..R.R.....
00734020 08 85 C0 74 26 8B 44 24 24 8B 4C 24 28 81 79 04 ...t&.D$$.L$(.y.
00734030 90 71 A2 00 74 65 8B 41 04 68 90 71 A2 00 50 E8 .q..te.A.h.q..P.
00734040 2C 16 FA FF 83 C4 08 85 C0 75 48 8B 44 24 24 83 ,........uH.D$$.
00734050 00 FF 8B 44 24 24 83 38 00 75 0C 8B 48 04 8B 51 ...D$$.8.u..H..Q
00734060 18 50 FF D2 83 C4 04 8B 44 24 28 83 00 FF 8B 44 .P......D$(....D
00734070 24 28 83 38 00 75 0C 8B 48 04 8B 51 18 50 FF D2 $(.8.u..H..Q.P..
00734080 83 C4 04 83 05 80 64 A1 00 01 B8 80 64 A1 00 83 ......d.....d...
00734090 C4 20 C3 8B 4C 24 28 8B 44 24 24 DD 40 08 DD 1C . ..L$(.D$$.@...
007340A0 24 DD 40 10 DD 5C 24 08 DD 41 08 DD 5C 24 10 DD $.@..\$..A..\$..
007340B0 41 10 83 00 FF 8B 44 24 24 DD 5C 24 18 83 38 00 A.....D$$.\$..8.
007340C0 75 0C 8B 48 04 8B 51 18 50 FF D2 83 C4 04 8B 44 u..H..Q.P......D
007340D0 24 28 83 00 FF 8B 44 24 28 83 38 00 75 0C 8B 48 $(....D$(.8.u..H
007340E0 04 8B 51 18 50 FF D2 83 C4 04 8B 4C 24 2C 83 F9 ..Q.P......L$,..
007340F0 02 74 1E 83 F9 03 74 19 A1 7C 6B A1 00 68 D8 B4 .t....t..|k..h..
00734100 8D 00 50 E8 78 CE FA FF 83 C4 08 33 C0 83 C4 20 ..P.x......3... 
00734110 C3 DD 44 24 10 DD 04 24 DF E9 DD D8 9F F6 C4 44 ..D$...$.......D
00734120 7A 19 DD 44 24 18 DD 44 24 08 DF E9 DD D8 9F F6 z..D$..D$.......
00734130 C4 44 7A 07 B8 01 00 00 00 EB 02 33 C0 33 D2 83 .Dz........3.3..
00734140 F9 02 0F 94 C2 3B C2 B8 E4 91 A1 00 74 05 B8 D8 .....;......t...
00734150 91 A1 00 83 00 01 83 C4 20 C3 CC CC CC CC CC CC ........ .......
00734160 A1 7C 6B A1 00 68 0C B5 8D 00 50 E8 10 CE FA FF .|k..h....P.....
00734170 83 C4 08 33 C0 C3 CC CC CC CC CC CC CC CC CC CC ...3............
00734180 A1 7C 6B A1 00 68 3C B5 8D 00 50 E8 F0 CD FA FF .|k..h<...P.....
00734190 83 C4 08 33 C0 C3 CC CC CC CC CC CC CC CC CC CC ...3............
007341A0 A1 7C 6B A1 00 68 6C B5 8D 00 50 E8 D0 CD FA FF .|k..hl...P.....
007341B0 83 C4 08 33 C0 C3 CC CC CC CC CC CC CC CC CC CC ...3............
007341C0 83 EC 10 8B 44 24 14 8B 48 10 8B 50 14 56 8B 70 ....D$..H..P.V.p
007341D0 08 89 4C 24 0C 89 54 24 10 DD 44 24 0C 57 D9 E0 ..L$..T$..D$.W..
007341E0 8B 78 0C DD 5C 24 10 6A 18 E8 72 F6 FE FF 83 C4 .x..\$.j..r.....
007341F0 04 85 C0 75 0A 5F 5E 83 C4 10 E9 11 D0 FA FF 8B ...u._^.........
00734200 4C 24 10 8B 54 24 14 89 70 08 89 78 0C 5F 89 48 L$..T$..p..x._.H
00734210 10 C7 40 04 90 71 A2 00 C7 00 01 00 00 00 89 50 ..@..q.........P
00734220 14 5E 83 C4 10 C3 CC CC CC CC CC CC CC CC CC CC .^..............
00734230 8B 44 24 04 83 C0 08 50 68 98 B5 8D 00 E8 BE 5F .D$....Ph......_
00734240 FB FF 83 C4 08 C3 CC CC CC CC CC CC CC CC CC CC ................
00734250 55 8B EC 83 E4 C0 81 EC 74 02 00 00 A1 88 41 A1 U.......t.....A.
00734260 00 33 C4 89 84 24 70 02 00 00 8B 45 08 D9 EE 53 .3...$p....E...S
00734270 DD 54 24 68 56 DD 5C 24 64 8B F1 89 44 24 60 8B .T$hV.\$d...D$`.
00734280 46 04 57 33 FF 33 DB 3D 50 B4 A1 00 89 7C 24 54 F.W3.3.=P....|$T
00734290 89 7C 24 4C 0F 84 E7 00 00 00 68 50 B4 A1 00 50 .|$L......hP...P
007342A0 E8 CB 13 FA FF 83 C4 08 85 C0 0F 85 D1 00 00 00 ................
007342B0 8B 46 04 3D 20 3B A2 00 74 57 68 20 3B A2 00 50 .F.= ;..tWh ;..P
007342C0 E8 AB 13 FA FF 83 C4 08 85 C0 75 45 8D 4C 24 48 ..........uE.L$H
007342D0 51 8D 54 24 44 52 56 E8 A4 D5 FC FF 83 C4 0C 85 Q.T$DRV.........
007342E0 C0 0F 84 AA 00 00 00 A1 7C 6B A1 00 68 50 B6 8D ........|k..hP..
007342F0 00 50 E8 89 CC FA FF 83 C4 08 33 C0 5F 5E 5B 8B .P........3._^[.
00734300 8C 24 70 02 00 00 33 CC E8 81 08 F6 FF 8B E5 5D .$p...3........]
00734310 C3 8B 46 08 3D 00 01 00 00 7C 2B 8B 0D 2C 7E A1 ..F.=....|+..,~.
00734320 00 68 28 B6 8D 00 51 E8 54 CC FA FF 83 C4 08 33 .h(...Q.T......3
00734330 C0 5F 5E 5B 8B 8C 24 70 02 00 00 33 CC E8 4C 08 ._^[..$p...3..L.
00734340 F6 FF 8B E5 5D C3 6A 00 8D 54 24 7C 52 50 8B 46 ....].j..T$|RP.F
00734350 0C 50 E8 B9 81 FE FF 83 C4 10 85 C0 75 D1 8D 54 .P..........u..T
00734360 24 78 8B C2 89 54 24 40 8D 70 01 EB 03 8D 49 00 $x...T$@.p....I.
00734370 8A 08 83 C0 01 84 C9 75 F7 2B C6 89 44 24 48 EB .......u.+..D$H.
00734380 14 8B 4E 08 8D 56 14 89 54 24 40 89 4C 24 48 EB ..N..V..T$@.L$H.
00734390 04 8B 54 24 40 8A 02 84 C0 89 54 24 50 74 30 BE ..T$@.....T$Pt0.
007343A0 01 00 00 00 0F B6 D0 52 FF 15 84 46 8A 00 83 C4 .......R...F....
007343B0 04 85 C0 74 12 8B 44 24 40 03 C6 89 44 24 40 8A ...t..D$@...D$@.
007343C0 00 84 C0 75 DF EB 08 8B 4C 24 40 38 19 75 2A 68 ...u....L$@8.u*h
007343D0 04 B6 8D 00 A1 2C 7E A1 00 50 E8 A1 CB FA FF 83 .....,~..P......
007343E0 C4 08 33 C0 5F 5E 5B 8B 8C 24 70 02 00 00 33 CC ..3._^[..$p...3.
007343F0 E8 99 07 F6 FF 8B E5 5D C3 DD 05 F8 86 8A 00 89 .......]........
00734400 74 24 44 DD 54 24 58 8A 01 0F BE D0 83 FA 6A 0F t$D.T$X.......j.
00734410 87 C9 00 00 00 0F B6 92 88 46 73 00 FF 24 95 74 .........Fs..$.t
00734420 46 73 00 8B C1 DD D8 2B 44 24 50 3B 44 24 48 0F Fs.....+D$P;D$H.
00734430 85 9E 01 00 00 85 DB 75 02 8B FE 8B D1 2B 54 24 .......u.....+T$
00734440 50 3B 54 24 48 0F 8D DC 01 00 00 85 FF 0F 85 D8 P;T$H...........
00734450 01 00 00 DD 44 24 58 EB AE C7 44 24 44 FF FF FF ....D$X...D$D...
00734460 FF 85 DB DD D8 0F 45 FE 03 CE 89 4C 24 40 8A 01 ......E....L$@..
00734470 84 C0 74 C5 3C 2B 74 C1 3C 2D 74 BD 0F B6 C8 51 ..t.<+t.<-t....Q
00734480 FF 15 84 46 8A 00 8B 4C 24 44 83 C4 04 85 C0 74 ...F...L$D.....t
00734490 AA EB A6 83 7C 24 4C 00 75 3D 85 DB 75 39 D9 EE ....|$L.u=..u9..
007344A0 DF F1 76 08 DD D8 DB 44 24 44 EB 04 DA 4C 24 44 ..v....D$D...L$D
007344B0 03 CE DD 5C 24 68 89 4C 24 40 8A 01 3C 2B 89 74 ...\$h.L$@..<+.t
007344C0 24 4C 0F 84 73 FF FF FF 3C 2D 0F 84 6B FF FF FF $L..s...<-..k...
007344D0 8B DE E9 64 FF FF FF DD D8 E9 5B FF FF FF 0F B6 ...d......[.....
007344E0 D0 DD D8 52 FF 15 84 46 8A 00 8B 4C 24 44 83 C4 ...R...F...L$D..
007344F0 04 85 C0 8A 01 74 3B 84 C0 74 D5 EB 03 8D 49 00 .....t;..t....I.
00734500 0F B6 C0 50 FF 15 84 46 8A 00 8B 4C 24 44 83 C4 ...P...F...L$D..
00734510 04 85 C0 74 13 03 CE 89 4C 24 40 8A 01 84 C0 75 ...t....L$@....u
00734520 DF 8B DE E9 13 FF FF FF 80 39 00 74 A3 E9 07 FF .........9.t....
00734530 FF FF 3C 2E 74 15 0F B6 C8 51 FF 15 00 47 8A 00 ..<.t....Q...G..
00734540 8B 4C 24 44 83 C4 04 85 C0 74 02 8B C6 85 DB 0F .L$D.....t......
00734550 85 E4 FE FF FF 85 C0 0F 84 DC FE FF FF FF 15 E4 ................
00734560 46 8A 00 8D 54 24 60 89 18 8B 44 24 40 52 50 E8 F...T$`...D$@RP.
00734570 9C AA 01 00 DD 5C 24 60 83 C4 08 FF 15 E4 46 8A .....\$`......F.
00734580 00 39 18 75 58 8B 4C 24 60 89 4C 24 40 8A 01 3C .9.uX.L$`.L$@..<
00734590 4A 0F 84 A4 FE FF FF 3C 6A 0F 84 9C FE FF FF 39 J......<j......9
007345A0 5C 24 54 0F 85 90 FE FF FF DB 44 24 44 39 5C 24 \$T.......D$D9\$
007345B0 4C 89 74 24 54 0F 45 DE DC 4C 24 58 89 74 24 44 L.t$T.E..L$X.t$D
007345C0 DD 5C 24 70 DD 05 F8 86 8A 00 DD 5C 24 58 E9 68 .\$p.......\$X.h
007345D0 FE FF FF 68 E0 B5 8D 00 E9 F7 FD FF FF 8B 4C 24 ...h..........L$
007345E0 40 51 68 C0 B5 8D 00 8D 94 24 80 01 00 00 68 00 @Qh......$....h.
007345F0 01 00 00 52 E8 E7 09 FF FF 8B 0D 2C 7E A1 00 8D ...R.......,~...
00734600 84 24 88 01 00 00 50 51 E8 73 C9 FA FF 83 C4 18 .$....PQ.s......
00734610 33 C0 5F 5E 5B 8B 8C 24 70 02 00 00 33 CC E8 6B 3._^[..$p...3..k
00734620 05 F6 FF 8B E5 5D C3 85 FF 74 11 8B 15 2C 7E A1 .....]...t...,~.
00734630 00 68 9C B5 8D 00 52 E9 9E FD FF FF DD 44 24 68 .h....R......D$h
00734640 8B 44 24 64 83 EC 10 DD 5C 24 08 DD 84 24 80 00 .D$d....\$...$..
00734650 00 00 DD 1C 24 E8 B6 EB FF FF 8B 8C 24 8C 02 00 ....$.......$...
00734660 00 83 C4 10 5F 5E 5B 33 CC E8 20 05 F6 FF 8B E5 ...._^[3.. .....
00734670 5D C3 8B FF 23 44 73 00 61 44 73 00 59 44 73 00 ]...#Ds.aDs.YDs.
00734680 93 44 73 00 DE 44 73 00 00 04 04 04 04 04 04 04 .Ds..Ds.........
00734690 04 04 04 04 04 04 04 04 04 04 04 04 04 04 04 04 ................
007346A0 04 04 04 04 04 04 04 04 04 04 04 04 04 04 04 04 ................
007346B0 04 04 04 01 04 02 04 04 04 04 04 04 04 04 04 04 ................
007346C0 04 04 04 04 04 04 04 04 04 04 04 04 04 04 04 04 ................
007346D0 04 04 03 04 04 04 04 04 04 04 04 04 04 04 04 04 ................
007346E0 04 04 04 04 04 04 04 04 04 04 04 04 04 04 04 04 ................
007346F0 04 04 03 CC CC CC CC CC CC CC CC CC CC CC CC CC ................
00734700 83 EC 28 8B 54 24 34 53 55 56 57 8D 44 24 14 50 ..(.T$4SUVW.D$.P
00734710 8B 44 24 44 8D 4C 24 14 51 68 2C 70 A2 00 68 2C .D$D.L$.Qh,p..h,
00734720 B7 8D 00 52 33 DB 50 33 ED C7 44 24 28 D8 91 A1 ...R3.P3..D$(...
00734730 00 89 5C 24 2C E8 C6 33 FB FF 83 C4 18 85 C0 0F ..\$,..3........
00734740 84 99 03 00 00 8B 4C 24 10 8B 41 04 3D 90 71 A2 ......L$..A.=.q.
00734750 00 75 1F 39 5C 24 14 75 19 81 7C 24 3C 90 71 A2 .u.9\$.u..|$<.q.
00734760 00 75 0F 83 01 01 8B 44 24 10 5F 5E 5D 5B 83 C4 .u.....D$._^][..
00734770 28 C3 3D 50 B4 A1 00 0F 84 48 03 00 00 8B C8 68 (.=P.....H.....h
00734780 50 B4 A1 00 51 E8 E6 0E FA FF 83 C4 08 85 C0 0F P...Q...........
00734790 85 2C 03 00 00 8B 4C 24 10 BE 20 3B A2 00 39 71 .,....L$.. ;..9q
007347A0 04 0F 84 1E 03 00 00 8B 51 04 56 52 E8 BF 0E FA ........Q.VR....
007347B0 FF 83 C4 08 85 C0 0F 85 05 03 00 00 8B 44 24 14 .............D$.
007347C0 3B C3 74 56 81 78 04 50 B4 A1 00 74 2F 8B 40 04 ;.tV.x.P...t/.@.
007347D0 68 50 B4 A1 00 50 E8 95 0E FA FF 83 C4 08 85 C0 hP...P..........
007347E0 75 1A 8B 44 24 14 39 70 04 74 11 8B 48 04 56 51 u..D$.9p.t..H.VQ
007347F0 E8 7B 0E FA FF 83 C4 08 85 C0 74 1E 8B 15 7C 6B .{........t...|k
00734800 A1 00 68 04 B7 8D 00 52 E8 73 C7 FA FF 83 C4 08 ..h....R.s......
00734810 33 C0 5F 5E 5D 5B 83 C4 28 C3 A1 D8 DC A6 00 3B 3._^][..(......;
00734820 C3 75 1A 68 F8 B6 8D 00 E8 43 D2 FB FF 83 C4 04 .u.h.....C......
00734830 3B C3 A3 D8 DC A6 00 0F 84 A1 02 00 00 50 8B 44 ;............P.D
00734840 24 14 50 E8 E8 9A FA FF 8B F8 83 C4 08 85 FF 75 $.P............u
00734850 0B E8 0A C9 FA FF 8B 44 24 10 EB 57 6A 00 E8 BD .......D$..Wj...
00734860 B4 FA FF 8B F0 83 C4 04 85 F6 0F 84 6E 02 00 00 ............n...
00734870 6A 00 56 57 E8 07 2E FD FF 83 C4 0C 89 44 24 10 j.VW.........D$.
00734880 83 06 FF 75 0C 8B 4E 04 8B 51 18 56 FF D2 83 C4 ...u..N..Q.V....
00734890 04 83 07 FF 75 0C 8B 47 04 8B 48 18 57 FF D1 83 ....u..G..H.W...
007348A0 C4 04 8B 44 24 10 85 C0 0F 84 30 02 00 00 BB 01 ...D$.....0.....
007348B0 00 00 00 8B 4C 24 14 85 C9 8B 70 04 8B 56 30 74 ....L$....p..V0t
007348C0 06 8B 79 04 8B 6F 30 85 D2 0F 84 B5 01 00 00 83 ..y..o0.........
007348D0 7A 50 00 0F 84 AB 01 00 00 85 C9 74 12 85 ED 0F zP.........t....
007348E0 84 9F 01 00 00 83 7D 50 00 0F 84 95 01 00 00 BF ......}P........
007348F0 90 71 A2 00 3B F7 0F 84 C5 00 00 00 57 56 E8 6D .q..;.......WV.m
00734900 0D FA FF 83 C4 08 85 C0 0F 85 AB 00 00 00 8B 54 ...............T
00734910 24 10 52 E8 38 E7 FC FF 83 C4 04 85 DB 8B F0 74 $.R.8..........t
00734920 1C 8B 44 24 10 83 00 FF 8B 44 24 10 83 38 00 75 ..D$.....D$..8.u
00734930 0C 8B 48 04 8B 51 18 50 FF D2 83 C4 04 85 F6 0F ..H..Q.P........
00734940 84 99 01 00 00 8B 46 04 3D B8 E4 A1 00 74 44 68 ......F.=....tDh
00734950 B8 E4 A1 00 50 E8 16 0D FA FF 83 C4 08 85 C0 75 ....P..........u
00734960 32 A1 7C 6B A1 00 68 D8 B6 8D 00 50 E8 0F C6 FA 2.|k..h....P....
00734970 FF 83 C4 08 83 06 FF 0F 85 3A 01 00 00 8B 4E 04 .........:....N.
00734980 8B 51 18 56 FF D2 83 C4 04 33 C0 5F 5E 5D 5B 83 .Q.V.....3._^][.
00734990 C4 28 C3 56 E8 47 AA FC FF DD 5C 24 1C 83 C4 04 .(.V.G....\$....
007349A0 83 06 FF 75 0C 8B 46 04 8B 48 18 56 FF D1 83 C4 ...u..F..H.V....
007349B0 04 D9 EE DD 5C 24 20 EB 32 8B 44 24 10 8B 4C 24 ....\$ .2.D$..L$
007349C0 14 85 DB DD 40 08 DD 5C 24 18 DD 40 10 DD 5C 24 ....@..\$..@..\$
007349D0 20 74 1C 83 00 FF 8B 44 24 10 83 38 00 75 0C 8B  t.....D$..8.u..
007349E0 50 04 50 8B 42 18 FF D0 83 C4 04 8B 4C 24 14 85 P.P.B.......L$..
007349F0 C9 75 06 D9 EE D9 C0 EB 61 39 79 04 74 54 8B 49 .u......a9y.tT.I
00734A00 04 57 51 E8 68 0C FA FF 83 C4 08 85 C0 75 3F 8B .WQ.h........u?.
00734A10 54 24 14 8B 45 50 52 FF D0 8B F0 83 C4 04 85 F6 T$..EPR.........
00734A20 0F 84 B8 00 00 00 56 E8 B4 A9 FC FF DD 54 24 2C ......V......T$,
00734A30 83 C4 04 83 06 FF 75 12 8B 4E 04 DD D8 8B 51 18 ......u..N....Q.
00734A40 56 FF D2 DD 44 24 2C 83 C4 04 D9 EE EB 0A 8B 4C V...D$,........L
00734A50 24 14 DD 41 08 DD 41 10 D9 C9 DD 44 24 18 83 EC $..A..A....D$...
00734A60 10 DE E2 8B C4 DC 44 24 30 D9 C9 DD 18 DD 58 08 ......D$0.....X.
00734A70 8B 44 24 4C E8 27 E7 FF FF 83 C4 10 5F 5E 5D 5B .D$L.'......_^][
00734A80 83 C4 28 C3 A1 7C 6B A1 00 68 A8 B6 8D 00 50 E8 ..(..|k..h....P.
00734A90 EC C4 FA FF 83 C4 08 85 DB 74 1C 8B 44 24 10 83 .........t..D$..
00734AA0 00 FF 8B 44 24 10 83 38 00 75 0C 8B 48 04 8B 51 ...D$..8.u..H..Q
00734AB0 18 50 FF D2 83 C4 04 33 C0 5F 5E 5D 5B 83 C4 28 .P.....3._^][..(
00734AC0 C3 8B 4C 24 10 39 5C 24 14 74 1D A1 7C 6B A1 00 ..L$.9\$.t..|k..
00734AD0 68 70 B6 8D 00 50 E8 A5 C4 FA FF 83 C4 08 33 C0 hp...P........3.
00734AE0 5F 5E 5D 5B 83 C4 28 C3 8B 54 24 3C 52 E8 5E F7 _^][..(..T$<R.^.
00734AF0 FF FF 83 C4 04 5F 5E 5D 5B 83 C4 28 C3 CC CC CC ....._^][..(....

;; fn00734B00: 00734B00
;;   Called from:
;;     00734DB7 (in fn00734BB0)
fn00734B00 proc
	mov	edx,[0A27250h]
	mov	cl,[edx]
	push	esi
	push	edi
	movzx	edi,cl
	cmp	byte ptr [edi+0A6DCE0h],0h
	mov	esi,eax
	mov	eax,1h
	jnz	734B32h

l00734B1D:
	test	cl,cl
	jz	734B32h

l00734B21:
	movzx	ecx,cl
	add	edx,eax
	mov	[ecx+0A6DCE0h],al
	mov	cl,[edx]
	test	cl,cl
	jnz	734B21h

l00734B32:
	mov	cl,[esi]
	test	cl,cl
	jz	734B59h

l00734B38:
	jmp	734B40h
00734B3A                               8D 9B 00 00 00 00           ......

l00734B40:
	movzx	edx,cl
	add	esi,eax
	cmp	byte ptr [edx+0A6DCE0h],0h
	jz	734B57h

l00734B4E:
	mov	cl,[esi]
	test	cl,cl
	jnz	734B40h

l00734B54:
	pop	edi
	pop	esi
	ret

l00734B57:
	xor	eax,eax

l00734B59:
	pop	edi
	pop	esi
	ret
00734B5C                                     CC CC CC CC             ....

;; fn00734B60: 00734B60
;;   Called from:
;;     00734D51 (in fn00734BB0)
;;     00734D5A (in fn00734BB0)
;;     00734D61 (in fn00734BB0)
;;     00734D68 (in fn00734BB0)
fn00734B60 proc
	push	esi
	mov	esi,[eax+8h]
	sub	esi,1h
	js	734BA0h

l00734B69:
	push	edi
	lea	edi,[eax+esi*4+0Ch]
	mov	edi,edi

l00734B70:
	mov	eax,[edi]
	test	eax,eax
	jz	734B7Fh

l00734B76:
	cmp	dword ptr [eax+4h],0A1B450h
	jz	734B8Ch

l00734B7F:
	push	8DB820h
	call	6E86F0h
	add	esp,4h

l00734B8C:
	push	edi
	call	6EC890h
	sub	esi,1h
	add	esp,4h
	sub	edi,4h
	test	esi,esi
	jge	734B70h

l00734B9F:
	pop	edi

l00734BA0:
	pop	esi
	ret
00734BA2       CC CC CC CC CC CC CC CC CC CC CC CC CC CC   ..............

;; fn00734BB0: 00734BB0
;;   Called from:
;;     00728D6C (in fn00728BE0)
;;     007370E4 (in fn007367D0)
fn00734BB0 proc
	sub	esp,8h
	cmp	dword ptr [esp+0Ch],0h
	push	ebx
	push	ebp
	push	esi
	push	edi
	jl	734E7Eh

l00734BC2:
	cmp	dword ptr [esp+20h],0h
	jl	734E7Eh

l00734BCD:
	cmp	dword ptr [esp+2Ch],0h
	jz	734E7Eh

l00734BD8:
	mov	edi,[esp+30h]
	test	edi,edi
	jz	734E7Eh

l00734BE4:
	mov	eax,[edi+4h]
	cmp	eax,0A16588h
	jz	734C04h

l00734BEE:
	push	0A16588h
	push	eax
	call	6D5670h
	add	esp,8h
	test	eax,eax
	jz	734E7Eh

l00734C04:
	mov	eax,[esp+34h]
	test	eax,eax
	jz	734E7Eh

l00734C10:
	mov	eax,[eax+4h]
	cmp	eax,0A16588h
	jz	734C30h

l00734C1A:
	push	0A16588h
	push	eax
	call	6D5670h
	add	esp,8h
	test	eax,eax
	jz	734E7Eh

l00734C30:
	mov	eax,[esp+38h]
	test	eax,eax
	jz	734E7Eh

l00734C3C:
	mov	eax,[eax+4h]
	cmp	eax,0A16588h
	jz	734C5Ch

l00734C46:
	push	0A16588h
	push	eax
	call	6D5670h
	add	esp,8h
	test	eax,eax
	jz	734E7Eh

l00734C5C:
	mov	esi,[esp+3Ch]
	test	esi,esi
	jz	734E7Eh

l00734C68:
	mov	eax,[esi+4h]
	cmp	eax,0A16588h
	jz	734C88h

l00734C72:
	push	0A16588h
	push	eax
	call	6D5670h
	add	esp,8h
	test	eax,eax
	jz	734E7Eh

l00734C88:
	mov	ebp,[esp+40h]
	test	ebp,ebp
	jz	734E7Eh

l00734C94:
	mov	eax,[ebp+4h]
	cmp	eax,0A16588h
	jz	734CB4h

l00734C9E:
	push	0A16588h
	push	eax
	call	6D5670h
	add	esp,8h
	test	eax,eax
	jz	734E7Eh

l00734CB4:
	mov	eax,[esp+48h]
	test	eax,eax
	jz	734E7Eh

l00734CC0:
	mov	eax,[eax+4h]
	cmp	eax,0A1B450h
	jz	734CE0h

l00734CCA:
	push	0A1B450h
	push	eax
	call	6D5670h
	add	esp,8h
	test	eax,eax
	jz	734E7Eh

l00734CE0:
	mov	eax,[esp+44h]
	test	eax,eax
	jz	734E7Eh

l00734CEC:
	mov	eax,[eax+4h]
	cmp	eax,0A1B450h
	jz	734D0Ch

l00734CF6:
	push	0A1B450h
	push	eax
	call	6D5670h
	add	esp,8h
	test	eax,eax
	jz	734E7Eh

l00734D0C:
	mov	ebx,[esp+50h]
	test	ebx,ebx
	jz	734E7Eh

l00734D18:
	mov	eax,[ebx+4h]
	cmp	eax,0A1B450h
	jz	734D38h

l00734D22:
	push	0A1B450h
	push	eax
	call	6D5670h
	add	esp,8h
	test	eax,eax
	jz	734E7Eh

l00734D38:
	mov	eax,[esp+2Ch]
	push	eax
	call	701950h
	add	esp,4h
	test	eax,eax
	jz	734E7Eh

l00734D4D:
	mov	eax,[esp+34h]
	call	734B60h
	mov	eax,[esp+38h]
	call	734B60h
	mov	eax,esi
	call	734B60h
	mov	eax,ebp
	call	734B60h
	push	edi
	call	6DFE20h
	mov	esi,eax
	add	esp,4h
	sub	esi,1h
	js	734DD9h

l00734D7D:
	lea	ecx,[edi+esi*4+0Ch]
	mov	[esp+10h],ecx

l00734D85:
	push	esi
	push	edi
	call	6DFE60h
	mov	ecx,[eax+4h]
	add	esp,8h
	cmp	ecx,0A1B450h
	mov	[esp+14h],eax
	jz	734DB4h

l00734D9E:
	push	0A1B450h
	push	ecx
	call	6D5670h
	add	esp,8h
	test	eax,eax
	jz	734DCDh

l00734DB0:
	mov	eax,[esp+14h]

l00734DB4:
	add	eax,14h
	call	734B00h
	test	eax,eax
	jz	734DCDh

l00734DC0:
	mov	edx,[esp+10h]
	push	edx
	call	6EC890h
	add	esp,4h

l00734DCD:
	sub	dword ptr [esp+10h],4h
	sub	esi,1h
	test	esi,esi
	jge	734D85h

l00734DD9:
	mov	eax,[0A27468h]
	push	0A27458h
	push	eax
	call	723860h
	add	esp,4h
	push	eax
	call	6DDD30h
	add	esp,8h
	test	eax,eax
	jz	734E8Fh

l00734DFD:
	mov	ecx,[esp+1Ch]
	mov	edx,[esp+20h]
	mov	[eax+8h],ecx
	mov	ecx,[esp+24h]
	mov	[eax+10h],ecx
	mov	ecx,[esp+2Ch]
	mov	[eax+0Ch],edx
	mov	edx,[esp+28h]
	mov	[eax+14h],edx
	add	dword ptr [ecx],1h
	mov	[eax+18h],ecx
	add	dword ptr [edi],1h
	mov	ecx,[esp+34h]
	mov	[eax+1Ch],edi
	add	dword ptr [ecx],1h
	mov	[eax+20h],ecx
	mov	ecx,[esp+38h]
	add	dword ptr [ecx],1h
	mov	[eax+24h],ecx
	mov	ecx,[esp+3Ch]
	add	dword ptr [ecx],1h
	mov	[eax+28h],ecx
	add	dword ptr [ebp+0h],1h
	mov	ecx,[esp+44h]
	mov	[eax+2Ch],ebp
	add	dword ptr [ecx],1h
	mov	[eax+30h],ecx
	mov	ecx,[esp+48h]
	add	dword ptr [ecx],1h
	pop	edi
	mov	[eax+34h],ecx
	mov	ecx,[esp+48h]
	pop	esi
	mov	[eax+38h],ecx
	add	dword ptr [ebx],1h
	pop	ebp
	mov	[eax+3Ch],ebx
	mov	dword ptr [eax+40h],0h
	pop	ebx
	add	esp,8h
	ret

l00734E7E:
	push	40h
	push	8DB840h
	call	6E1DC0h
	add	esp,8h
	xor	eax,eax

l00734E8F:
	pop	edi
	pop	esi
	pop	ebp
	pop	ebx
	add	esp,8h
	ret
00734E97                      CC CC CC CC CC CC CC CC CC        .........
00734EA0 83 EC 08 55 56 8B F0 8B 6E 08 55 E8 70 AE FA FF ...UV...n.U.p...
00734EB0 8B D0 83 C4 04 85 D2 89 54 24 08 75 06 5E 5D 83 ........T$.u.^].
00734EC0 C4 08 C3 53 33 DB 85 ED 57 7E 63 8B CE 2B CA 8D ...S3...W~c..+..
00734ED0 7A 0C 89 4C 24 14 EB 08 8D A4 24 00 00 00 00 90 z..L$.....$.....
00734EE0 8B 34 39 8B 46 04 3D 50 B4 A1 00 75 05 83 06 01 .49.F.=P...u....
00734EF0 EB 30 68 50 B4 A1 00 50 E8 73 07 FA FF 83 C4 08 .0hP...P.s......
00734F00 85 C0 74 34 8B 46 08 50 83 C6 14 56 E8 9F 7A FB ..t4.F.P...V..z.
00734F10 FF 8B F0 83 C4 08 85 F6 74 38 8B 54 24 10 8B 4C ........t8.T$..L
00734F20 24 14 89 37 83 C3 01 83 C7 04 3B DD 7C B2 5F 5B $..7......;.|._[
00734F30 5E 8B C2 5D 83 C4 08 C3 8B 4E 04 8B 51 0C A1 7C ^..].....N..Q..|
00734F40 6B A1 00 52 68 58 B8 8D 00 50 E8 81 C6 FA FF 83 k..RhX...P......
00734F50 C4 0C 8B 44 24 10 83 00 FF 75 0C 8B 48 04 8B 51 ...D$....u..H..Q
00734F60 18 50 FF D2 83 C4 04 5F 5B 5E 33 C0 5D 83 C4 08 .P....._[^3.]...
00734F70 C3 CC CC CC CC CC CC CC CC CC CC CC CC CC CC CC ................
00734F80 83 EC 3C 56 57 8D 44 24 0C 50 68 88 65 A1 00 8D ..<VW.D$.Ph.e...
00734F90 4C 24 10 51 68 88 65 A1 00 8D 54 24 34 52 8D 44 L$.Qh.e...T$4R.D
00734FA0 24 3C 50 8D 4C 24 44 51 8D 54 24 4C 52 8D 44 24 $<P.L$DQ.T$LR.D$
00734FB0 40 50 68 88 65 A1 00 8D 4C 24 44 51 68 88 65 A1 @Ph.e...L$DQh.e.
00734FC0 00 8D 54 24 64 52 68 88 65 A1 00 8D 44 24 70 50 ..T$dRh.e...D$pP
00734FD0 8D 4C 24 78 51 8D 94 24 80 00 00 00 52 8B 94 24 .L$xQ..$....R..$
00734FE0 90 00 00 00 8D 44 24 54 50 8D 4C 24 5C 51 33 F6 .....D$TP.L$\Q3.
00734FF0 68 D4 B8 8D 00 52 89 74 24 6C 89 74 24 5C 89 74 h....R.t$l.t$\.t
00735000 24 60 33 FF E8 77 2C FB FF 83 C4 54 85 C0 75 06 $`3..w,....T..u.
00735010 5F 5E 83 C4 3C C3 39 74 24 14 7D 1D A1 2C 7E A1 _^..<.9t$.}..,~.
00735020 00 68 B0 B8 8D 00 50 E8 54 BF FA FF 8B 44 24 20 .h....P.T....D$ 
00735030 83 C4 08 5F 5E 83 C4 3C C3 39 74 24 10 7D 1E 8B ..._^..<.9t$.}..
00735040 0D 2C 7E A1 00 68 8C B8 8D 00 51 E8 30 BF FA FF .,~..h....Q.0...
00735050 8B 44 24 20 83 C4 08 5F 5E 83 C4 3C C3 8B 44 24 .D$ ..._^..<..D$
00735060 1C 55 E8 39 FE FF FF 8B E8 3B EE 0F 84 E6 00 00 .U.9.....;......
00735070 00 8B 44 24 24 53 E8 25 FE FF FF 8B D8 85 DB 0F ..D$$S.%........
00735080 84 80 00 00 00 8B 44 24 10 85 C0 74 07 E8 0E FE ......D$...t....
00735090 FF FF EB 0A 6A 00 E8 85 AC FA FF 83 C4 04 8B F0 ....j...........
007350A0 85 F6 74 61 8B 44 24 14 85 C0 74 07 E8 EF FD FF ..ta.D$...t.....
007350B0 FF EB 0A 6A 00 E8 66 AC FA FF 83 C4 04 8B F8 85 ...j..f.........
007350C0 FF 74 42 8B 54 24 2C 8B 44 24 30 8B 4C 24 34 52 .tB.T$,.D$0.L$4R
007350D0 8B 54 24 3C 50 8B 44 24 44 51 8B 4C 24 4C 52 8B .T$<P.D$DQ.L$LR.
007350E0 54 24 54 57 56 53 55 50 8B 44 24 6C 51 8B 4C 24 T$TWVSUP.D$lQ.L$
007350F0 40 52 8B 54 24 48 50 51 52 E8 B2 FA FF FF 83 C4 @R.T$HPQR.......
00735100 38 89 44 24 20 83 45 00 FF 75 0C 8B 45 04 8B 48 8.D$ .E..u..E..H
00735110 18 55 FF D1 83 C4 04 85 DB 74 11 83 03 FF 75 0C .U.......t....u.
00735120 8B 53 04 8B 42 18 53 FF D0 83 C4 04 85 F6 5B 74 .S..B.S.......[t
00735130 11 83 06 FF 75 0C 8B 4E 04 8B 51 18 56 FF D2 83 ....u..N..Q.V...
00735140 C4 04 85 FF 74 11 83 07 FF 75 0C 8B 47 04 8B 48 ....t....u..G..H
00735150 18 57 FF D1 83 C4 04 8B 44 24 1C 5D 5F 5E 83 C4 .W......D$.]_^..
00735160 3C C3 CC CC CC CC CC CC CC CC CC CC CC CC CC CC <...............
00735170 56 8B 74 24 08 83 7E 18 00 74 1A 8B 46 18 83 00 V.t$..~..t..F...
00735180 FF 8B 46 18 83 38 00 75 0C 8B 48 04 8B 51 18 50 ..F..8.u..H..Q.P
00735190 FF D2 83 C4 04 83 7E 1C 00 74 1A 8B 46 1C 83 00 ......~..t..F...
007351A0 FF 8B 46 1C 83 38 00 75 0C 8B 48 04 8B 51 18 50 ..F..8.u..H..Q.P
007351B0 FF D2 83 C4 04 83 7E 20 00 74 1A 8B 46 20 83 00 ......~ .t..F ..
007351C0 FF 8B 46 20 83 38 00 75 0C 8B 48 04 8B 51 18 50 ..F .8.u..H..Q.P
007351D0 FF D2 83 C4 04 83 7E 24 00 74 1A 8B 46 24 83 00 ......~$.t..F$..
007351E0 FF 8B 46 24 83 38 00 75 0C 8B 48 04 8B 51 18 50 ..F$.8.u..H..Q.P
007351F0 FF D2 83 C4 04 83 7E 28 00 74 1A 8B 46 28 83 00 ......~(.t..F(..
00735200 FF 8B 46 28 83 38 00 75 0C 8B 48 04 8B 51 18 50 ..F(.8.u..H..Q.P
00735210 FF D2 83 C4 04 83 7E 2C 00 74 1A 8B 46 2C 83 00 ......~,.t..F,..
00735220 FF 8B 46 2C 83 38 00 75 0C 8B 48 04 8B 51 18 50 ..F,.8.u..H..Q.P
00735230 FF D2 83 C4 04 83 7E 30 00 74 1A 8B 46 30 83 00 ......~0.t..F0..
00735240 FF 8B 46 30 83 38 00 75 0C 8B 48 04 8B 51 18 50 ..F0.8.u..H..Q.P
00735250 FF D2 83 C4 04 83 7E 34 00 74 1A 8B 46 34 83 00 ......~4.t..F4..
00735260 FF 8B 46 34 83 38 00 75 0C 8B 48 04 8B 51 18 50 ..F4.8.u..H..Q.P
00735270 FF D2 83 C4 04 83 7E 3C 00 74 1A 8B 46 3C 83 00 ......~<.t..F<..
00735280 FF 8B 46 3C 83 38 00 75 0C 8B 48 04 8B 51 18 50 ..F<.8.u..H..Q.P
00735290 FF D2 83 C4 04 8B 46 40 85 C0 74 09 50 E8 2E 9D ......F@..t.P...
007352A0 FC FF 83 C4 04 56 E8 15 E7 FE FF 83 C4 04 5E C3 .....V........^.
007352B0 81 EC F8 01 00 00 A1 88 41 A1 00 33 C4 89 84 24 ........A..3...$
007352C0 F4 01 00 00 53 55 56 8B B4 24 08 02 00 00 8B 46 ....SUV..$.....F
007352D0 38 83 CD FF 85 C0 0F 45 E8 8B 46 30 85 C0 BB EC 8......E..F0....
007352E0 9B 8C 00 57 8B FB 74 22 8B 40 04 3D 50 B4 A1 00 ...W..t".@.=P...
007352F0 74 12 68 50 B4 A1 00 50 E8 73 03 FA FF 83 C4 08 t.hP...P.s......
00735300 85 C0 74 06 8B 5E 30 83 C3 14 8B 46 34 85 C0 74 ..t..^0....F4..t
00735310 22 8B 40 04 3D 50 B4 A1 00 74 12 68 50 B4 A1 00 ".@.=P...t.hP...
00735320 50 E8 4A 03 FA FF 83 C4 08 85 C0 74 06 8B 7E 34 P.J........t..~4
00735330 83 C7 14 55 53 56 57 68 F0 B8 8D 00 8D 44 24 24 ...USVWh.....D$$
00735340 68 F4 01 00 00 50 E8 95 FC FE FF 8D 4C 24 2C 51 h....P......L$,Q
00735350 E8 6B 77 FB FF 8B 8C 24 24 02 00 00 83 C4 20 5F .kw....$$..... _
00735360 5E 5D 5B 33 CC E8 24 F8 F5 FF 81 C4 F8 01 00 00 ^][3..$.........
00735370 C3 CC CC CC CC CC CC CC CC CC CC CC CC CC CC CC ................
00735380 56 8B 74 24 0C 8B 46 34 57 8B 7C 24 0C 8B 4F 34 V.t$..F4W.|$..O4
00735390 50 51 E8 39 A0 FA FF 83 C4 08 85 C0 0F 85 AF 00 PQ.9............
007353A0 00 00 8B 47 08 2B 46 08 75 18 8B 47 0C 2B 46 0C ...G.+F.u..G.+F.
007353B0 75 10 8B 47 14 2B 46 14 75 08 8B 47 38 2B 46 38 u..G.+F.u..G8+F8
007353C0 74 1B 85 C0 7E 08 5F B8 01 00 00 00 5E C3 33 D2 t...~._.....^.3.
007353D0 85 C0 0F 9D C2 5F 5E 83 EA 01 8B C2 C3 8B 46 18 ....._^.......F.
007353E0 8B 4F 18 50 51 E8 E6 9F FA FF 83 C4 08 85 C0 75 .O.PQ..........u
007353F0 60 8B 56 1C 8B 47 1C 52 50 E8 D2 9F FA FF 83 C4 `.V..G.RP.......
00735400 08 85 C0 75 4C 8B 4E 20 8B 57 20 51 52 E8 BE 9F ...uL.N .W QR...
00735410 FA FF 83 C4 08 85 C0 75 38 8B 46 24 8B 4F 24 50 .......u8.F$.O$P
00735420 51 E8 AA 9F FA FF 83 C4 08 85 C0 75 24 8B 56 28 Q..........u$.V(
00735430 8B 47 28 52 50 E8 96 9F FA FF 83 C4 08 85 C0 75 .G(RP..........u
00735440 10 8B 4E 2C 8B 57 2C 51 52 E8 82 9F FA FF 83 C4 ..N,.W,QR.......
00735450 08 5F 5E C3 CC CC CC CC CC CC CC CC CC CC CC CC ._^.............
00735460 83 EC 08 56 8B 74 24 10 8B 46 34 50 E8 6F 8E FA ...V.t$..F4P.o..
00735470 FF 83 C4 04 83 F8 FF 89 44 24 08 75 08 83 C8 FF ........D$.u....
00735480 5E 83 C4 08 C3 8B 4E 18 51 E8 52 8E FA FF 83 C4 ^.....N.Q.R.....
00735490 04 83 F8 FF 89 44 24 04 74 E3 8B 56 1C 52 E8 3D .....D$.t..V.R.=
007354A0 8E FA FF 83 C4 04 83 F8 FF 89 44 24 10 74 CE 8B ..........D$.t..
007354B0 46 20 55 50 E8 27 8E FA FF 8B E8 83 C4 04 83 FD F UP.'..........
007354C0 FF 75 08 5D 0B C0 5E 83 C4 08 C3 8B 4E 24 53 51 .u.]..^.....N$SQ
007354D0 E8 0B 8E FA FF 8B D8 83 C4 04 83 FB FF 75 09 5B .............u.[
007354E0 5D 0B C0 5E 83 C4 08 C3 8B 56 28 57 52 E8 EE 8D ]..^.....V(WR...
007354F0 FA FF 8B F8 83 C4 04 83 FF FF 74 13 8B 46 2C 50 ..........t..F,P
00735500 E8 DB 8D FA FF 8B C8 83 C4 04 83 F9 FF 75 0B 5F .............u._
00735510 5B 5D 83 C8 FF 5E 83 C4 08 C3 8B 46 14 33 46 0C []...^.....F.3F.
00735520 33 46 08 33 C1 33 C7 33 C3 33 C5 33 44 24 1C 33 3F.3.3.3.3.3D$.3
00735530 44 24 10 33 44 24 14 83 F8 FF 75 05 B8 FE FF FF D$.3D$....u.....
00735540 FF 5F 5B 5D 5E 83 C4 08 C3 CC CC CC CC CC CC CC ._[]^...........

;; fn00735550: 00735550
;;   Called from:
;;     0070AFD0 (in fn00708DC0)
;;     0072F7BC (in fn0072F770)
fn00735550 proc
	push	esi
	push	edi
	mov	edi,[esp+0Ch]
	mov	eax,[edi+3Ch]
	push	eax
	call	6ECC00h
	mov	ecx,[edi+3Ch]
	cdq
	sub	eax,edx
	mov	esi,eax
	push	ecx
	sar	esi,1h
	call	6ECC50h
	add	esp,8h
	xor	edx,edx
	sub	esi,1h
	mov	ecx,eax
	mov	eax,[edi+38h]
	js	73559Dh

l0073557E:
	mov	edi,[esp+10h]
	push	ebx

l00735583:
	movzx	ebx,byte ptr [ecx]
	add	edx,ebx
	add	ecx,1h
	cmp	edx,edi
	jg	73559Ch

l0073558F:
	movzx	ebx,byte ptr [ecx]
	add	eax,ebx
	add	ecx,1h
	sub	esi,1h
	jns	735583h

l0073559C:
	pop	ebx

l0073559D:
	pop	edi
	pop	esi
	ret

;; fn007355A0: 007355A0
;;   Called from:
;;     00707487 (in fn00707430)
fn007355A0 proc
	push	ebx
	mov	ebx,[esp+10h]
	push	ebp
	push	esi
	push	edi
	mov	edi,[esp+14h]
	mov	eax,[edi+3Ch]
	mov	ebp,[edi+38h]
	lea	ecx,[eax+14h]
	mov	eax,[eax+8h]
	cdq
	sub	eax,edx
	mov	edx,eax
	mov	eax,[esp+18h]
	sar	edx,1h
	xor	esi,esi
	test	edx,edx
	mov	[ebx],esi
	jle	7355F4h

l007355CB:
	jmp	7355D0h
007355CD                                        8D 49 00              .I.

l007355D0:
	movzx	edi,byte ptr [ecx]
	add	edi,esi
	cmp	edi,eax
	jg	7355F4h

l007355D9:
	add	ecx,1h
	cmp	byte ptr [ecx],0h
	mov	esi,edi
	jz	7355E5h

l007355E3:
	mov	[ebx],esi

l007355E5:
	movzx	edi,byte ptr [ecx]
	sub	edx,1h
	add	ebp,edi
	add	ecx,1h
	test	edx,edx
	jg	7355D0h

l007355F4:
	cmp	esi,eax
	jz	7355FBh

l007355F8:
	or	ebp,0FFh

l007355FB:
	test	edx,edx
	jle	735624h

l007355FF:
	sub	edx,1h
	js	73561Ah

l00735604:
	movzx	eax,byte ptr [ecx]
	add	ecx,1h
	add	esi,eax
	mov	al,[ecx]
	add	ecx,1h
	test	al,al
	jnz	73561Ah

l00735615:
	sub	edx,1h
	jns	735604h

l0073561A:
	pop	edi
	mov	[ebx+4h],esi
	pop	esi
	mov	eax,ebp
	pop	ebp
	pop	ebx
	ret

l00735624:
	pop	edi
	pop	esi
	mov	eax,ebp
	pop	ebp
	mov	dword ptr [ebx+4h],7FFFFFFFh
	pop	ebx
	ret
00735632       CC CC CC CC CC CC CC CC CC CC CC CC CC CC   ..............

;; fn00735640: 00735640
;;   Called from:
;;     007356F2 (in fn007356A0)
;;     00735743 (in fn00735710)
;;     00735778 (in fn00735710)
;;     007357C8 (in fn00735790)
;;     00735804 (in fn00735790)
;;     00735840 (in fn00735790)
;;     00735876 (in fn00735790)
;;     00735904 (in fn00735890)
;;     00735945 (in fn00735890)
;;     00735986 (in fn00735890)
;;     007359C7 (in fn00735890)
;;     00735A08 (in fn00735890)
;;     00735A49 (in fn00735890)
;;     00735C15 (in fn00735890)
;;     00735CED (in fn00735890)
;;     00735D59 (in fn00735890)
;;     00735DD3 (in fn00735890)
;;     00735E8E (in fn00735890)
;;     00735F28 (in fn00735890)
;;     00735F88 (in fn00735890)
;;     00736001 (in fn00735890)
;;     00736128 (in fn00735890)
;;     0073615A (in fn00735890)
;;     007361D6 (in fn00735890)
;;     0073623F (in fn00735890)
;;     007362BE (in fn00735890)
;;     00736362 (in fn00735890)
;;     007363F1 (in fn00735890)
;;     00736458 (in fn00735890)
;;     007364C8 (in fn00735890)
;;     0073652C (in fn00735890)
fn00735640 proc
	mov	eax,[esi+0Ch]
	test	eax,eax
	push	edi
	lea	edi,[esi+0Ch]
	jz	735691h

l0073564B:
	push	ebx
	push	ebp
	push	eax
	call	6ECC00h
	mov	ebx,eax
	lea	ebp,[ebx+400h]
	push	ebp
	push	edi
	call	6EC4F0h
	add	esp,0Ch
	test	eax,eax
	jz	735675h

l00735669:
	pop	ebp
	xor	eax,eax
	pop	ebx
	mov	[esi+14h],eax
	mov	[esi+10h],eax
	pop	edi
	ret

l00735675:
	mov	eax,[edi]
	mov	dl,[esp+10h]
	lea	ecx,[eax+ebx+14h]
	lea	eax,[eax+ebp+14h]
	mov	[esi+10h],ecx
	mov	[esi+14h],eax
	pop	ebp
	mov	[ecx],dl
	add	dword ptr [esi+10h],1h
	pop	ebx

l00735691:
	pop	edi
	ret
00735693          CC CC CC CC CC CC CC CC CC CC CC CC CC    .............

;; fn007356A0: 007356A0
;;   Called from:
;;     00735D1F (in fn00735890)
;;     00736028 (in fn00735890)
;;     00736181 (in fn00735890)
;;     007361E9 (in fn00735890)
;;     007362CE (in fn00735890)
;;     00736337 (in fn00735890)
;;     00736357 (in fn00735890)
;;     00736372 (in fn00735890)
;;     007363C2 (in fn00735890)
;;     007363E5 (in fn00735890)
;;     00736404 (in fn00735890)
;;     00736475 (in fn00735890)
;;     00736498 (in fn00735890)
fn007356A0 proc
	push	ebx
	push	esi
	mov	esi,eax
	mov	eax,[esi]
	test	eax,eax
	push	edi
	mov	ebx,ecx
	mov	edi,edx
	jz	7356C1h

l007356AF:
	push	eax
	push	ebx
	push	1h
	push	edi
	call	dword ptr [8A4648h]
	add	esp,10h
	pop	edi
	pop	esi
	pop	ebx
	ret

l007356C1:
	sub	ebx,1h
	js	735702h

l007356C6:
	mov	eax,[esi]
	test	eax,eax
	jz	7356DCh

l007356CC:
	push	eax
	movsx	eax,byte ptr [edi]
	push	eax
	call	dword ptr [8A4758h]
	add	esp,8h
	jmp	7356FAh

l007356DC:
	mov	eax,[esi+10h]
	cmp	eax,[esi+14h]
	jz	7356EEh

l007356E4:
	mov	cl,[edi]
	mov	[eax],cl
	add	dword ptr [esi+10h],1h
	jmp	7356FAh

l007356EE:
	movsx	edx,byte ptr [edi]
	push	edx
	call	735640h
	add	esp,4h

l007356FA:
	add	edi,1h
	sub	ebx,1h
	jns	7356C6h

l00735702:
	pop	edi
	pop	esi
	pop	ebx
	ret
00735706                   CC CC CC CC CC CC CC CC CC CC       ..........

;; fn00735710: 00735710
;;   Called from:
;;     007364F5 (in fn00735890)
fn00735710 proc
	push	ebx
	push	esi
	mov	esi,eax
	mov	eax,[esi]
	test	eax,eax
	push	edi
	mov	edi,[8A4758h]
	mov	ebx,ecx
	jz	73572Fh

l00735723:
	push	eax
	movsx	eax,bl
	push	eax
	call	edi
	add	esp,8h
	jmp	73574Bh

l0073572F:
	mov	eax,[esi+10h]
	cmp	eax,[esi+14h]
	jz	73573Fh

l00735737:
	mov	[eax],bl
	add	dword ptr [esi+10h],1h
	jmp	73574Bh

l0073573F:
	movsx	ecx,bl
	push	ecx
	call	735640h
	add	esp,4h

l0073574B:
	mov	eax,[esi]
	sar	ebx,8h
	test	eax,eax
	jz	735762h

l00735754:
	movsx	edx,bl
	push	eax
	push	edx
	call	edi
	add	esp,8h
	pop	edi
	pop	esi
	pop	ebx
	ret

l00735762:
	mov	eax,[esi+10h]
	cmp	eax,[esi+14h]
	jz	735774h

l0073576A:
	mov	[eax],bl
	add	dword ptr [esi+10h],1h
	pop	edi
	pop	esi
	pop	ebx
	ret

l00735774:
	movsx	eax,bl
	push	eax
	call	735640h
	add	esp,4h
	pop	edi
	pop	esi
	pop	ebx
	ret
00735784             CC CC CC CC CC CC CC CC CC CC CC CC     ............

;; fn00735790: 00735790
;;   Called from:
;;     00735C22 (in fn00735890)
;;     00735C2C (in fn00735890)
;;     00735C36 (in fn00735890)
;;     00735C40 (in fn00735890)
;;     00735C9D (in fn00735890)
;;     00735D12 (in fn00735890)
;;     00735DF1 (in fn00735890)
;;     00735F37 (in fn00735890)
;;     00735F9F (in fn00735890)
;;     0073601C (in fn00735890)
;;     00736175 (in fn00735890)
;;     007364D7 (in fn00735890)
;;     00736538 (in fn00735890)
;;     00736587 (in fn00736560)
fn00735790 proc
	push	ebx
	push	ebp
	push	esi
	mov	esi,eax
	mov	eax,[esi]
	test	eax,eax
	push	edi
	mov	edi,[8A4758h]
	mov	ebx,ecx
	mov	ebp,1h
	jz	7357B5h

l007357A9:
	push	eax
	movsx	eax,bl
	push	eax
	call	edi
	add	esp,8h
	jmp	7357D0h

l007357B5:
	mov	eax,[esi+10h]
	cmp	eax,[esi+14h]
	jz	7357C4h

l007357BD:
	mov	[eax],bl
	add	[esi+10h],ebp
	jmp	7357D0h

l007357C4:
	movsx	ecx,bl
	push	ecx
	call	735640h
	add	esp,4h

l007357D0:
	mov	eax,[esi]
	test	eax,eax
	jz	7357E7h

l007357D6:
	mov	edx,ebx
	push	eax
	sar	edx,8h
	movsx	eax,dl
	push	eax
	call	edi
	add	esp,8h
	jmp	73580Ch

l007357E7:
	mov	eax,[esi+10h]
	cmp	eax,[esi+14h]
	jz	7357FBh

l007357EF:
	mov	ecx,ebx
	sar	ecx,8h
	mov	[eax],cl
	add	[esi+10h],ebp
	jmp	73580Ch

l007357FB:
	mov	edx,ebx
	sar	edx,8h
	movsx	eax,dl
	push	eax
	call	735640h
	add	esp,4h

l0073580C:
	mov	eax,[esi]
	test	eax,eax
	jz	735823h

l00735812:
	mov	ecx,ebx
	sar	ecx,10h
	movsx	edx,cl
	push	eax
	push	edx
	call	edi
	add	esp,8h
	jmp	735848h

l00735823:
	mov	eax,[esi+10h]
	cmp	eax,[esi+14h]
	jz	735837h

l0073582B:
	mov	ecx,ebx
	sar	ecx,10h
	mov	[eax],cl
	add	[esi+10h],ebp
	jmp	735848h

l00735837:
	mov	edx,ebx
	sar	edx,10h
	movsx	eax,dl
	push	eax
	call	735640h
	add	esp,4h

l00735848:
	mov	eax,[esi]
	sar	ebx,18h
	test	eax,eax
	jz	735860h

l00735851:
	movsx	ecx,bl
	push	eax
	push	ecx
	call	edi
	add	esp,8h
	pop	edi
	pop	esi
	pop	ebp
	pop	ebx
	ret

l00735860:
	mov	eax,[esi+10h]
	cmp	eax,[esi+14h]
	jz	735872h

l00735868:
	pop	edi
	mov	[eax],bl
	add	[esi+10h],ebp
	pop	esi
	pop	ebp
	pop	ebx
	ret

l00735872:
	movsx	edx,bl
	push	edx
	call	735640h
	add	esp,4h
	pop	edi
	pop	esi
	pop	ebp
	pop	ebx
	ret
00735883          CC CC CC CC CC CC CC CC CC CC CC CC CC    .............

;; fn00735890: 00735890
;;   Called from:
;;     00735C4A (in fn00735890)
;;     00735C54 (in fn00735890)
;;     00735C5E (in fn00735890)
;;     00735C68 (in fn00735890)
;;     00735C72 (in fn00735890)
;;     00735C7C (in fn00735890)
;;     00735C86 (in fn00735890)
;;     00735C90 (in fn00735890)
;;     00735CA7 (in fn00735890)
;;     00735E1A (in fn00735890)
;;     00735EC6 (in fn00735890)
;;     00735ED1 (in fn00735890)
;;     00735EF5 (in fn00735890)
;;     00735F4E (in fn00735890)
;;     00735FB4 (in fn00735890)
;;     007365D5 (in fn00736590)
fn00735890 proc
	sub	esp,114h
	mov	eax,[0A14188h]
	xor	eax,esp
	mov	[esp+110h],eax
	push	ebx
	push	ebp
	push	esi
	mov	esi,[esp+128h]
	mov	ebp,1h
	add	[esi+8h],ebp
	mov	eax,[esi+8h]
	cmp	eax,7D0h
	push	edi
	mov	edi,[esp+128h]
	jle	7358D4h

l007358C8:
	mov	dword ptr [esi+4h],2h
	jmp	73653Dh

l007358D4:
	test	edi,edi
	jnz	735911h

l007358D8:
	mov	eax,[esi]
	test	eax,eax
	jz	7358EFh

l007358DE:
	push	eax
	push	30h
	call	dword ptr [8A4758h]
	add	esp,8h
	jmp	73653Dh

l007358EF:
	mov	eax,[esi+10h]
	cmp	eax,[esi+14h]
	jz	735902h

l007358F7:
	mov	byte ptr [eax],30h
	add	[esi+10h],ebp
	jmp	73653Dh

l00735902:
	push	30h
	call	735640h
	add	esp,4h
	jmp	73653Dh

l00735911:
	cmp	edi,0A163B8h
	jnz	735952h

l00735919:
	mov	eax,[esi]
	test	eax,eax
	jz	735930h

l0073591F:
	push	eax
	push	4Eh
	call	dword ptr [8A4758h]
	add	esp,8h
	jmp	73653Dh

l00735930:
	mov	eax,[esi+10h]
	cmp	eax,[esi+14h]
	jz	735943h

l00735938:
	mov	byte ptr [eax],4Eh
	add	[esi+10h],ebp
	jmp	73653Dh

l00735943:
	push	4Eh
	call	735640h
	add	esp,4h
	jmp	73653Dh

l00735952:
	cmp	edi,[0A16D00h]
	jnz	735993h

l0073595A:
	mov	eax,[esi]
	test	eax,eax
	jz	735971h

l00735960:
	push	eax
	push	53h
	call	dword ptr [8A4758h]
	add	esp,8h
	jmp	73653Dh

l00735971:
	mov	eax,[esi+10h]
	cmp	eax,[esi+14h]
	jz	735984h

l00735979:
	mov	byte ptr [eax],53h
	add	[esi+10h],ebp
	jmp	73653Dh

l00735984:
	push	53h
	call	735640h
	add	esp,4h
	jmp	73653Dh

l00735993:
	cmp	edi,0A25B38h
	jnz	7359D4h

l0073599B:
	mov	eax,[esi]
	test	eax,eax
	jz	7359B2h

l007359A1:
	push	eax
	push	2Eh
	call	dword ptr [8A4758h]
	add	esp,8h
	jmp	73653Dh

l007359B2:
	mov	eax,[esi+10h]
	cmp	eax,[esi+14h]
	jz	7359C5h

l007359BA:
	mov	byte ptr [eax],2Eh
	add	[esi+10h],ebp
	jmp	73653Dh

l007359C5:
	push	2Eh
	call	735640h
	add	esp,4h
	jmp	73653Dh

l007359D4:
	cmp	edi,0A191D8h
	jnz	735A15h

l007359DC:
	mov	eax,[esi]
	test	eax,eax
	jz	7359F3h

l007359E2:
	push	eax
	push	46h
	call	dword ptr [8A4758h]
	add	esp,8h
	jmp	73653Dh

l007359F3:
	mov	eax,[esi+10h]
	cmp	eax,[esi+14h]
	jz	735A06h

l007359FB:
	mov	byte ptr [eax],46h
	add	[esi+10h],ebp
	jmp	73653Dh

l00735A06:
	push	46h
	call	735640h
	add	esp,4h
	jmp	73653Dh

l00735A15:
	cmp	edi,0A191E4h
	jnz	735A56h

l00735A1D:
	mov	eax,[esi]
	test	eax,eax
	jz	735A34h

l00735A23:
	push	eax
	push	54h
	call	dword ptr [8A4758h]
	add	esp,8h
	jmp	73653Dh

l00735A34:
	mov	eax,[esi+10h]
	cmp	eax,[esi+14h]
	jz	735A47h

l00735A3C:
	mov	byte ptr [eax],54h
	add	[esi+10h],ebp
	jmp	73653Dh

l00735A47:
	push	54h
	call	735640h
	add	esp,4h
	jmp	73653Dh

l00735A56:
	mov	eax,[edi+4h]
	cmp	eax,0A1E7E8h
	jz	736503h

l00735A64:
	push	0A1E7E8h
	push	eax
	call	6D5670h
	add	esp,8h
	test	eax,eax
	jnz	736503h

l00735A7A:
	mov	eax,[edi+4h]
	cmp	eax,0A1F400h
	jz	7364A2h

l00735A88:
	push	0A1F400h
	push	eax
	call	6D5670h
	add	esp,8h
	test	eax,eax
	jnz	7364A2h

l00735A9E:
	mov	eax,[edi+4h]
	cmp	eax,0A1E4B8h
	jz	73637Ch

l00735AAC:
	push	0A1E4B8h
	push	eax
	call	6D5670h
	add	esp,8h
	test	eax,eax
	jnz	73637Ch

l00735AC2:
	mov	eax,[edi+4h]
	cmp	eax,0A27190h
	jz	73618Bh

l00735AD0:
	push	0A27190h
	push	eax
	call	6D5670h
	add	esp,8h
	test	eax,eax
	jnz	73618Bh

l00735AE6:
	mov	eax,[edi+4h]
	cmp	eax,0A1B450h
	jz	736047h

l00735AF4:
	push	0A1B450h
	push	eax
	call	6D5670h
	add	esp,8h
	test	eax,eax
	jnz	736047h

l00735B0A:
	mov	eax,[edi+4h]
	cmp	eax,0A23B20h
	jz	735FC8h

l00735B18:
	push	0A23B20h
	push	eax
	call	6D5670h
	add	esp,8h
	test	eax,eax
	jnz	735FC8h

l00735B2E:
	mov	eax,[edi+4h]
	cmp	eax,0A16588h
	jz	735F62h

l00735B3C:
	push	0A16588h
	push	eax
	call	6D5670h
	add	esp,8h
	test	eax,eax
	jnz	735F62h

l00735B52:
	mov	eax,[edi+4h]
	cmp	eax,0A1BAF0h
	jz	735F02h

l00735B60:
	push	0A1BAF0h
	push	eax
	call	6D5670h
	add	esp,8h
	test	eax,eax
	jnz	735F02h

l00735B76:
	mov	eax,[edi+4h]
	cmp	eax,0A1D1B8h
	jz	735E68h

l00735B84:
	push	0A1D1B8h
	push	eax
	call	6D5670h
	add	esp,8h
	test	eax,eax
	jnz	735E68h

l00735B9A:
	mov	eax,[edi+4h]
	cmp	eax,0A2B490h
	jz	735D69h

l00735BA8:
	cmp	eax,0A2B6F8h
	jz	735D69h

l00735BB3:
	push	0A2B490h
	push	eax
	call	6D5670h
	add	esp,8h
	test	eax,eax
	jnz	735D69h

l00735BC9:
	mov	eax,[edi+4h]
	push	0A2B6F8h
	push	eax
	call	6D5670h
	add	esp,8h
	test	eax,eax
	jnz	735D69h

l00735BE2:
	cmp	dword ptr [edi+4h],0A27458h
	jnz	735CB4h

l00735BEF:
	mov	eax,[esi]
	test	eax,eax
	jz	735C03h

l00735BF5:
	push	eax
	push	63h
	call	dword ptr [8A4758h]
	add	esp,8h
	jmp	735C1Dh

l00735C03:
	mov	eax,[esi+10h]
	cmp	eax,[esi+14h]
	jz	735C13h

l00735C0B:
	mov	byte ptr [eax],63h
	add	[esi+10h],ebp
	jmp	735C1Dh

l00735C13:
	push	63h
	call	735640h
	add	esp,4h

l00735C1D:
	mov	ecx,[edi+8h]
	mov	eax,esi
	call	735790h
	mov	ecx,[edi+0Ch]
	mov	eax,esi
	call	735790h
	mov	ecx,[edi+10h]
	mov	eax,esi
	call	735790h
	mov	ecx,[edi+14h]
	mov	eax,esi
	call	735790h
	mov	ecx,[edi+18h]
	push	esi
	push	ecx
	call	735890h
	mov	edx,[edi+1Ch]
	push	esi
	push	edx
	call	735890h
	mov	eax,[edi+20h]
	push	esi
	push	eax
	call	735890h
	mov	ecx,[edi+24h]
	push	esi
	push	ecx
	call	735890h
	mov	edx,[edi+28h]
	push	esi
	push	edx
	call	735890h
	mov	eax,[edi+2Ch]
	push	esi
	push	eax
	call	735890h
	mov	ecx,[edi+30h]
	push	esi
	push	ecx
	call	735890h
	mov	edx,[edi+34h]
	push	esi
	push	edx
	call	735890h
	mov	ecx,[edi+38h]
	add	esp,40h
	mov	eax,esi
	call	735790h
	mov	eax,[edi+3Ch]
	push	esi
	push	eax
	call	735890h
	add	esp,8h
	jmp	73653Dh

l00735CB4:
	push	edi
	call	701950h
	add	esp,4h
	test	eax,eax
	mov	eax,[esi]
	jz	735D29h

l00735CC3:
	test	eax,eax
	mov	ecx,[edi+4h]
	mov	ebx,[ecx+50h]
	jz	735CDBh

l00735CCD:
	push	eax
	push	73h
	call	dword ptr [8A4758h]
	add	esp,8h
	jmp	735CF5h

l00735CDB:
	mov	eax,[esi+10h]
	cmp	eax,[esi+14h]
	jz	735CEBh

l00735CE3:
	mov	byte ptr [eax],73h
	add	[esi+10h],ebp
	jmp	735CF5h

l00735CEB:
	push	73h
	call	735640h
	add	esp,4h

l00735CF5:
	mov	eax,[ebx]
	lea	edx,[esp+18h]
	push	edx
	push	0h
	push	edi
	call	eax
	mov	edi,eax
	add	esp,0Ch
	cmp	edi,7FFFFFFFh
	jg	735D61h

l00735D0E:
	mov	eax,esi
	mov	ecx,edi
	call	735790h
	mov	edx,[esp+18h]
	mov	eax,esi
	mov	ecx,edi
	call	7356A0h
	jmp	73653Dh

l00735D29:
	test	eax,eax
	jz	735D41h

l00735D2D:
	push	eax
	push	3Fh
	call	dword ptr [8A4758h]
	add	esp,8h
	mov	[esi+4h],ebp
	jmp	73653Dh

l00735D41:
	mov	eax,[esi+10h]
	cmp	eax,[esi+14h]
	jz	735D57h

l00735D49:
	mov	byte ptr [eax],3Fh
	add	[esi+10h],ebp
	mov	[esi+4h],ebp
	jmp	73653Dh

l00735D57:
	push	3Fh
	call	735640h
	add	esp,4h

l00735D61:
	mov	[esi+4h],ebp
	jmp	73653Dh

l00735D69:
	mov	eax,[edi+4h]
	cmp	eax,0A2B490h
	jz	735DADh

l00735D73:
	push	0A2B490h
	push	eax
	call	6D5670h
	add	esp,8h
	test	eax,eax
	jnz	735DADh

l00735D85:
	mov	eax,[esi]
	test	eax,eax
	jz	735D99h

l00735D8B:
	push	eax
	push	3Eh
	call	dword ptr [8A4758h]
	add	esp,8h
	jmp	735DDBh

l00735D99:
	mov	eax,[esi+10h]
	cmp	eax,[esi+14h]
	jz	735DA9h

l00735DA1:
	mov	byte ptr [eax],3Eh
	add	[esi+10h],ebp
	jmp	735DDBh

l00735DA9:
	push	3Eh
	jmp	735DD3h

l00735DAD:
	mov	eax,[esi]
	test	eax,eax
	jz	735DC1h

l00735DB3:
	push	eax
	push	3Ch
	call	dword ptr [8A4758h]
	add	esp,8h
	jmp	735DDBh

l00735DC1:
	mov	eax,[esi+10h]
	cmp	eax,[esi+14h]
	jz	735DD1h

l00735DC9:
	mov	byte ptr [eax],3Ch
	add	[esi+10h],ebp
	jmp	735DDBh

l00735DD1:
	push	3Ch

l00735DD3:
	call	735640h
	add	esp,4h

l00735DDB:
	push	edi
	call	704080h
	mov	ecx,eax
	add	esp,4h
	cmp	ecx,0FFh
	jz	735D61h

l00735DEF:
	mov	eax,esi
	call	735790h
	push	edi
	call	704B00h
	mov	ebx,eax
	add	esp,4h
	test	ebx,ebx
	jz	735D61h

l00735E09:
	push	ebx
	call	704040h
	mov	edi,eax
	add	esp,4h
	test	edi,edi
	jz	735E42h

l00735E18:
	push	esi
	push	edi
	call	735890h
	add	esp,8h
	add	dword ptr [edi],0FFh
	jnz	735E33h

l00735E27:
	mov	ecx,[edi+4h]
	mov	edx,[ecx+18h]
	push	edi
	call	edx
	add	esp,4h

l00735E33:
	push	ebx
	call	704040h
	mov	edi,eax
	add	esp,4h
	test	edi,edi
	jnz	735E18h

l00735E42:
	add	dword ptr [ebx],0FFh
	jnz	735E53h

l00735E47:
	mov	eax,[ebx+4h]
	mov	ecx,[eax+18h]
	push	ebx
	call	ecx
	add	esp,4h

l00735E53:
	call	6E0FC0h
	test	eax,eax
	jz	73653Dh

l00735E60:
	mov	[esi+4h],ebp
	jmp	73653Dh

l00735E68:
	mov	eax,[esi]
	test	eax,eax
	jz	735E7Ch

l00735E6E:
	push	eax
	push	7Bh
	call	dword ptr [8A4758h]
	add	esp,8h
	jmp	735E96h

l00735E7C:
	mov	eax,[esi+10h]
	cmp	eax,[esi+14h]
	jz	735E8Ch

l00735E84:
	mov	byte ptr [eax],7Bh
	add	[esi+10h],ebp
	jmp	735E96h

l00735E8C:
	push	7Bh
	call	735640h
	add	esp,4h

l00735E96:
	lea	edx,[esp+14h]
	push	edx
	lea	eax,[esp+14h]
	push	eax
	lea	ecx,[esp+20h]
	push	ecx
	push	edi
	mov	dword ptr [esp+28h],0h
	call	6FC050h
	add	esp,10h
	test	eax,eax
	jz	735EF2h

l00735EBA:
	lea	ebx,[ebx+0h]

l00735EC0:
	mov	edx,[esp+10h]
	push	esi
	push	edx
	call	735890h
	mov	eax,[esp+1Ch]
	push	esi
	push	eax
	call	735890h
	lea	ecx,[esp+24h]
	push	ecx
	lea	edx,[esp+24h]
	push	edx
	lea	eax,[esp+30h]
	push	eax
	push	edi
	call	6FC050h
	add	esp,20h
	test	eax,eax
	jnz	735EC0h

l00735EF2:
	push	esi
	push	0h
	call	735890h
	add	esp,8h
	jmp	73653Dh

l00735F02:
	mov	eax,[esi]
	test	eax,eax
	jz	735F16h

l00735F08:
	push	eax
	push	5Bh
	call	dword ptr [8A4758h]
	add	esp,8h
	jmp	735F30h

l00735F16:
	mov	eax,[esi+10h]
	cmp	eax,[esi+14h]
	jz	735F26h

l00735F1E:
	mov	byte ptr [eax],5Bh
	add	[esi+10h],ebp
	jmp	735F30h

l00735F26:
	push	5Bh
	call	735640h
	add	esp,4h

l00735F30:
	mov	ebp,[edi+8h]
	mov	eax,esi
	mov	ecx,ebp
	call	735790h
	xor	ebx,ebx
	test	ebp,ebp
	jle	73653Dh

l00735F46:
	mov	ecx,[edi+0Ch]
	mov	edx,[ecx+ebx*4]
	push	esi
	push	edx
	call	735890h
	add	ebx,1h
	add	esp,8h
	cmp	ebx,ebp
	jl	735F46h

l00735F5D:
	jmp	73653Dh

l00735F62:
	mov	eax,[esi]
	test	eax,eax
	jz	735F76h

l00735F68:
	push	eax
	push	28h
	call	dword ptr [8A4758h]
	add	esp,8h
	jmp	735F90h

l00735F76:
	mov	eax,[esi+10h]
	cmp	eax,[esi+14h]
	jz	735F86h

l00735F7E:
	mov	byte ptr [eax],28h
	add	[esi+10h],ebp
	jmp	735F90h

l00735F86:
	push	28h
	call	735640h
	add	esp,4h

l00735F90:
	push	edi
	call	6DFE20h
	mov	ebx,eax
	add	esp,4h
	mov	eax,esi
	mov	ecx,ebx
	call	735790h
	test	ebx,ebx
	jle	73653Dh

l00735FAC:
	add	edi,0Ch
	nop

l00735FB0:
	mov	eax,[edi]
	push	esi
	push	eax
	call	735890h
	add	esp,8h
	add	edi,4h
	sub	ebx,ebp
	jnz	735FB0h

l00735FC3:
	jmp	73653Dh

l00735FC8:
	push	edi
	call	718B50h
	mov	edi,eax
	add	esp,4h
	test	edi,edi
	jz	735D61h

l00735FDB:
	mov	eax,[esi]
	test	eax,eax
	jz	735FEFh

l00735FE1:
	push	eax
	push	75h
	call	dword ptr [8A4758h]
	add	esp,8h
	jmp	736009h

l00735FEF:
	mov	eax,[esi+10h]
	cmp	eax,[esi+14h]
	jz	735FFFh

l00735FF7:
	mov	byte ptr [eax],75h
	add	[esi+10h],ebp
	jmp	736009h

l00735FFF:
	push	75h
	call	735640h
	add	esp,4h

l00736009:
	mov	ebx,[edi+8h]
	cmp	ebx,7FFFFFFFh
	jg	735D61h

l00736018:
	mov	eax,esi
	mov	ecx,ebx
	call	735790h
	lea	edx,[edi+14h]
	mov	eax,esi
	mov	ecx,ebx
	call	7356A0h
	add	dword ptr [edi],0FFh
	jnz	73653Dh

l00736036:
	mov	ecx,[edi+4h]
	mov	edx,[ecx+18h]
	push	edi
	call	edx
	add	esp,4h
	jmp	73653Dh

l00736047:
	mov	eax,[esi+18h]
	test	eax,eax
	jz	736134h

l00736052:
	cmp	dword ptr [edi+10h],0h
	jz	736134h

l0073605C:
	push	edi
	push	eax
	call	6FBCC0h
	add	esp,8h
	test	eax,eax
	jz	7360A6h

l0073606A:
	push	eax
	call	7051A0h
	mov	edi,eax
	mov	eax,[esi]
	add	esp,4h
	test	eax,eax
	jz	73608Ch

l0073607B:
	push	eax
	push	52h
	call	dword ptr [8A4758h]
	add	esp,8h
	jmp	736534h

l0073608C:
	mov	eax,[esi+10h]
	cmp	eax,[esi+14h]
	jz	73609Fh

l00736094:
	mov	byte ptr [eax],52h
	add	[esi+10h],ebp
	jmp	736534h

l0073609F:
	push	52h
	jmp	73652Ch

l007360A6:
	mov	eax,[esi+18h]
	push	eax
	call	6FCF20h
	push	eax
	call	705120h
	mov	ebx,eax
	add	esp,8h
	test	ebx,ebx
	jz	7360D0h

l007360BE:
	mov	ecx,[esi+18h]
	push	ebx
	push	edi
	push	ecx
	call	6FBD90h
	add	esp,0Ch
	test	eax,eax
	jge	7360D2h

l007360D0:
	xor	ebp,ebp

l007360D2:
	test	ebx,ebx
	jz	7360E7h

l007360D6:
	add	dword ptr [ebx],0FFh
	jnz	7360E7h

l007360DB:
	mov	edx,[ebx+4h]
	mov	eax,[edx+18h]
	push	ebx
	call	eax
	add	esp,4h

l007360E7:
	test	ebp,ebp
	jnz	7360F7h

l007360EB:
	mov	dword ptr [esi+4h],1h
	jmp	73653Dh

l007360F7:
	mov	eax,[esi]
	test	eax,eax
	jz	736110h

l007360FD:
	push	eax
	push	74h
	call	dword ptr [8A4758h]
	add	esp,8h
	mov	ebp,1h
	jmp	736162h

l00736110:
	mov	eax,[esi+10h]
	cmp	eax,[esi+14h]
	jz	736126h

l00736118:
	mov	byte ptr [eax],74h
	add	dword ptr [esi+10h],1h
	mov	ebp,1h
	jmp	736162h

l00736126:
	push	74h
	call	735640h
	mov	ebp,1h
	jmp	73615Fh

l00736134:
	mov	eax,[esi]
	test	eax,eax
	jz	736148h

l0073613A:
	push	eax
	push	73h
	call	dword ptr [8A4758h]
	add	esp,8h
	jmp	736162h

l00736148:
	mov	eax,[esi+10h]
	cmp	eax,[esi+14h]
	jz	736158h

l00736150:
	mov	byte ptr [eax],73h
	add	[esi+10h],ebp
	jmp	736162h

l00736158:
	push	73h
	call	735640h

l0073615F:
	add	esp,4h

l00736162:
	mov	ebx,[edi+8h]
	cmp	ebx,7FFFFFFFh
	jg	735D61h

l00736171:
	mov	eax,esi
	mov	ecx,ebx
	call	735790h
	lea	edx,[edi+14h]
	mov	eax,esi
	mov	ecx,ebx
	call	7356A0h
	jmp	73653Dh

l0073618B:
	cmp	[esi+1Ch],ebp
	jle	736216h

l00736194:
	push	ebp
	lea	ecx,[esp+1Ch]
	push	ecx
	push	edi
	call	733250h
	push	ecx
	fstp	double ptr [esp]
	call	7012A0h
	add	esp,10h
	test	eax,eax
	jl	73620Eh

l007361B0:
	mov	eax,[esi]
	test	eax,eax
	jz	7361C4h

l007361B6:
	push	eax
	push	79h
	call	dword ptr [8A4758h]
	add	esp,8h
	jmp	7361DEh

l007361C4:
	mov	eax,[esi+10h]
	cmp	eax,[esi+14h]
	jz	7361D4h

l007361CC:
	mov	byte ptr [eax],79h
	add	[esi+10h],ebp
	jmp	7361DEh

l007361D4:
	push	79h
	call	735640h
	add	esp,4h

l007361DE:
	mov	eax,esi
	mov	ecx,8h
	lea	edx,[esp+18h]
	call	7356A0h
	push	ebp
	lea	edx,[esp+1Ch]
	push	edx
	push	edi
	call	733290h
	push	ecx
	fstp	double ptr [esp]
	call	7012A0h
	add	esp,10h
	test	eax,eax
	jge	7363F9h

l0073620E:
	mov	[esi+4h],ebp
	jmp	736541h

l00736216:
	mov	eax,[esi]
	test	eax,eax
	mov	ebp,[8A4758h]
	jz	73622Ch

l00736222:
	push	eax
	push	78h
	call	ebp
	add	esp,8h
	jmp	736247h

l0073622C:
	mov	eax,[esi+10h]
	cmp	eax,[esi+14h]
	jz	73623Dh

l00736234:
	mov	byte ptr [eax],78h
	add	dword ptr [esi+10h],1h
	jmp	736247h

l0073623D:
	push	78h
	call	735640h
	add	esp,4h

l00736247:
	push	edi
	call	733250h
	push	ecx
	fstp	double ptr [esp]
	call	6FF060h
	mov	ebx,eax
	add	esp,8h
	test	ebx,ebx
	jnz	73626Bh

l0073625F:
	mov	dword ptr [esi+4h],1h
	jmp	736541h

l0073626B:
	lea	eax,[esp+20h]
	push	ebx
	push	eax
	call	6FF5D0h
	add	esp,8h
	add	dword ptr [ebx],0FFh
	jnz	73628Ah

l0073627E:
	mov	ecx,[ebx+4h]
	mov	edx,[ecx+18h]
	push	ebx
	call	edx
	add	esp,4h

l0073628A:
	lea	eax,[esp+20h]
	lea	edx,[eax+1h]

l00736291:
	mov	cl,[eax]
	add	eax,1h
	test	cl,cl
	jnz	736291h

l0073629A:
	sub	eax,edx
	mov	ebx,eax
	mov	eax,[esi]
	test	eax,eax
	jz	7362ADh

l007362A4:
	push	eax
	push	ebx
	call	ebp
	add	esp,8h
	jmp	7362C6h

l007362AD:
	mov	eax,[esi+10h]
	cmp	eax,[esi+14h]
	jz	7362BDh

l007362B5:
	mov	[eax],bl
	add	dword ptr [esi+10h],1h
	jmp	7362C6h

l007362BD:
	push	ebx
	call	735640h
	add	esp,4h

l007362C6:
	mov	eax,esi
	mov	ecx,ebx
	lea	edx,[esp+20h]
	call	7356A0h
	push	edi
	call	733290h
	push	ecx
	fstp	double ptr [esp]
	call	6FF060h
	mov	edi,eax
	add	esp,8h
	test	edi,edi
	jz	73625Fh

l007362EF:
	lea	eax,[esp+20h]
	push	edi
	push	eax
	call	6FF5D0h
	add	esp,8h
	add	dword ptr [edi],0FFh
	jnz	73630Eh

l00736302:
	mov	ecx,[edi+4h]
	mov	edx,[ecx+18h]
	push	edi
	call	edx
	add	esp,4h

l0073630E:
	lea	eax,[esp+20h]
	lea	edx,[eax+1h]

l00736315:
	mov	cl,[eax]
	add	eax,1h
	test	cl,cl
	jnz	736315h

l0073631E:
	sub	eax,edx
	mov	ebx,eax
	mov	eax,[esi]
	test	eax,eax
	jz	736341h

l00736328:
	push	eax
	push	ebx
	call	ebp
	add	esp,8h
	mov	eax,esi
	mov	ecx,ebx
	lea	edx,[esp+20h]
	call	7356A0h
	jmp	73653Dh

l00736341:
	mov	eax,[esi+10h]
	cmp	eax,[esi+14h]
	jz	736361h

l00736349:
	mov	[eax],bl
	add	dword ptr [esi+10h],1h
	mov	eax,esi
	mov	ecx,ebx
	lea	edx,[esp+20h]
	call	7356A0h
	jmp	73653Dh

l00736361:
	push	ebx
	call	735640h
	add	esp,4h
	mov	eax,esi
	mov	ecx,ebx
	lea	edx,[esp+20h]
	call	7356A0h
	jmp	73653Dh

l0073637C:
	cmp	[esi+1Ch],ebp
	jle	73640Eh

l00736385:
	push	ebp
	lea	eax,[esp+1Ch]
	push	eax
	push	edi
	call	6FF3E0h
	push	ecx
	fstp	double ptr [esp]
	call	7012A0h
	add	esp,10h
	test	eax,eax
	jl	73620Eh

l007363A5:
	mov	eax,[esi]
	test	eax,eax
	jz	7363CCh

l007363AB:
	push	eax
	push	67h
	call	dword ptr [8A4758h]
	add	esp,8h
	mov	eax,esi
	mov	ecx,8h
	lea	edx,[esp+18h]
	call	7356A0h
	jmp	73653Dh

l007363CC:
	mov	eax,[esi+10h]
	cmp	eax,[esi+14h]
	jz	7363EFh

l007363D4:
	mov	byte ptr [eax],67h
	add	[esi+10h],ebp
	mov	eax,esi
	mov	ecx,8h
	lea	edx,[esp+18h]
	call	7356A0h
	jmp	73653Dh

l007363EF:
	push	67h
	call	735640h
	add	esp,4h

l007363F9:
	mov	eax,esi
	mov	ecx,8h
	lea	edx,[esp+18h]
	call	7356A0h
	jmp	73653Dh

l0073640E:
	lea	ecx,[esp+20h]
	push	edi
	push	ecx
	call	6FF5D0h
	lea	eax,[esp+28h]
	add	esp,8h
	lea	edx,[eax+1h]

l00736423:
	mov	cl,[eax]
	add	eax,1h
	test	cl,cl
	jnz	736423h

l0073642C:
	mov	edi,[8A4758h]
	sub	eax,edx
	mov	ebx,eax
	mov	eax,[esi]
	test	eax,eax
	jz	736446h

l0073643C:
	push	eax
	push	66h
	call	edi
	add	esp,8h
	jmp	736460h

l00736446:
	mov	eax,[esi+10h]
	cmp	eax,[esi+14h]
	jz	736456h

l0073644E:
	mov	byte ptr [eax],66h
	add	[esi+10h],ebp
	jmp	736460h

l00736456:
	push	66h
	call	735640h
	add	esp,4h

l00736460:
	mov	eax,[esi]
	test	eax,eax
	jz	73647Fh

l00736466:
	push	eax
	push	ebx
	call	edi
	add	esp,8h
	mov	eax,esi
	mov	ecx,ebx
	lea	edx,[esp+20h]
	call	7356A0h
	jmp	73653Dh

l0073647F:
	mov	eax,[esi+10h]
	cmp	eax,[esi+14h]
	jz	736361h

l0073648B:
	mov	[eax],bl
	add	[esi+10h],ebp
	mov	eax,esi
	mov	ecx,ebx
	lea	edx,[esp+20h]
	call	7356A0h
	jmp	73653Dh

l007364A2:
	mov	eax,[esi]
	test	eax,eax
	jz	7364B6h

l007364A8:
	push	eax
	push	6Ch
	call	dword ptr [8A4758h]
	add	esp,8h
	jmp	7364D0h

l007364B6:
	mov	eax,[esi+10h]
	cmp	eax,[esi+14h]
	jz	7364C6h

l007364BE:
	mov	byte ptr [eax],6Ch
	add	[esi+10h],ebp
	jmp	7364D0h

l007364C6:
	push	6Ch
	call	735640h
	add	esp,4h

l007364D0:
	mov	ebx,[edi+8h]
	mov	eax,esi
	mov	ecx,ebx
	call	735790h
	test	ebx,ebx
	jge	7364E4h

l007364E0:
	neg	ebx
	test	ebx,ebx

l007364E4:
	jle	73653Dh

l007364E6:
	add	edi,0Ch
	lea	esp,[esp+0h]

l007364F0:
	movzx	ecx,word ptr [edi]
	mov	eax,esi
	call	735710h
	add	edi,2h
	sub	ebx,ebp
	jnz	7364F0h

l00736501:
	jmp	73653Dh

l00736503:
	mov	eax,[esi]
	test	eax,eax
	mov	edi,[edi+8h]
	jz	73651Ah

l0073650C:
	push	eax
	push	69h
	call	dword ptr [8A4758h]
	add	esp,8h
	jmp	736534h

l0073651A:
	mov	eax,[esi+10h]
	cmp	eax,[esi+14h]
	jz	73652Ah

l00736522:
	mov	byte ptr [eax],69h
	add	[esi+10h],ebp
	jmp	736534h

l0073652A:
	push	69h

l0073652C:
	call	735640h
	add	esp,4h

l00736534:
	mov	eax,esi
	mov	ecx,edi
	call	735790h

l0073653D:
	add	dword ptr [esi+8h],0FFh

l00736541:
	mov	ecx,[esp+120h]
	pop	edi
	pop	esi
	pop	ebp
	pop	ebx
	xor	ecx,esp
	call	694B8Eh
	add	esp,114h
	ret
0073655A                               CC CC CC CC CC CC           ......

;; fn00736560: 00736560
;;   Called from:
;;     006F684B (in fn006F6810)
;;     006F6855 (in fn006F6810)
;;     006F6897 (in fn006F6810)
fn00736560 proc
	sub	esp,20h
	mov	eax,[esp+28h]
	mov	ecx,[esp+2Ch]
	mov	[esp],eax
	xor	eax,eax
	mov	[esp+4h],eax
	mov	[esp+8h],eax
	mov	[esp+18h],eax
	mov	[esp+1Ch],ecx
	mov	ecx,[esp+24h]
	lea	eax,[esp]
	call	735790h
	add	esp,20h
	ret

;; fn00736590: 00736590
;;   Called from:
;;     006F6862 (in fn006F6810)
fn00736590 proc
	sub	esp,20h
	mov	eax,[esp+28h]
	push	esi
	mov	esi,[esp+30h]
	test	esi,esi
	mov	[esp+4h],eax
	mov	dword ptr [esp+8h],0h
	mov	dword ptr [esp+0Ch],0h
	jle	7365BFh

l007365B4:
	call	6FDCC0h
	mov	[esp+1Ch],eax
	jmp	7365C7h

l007365BF:
	mov	dword ptr [esp+1Ch],0h

l007365C7:
	mov	edx,[esp+28h]
	lea	ecx,[esp+4h]
	push	ecx
	push	edx
	mov	[esp+28h],esi
	call	735890h
	mov	eax,[esp+24h]
	add	esp,8h
	test	eax,eax
	pop	esi
	jz	7365FEh

l007365E6:
	add	dword ptr [eax],0FFh
	mov	eax,[esp+18h]
	cmp	dword ptr [eax],0h
	jnz	7365FEh

l007365F2:
	mov	ecx,[eax+4h]
	mov	edx,[ecx+18h]
	push	eax
	call	edx
	add	esp,4h

l007365FE:
	add	esp,20h
	ret
00736602       CC CC CC CC CC CC CC CC CC CC CC CC CC CC   ..............

;; fn00736610: 00736610
;;   Called from:
;;     007369E2 (in fn007367D0)
;;     00736A23 (in fn007367D0)
;;     00736AB1 (in fn007367D0)
;;     00736B00 (in fn007367D0)
;;     00736B4D (in fn007367D0)
;;     00736B95 (in fn007367D0)
;;     00736C28 (in fn007367D0)
;;     00736D01 (in fn007367D0)
fn00736610 proc
	push	esi
	mov	esi,eax
	mov	eax,[edi]
	test	eax,eax
	jz	736629h

l00736619:
	push	eax
	push	esi
	push	1h
	push	edx
	call	dword ptr [8A463Ch]
	add	esp,10h
	pop	esi
	ret

l00736629:
	mov	ecx,[edi+10h]
	mov	eax,[edi+14h]
	sub	eax,ecx
	cmp	eax,esi
	cmovl	esi,eax

l00736636:
	push	esi
	push	ecx
	push	edx
	call	695030h
	add	[edi+10h],esi
	add	esp,0Ch
	mov	eax,esi
	pop	esi
	ret
00736648                         CC CC CC CC CC CC CC CC         ........

;; fn00736650: 00736650
;;   Called from:
;;     00736945 (in fn007367D0)
fn00736650 proc
	mov	eax,[esi]
	test	eax,eax
	push	ebx
	mov	ebx,[8A4748h]
	push	edi
	jz	736669h

l0073665E:
	push	eax
	call	ebx
	add	esp,4h
	movzx	edi,ax
	jmp	736683h

l00736669:
	mov	eax,[esi+10h]
	cmp	eax,[esi+14h]
	jnc	736680h

l00736671:
	movzx	cx,byte ptr [eax]
	add	eax,1h
	movzx	edi,cx
	mov	[esi+10h],eax
	jmp	736683h

l00736680:
	or	edi,0FFh

l00736683:
	mov	eax,[esi]
	test	eax,eax
	jz	736691h

l00736689:
	push	eax
	call	ebx
	add	esp,4h
	jmp	7366A7h

l00736691:
	mov	ecx,[esi+10h]
	cmp	ecx,[esi+14h]
	jnc	7366A4h

l00736699:
	movzx	eax,byte ptr [ecx]
	add	ecx,1h
	mov	[esi+10h],ecx
	jmp	7366A7h

l007366A4:
	or	eax,0FFh

l007366A7:
	xor	edx,edx
	mov	dh,al
	or	edi,edx
	mov	eax,edi
	and	eax,0FFFF8000h
	neg	eax
	movsx	ecx,di
	movsx	eax,ax
	pop	edi
	or	eax,ecx
	pop	ebx
	ret
007366C1    CC CC CC CC CC CC CC CC CC CC CC CC CC CC CC  ...............

;; fn007366D0: 007366D0
;;   Called from:
;;     00736791 (in fn00736780)
;;     0073679A (in fn00736780)
;;     007368DB (in fn007367D0)
;;     007368FC (in fn007367D0)
;;     00736BF9 (in fn007367D0)
;;     00736CA2 (in fn007367D0)
;;     00736CCA (in fn007367D0)
;;     00736D4B (in fn007367D0)
;;     00736DEC (in fn007367D0)
;;     00736EDC (in fn007367D0)
;;     00736FCC (in fn007367D0)
;;     00736FD7 (in fn007367D0)
;;     00736FE2 (in fn007367D0)
;;     00736FED (in fn007367D0)
;;     00737092 (in fn007367D0)
;;     0073738B (in fn00737370)
fn007366D0 proc
	push	esi
	mov	esi,[ecx]
	test	esi,esi
	push	edi
	jz	736705h

l007366D8:
	push	ebx
	mov	ebx,[8A4748h]
	push	esi
	call	ebx
	push	esi
	mov	edi,eax
	call	ebx
	shl	eax,8h
	push	esi
	or	edi,eax
	call	ebx
	shl	eax,10h
	push	esi
	or	edi,eax
	call	ebx
	add	esp,10h
	shl	eax,18h
	or	edi,eax
	pop	ebx
	mov	eax,edi
	pop	edi
	pop	esi
	ret

l00736705:
	mov	edx,[ecx+10h]
	mov	edi,[ecx+14h]
	cmp	edx,edi
	jnc	73671Ah

l0073670F:
	movzx	eax,byte ptr [edx]
	add	edx,1h
	mov	[ecx+10h],edx
	jmp	73671Dh

l0073671A:
	or	eax,0FFh

l0073671D:
	mov	esi,[ecx+10h]
	cmp	esi,edi
	jnc	73672Fh

l00736724:
	movzx	edx,byte ptr [esi]
	add	esi,1h
	mov	[ecx+10h],esi
	jmp	736732h

l0073672F:
	or	edx,0FFh

l00736732:
	mov	esi,[ecx+10h]
	shl	edx,8h
	or	eax,edx
	cmp	esi,edi
	jnc	736749h

l0073673E:
	movzx	edx,byte ptr [esi]
	add	esi,1h
	mov	[ecx+10h],esi
	jmp	73674Ch

l00736749:
	or	edx,0FFh

l0073674C:
	shl	edx,10h
	or	eax,edx
	mov	edx,[ecx+10h]
	cmp	edx,edi
	jnc	736769h

l00736758:
	movzx	esi,byte ptr [edx]
	shl	esi,18h
	add	edx,1h
	pop	edi
	or	eax,esi
	mov	[ecx+10h],edx
	pop	esi
	ret

l00736769:
	or	esi,0FFh
	shl	esi,18h
	pop	edi
	or	eax,esi
	pop	esi
	ret
00736774             CC CC CC CC CC CC CC CC CC CC CC CC     ............

;; fn00736780: 00736780
;;   Called from:
;;     007368F0 (in fn007367D0)
fn00736780 proc
	sub	esp,0Ch
	mov	eax,[0A14188h]
	xor	eax,esp
	mov	[esp+8h],eax
	push	edi
	mov	ecx,esi
	call	7366D0h
	mov	ecx,esi
	mov	edi,eax
	call	7366D0h
	push	1h
	push	1h
	mov	[esp+10h],eax
	lea	eax,[esp+0Ch]
	push	8h
	push	eax
	mov	[esp+14h],edi
	call	710CB0h
	mov	ecx,[esp+1Ch]
	add	esp,10h
	pop	edi
	xor	ecx,esp
	call	694B8Eh
	add	esp,0Ch
	ret
007367CA                               CC CC CC CC CC CC           ......

;; fn007367D0: 007367D0
;;   Called from:
;;     00736D83 (in fn007367D0)
;;     00736E21 (in fn007367D0)
;;     00736E5D (in fn007367D0)
;;     00736E71 (in fn007367D0)
;;     00736EB6 (in fn007367D0)
;;     00736F11 (in fn007367D0)
;;     00736FF7 (in fn007367D0)
;;     0073700A (in fn007367D0)
;;     0073701F (in fn007367D0)
;;     00737032 (in fn007367D0)
;;     00737045 (in fn007367D0)
;;     0073705A (in fn007367D0)
;;     0073706F (in fn007367D0)
;;     00737080 (in fn007367D0)
;;     0073709C (in fn007367D0)
;;     007373D4 (in fn007373A0)
;;     00737446 (in fn00737410)
fn007367D0 proc
	sub	esp,14Ch
	mov	eax,[0A14188h]
	xor	eax,esp
	mov	[esp+148h],eax
	push	ebx
	mov	ebx,[8A4748h]
	push	ebp
	push	esi
	push	edi
	mov	edi,[esp+160h]
	mov	eax,[edi]
	test	eax,eax
	jz	736807h

l007367FB:
	push	eax
	call	ebx
	add	esp,4h
	mov	[esp+14h],eax
	jmp	736826h

l00736807:
	mov	eax,[edi+10h]
	cmp	eax,[edi+14h]
	jnc	73681Eh

l0073680F:
	movzx	ecx,byte ptr [eax]
	add	eax,1h
	mov	[esp+14h],ecx
	mov	[edi+10h],eax
	jmp	736826h

l0073681E:
	mov	dword ptr [esp+14h],0FFFFFFFFh

l00736826:
	mov	esi,1h
	add	[edi+8h],esi
	mov	eax,[edi+8h]
	cmp	eax,7D0h
	jle	736859h

l00736838:
	add	eax,0FFh
	mov	[edi+8h],eax
	mov	edx,[0A17E2Ch]
	push	8DB9B8h
	push	edx
	call	6E0F80h
	add	esp,8h
	xor	eax,eax
	jmp	7371E1h

l00736859:
	mov	ebp,[esp+14h]
	lea	eax,[ebp+1h]
	cmp	eax,7Ch
	ja	7371C8h

l00736869:
	movzx	eax,byte ptr [eax+737258h]
	jmp	dword ptr [7371FCh+eax*4]

l00736877:
	mov	ecx,[0A1745Ch]
	push	8DB998h
	push	ecx
	jmp	7371D3h

l00736888:
	add	[0A163B8h],esi
	mov	eax,0A163B8h
	jmp	7371DDh

l00736898:
	mov	eax,[0A16D00h]
	add	[eax],esi
	mov	eax,[0A16D00h]
	jmp	7371DDh

l007368A9:
	add	[0A25B38h],esi
	mov	eax,0A25B38h
	jmp	7371DDh

l007368B9:
	add	[0A191D8h],esi
	mov	eax,0A191D8h
	jmp	7371DDh

l007368C9:
	add	[0A191E4h],esi
	mov	eax,0A191E4h
	jmp	7371DDh

l007368D9:
	mov	ecx,edi
	call	7366D0h
	push	eax
	call	7050A0h
	add	esp,4h
	jmp	7371DDh

l007368EE:
	mov	esi,edi
	call	736780h
	jmp	7371DDh

l007368FA:
	mov	ecx,edi
	call	7366D0h
	mov	esi,eax
	lea	edx,[esi+7FFFFFFFh]
	cmp	edx,0FEh
	ja	7369A5h

l00736912:
	test	esi,esi
	mov	ebp,esi
	jge	73691Ah

l00736918:
	neg	ebp

l0073691A:
	push	ebp
	call	7105C0h
	add	esp,4h
	test	eax,eax
	mov	[esp+14h],eax
	jz	7371DBh

l0073692F:
	xor	ebx,ebx
	test	ebp,ebp
	mov	[eax+8h],esi
	jle	7371DDh

l0073693C:
	add	eax,0Ch
	mov	[esp+18h],eax

l00736943:
	mov	esi,edi
	call	736650h
	test	eax,eax
	jl	73696Ch

l0073694E:
	mov	ecx,[esp+18h]
	mov	[ecx],ax
	add	ebx,1h
	add	ecx,2h
	cmp	ebx,ebp
	mov	[esp+18h],ecx
	jl	736943h

l00736963:
	mov	eax,[esp+14h]
	jmp	7371DDh

l0073696C:
	mov	eax,[esp+14h]
	add	dword ptr [eax],0FFh
	jnz	736981h

l00736975:
	mov	ecx,[eax+4h]
	mov	edx,[ecx+18h]
	push	eax
	call	edx
	add	esp,4h

l00736981:
	mov	eax,[0A17E2Ch]
	push	8DB984h
	push	eax
	call	6E0F80h
	mov	dword ptr [esp+1Ch],0h
	mov	eax,[esp+1Ch]
	add	esp,8h
	jmp	7371DDh

l007369A5:
	mov	ecx,[0A17E2Ch]
	push	8DB984h
	push	ecx
	jmp	7371D3h

l007369B6:
	mov	eax,[edi]
	test	eax,eax
	jz	7369C6h

l007369BC:
	push	eax
	call	ebx
	add	esp,4h
	mov	esi,eax
	jmp	7369D7h

l007369C6:
	mov	eax,[edi+10h]
	cmp	eax,[edi+14h]
	jnc	736A0Bh

l007369CE:
	movzx	esi,byte ptr [eax]
	add	eax,1h
	mov	[edi+10h],eax

l007369D7:
	cmp	esi,0FFh
	jz	736A0Bh

l007369DC:
	mov	eax,esi
	lea	edx,[esp+58h]
	call	736610h
	cmp	eax,esi
	jnz	736A0Bh

l007369EB:
	lea	edx,[esp+58h]
	push	edx
	mov	byte ptr [esp+esi+5Ch],0h
	call	74F3B0h
	push	ecx
	fstp	double ptr [esp]
	call	6FF060h
	add	esp,8h
	jmp	7371DDh

l00736A0B:
	mov	eax,[0A1745Ch]
	push	8DB998h
	jmp	7371D2h

l00736A1A:
	mov	eax,8h
	lea	edx,[esp+48h]
	call	736610h
	cmp	eax,8h
	jnz	736877h

l00736A31:
	lea	edx,[esp+48h]
	push	esi
	push	edx
	call	701650h
	fst	double ptr [esp+38h]
	fld	st(0)
	add	esp,8h
	fld	double ptr [8A86F8h]
	fxch	st(0),st(1)
	fucomip	st(0),st(1)
	fstp	st(0)
	lahf
	test	ah,44h
	jpe	736A6Ah

l00736A57:
	fstp	st(0)
	call	6E0FC0h
	test	eax,eax
	jnz	7371DBh

l00736A66:
	fld	double ptr [esp+30h]

l00736A6A:
	sub	esp,8h
	fstp	double ptr [esp]
	call	6FF060h
	add	esp,8h
	jmp	7371DDh

l00736A7D:
	mov	eax,[edi]
	test	eax,eax
	jz	736A8Dh

l00736A83:
	push	eax
	call	ebx
	add	esp,4h
	mov	esi,eax
	jmp	736AA2h

l00736A8D:
	mov	eax,[edi+10h]
	cmp	eax,[edi+14h]
	jnc	736A0Bh

l00736A99:
	movzx	esi,byte ptr [eax]
	add	eax,1h
	mov	[edi+10h],eax

l00736AA2:
	cmp	esi,0FFh
	jz	736A0Bh

l00736AAB:
	mov	eax,esi
	lea	edx,[esp+58h]
	call	736610h
	cmp	eax,esi
	jnz	736A0Bh

l00736ABE:
	lea	eax,[esp+58h]
	push	eax
	mov	byte ptr [esp+esi+5Ch],0h
	call	74F3B0h
	fstp	double ptr [esp+4Ch]
	mov	eax,[edi]
	add	esp,4h
	test	eax,eax
	jz	736AE4h

l00736ADA:
	push	eax
	call	ebx
	add	esp,4h
	mov	esi,eax
	jmp	736AF5h

l00736AE4:
	mov	eax,[edi+10h]
	cmp	eax,[edi+14h]
	jnc	736B33h

l00736AEC:
	movzx	esi,byte ptr [eax]
	add	eax,1h
	mov	[edi+10h],eax

l00736AF5:
	cmp	esi,0FFh
	jz	736B33h

l00736AFA:
	mov	eax,esi
	lea	edx,[esp+58h]
	call	736610h
	cmp	eax,esi
	jnz	736B33h

l00736B09:
	lea	ecx,[esp+58h]
	push	ecx
	mov	byte ptr [esp+esi+5Ch],0h
	call	74F3B0h
	fld	double ptr [esp+4Ch]
	sub	esp,0Ch
	mov	eax,esp
	fstp	double ptr [eax]
	fstp	double ptr [eax+8h]
	call	7331D0h
	add	esp,10h
	jmp	7371DDh

l00736B33:
	mov	edx,[0A1745Ch]
	push	8DB998h
	push	edx
	jmp	7371D3h

l00736B44:
	mov	eax,8h
	lea	edx,[esp+48h]
	call	736610h
	cmp	eax,8h
	jnz	736877h

l00736B5B:
	lea	edx,[esp+48h]
	push	esi
	push	edx
	call	701650h
	fst	double ptr [esp+38h]
	fld	double ptr [8A86F8h]
	add	esp,8h
	fxch	st(0),st(1)
	fucomip	st(0),st(1)
	fstp	st(0)
	lahf
	test	ah,44h
	jpe	736B8Ch

l00736B7F:
	call	6E0FC0h
	test	eax,eax
	jnz	7371DBh

l00736B8C:
	mov	eax,8h
	lea	edx,[esp+48h]
	call	736610h
	cmp	eax,8h
	jnz	736A0Bh

l00736BA3:
	lea	ecx,[esp+48h]
	push	esi
	push	ecx
	call	701650h
	fst	double ptr [esp+40h]
	fld	st(0)
	add	esp,8h
	fld	double ptr [8A86F8h]
	fxch	st(0),st(1)
	fucomip	st(0),st(1)
	fstp	st(0)
	lahf
	test	ah,44h
	jpe	736BDCh

l00736BC9:
	fstp	st(0)
	call	6E0FC0h
	test	eax,eax
	jnz	7371DBh

l00736BD8:
	fld	double ptr [esp+38h]

l00736BDC:
	fld	double ptr [esp+30h]
	sub	esp,10h
	mov	eax,esp
	fstp	double ptr [eax]
	fstp	double ptr [eax+8h]
	call	7331D0h
	add	esp,10h
	jmp	7371DDh

l00736BF7:
	mov	ecx,edi
	call	7366D0h
	mov	esi,eax
	cmp	esi,7FFFFFFFh
	ja	736C8Fh

l00736C0C:
	push	esi
	push	0h
	call	6EC9B0h
	add	esp,8h
	test	eax,eax
	mov	[esp+10h],eax
	jz	7371DBh

l00736C23:
	lea	edx,[eax+14h]
	mov	eax,esi
	call	736610h
	cmp	eax,esi
	jz	736C5Eh

l00736C31:
	mov	eax,[esp+10h]
	add	dword ptr [eax],0FFh
	mov	eax,[esp+10h]
	cmp	dword ptr [eax],0h
	jnz	736C4Dh

l00736C41:
	mov	edx,[eax+4h]
	push	eax
	mov	eax,[edx+18h]
	call	eax
	add	esp,4h

l00736C4D:
	mov	ecx,[0A1745Ch]
	push	8DB998h
	push	ecx
	jmp	7371D3h

l00736C5E:
	cmp	ebp,74h
	jnz	736C86h

l00736C63:
	lea	edx,[esp+10h]
	push	edx
	call	6EC890h
	mov	eax,[esp+14h]
	mov	ecx,[edi+18h]
	push	eax
	push	ecx
	call	6F2A10h
	add	esp,0Ch
	test	eax,eax
	jl	7371DBh

l00736C86:
	mov	eax,[esp+10h]
	jmp	7371DDh

l00736C8F:
	mov	edx,[0A17E2Ch]
	push	8DB984h
	push	edx
	jmp	7371D3h

l00736CA0:
	mov	ecx,edi
	call	7366D0h
	test	eax,eax
	jl	736C8Fh

l00736CAB:
	mov	ecx,[edi+18h]
	cmp	eax,[ecx+8h]
	jge	736C8Fh

l00736CB3:
	mov	ecx,[ecx+0Ch]
	mov	eax,[ecx+eax*4]
	mov	[esp+10h],eax
	add	[eax],esi
	mov	eax,[esp+10h]
	jmp	7371DDh

l00736CC8:
	mov	ecx,edi
	call	7366D0h
	mov	ebx,eax
	cmp	ebx,7FFFFFFFh
	ja	7369A5h

l00736CDD:
	test	ebx,ebx
	jnz	736CE3h

l00736CE1:
	mov	eax,esi

l00736CE3:
	push	eax
	call	dword ptr [8A45BCh]
	mov	esi,eax
	add	esp,4h
	test	esi,esi
	jnz	736CFDh

l00736CF3:
	call	6E1210h
	jmp	7371DDh

l00736CFD:
	mov	eax,ebx
	mov	edx,esi
	call	736610h
	cmp	eax,ebx
	jz	736D29h

l00736D0A:
	push	esi
	call	dword ptr [8A45D4h]
	mov	eax,[0A1745Ch]
	push	8DB998h
	push	eax
	call	6E0F80h
	add	esp,0Ch
	jmp	7371DBh

l00736D29:
	push	0h
	push	ebx
	push	esi
	call	71FC80h
	push	esi
	mov	[esp+20h],eax
	call	dword ptr [8A45D4h]
	mov	eax,[esp+20h]
	add	esp,10h
	jmp	7371DDh

l00736D49:
	mov	ecx,edi
	call	7366D0h
	mov	ebp,eax
	cmp	ebp,7FFFFFFFh
	ja	7371C8h

l00736D5E:
	push	ebp
	call	6DFD20h
	add	esp,4h
	test	eax,eax
	mov	[esp+10h],eax
	jz	7371DBh

l00736D73:
	xor	esi,esi
	test	ebp,ebp
	jle	7371DDh

l00736D7D:
	mov	ebx,0Ch

l00736D82:
	push	edi
	call	7367D0h
	add	esp,4h
	test	eax,eax
	jz	736DA9h

l00736D8F:
	mov	edx,[esp+10h]
	mov	[ebx+edx],eax
	add	esi,1h
	add	ebx,4h
	cmp	esi,ebp
	jl	736D82h

l00736DA0:
	mov	eax,[esp+10h]
	jmp	7371DDh

l00736DA9:
	call	6E0FC0h
	test	eax,eax
	jnz	736DC5h

l00736DB2:
	mov	eax,[0A16B7Ch]
	push	8DB968h
	push	eax

l00736DBD:
	call	6E0F80h
	add	esp,8h

l00736DC5:
	mov	eax,[esp+10h]

l00736DC9:
	add	dword ptr [eax],0FFh
	mov	eax,[esp+10h]
	cmp	dword ptr [eax],0h
	jnz	7371DBh

l00736DD9:
	mov	ecx,[eax+4h]
	mov	edx,[ecx+18h]
	push	eax
	call	edx
	add	esp,4h
	jmp	7371DBh

l00736DEA:
	mov	ecx,edi
	call	7366D0h
	mov	ebx,eax
	cmp	ebx,7FFFFFFFh
	ja	7371C8h

l00736DFF:
	push	ebx
	call	6F2650h
	add	esp,4h
	test	eax,eax
	mov	[esp+10h],eax
	jz	7371DBh

l00736E14:
	xor	esi,esi
	test	ebx,ebx
	jle	7371DDh

l00736E1E:
	mov	edi,edi

l00736E20:
	push	edi
	call	7367D0h
	add	esp,4h
	test	eax,eax
	jz	736DA9h

l00736E31:
	mov	ecx,[esp+10h]
	mov	edx,[ecx+0Ch]
	mov	[edx+esi*4],eax
	add	esi,1h
	cmp	esi,ebx
	jl	736E20h

l00736E42:
	mov	eax,[esp+10h]
	jmp	7371DDh

l00736E4B:
	call	6FDCC0h
	test	eax,eax
	mov	[esp+10h],eax
	jz	7371DBh

l00736E5C:
	push	edi
	call	7367D0h
	mov	esi,eax
	add	esp,4h
	test	esi,esi
	jz	736EC4h

l00736E6B:
	jmp	736E70h
00736E6D                                        8D 49 00              .I.

l00736E70:
	push	edi
	call	7367D0h
	mov	ebp,eax
	add	esp,4h
	test	ebp,ebp
	jz	736E8Eh

l00736E7F:
	mov	ecx,[esp+10h]
	push	ebp
	push	esi
	push	ecx
	call	6FBD90h
	add	esp,0Ch

l00736E8E:
	add	dword ptr [esi],0FFh
	jnz	736E9Fh

l00736E93:
	mov	edx,[esi+4h]
	mov	eax,[edx+18h]
	push	esi
	call	eax
	add	esp,4h

l00736E9F:
	test	ebp,ebp
	jz	736EB5h

l00736EA3:
	add	dword ptr [ebp+0h],0FFh
	jnz	736EB5h

l00736EA9:
	mov	ecx,[ebp+4h]
	mov	edx,[ecx+18h]
	push	ebp
	call	edx
	add	esp,4h

l00736EB5:
	push	edi
	call	7367D0h
	mov	esi,eax
	add	esp,4h
	test	esi,esi
	jnz	736E70h

l00736EC4:
	call	6E0FC0h
	test	eax,eax
	mov	eax,[esp+10h]
	jz	7371DDh

l00736ED5:
	jmp	736DC9h

l00736EDA:
	mov	ecx,edi
	call	7366D0h
	mov	ebp,eax
	cmp	ebp,7FFFFFFFh
	ja	7371C8h

l00736EEF:
	push	ebp
	call	6DFD20h
	add	esp,4h
	test	eax,eax
	mov	[esp+10h],eax
	jz	7371DBh

l00736F04:
	xor	esi,esi
	test	ebp,ebp
	jle	736F32h

l00736F0A:
	mov	ebx,0Ch
	nop

l00736F10:
	push	edi
	call	7367D0h
	add	esp,4h
	test	eax,eax
	jz	736F49h

l00736F1D:
	mov	ecx,[esp+10h]
	mov	[ebx+ecx],eax
	add	esi,1h
	add	ebx,4h
	cmp	esi,ebp
	jl	736F10h

l00736F2E:
	mov	eax,[esp+10h]

l00736F32:
	test	eax,eax
	jz	7371DBh

l00736F3A:
	cmp	dword ptr [esp+14h],3Ch
	push	eax
	jnz	736F67h

l00736F42:
	call	73A5D0h
	jmp	736F6Ch

l00736F49:
	call	6E0FC0h
	test	eax,eax
	jnz	736DC5h

l00736F56:
	mov	edx,[0A16B7Ch]
	push	8DB968h
	push	edx
	jmp	736DBDh

l00736F67:
	call	73A5E0h

l00736F6C:
	mov	esi,eax
	mov	eax,[esp+14h]
	add	dword ptr [eax],0FFh
	mov	eax,[esp+14h]
	add	esp,4h
	cmp	dword ptr [eax],0h
	jnz	736F8Dh

l00736F81:
	mov	ecx,[eax+4h]
	mov	edx,[ecx+18h]
	push	eax
	call	edx
	add	esp,4h

l00736F8D:
	mov	eax,esi
	jmp	7371DDh

l00736F94:
	call	7075D0h
	test	eax,eax
	jz	736FAEh

l00736F9D:
	mov	ecx,[0A175E0h]
	push	8DB92Ch
	push	ecx
	jmp	7371D3h

l00736FAE:
	xor	ebx,ebx
	mov	ecx,edi
	xor	ebp,ebp
	mov	[esp+14h],ebx
	mov	[esp+28h],ebx
	mov	[esp+24h],ebx
	mov	[esp+1Ch],ebx
	mov	[esp+20h],ebx
	mov	[esp+10h],ebx
	call	7366D0h
	mov	ecx,edi
	mov	[esp+48h],eax
	call	7366D0h
	mov	ecx,edi
	mov	[esp+30h],eax
	call	7366D0h
	mov	ecx,edi
	mov	[esp+44h],eax
	call	7366D0h
	push	edi
	mov	[esp+44h],eax
	call	7367D0h
	mov	esi,eax
	add	esp,4h
	test	esi,esi
	jz	7371C2h

l00737009:
	push	edi
	call	7367D0h
	add	esp,4h
	test	eax,eax
	mov	[esp+18h],eax
	jz	7370F0h

l0073701E:
	push	edi
	call	7367D0h
	mov	ebp,eax
	add	esp,4h
	test	ebp,ebp
	jz	7370F0h

l00737031:
	push	edi
	call	7367D0h
	mov	ebx,eax
	add	esp,4h
	test	ebx,ebx
	jz	7370F0h

l00737044:
	push	edi
	call	7367D0h
	add	esp,4h
	test	eax,eax
	mov	[esp+14h],eax
	jz	7370F0h

l00737059:
	push	edi
	call	7367D0h
	add	esp,4h
	test	eax,eax
	mov	[esp+28h],eax
	jz	7370F0h

l0073706E:
	push	edi
	call	7367D0h
	add	esp,4h
	test	eax,eax
	mov	[esp+24h],eax
	jz	7370F0h

l0073707F:
	push	edi
	call	7367D0h
	add	esp,4h
	test	eax,eax
	mov	[esp+1Ch],eax
	jz	7370F0h

l00737090:
	mov	ecx,edi
	call	7366D0h
	push	edi
	mov	[esp+30h],eax
	call	7367D0h
	add	esp,4h
	test	eax,eax
	mov	[esp+20h],eax
	jz	7370F0h

l007370AC:
	mov	ecx,[esp+1Ch]
	mov	edx,eax
	mov	eax,[esp+2Ch]
	push	edx
	mov	edx,[esp+28h]
	push	eax
	mov	eax,[esp+30h]
	push	ecx
	mov	ecx,[esp+20h]
	push	edx
	mov	edx,[esp+28h]
	push	eax
	mov	eax,[esp+54h]
	push	ecx
	mov	ecx,[esp+5Ch]
	push	ebx
	push	ebp
	push	edx
	mov	edx,[esp+54h]
	push	esi
	push	eax
	mov	eax,[esp+74h]
	push	ecx
	push	edx
	push	eax
	call	734BB0h
	add	esp,38h
	mov	[esp+10h],eax

l007370F0:
	add	dword ptr [esi],0FFh
	jnz	737101h

l007370F5:
	mov	ecx,[esi+4h]
	mov	edx,[ecx+18h]
	push	esi
	call	edx
	add	esp,4h

l00737101:
	mov	eax,[esp+18h]
	test	eax,eax
	jz	73711Ah

l00737109:
	add	dword ptr [eax],0FFh
	jnz	73711Ah

l0073710E:
	mov	ecx,[eax+4h]
	mov	edx,[ecx+18h]
	push	eax
	call	edx
	add	esp,4h

l0073711A:
	test	ebp,ebp
	jz	737130h

l0073711E:
	add	dword ptr [ebp+0h],0FFh
	jnz	737130h

l00737124:
	mov	eax,[ebp+4h]
	mov	ecx,[eax+18h]
	push	ebp
	call	ecx
	add	esp,4h

l00737130:
	test	ebx,ebx
	jz	737145h

l00737134:
	add	dword ptr [ebx],0FFh
	jnz	737145h

l00737139:
	mov	edx,[ebx+4h]
	mov	eax,[edx+18h]
	push	ebx
	call	eax
	add	esp,4h

l00737145:
	mov	eax,[esp+14h]
	test	eax,eax
	jz	73715Eh

l0073714D:
	add	dword ptr [eax],0FFh
	jnz	73715Eh

l00737152:
	mov	ecx,[eax+4h]
	mov	edx,[ecx+18h]
	push	eax
	call	edx
	add	esp,4h

l0073715E:
	mov	eax,[esp+28h]
	test	eax,eax
	jz	737177h

l00737166:
	add	dword ptr [eax],0FFh
	jnz	737177h

l0073716B:
	mov	ecx,[eax+4h]
	mov	edx,[ecx+18h]
	push	eax
	call	edx
	add	esp,4h

l00737177:
	mov	eax,[esp+24h]
	test	eax,eax
	jz	737190h

l0073717F:
	add	dword ptr [eax],0FFh
	jnz	737190h

l00737184:
	mov	ecx,[eax+4h]
	mov	edx,[ecx+18h]
	push	eax
	call	edx
	add	esp,4h

l00737190:
	mov	eax,[esp+1Ch]
	test	eax,eax
	jz	7371A9h

l00737198:
	add	dword ptr [eax],0FFh
	jnz	7371A9h

l0073719D:
	mov	ecx,[eax+4h]
	mov	edx,[ecx+18h]
	push	eax
	call	edx
	add	esp,4h

l007371A9:
	mov	eax,[esp+20h]
	test	eax,eax
	jz	7371C2h

l007371B1:
	add	dword ptr [eax],0FFh
	jnz	7371C2h

l007371B6:
	mov	ecx,[eax+4h]
	mov	edx,[ecx+18h]
	push	eax
	call	edx
	add	esp,4h

l007371C2:
	mov	eax,[esp+10h]
	jmp	7371DDh

l007371C8:
	mov	eax,[0A17E2Ch]
	push	8DB984h

l007371D2:
	push	eax

l007371D3:
	call	6E0F80h
	add	esp,8h

l007371DB:
	xor	eax,eax

l007371DD:
	add	dword ptr [edi+8h],0FFh

l007371E1:
	mov	ecx,[esp+158h]
	pop	edi
	pop	esi
	pop	ebp
	pop	ebx
	xor	ecx,esp
	call	694B8Eh
	add	esp,14Ch
	ret
007371FA                               8B FF                       ..   
l007371FC	dd	0x00736877
l00737200	dd	0x00736D49
l00737204	dd	0x007368A9
l00737208	dd	0x007371DB
l0073720C	dd	0x00736EDA
l00737210	dd	0x007368B9
l00737214	dd	0x007368EE
l00737218	dd	0x00736888
l0073721C	dd	0x00736CA0
l00737220	dd	0x00736898
l00737224	dd	0x007368C9
l00737228	dd	0x00736DEA
l0073722C	dd	0x00736F94
l00737230	dd	0x007369B6
l00737234	dd	0x00736A1A
l00737238	dd	0x007368D9
l0073723C	dd	0x007368FA
l00737240	dd	0x00736BF7
l00737244	dd	0x00736CC8
l00737248	dd	0x00736A7D
l0073724C	dd	0x00736B44
l00737250	dd	0x00736E4B
l00737254	dd	0x007371C8
l00737258	db	0x00
l00737259	db	0x16
l0073725A	db	0x16
l0073725B	db	0x16
l0073725C	db	0x16
l0073725D	db	0x16
l0073725E	db	0x16
l0073725F	db	0x16
l00737260	db	0x16
l00737261	db	0x16
l00737262	db	0x16
l00737263	db	0x16
l00737264	db	0x16
l00737265	db	0x16
l00737266	db	0x16
l00737267	db	0x16
l00737268	db	0x16
l00737269	db	0x16
l0073726A	db	0x16
l0073726B	db	0x16
l0073726C	db	0x16
l0073726D	db	0x16
l0073726E	db	0x16
l0073726F	db	0x16
l00737270	db	0x16
l00737271	db	0x16
l00737272	db	0x16
l00737273	db	0x16
l00737274	db	0x16
l00737275	db	0x16
l00737276	db	0x16
l00737277	db	0x16
l00737278	db	0x16
l00737279	db	0x16
l0073727A	db	0x16
l0073727B	db	0x16
l0073727C	db	0x16
l0073727D	db	0x16
l0073727E	db	0x16
l0073727F	db	0x16
l00737280	db	0x16
l00737281	db	0x01
l00737282	db	0x16
l00737283	db	0x16
l00737284	db	0x16
l00737285	db	0x16
l00737286	db	0x16
l00737287	db	0x02
l00737288	db	0x16
l00737289	db	0x03
l0073728A	db	0x16
l0073728B	db	0x16
l0073728C	db	0x16
l0073728D	db	0x16
l0073728E	db	0x16
l0073728F	db	0x16
l00737290	db	0x16
l00737291	db	0x16
l00737292	db	0x16
l00737293	db	0x16
l00737294	db	0x16
l00737295	db	0x04
l00737296	db	0x16
l00737297	db	0x04
l00737298	db	0x16
l00737299	db	0x16
l0073729A	db	0x16
l0073729B	db	0x16
l0073729C	db	0x16
l0073729D	db	0x16
l0073729E	db	0x16
l0073729F	db	0x05
l007372A0	db	0x16
l007372A1	db	0x16
l007372A2	db	0x06
l007372A3	db	0x16
l007372A4	db	0x16
l007372A5	db	0x16
l007372A6	db	0x16
l007372A7	db	0x07
l007372A8	db	0x16
l007372A9	db	0x16
l007372AA	db	0x16
l007372AB	db	0x08
l007372AC	db	0x09
l007372AD	db	0x0A
l007372AE	db	0x16
l007372AF	db	0x16
l007372B0	db	0x16
l007372B1	db	0x16
l007372B2	db	0x16
l007372B3	db	0x16
l007372B4	db	0x0B
l007372B5	db	0x16
l007372B6	db	0x16
l007372B7	db	0x16
l007372B8	db	0x16
l007372B9	db	0x16
l007372BA	db	0x16
l007372BB	db	0x16
l007372BC	db	0x0C
l007372BD	db	0x16
l007372BE	db	0x16
l007372BF	db	0x0D
l007372C0	db	0x0E
l007372C1	db	0x16
l007372C2	db	0x0F
l007372C3	db	0x16
l007372C4	db	0x16
l007372C5	db	0x10
l007372C6	db	0x16
l007372C7	db	0x16
l007372C8	db	0x16
l007372C9	db	0x16
l007372CA	db	0x16
l007372CB	db	0x16
l007372CC	db	0x11
l007372CD	db	0x11
l007372CE	db	0x12
l007372CF	db	0x16
l007372D0	db	0x16
l007372D1	db	0x13
l007372D2	db	0x14
l007372D3	db	0x16
l007372D4	db	0x15
007372D5                CC CC CC CC CC CC CC CC CC CC CC      ...........
007372E0 E8 DB 9C FA FF 85 C0 74 1B 68 D4 B9 8D 00 FF 15 .......t.h......
007372F0 CC 46 8A 00 83 C0 40 50 FF 15 E0 45 8A 00 83 C4 .F....@P...E....
00737300 08 33 C0 C3 8B 44 24 04 56 50 E8 C1 F4 FF FF 8B .3...D$.VP......
00737310 F0 83 C4 04 85 F6 75 1D E8 A3 9C FA FF 85 C0 75 ......u........u
00737320 14 8B 0D 7C 6B A1 00 68 68 B9 8D 00 51 E8 4E 9C ...|k..hh...Q.N.
00737330 FA FF 83 C4 08 8B C6 5E C3 CC CC CC CC CC CC CC .......^........
00737340 83 EC 20 8B 44 24 24 89 04 24 33 C0 56 8D 74 24 .. .D$$..$3.V.t$
00737350 04 89 44 24 1C 89 44 24 14 89 44 24 18 E8 EE F2 ..D$..D$..D$....
00737360 FF FF 5E 83 C4 20 C3 CC CC CC CC CC CC CC CC CC ..^.. ..........

;; fn00737370: 00737370
;;   Called from:
;;     006F6646 (in fn006F6630)
;;     006F667C (in fn006F6630)
;;     006F6737 (in fn006F6730)
;;     006F6761 (in fn006F6730)
fn00737370 proc
	sub	esp,20h
	mov	eax,[esp+24h]
	mov	[esp],eax
	xor	eax,eax
	lea	ecx,[esp]
	mov	[esp+18h],eax
	mov	[esp+14h],eax
	mov	[esp+10h],eax
	call	7366D0h
	add	esp,20h
	ret
00737394             CC CC CC CC CC CC CC CC CC CC CC CC     ............

;; fn007373A0: 007373A0
;;   Called from:
;;     0073792E (in fn00737880)
fn007373A0 proc
	sub	esp,20h
	mov	eax,[esp+24h]
	push	esi
	push	0h
	mov	[esp+8h],eax
	call	6F2650h
	lea	ecx,[esp+8h]
	push	ecx
	mov	[esp+24h],eax
	mov	dword ptr [esp+14h],0h
	mov	dword ptr [esp+20h],0h
	mov	dword ptr [esp+1Ch],0h
	call	7367D0h
	mov	esi,eax
	mov	eax,[esp+24h]
	add	dword ptr [eax],0FFh
	mov	eax,[esp+24h]
	add	esp,8h
	cmp	dword ptr [eax],0h
	jnz	7373FAh

l007373EE:
	mov	edx,[eax+4h]
	push	eax
	mov	eax,[edx+18h]
	call	eax
	add	esp,4h

l007373FA:
	mov	eax,esi
	pop	esi
	add	esp,20h
	ret
00737401    CC CC CC CC CC CC CC CC CC CC CC CC CC CC CC  ...............

;; fn00737410: 00737410
;;   Called from:
;;     006F6DC3 (in fn006F6D50)
;;     007378F7 (in fn00737880)
fn00737410 proc
	sub	esp,20h
	mov	eax,[esp+24h]
	mov	ecx,[esp+28h]
	mov	[esp+10h],eax
	push	esi
	add	eax,ecx
	push	0h
	mov	dword ptr [esp+8h],0h
	mov	[esp+1Ch],eax
	call	6F2650h
	lea	edx,[esp+8h]
	push	edx
	mov	[esp+24h],eax
	mov	dword ptr [esp+14h],0h
	call	7367D0h
	mov	esi,eax
	mov	eax,[esp+24h]
	add	dword ptr [eax],0FFh
	mov	eax,[esp+24h]
	add	esp,8h
	cmp	dword ptr [eax],0h
	jnz	73746Ch

l00737460:
	mov	ecx,[eax+4h]
	mov	edx,[ecx+18h]
	push	eax
	call	edx
	add	esp,4h

l0073746C:
	mov	eax,esi
	pop	esi
	add	esp,20h
	ret
00737473          CC CC CC CC CC CC CC CC CC CC CC CC CC    .............
00737480 83 EC 20 56 33 F6 6A 32 56 89 74 24 0C E8 1E 55 .. V3.j2V.t$...U
00737490 FB FF 83 C4 08 3B C6 89 44 24 10 0F 84 0A 01 00 .....;..D$......
007374A0 00 8D 48 14 50 89 4C 24 18 E8 52 57 FB FF 03 44 ..H.P.L$..RW...D
007374B0 24 18 83 C4 04 89 44 24 18 8B 44 24 2C 3B C6 89 $.....D$..D$,;..
007374C0 74 24 08 89 74 24 0C 89 44 24 20 7E 0B E8 EE 67 t$..t$..D$ ~...g
007374D0 FC FF 89 44 24 1C EB 04 89 74 24 1C 8B 44 24 28 ...D$....t$..D$(
007374E0 8D 54 24 04 52 50 E8 A5 E3 FF FF 8B 44 24 24 83 .T$.RP......D$$.
007374F0 C4 08 3B C6 74 17 83 00 FF 8B 44 24 1C 39 30 75 ..;.t.....D$.90u
00737500 0C 8B 48 04 8B 51 18 50 FF D2 83 C4 04 8B 44 24 ..H..Q.P......D$
00737510 10 3B C6 74 54 8B 4C 24 14 8D 50 14 2B CA 81 F9 .;.tT.L$..P.+...
00737520 FF FF FF 7F 7E 31 83 00 FF 8B 44 24 10 39 30 75 ....~1....D$.90u
00737530 0C 8B 48 04 8B 51 18 50 FF D2 83 C4 04 A1 98 85 ..H..Q.P........
00737540 A1 00 68 3C BA 8D 00 50 E8 33 9A FA FF 83 C4 08 ..h<...P.3......
00737550 33 C0 5E 83 C4 20 C3 51 8D 4C 24 14 51 E8 8E 4F 3.^.. .Q.L$.Q..O
00737560 FB FF 8B 44 24 18 83 C4 08 39 74 24 08 74 3E 3B ...D$....9t$.t>;
00737570 C6 74 17 83 00 FF 8B 44 24 10 39 30 75 0C 8B 50 .t.....D$.90u..P
00737580 04 50 8B 42 18 FF D0 83 C4 04 83 7C 24 08 01 B8 .P.B.......|$...
00737590 24 BA 8D 00 74 05 B8 00 BA 8D 00 8B 0D 2C 7E A1 $...t........,~.
007375A0 00 50 51 E8 D8 99 FA FF 83 C4 08 33 C0 5E 83 C4 .PQ........3.^..
007375B0 20 C3 CC CC CC CC CC CC CC CC CC CC CC CC CC CC  ...............
007375C0 83 EC 2C 8D 04 24 50 8B 44 24 38 8D 4C 24 08 51 ..,..$P.D$8.L$.Q
007375D0 8D 54 24 10 52 68 84 BA 8D 00 50 C7 44 24 14 02 .T$.Rh....P.D$..
007375E0 00 00 00 E8 C8 06 FB FF 83 C4 14 85 C0 74 36 8B .............t6.
007375F0 44 24 04 81 78 04 F0 6E A2 00 74 33 8B 48 04 68 D$..x..n..t3.H.h
00737600 F0 6E A2 00 51 E8 66 E0 F9 FF 83 C4 08 85 C0 75 .n..Q.f........u
00737610 1A 8B 15 7C 6B A1 00 68 60 BA 8D 00 52 E8 5E 99 ...|k..h`...R.^.
00737620 FA FF 83 C4 08 33 C0 83 C4 2C C3 8B 44 24 04 56 .....3...,..D$.V
00737630 50 E8 2A 86 FF FF 33 F6 83 C4 04 39 74 24 04 89 P.*...3....9t$..
00737640 44 24 10 89 74 24 1C 89 74 24 24 89 74 24 20 89 D$..t$..t$$.t$ .
00737650 74 24 14 89 74 24 18 7E 0B E8 62 66 FC FF 89 44 t$..t$.~..bf...D
00737660 24 28 EB 04 89 74 24 28 8B 54 24 0C 8B 44 24 04 $(...t$(.T$..D$.
00737670 8D 4C 24 10 51 52 89 44 24 34 E8 11 E2 FF FF 8B .L$.QR.D$4......
00737680 44 24 30 83 C4 08 3B C6 74 17 83 00 FF 8B 44 24 D$0...;.t.....D$
00737690 28 39 30 75 0C 8B 48 04 8B 51 18 50 FF D2 83 C4 (90u..H..Q.P....
007376A0 04 8B 44 24 14 3B C6 5E 74 24 83 F8 01 B8 24 BA ..D$.;.^t$....$.
007376B0 8D 00 74 05 B8 00 BA 8D 00 50 A1 2C 7E A1 00 50 ..t......P.,~..P
007376C0 E8 BB 98 FA FF 83 C4 08 33 C0 83 C4 2C C3 83 05 ........3...,...
007376D0 B8 63 A1 00 01 B8 B8 63 A1 00 83 C4 2C C3 CC CC .c.....c....,...
007376E0 83 EC 20 56 8B 74 24 2C 8B 46 04 3D F0 6E A2 00 .. V.t$,.F.=.n..
007376F0 74 2C 68 F0 6E A2 00 50 E8 73 DF F9 FF 83 C4 08 t,h.n..P.s......
00737700 85 C0 75 1A A1 7C 6B A1 00 68 90 BA 8D 00 50 E8 ..u..|k..h....P.
00737710 6C 98 FA FF 83 C4 08 33 C0 5E 83 C4 20 C3 56 E8 l......3.^.. .V.
00737720 3C 85 FF FF 6A 00 89 44 24 0C E8 21 AF FB FF 8D <...j..D$..!....
00737730 4C 24 0C 51 89 44 24 28 C7 44 24 18 00 00 00 00 L$.Q.D$(.D$.....
00737740 E8 9B FB FF FF 8B F0 8B 44 24 28 83 00 FF 8B 44 ........D$(....D
00737750 24 28 83 C4 0C 83 38 00 75 0C 8B 50 04 50 8B 42 $(....8.u..P.P.B
00737760 18 FF D0 83 C4 04 8B C6 5E 83 C4 20 C3 CC CC CC ........^.. ....
00737770 83 EC 08 8B 54 24 10 8D 04 24 50 8D 4C 24 08 51 ....T$...$P.L$.Q
00737780 68 B0 BA 8D 00 52 C7 44 24 10 02 00 00 00 E8 1D h....R.D$.......
00737790 05 FB FF 83 C4 10 85 C0 75 04 83 C4 08 C3 8B 04 ........u.......
007377A0 24 8B 4C 24 04 50 51 E8 D4 FC FF FF 83 C4 08 83 $.L$.PQ.........
007377B0 C4 08 C3 CC CC CC CC CC CC CC CC CC CC CC CC CC ................
007377C0 8B 54 24 08 83 EC 28 8D 44 24 04 50 8D 4C 24 04 .T$...(.D$.P.L$.
007377D0 51 68 BC BA 8D 00 52 E8 D4 04 FB FF 83 C4 10 85 Qh....R.........
007377E0 C0 75 04 83 C4 28 C3 8B 04 24 8B 4C 24 04 89 44 .u...(...$.L$..D
007377F0 24 18 56 03 C1 6A 00 C7 44 24 10 00 00 00 00 89 $.V..j..D$......
00737800 44 24 24 E8 48 AE FB FF 8D 54 24 10 52 89 44 24 D$$.H....T$.R.D$
00737810 2C C7 44 24 1C 00 00 00 00 E8 C2 FA FF FF 8B F0 ,.D$............
00737820 8B 44 24 2C 83 00 FF 8B 44 24 2C 83 C4 08 83 38 .D$,....D$,....8
00737830 00 75 0C 8B 48 04 8B 51 18 50 FF D2 83 C4 04 8B .u..H..Q.P......
00737840 C6 5E 83 C4 28 C3 CC CC CC CC CC CC CC CC CC CC .^..(...........
00737850 68 F5 03 00 00 6A 00 6A 00 68 18 75 A2 00 68 C8 h....j.j.h.u..h.
00737860 BA 8D 00 E8 A8 1D FB FF 83 C4 14 85 C0 74 10 6A .............t.j
00737870 02 68 54 51 8B 00 50 E8 E4 27 FB FF 83 C4 0C C3 .hTQ..P..'......

;; fn00737880: 00737880
;;   Called from:
;;     006F66E2 (in fn006F66E0)
fn00737880 proc
	mov	eax,4034h
	call	6952A0h
	mov	eax,[0A14188h]
	xor	eax,esp
	mov	[esp+4030h],eax
	push	ebx
	mov	ebx,[esp+403Ch]
	push	esi
	push	edi
	push	ebx
	call	dword ptr [8A45CCh]
	lea	ecx,[esp+10h]
	push	ecx
	push	eax
	call	dword ptr [8A4720h]
	add	esp,0Ch
	test	eax,eax
	jnz	73792Dh

l007378BC:
	mov	edi,[esp+20h]
	test	edi,edi
	jle	73792Dh

l007378C4:
	cmp	edi,4000h
	jg	7378D2h

l007378CC:
	lea	esi,[esp+3Ch]
	jmp	7378EAh

l007378D2:
	cmp	edi,40000h
	jg	73792Dh

l007378DA:
	push	edi
	call	dword ptr [8A45BCh]
	mov	esi,eax
	add	esp,4h
	test	esi,esi
	jz	73792Dh

l007378EA:
	push	ebx
	push	edi
	push	1h
	push	esi
	call	dword ptr [8A463Ch]
	push	eax
	push	esi
	call	737410h
	lea	edx,[esp+54h]
	add	esp,18h
	cmp	esi,edx
	mov	edi,eax
	jz	737913h

l00737909:
	push	esi
	call	dword ptr [8A45D4h]
	add	esp,4h

l00737913:
	mov	eax,edi
	pop	edi
	pop	esi
	pop	ebx
	mov	ecx,[esp+4030h]
	xor	ecx,esp
	call	694B8Eh
	add	esp,4034h
	ret

l0073792D:
	push	ebx
	call	7373A0h
	mov	ecx,[esp+4040h]
	add	esp,4h
	pop	edi
	pop	esi
	pop	ebx
	xor	ecx,esp
	call	694B8Eh
	add	esp,4034h
	ret
0073794E                                           CC CC               ..

;; fn00737950: 00737950
;;   Called from:
;;     006E89C1 (in fn006E8910)
fn00737950 proc
	mov	eax,[esp+4h]
	mov	ecx,[eax+4h]
	push	ebp
	mov	ebp,[eax]
	sub	ebp,1h
	mov	dword ptr [eax+14h],0h
	js	7379AAh

l00737966:
	push	ebx
	push	esi
	push	edi
	lea	ebx,[ecx+0Ch]
	lea	esp,[esp+0h]

l00737970:
	mov	eax,[ebx+4h]
	xor	edi,edi
	cmp	[ebx],edi
	jle	73799Fh

l00737979:
	lea	esi,[eax+10h]
	lea	esp,[esp+0h]

l00737980:
	mov	eax,[esi]
	test	eax,eax
	jz	73798Fh

l00737986:
	push	eax
	call	7239C0h
	add	esp,4h

l0073798F:
	mov	dword ptr [esi],0h
	add	edi,1h
	add	esi,18h
	cmp	edi,[ebx]
	jl	737980h

l0073799F:
	add	ebx,18h
	sub	ebp,1h
	jns	737970h

l007379A7:
	pop	edi
	pop	esi
	pop	ebx

l007379AA:
	pop	ebp
	ret
007379AC                                     CC CC CC CC             ....

;; fn007379B0: 007379B0
;;   Called from:
;;     00737C12 (in fn00737BE0)
fn007379B0 proc
	sub	esp,0Ch
	mov	eax,[esp+10h]
	push	ebx
	mov	ebx,[esp+18h]
	push	ebp
	push	esi
	mov	esi,[eax+8h]
	lea	eax,[0000h+esi*4]
	push	eax
	mov	[esp+10h],esi
	mov	dword ptr [ebx+14h],0h
	call	723860h
	mov	ebp,eax
	add	esp,4h
	test	ebp,ebp
	jnz	737A02h

l007379E2:
	push	8DBB40h
	call	dword ptr [8A46CCh]
	add	eax,40h
	push	eax
	call	dword ptr [8A45E0h]
	add	esp,8h
	push	1h
	call	dword ptr [8A4600h]

l00737A02:
	test	esi,esi
	push	edi
	jle	737A10h

l00737A07:
	mov	ecx,esi
	or	eax,0FFh
	mov	edi,ebp

l00737A0E:
	rep stosd

l00737A10:
	mov	ecx,[esp+24h]
	mov	eax,[ecx]
	mov	ebx,[ebx+4h]
	mov	edx,1h
	sub	eax,edx
	mov	[esp+14h],eax
	js	737B2Ch

l00737A2A:
	lea	ebx,[ebx+0h]

l00737A30:
	movsx	eax,word ptr [ebx]
	mov	ecx,[esp+20h]
	mov	ecx,[ecx+0Ch]
	mov	esi,[ecx+eax*8]
	movzx	ecx,word ptr [ebx+2h]
	cmp	cx,80h
	jl	737A5Bh

l00737A48:
	push	8DBB28h
	call	dword ptr [8A4664h]
	add	esp,4h
	jmp	737B16h

l00737A5B:
	cmp	esi,100h
	jl	737AFAh

l00737A67:
	mov	edx,[esp+20h]
	push	esi
	push	edx
	call	752E10h
	lea	edi,[esi-100h]
	add	esp,8h
	cmp	edi,80h
	mov	[esp+18h],eax
	jl	737A97h

l00737A87:
	push	8DBB04h
	call	dword ptr [8A4664h]
	add	esp,4h
	jmp	737B16h

l00737A97:
	mov	eax,[esp+20h]
	xor	esi,esi
	cmp	[eax+8h],esi
	jle	737B16h

l00737AA2:
	mov	ecx,esi
	and	ecx,7h
	mov	edx,1h
	shl	edx,cl
	mov	ecx,[esp+18h]
	mov	ecx,[ecx+14h]
	mov	eax,esi
	shr	eax,3h
	movsx	eax,byte ptr [eax+ecx]
	test	eax,edx
	jz	737AECh

l00737AC2:
	cmp	dword ptr [ebp+esi*4+0h],0FFh
	jz	737AD7h

l00737AC9:
	push	8DBAF4h
	call	dword ptr [8A4664h]
	add	esp,4h

l00737AD7:
	movsx	edx,word ptr [ebx+2h]
	mov	ecx,edi
	shl	ecx,8h
	or	ecx,edx
	or	ecx,80h
	mov	[ebp+esi*4+0h],ecx

l00737AEC:
	mov	eax,[esp+20h]
	add	esi,1h
	cmp	esi,[eax+8h]
	jl	737AA2h

l00737AF8:
	jmp	737B16h

l00737AFA:
	test	eax,eax
	jnz	737B07h

l00737AFE:
	mov	ecx,[esp+24h]
	mov	[ecx+14h],edx
	jmp	737B16h

l00737B07:
	jl	737B16h

l00737B09:
	cmp	eax,[esp+10h]
	jge	737B16h

l00737B0F:
	movsx	edx,cx
	mov	[ebp+eax*4+0h],edx

l00737B16:
	mov	edx,1h
	add	ebx,4h
	sub	[esp+14h],edx
	jns	737A30h

l00737B28:
	mov	esi,[esp+10h]

l00737B2C:
	test	esi,esi
	jle	737B46h

l00737B30:
	lea	eax,[ebp+esi*4-4h]

l00737B34:
	cmp	dword ptr [eax],0FFh
	jnz	737B42h

l00737B39:
	sub	esi,edx
	sub	eax,4h
	test	esi,esi
	jg	737B34h

l00737B42:
	mov	[esp+10h],esi

l00737B46:
	mov	edi,[esp+10h]
	xor	esi,esi
	test	edi,edi
	jle	737BCAh

l00737B50:
	cmp	dword ptr [ebp+esi*4+0h],0FFh
	jnz	737B6Eh

l00737B57:
	add	esi,edx
	cmp	esi,edi
	jl	737B50h

l00737B5D:
	push	ebp
	call	7239C0h
	add	esp,4h
	pop	edi
	pop	esi
	pop	ebp
	pop	ebx
	add	esp,0Ch
	ret

l00737B6E:
	cmp	esi,edi
	jge	737BCAh

l00737B72:
	mov	eax,edi
	sub	eax,esi
	add	eax,eax
	add	eax,eax
	push	eax
	call	723860h
	mov	ecx,[esp+28h]
	add	esp,4h
	test	eax,eax
	mov	[ecx+10h],eax
	jnz	737BAEh

l00737B8E:
	push	8DBAD0h
	call	dword ptr [8A46CCh]
	add	eax,40h
	push	eax
	call	dword ptr [8A45E0h]
	add	esp,8h
	push	1h
	call	dword ptr [8A4600h]

l00737BAE:
	mov	[ecx+8h],esi
	mov	[ecx+0Ch],edi
	xor	eax,eax

l00737BB6:
	mov	ebx,[ebp+esi*4+0h]
	mov	edx,[ecx+10h]
	mov	[eax+edx],ebx
	add	esi,1h
	add	eax,4h
	cmp	esi,edi
	jl	737BB6h

l00737BCA:
	push	ebp
	call	7239C0h
	add	esp,4h
	pop	edi
	pop	esi
	pop	ebp
	pop	ebx
	add	esp,0Ch
	ret
00737BDB                                  CC CC CC CC CC            .....

;; fn00737BE0: 00737BE0
;;   Called from:
;;     007551FD (in fn007551F0)
fn00737BE0 proc
	push	ebx
	push	ebp
	mov	ebp,[esp+0Ch]
	mov	eax,[ebp+0h]
	mov	ebx,[ebp+4h]
	mov	ecx,1h
	sub	eax,ecx
	mov	[esp+0Ch],eax
	js	737C34h

l00737BF9:
	push	esi
	add	ebx,0Ch
	push	edi
	mov	edi,edi

l00737C00:
	mov	edi,[ebx+4h]
	xor	esi,esi
	cmp	[ebx],esi
	jle	737C29h

l00737C09:
	lea	esp,[esp+0h]

l00737C10:
	push	edi
	push	ebp
	call	7379B0h
	add	esi,1h
	add	esp,8h
	add	edi,18h
	cmp	esi,[ebx]
	jl	737C10h

l00737C24:
	mov	ecx,1h

l00737C29:
	add	ebx,18h
	sub	[esp+14h],ecx
	jns	737C00h

l00737C32:
	pop	edi
	pop	esi

l00737C34:
	mov	[ebp+14h],ecx
	pop	ebp
	pop	ebx
	ret
00737C3A                               CC CC CC CC CC CC           ......
00737C40 83 EC 0C 8B 44 24 10 53 55 8B 68 14 56 8B 70 10 ....D$.SU.h.V.p.
00737C50 89 74 24 14 23 74 24 24 57 8B 7C F5 04 85 FF 8D .t$.#t$$W.|.....
00737C60 5C F5 00 0F 84 0F 01 00 00 8D A4 24 00 00 00 00 \..........$....
00737C70 8B 44 24 24 3B F8 0F 84 FC 00 00 00 8B 0D 20 DF .D$$;......... .
00737C80 A6 00 3B F9 75 06 89 5C 24 10 EB 4C 8B 54 24 28 ..;.u..\$..L.T$(
00737C90 39 13 75 3C 6A 02 50 57 E8 03 79 FA FF 83 C4 0C 9.u<j.PW..y.....
00737CA0 85 C0 0F 8C EC 00 00 00 8B 4C 24 20 3B 69 14 0F .........L$ ;i..
00737CB0 85 A5 00 00 00 39 7B 04 0F 85 9C 00 00 00 85 C0 .....9{.........
00737CC0 0F 8F B2 00 00 00 8B 0D 20 DF A6 00 8B 44 24 24 ........ ....D$$
00737CD0 C7 44 24 10 00 00 00 00 8B 54 24 28 89 54 24 14 .D$......T$(.T$.
00737CE0 8B 54 24 14 8D 14 B2 8D 74 16 01 8B D6 23 54 24 .T$.....t....#T$
00737CF0 18 8B 7C D5 04 85 FF 8D 5C D5 00 0F 84 81 00 00 ..|.....\.......
00737D00 00 3B F8 74 73 8B 54 24 28 39 13 75 37 3B F9 74 .;.ts.T$(9.u7;.t
00737D10 37 6A 02 50 57 E8 86 78 FA FF 83 C4 0C 85 C0 7C 7j.PW..x.......|
00737D20 73 8B 4C 24 20 3B 69 14 75 30 39 7B 04 75 2B 85 s.L$ ;i.u09{.u+.
00737D30 C0 7F 45 8B 0D 20 DF A6 00 8B 44 24 24 C1 6C 24 ..E.. ....D$$.l$
00737D40 14 05 EB 9C 3B F9 75 0B 83 7C 24 10 00 75 04 89 ....;.u..|$..u..
00737D50 5C 24 10 C1 6C 24 14 05 EB 86 8B 71 10 8B 69 14 \$..l$.....q..i.
00737D60 89 74 24 18 23 74 24 28 8B 7C F5 04 85 FF 8D 5C .t$.#t$(.|.....\
00737D70 F5 00 0F 85 F8 FE FF FF 5F 5E 5D 8B C3 5B 83 C4 ........_^]..[..
00737D80 0C C3 8B 44 24 10 85 C0 74 EE 5F 5E 5D 8B D8 5B ...D$...t._^]..[
00737D90 83 C4 0C C3 5F 5E 5D 33 C0 5B 83 C4 0C C3 CC CC ...._^]3.[......
00737DA0 51 8B 44 24 08 8B 4C 24 0C 81 79 04 50 B4 A1 00 Q.D$..L$..y.P...
00737DB0 55 8B 68 10 57 8B 78 14 89 7C 24 08 74 19 5F C7 U.h.W.x..|$.t._.
00737DC0 40 18 40 7C 73 00 5D 83 C4 04 89 4C 24 08 89 44 @.@|s.]....L$..D
00737DD0 24 04 E9 69 FE FF FF 53 8B 5C 24 1C 56 8B F5 23 $..i...S.\$.V..#
00737DE0 F3 8B 44 F7 04 85 C0 8D 3C F7 0F 84 B0 00 00 00 ..D.....<.......
00737DF0 3B C1 0F 84 A8 00 00 00 3B 05 20 DF A6 00 75 06 ;.......;. ...u.
00737E00 89 7C 24 18 EB 1E 39 1F 75 12 51 50 E8 0F 32 FB .|$...9.u.QP..2.
00737E10 FF 83 C4 08 85 C0 0F 85 84 00 00 00 C7 44 24 18 .............D$.
00737E20 00 00 00 00 8B C3 8D 0C B0 8B 44 24 10 8D 74 0E ..........D$..t.
00737E30 01 8B D6 23 D5 8D 3C D0 8B 47 04 85 C0 74 59 90 ...#..<..G...tY.
00737E40 8B 4C 24 1C 3B C1 74 58 8B 54 24 20 39 17 75 16 .L$.;.tX.T$ 9.u.
00737E50 3B 05 20 DF A6 00 74 19 51 50 E8 C1 31 FB FF 83 ;. ...t.QP..1...
00737E60 C4 08 85 C0 75 3A 8B 47 04 3B 05 20 DF A6 00 75 ....u:.G.;. ...u
00737E70 0B 83 7C 24 18 00 75 04 89 7C 24 18 8B 44 24 10 ..|$..u..|$..D$.
00737E80 C1 EB 05 8D 0C B3 8D 74 0E 01 8B D6 23 D5 8D 3C .......t....#..<
00737E90 D0 8B 47 04 85 C0 75 A8 8B 44 24 18 85 C0 75 02 ..G...u..D$...u.
00737EA0 8B C7 5E 5B 5F 5D 59 C3 CC CC CC CC CC CC CC CC ..^[_]Y.........

;; fn00737EB0: 00737EB0
;;   Called from:
;;     007380BD (in fn007380A0)
;;     00738164 (in fn00738130)
;;     00738675 (in fn00738600)
fn00737EB0 proc
	mov	eax,[esi+18h]
	push	ebx
	push	edi
	push	esi
	call	eax
	add	esp,0Ch
	test	eax,eax
	jnz	737EC3h

l00737EBF:
	or	eax,0FFh
	ret

l00737EC3:
	mov	edx,[eax+4h]
	test	edx,edx
	jnz	737EDDh

l00737ECA:
	mov	ecx,1h
	add	[esi+8h],ecx
	mov	[eax+4h],edi
	mov	[eax],ebx
	add	[esi+0Ch],ecx
	xor	eax,eax
	ret

l00737EDD:
	mov	ecx,[0A6DF20h]
	cmp	edx,ecx
	jnz	737F04h

l00737EE7:
	mov	[eax+4h],edi
	mov	[eax],ebx
	add	dword ptr [esi+0Ch],1h
	add	dword ptr [ecx],0FFh
	jnz	737F15h

l00737EF5:
	mov	edx,[ecx+4h]
	mov	eax,[edx+18h]
	push	ecx
	call	eax
	add	esp,4h
	xor	eax,eax
	ret

l00737F04:
	add	dword ptr [edi],0FFh
	jnz	737F15h

l00737F09:
	mov	ecx,[edi+4h]
	mov	edx,[ecx+18h]
	push	edi
	call	edx
	add	esp,4h

l00737F15:
	xor	eax,eax
	ret
00737F18                         CC CC CC CC CC CC CC CC         ........

;; fn00737F20: 00737F20
;;   Called from:
;;     0073806E (in fn00737F70)
fn00737F20 proc
	push	ebx
	mov	ebx,[esi+14h]
	push	ebp
	mov	ebp,[esp+10h]
	push	edi
	mov	edi,[esi+10h]
	mov	eax,edi
	and	eax,ebp
	cmp	dword ptr [ebx+eax*8+4h],0h
	lea	ecx,[ebx+eax*8]
	mov	edx,ebp
	jz	737F57h

l00737F3D:
	lea	ecx,[ecx+0h]

l00737F40:
	lea	ecx,[edx+eax*4]
	lea	eax,[eax+ecx+1h]
	mov	ecx,eax
	and	ecx,edi
	lea	ecx,[ebx+ecx*8]
	shr	edx,5h
	cmp	dword ptr [ecx+4h],0h
	jnz	737F40h

l00737F57:
	mov	edx,[esp+10h]
	mov	eax,1h
	add	[esi+8h],eax
	pop	edi
	mov	[ecx],ebp
	pop	ebp
	mov	[ecx+4h],edx
	add	[esi+0Ch],eax
	pop	ebx
	ret
00737F6F                                              CC                .

;; fn00737F70: 00737F70
;;   Called from:
;;     00738111 (in fn007380A0)
;;     007381AA (in fn00738130)
;;     00738637 (in fn00738600)
;;     00738A3E (in fn007389B0)
fn00737F70 proc
	sub	esp,48h
	push	ebx
	mov	ebx,8h
	cmp	eax,ebx
	push	ebp
	mov	ebp,[esp+54h]
	jl	737F9Eh

l00737F82:
	test	ebx,ebx
	jle	737F90h

l00737F86:
	add	ebx,ebx
	cmp	ebx,eax
	jle	737F82h

l00737F8C:
	test	ebx,ebx
	jg	737F9Eh

l00737F90:
	call	6E1210h
	pop	ebp
	or	eax,0FFh
	pop	ebx
	add	esp,48h
	ret

l00737F9E:
	push	esi
	mov	esi,[ebp+14h]
	xor	ecx,ecx
	lea	eax,[ebp+1Ch]
	cmp	esi,eax
	setnz	cl
	cmp	ebx,8h
	push	edi
	mov	[esp+10h],esi
	mov	[esp+14h],ecx
	jnz	738039h

l00737FBA:
	cmp	eax,esi
	jnz	737FDFh

l00737FBE:
	mov	edx,[ebp+8h]
	cmp	edx,[ebp+0Ch]
	jz	738092h

l00737FCA:
	mov	ecx,10h
	lea	edi,[esp+18h]

l00737FD3:
	rep movsd

l00737FD5:
	lea	ecx,[esp+18h]
	mov	[esp+10h],ecx
	mov	esi,ecx

l00737FDF:
	lea	ecx,[0000h+ebx*8]
	push	ecx
	xor	edi,edi
	lea	edx,[ebx-1h]
	push	edi
	push	eax
	mov	[ebp+14h],eax
	mov	[ebp+10h],edx
	call	695020h
	mov	ebx,[ebp+8h]
	add	esp,0Ch
	cmp	ebx,edi
	mov	[ebp+0Ch],edi
	mov	[ebp+8h],edi
	jle	738081h

l00738009:
	lea	edi,[esi+4h]
	lea	esp,[esp+0h]

l00738010:
	mov	eax,[edi]
	test	eax,eax
	jz	73807Ah

l00738016:
	sub	ebx,1h
	cmp	eax,[0A6DF20h]
	jnz	738067h

l00738021:
	add	dword ptr [eax],0FFh
	mov	eax,[edi]
	cmp	dword ptr [eax],0h
	jnz	73807Ah

l0073802B:
	mov	edx,[eax+4h]
	push	eax
	mov	eax,[edx+18h]
	call	eax
	add	esp,4h
	jmp	73807Ah

l00738039:
	lea	eax,[0000h+ebx*8]
	test	eax,eax
	jnz	738049h

l00738044:
	mov	eax,1h

l00738049:
	push	eax
	call	dword ptr [8A45BCh]
	add	esp,4h
	test	eax,eax
	jnz	737FDFh

l00738057:
	call	6E1210h
	pop	edi
	pop	esi
	pop	ebp
	or	eax,0FFh
	pop	ebx
	add	esp,48h
	ret

l00738067:
	mov	ecx,[edi-4h]
	push	ecx
	push	eax
	mov	esi,ebp
	call	737F20h
	mov	esi,[esp+18h]
	add	esp,8h

l0073807A:
	add	edi,8h
	test	ebx,ebx
	jg	738010h

l00738081:
	cmp	dword ptr [esp+14h],0h
	jz	738092h

l00738088:
	push	esi
	call	dword ptr [8A45D4h]
	add	esp,4h

l00738092:
	pop	edi
	pop	esi
	pop	ebp
	xor	eax,eax
	pop	ebx
	add	esp,48h
	ret
0073809C                                     CC CC CC CC             ....

;; fn007380A0: 007380A0
;;   Called from:
;;     00738A87 (in fn007389B0)
fn007380A0 proc
	push	ebx
	push	ebp
	mov	ebp,[esp+0Ch]
	push	esi
	mov	esi,eax
	mov	eax,[esi+0Ch]
	mov	[esp+10h],eax
	mov	eax,[ebp+4h]
	add	dword ptr [eax],1h
	mov	ebx,[ebp+0h]
	push	edi
	mov	edi,[ebp+4h]
	call	737EB0h
	cmp	eax,0FFh
	jnz	7380EBh

l007380C7:
	mov	eax,[ebp+4h]
	add	dword ptr [eax],0FFh
	mov	ecx,[ebp+4h]
	cmp	dword ptr [ecx],0h
	jnz	7380E3h

l007380D5:
	mov	ebp,ecx
	mov	edx,[ebp+4h]
	mov	eax,[edx+18h]
	push	ebp
	call	eax
	add	esp,4h

l007380E3:
	pop	edi
	pop	esi
	pop	ebp
	or	eax,0FFh
	pop	ebx
	ret

l007380EB:
	mov	eax,[esi+0Ch]
	cmp	eax,[esp+14h]
	jle	73811Eh

l007380F4:
	mov	ecx,[esi+10h]
	lea	edx,[ecx+ecx+2h]
	mov	ecx,[esi+8h]
	lea	ecx,[ecx+ecx*2]
	cmp	ecx,edx
	jl	73811Eh

l00738105:
	cmp	eax,0C350h
	jg	73810Eh

l0073810C:
	add	eax,eax

l0073810E:
	add	eax,eax
	push	esi
	call	737F70h
	add	esp,4h
	pop	edi
	pop	esi
	pop	ebp
	pop	ebx
	ret

l0073811E:
	pop	edi
	pop	esi
	pop	ebp
	xor	eax,eax
	pop	ebx
	ret
00738125                CC CC CC CC CC CC CC CC CC CC CC      ...........

;; fn00738130: 00738130
;;   Called from:
;;     00738AE5 (in fn007389B0)
fn00738130 proc
	push	esi
	push	edi
	mov	edi,eax
	cmp	dword ptr [edi+4h],0A1B450h
	mov	esi,ecx
	jnz	738147h

l0073813F:
	mov	eax,[edi+0Ch]
	cmp	eax,0FFh
	jnz	73815Ah

l00738147:
	push	edi
	call	6DE2E0h
	add	esp,4h
	cmp	eax,0FFh
	jnz	73815Ah

l00738155:
	pop	edi
	or	eax,eax
	pop	esi
	ret

l0073815A:
	push	ebx
	push	ebp
	mov	ebp,[esi+0Ch]
	add	dword ptr [edi],1h
	mov	ebx,eax
	call	737EB0h
	cmp	eax,0FFh
	jnz	738186h

l0073816E:
	add	[edi],eax
	jnz	73817Eh

l00738172:
	mov	eax,[edi+4h]
	mov	ecx,[eax+18h]
	push	edi
	call	ecx
	add	esp,4h

l0073817E:
	pop	ebp
	pop	ebx
	pop	edi
	or	eax,0FFh
	pop	esi
	ret

l00738186:
	mov	eax,[esi+0Ch]
	cmp	eax,ebp
	jle	7381B7h

l0073818D:
	mov	edx,[esi+10h]
	mov	ecx,[esi+8h]
	lea	edx,[edx+edx+2h]
	lea	ecx,[ecx+ecx*2]
	cmp	ecx,edx
	jl	7381B7h

l0073819E:
	cmp	eax,0C350h
	jg	7381A7h

l007381A5:
	add	eax,eax

l007381A7:
	add	eax,eax
	push	esi
	call	737F70h
	add	esp,4h
	pop	ebp
	pop	ebx
	pop	edi
	pop	esi
	ret

l007381B7:
	pop	ebp
	pop	ebx
	pop	edi
	xor	eax,eax
	pop	esi
	ret
007381BE                                           CC CC               ..
007381C0 81 7F 04 50 B4 A1 00 75 08 8B 47 0C 83 F8 FF 75 ...P...u..G....u
007381D0 12 57 E8 09 61 FA FF 83 C4 04 83 F8 FF 75 04 83 .W..a........u..
007381E0 C8 FF C3 50 8B 46 18 57 56 FF D0 83 C4 0C 85 C0 ...P.F.WV.......
007381F0 74 ED 8B 48 04 85 C9 74 2B 8B 15 20 DF A6 00 3B t..H...t+.. ...;
00738200 CA 74 21 83 02 01 89 50 04 83 46 0C FF 83 01 FF .t!....P..F.....
00738210 75 0C 8B 51 04 8B 42 18 51 FF D0 83 C4 04 B8 01 u..Q..B.Q.......
00738220 00 00 00 C3 33 C0 C3 CC CC CC CC CC CC CC CC CC ....3...........
00738230 83 EC 48 53 8B 5C 24 50 55 56 8B 73 08 33 C0 57 ..HS.\$PUV.s.3.W
00738240 8B 7B 14 8D 6B 1C 3B FD 0F 95 C0 89 7C 24 5C 89 .{..k.;.....|$\.
00738250 74 24 10 85 C0 89 44 24 14 74 17 6A 40 6A 00 55 t$....D$.t.j@j.U
00738260 E8 BB CD F5 FF 83 C4 0C 33 C0 89 43 08 89 43 0C ........3..C..C.
00738270 EB 35 85 F6 7E 74 8B F7 B9 10 00 00 00 8D 7C 24 .5..~t........|$
00738280 18 F3 A5 6A 40 33 F6 8D 44 24 1C 56 55 89 44 24 ...j@3..D$.VU.D$
00738290 68 E8 8A CD F5 FF 8B 7C 24 68 89 73 08 89 73 0C h......|$h.s..s.
007382A0 8B 74 24 1C 83 C4 0C 85 F6 C7 43 5C FF FF FF FF .t$.......C\....
007382B0 C7 43 10 07 00 00 00 89 6B 14 7E 2E 83 C7 04 90 .C......k.~.....
007382C0 8B 07 85 C0 74 19 83 00 FF 8B 07 83 EE 01 83 38 ....t..........8
007382D0 00 75 0C 8B 48 04 8B 51 18 50 FF D2 83 C4 04 83 .u..H..Q.P......
007382E0 C7 08 85 F6 7F DA 8B 7C 24 5C 83 7C 24 14 00 74 .......|$\.|$..t
007382F0 0A 57 FF 15 D4 45 8A 00 83 C4 04 5F 5E 5D 33 C0 .W...E....._^]3.
00738300 5B 83 C4 48 C3 CC CC CC CC CC CC CC CC CC CC CC [..H............
00738310 8B 03 57 8B 79 14 8B 49 10 3B C1 7F 29 55 8B 2D ..W.y..I.;..)U.-
00738320 20 DF A6 00 56 8D 74 C7 04 8D A4 24 00 00 00 00  ...V.t....$....
00738330 8B 16 85 D2 74 04 3B D5 75 0A 83 C0 01 83 C6 08 ....t.;.u.......
00738340 3B C1 7E EC 5E 5D 3B C1 8D 50 01 89 13 7E 04 33 ;.~.^];..P...~.3
00738350 C0 5F C3 8B 4C 24 08 8D 04 C7 89 01 B8 01 00 00 ._..L$..........
00738360 00 5F C3 CC CC CC CC CC CC CC CC CC CC CC CC CC ._..............
00738370 53 8B 5C 24 08 57 8B 7B 08 53 E8 01 6B FC FF 83 S.\$.W.{.S..k...
00738380 C4 04 83 3D C4 C4 A6 00 32 0F 8D BA 00 00 00 83 ...=....2.......
00738390 05 C4 C4 A6 00 01 83 7B 60 00 74 09 53 E8 EE 31 .......{`.t.S..1
007383A0 FC FF 83 C4 04 85 FF 8B 43 14 7E 2C 56 8D 70 04 ........C.~,V.p.
007383B0 83 3E 00 74 1B 8B 06 83 00 FF 8B 06 83 EF 01 83 .>.t............
007383C0 38 00 75 0C 8B 48 04 8B 51 18 50 FF D2 83 C4 04 8.u..H..Q.P.....
007383D0 83 C6 08 85 FF 7F D9 5E 8B 43 14 8D 4B 1C 3B C1 .......^.C..K.;.
007383E0 74 0A 50 FF 15 D4 45 8A 00 83 C4 04 A1 24 DF A6 t.P...E......$..
007383F0 00 83 F8 50 7D 24 8B 4B 04 81 F9 90 B4 A2 00 74 ...P}$.K.......t
00738400 08 81 F9 F8 B6 A2 00 75 11 89 1C 85 E0 DD A6 00 .......u........
00738410 83 C0 01 A3 24 DF A6 00 EB 0F 8B 53 04 8B 82 A0 ....$......S....
00738420 00 00 00 53 FF D0 83 C4 04 83 2D C4 C4 A6 00 01 ...S......-.....
00738430 83 3D C8 C4 A6 00 00 74 19 83 3D C4 C4 A6 00 00 .=.....t..=.....
00738440 7F 10 5F 5B E9 17 6A FA FF 53 E8 F1 69 FA FF 83 .._[..j..S..i...
00738450 C4 04 5F 5B C3 CC CC CC CC CC CC CC CC CC CC CC .._[............
00738460 83 EC 08 55 8B 6C 24 10 57 55 C7 44 24 10 00 00 ...U.l$.WU.D$...
00738470 00 00 BF 8F 69 8A 00 E8 A4 68 FA FF 83 C4 04 85 ....i....h......
00738480 C0 74 28 0F 8C AA 00 00 00 8B 45 04 8B 48 0C 8B .t(.......E..H..
00738490 54 24 18 51 68 10 C5 8D 00 52 FF 15 E0 45 8A 00 T$.Qh....R...E..
007384A0 83 C4 0C 5F 33 C0 5D 83 C4 08 C3 8B 45 04 8B 48 ..._3.].....E..H
007384B0 0C 53 56 8B 74 24 20 51 68 08 C5 8D 00 56 FF 15 .SV.t$ Qh....V..
007384C0 E0 45 8A 00 8D 54 24 1C 52 8D 5C 24 24 8B CD E8 .E...T$.R.\$$...
007384D0 3C FE FF FF 8B 2D EC 46 8A 00 83 C4 10 85 C0 74 <....-.F.......t
007384E0 39 56 57 FF D5 8B 44 24 18 8B 48 04 6A 00 56 51 9VW...D$..H.j.VQ
007384F0 BF D0 A2 8A 00 E8 C6 6A FA FF 83 C4 14 85 C0 75 .......j.......u
00738500 38 8B 4C 24 1C 8D 54 24 10 52 8D 5C 24 18 E8 FD 8.L$..T$.R.\$...
00738510 FD FF FF 83 C4 04 85 C0 75 C7 56 68 04 C5 8D 00 ........u.Vh....
00738520 FF D5 8B 4C 24 24 51 E8 94 68 FA FF 83 C4 0C 5E ...L$$Q..h.....^
00738530 33 C0 5B 5F 5D 83 C4 08 C3 8B 44 24 1C 50 E8 7D 3.[_].....D$.P.}
00738540 68 FA FF 83 C4 04 5E 5B 5F 83 C8 FF 5D 83 C4 08 h.....^[_...]...
00738550 C3 CC CC CC CC CC CC CC CC CC CC CC CC CC CC CC ................
00738560 53 8B 5C 24 08 55 53 33 ED E8 B2 67 FA FF 83 C4 S.\$.US3...g....
00738570 04 85 C0 74 1E 7D 05 5D 33 C0 5B C3 8B 43 04 8B ...t.}.]3.[..C..
00738580 48 0C 51 68 10 C5 8D 00 E8 E3 9A FB FF 83 C4 08 H.Qh............
00738590 5D 5B C3 57 53 E8 26 B0 FC FF 8B F8 83 C4 04 85 ][.WS.&.........
007385A0 FF 74 4D 56 57 E8 06 58 FA FF 83 C4 04 83 07 FF .tMVW..X........
007385B0 8B F0 75 0C 8B 57 04 8B 42 18 57 FF D0 83 C4 04 ..u..W..B.W.....
007385C0 85 F6 74 2B 8B 53 04 8B 42 0C 8D 4E 14 51 50 68 ..t+.S..B..N.QPh
007385D0 18 C5 8D 00 E8 97 9A FB FF 83 C4 0C 83 06 FF 8B ................
007385E0 E8 75 0C 8B 4E 04 8B 51 18 56 FF D2 83 C4 04 5E .u..N..Q.V.....^
007385F0 53 E8 CA 67 FA FF 83 C4 04 5F 8B C5 5D 5B C3 CC S..g....._..][..

;; fn00738600: 00738600
;;   Called from:
;;     00738B73 (in fn007389B0)
fn00738600 proc
	push	ecx
	push	esi
	push	edi
	mov	edi,[esp+10h]
	mov	esi,eax
	cmp	edi,esi
	jz	7386C0h

l00738611:
	mov	ecx,[edi+0Ch]
	test	ecx,ecx
	jz	7386C0h

l0073861C:
	mov	eax,[esi+8h]
	mov	edx,[esi+10h]
	add	eax,ecx
	lea	eax,[eax+eax*2]
	lea	edx,[edx+edx+2h]
	cmp	eax,edx
	jl	73864Ah

l0073862F:
	mov	eax,[esi+0Ch]
	add	eax,ecx
	add	eax,eax
	push	esi
	call	737F70h
	add	esp,4h
	test	eax,eax
	jz	73864Ah

l00738643:
	pop	edi
	or	eax,0FFh
	pop	esi
	pop	ecx
	ret

l0073864A:
	xor	ecx,ecx
	cmp	[edi+10h],ecx
	push	ebx
	push	ebp
	mov	[esp+10h],ecx
	jl	738693h

l00738657:
	mov	eax,[edi+14h]
	lea	ebp,[eax+ecx*8]
	mov	eax,[ebp+4h]
	test	eax,eax
	jz	738687h

l00738664:
	cmp	eax,[0A6DF20h]
	jz	738687h

l0073866C:
	add	dword ptr [eax],1h
	mov	ebx,[ebp+0h]
	mov	edi,[ebp+4h]
	call	737EB0h
	cmp	eax,0FFh
	jz	73869Bh

l0073867F:
	mov	ecx,[esp+10h]
	mov	edi,[esp+18h]

l00738687:
	add	ecx,1h
	cmp	ecx,[edi+10h]
	mov	[esp+10h],ecx
	jle	738657h

l00738693:
	pop	ebp
	pop	ebx
	pop	edi
	xor	eax,eax
	pop	esi
	pop	ecx
	ret

l0073869B:
	mov	eax,[ebp+4h]
	add	dword ptr [eax],0FFh
	mov	ecx,[ebp+4h]
	cmp	dword ptr [ecx],0h
	jnz	7386B7h

l007386A9:
	mov	ebp,ecx
	mov	edx,[ebp+4h]
	mov	eax,[edx+18h]
	push	ebp
	call	eax
	add	esp,4h

l007386B7:
	pop	ebp
	pop	ebx
	pop	edi
	or	eax,0FFh
	pop	esi
	pop	ecx
	ret

l007386C0:
	pop	edi
	xor	eax,eax
	pop	esi
	pop	ecx
	ret
007386C6                   CC CC CC CC CC CC CC CC CC CC       ..........
007386D0 8B 10 8B 40 04 52 50 51 8B 49 18 FF D1 83 C4 0C ...@.RPQ.I......
007386E0 85 C0 75 04 83 C8 FF C3 8B 40 04 85 C0 74 0E 3B ..u......@...t.;
007386F0 05 20 DF A6 00 74 06 B8 01 00 00 00 C3 33 C0 C3 . ...t.......3..
00738700 56 8B 74 24 08 33 D2 39 56 0C 75 17 A1 28 7E A1 V.t$.3.9V.u..(~.
00738710 00 68 20 C5 8D 00 50 E8 64 88 FA FF 83 C4 08 33 .h ...P.d......3
00738720 C0 5E C3 53 8B 1D 20 DF A6 00 57 8B 7E 14 8B CF .^.S.. ...W.~...
00738730 8B 41 04 85 C0 74 04 3B C3 75 2E 8B 11 55 8B 6E .A...t.;.u...U.n
00738740 10 3B D5 7F 05 83 FA 01 7D 06 BA 01 00 00 00 90 .;......}.......
00738750 8B 44 D7 04 85 C0 8D 0C D7 74 04 3B C3 75 09 83 .D.......t.;.u..
00738760 C2 01 3B D5 7E EA EB E2 5D 8B 41 04 83 03 01 89 ..;.~...].A.....
00738770 59 04 8B 4E 14 83 46 0C FF 5F 83 C2 01 5B 89 11 Y..N..F.._...[..
00738780 5E C3 CC CC CC CC CC CC CC CC CC CC CC CC CC CC ^...............
00738790 53 8B 5C 24 08 55 8B 6C 24 14 56 57 33 F6 8B FF S.\$.U.l$.VW3...
007387A0 8B 53 10 3B F2 8B 7B 14 8B C6 7F 1C 8D 4C F7 04 .S.;..{......L..
007387B0 8B 31 85 F6 74 08 3B 35 20 DF A6 00 75 0A 83 C0 .1..t.;5 ...u...
007387C0 01 83 C1 08 3B C2 7E E8 3B C2 8D 70 01 7F 1A 8B ....;.~.;..p....
007387D0 44 C7 04 85 C0 74 C9 55 50 FF 54 24 20 83 C4 08 D....t.UP.T$ ...
007387E0 85 C0 74 BC 5F 5E 5D 5B C3 5F 5E 5D 33 C0 5B C3 ..t._^][._^]3.[.
007387F0 51 57 8B 7C 24 0C 8B 47 5C 83 F8 FF C7 44 24 04 QW.|$..G\....D$.
00738800 00 00 00 00 75 79 53 56 8B 77 0C 8D 44 24 14 83 ....uySV.w..D$..
00738810 C6 01 50 69 F6 4D EF E8 72 8D 5C 24 10 8B CF E8 ..Pi.M..r.\$....
00738820 EC FA FF FF 83 C4 04 85 C0 74 37 EB 03 8D 49 00 .........t7...I.
00738830 8B 4C 24 14 8B 01 8B D0 C1 E2 10 33 D0 81 F2 B3 .L$........3....
00738840 4D 5B 05 69 D2 D7 34 3F D9 8D 44 24 14 50 8D 5C M[.i..4?..D$.P.\
00738850 24 10 8B CF 33 F2 E8 B5 FA FF FF 83 C4 04 85 C0 $...3...........
00738860 75 CE 69 F6 CD 0D 01 00 81 C6 E3 C3 11 36 8B C6 u.i..........6..
00738870 83 F8 FF 5E 5B 75 05 B8 C1 C7 38 23 89 47 5C 5F ...^[u....8#.G\_
00738880 59 C3 CC CC CC CC CC CC CC CC CC CC CC CC CC CC Y...............
00738890 A1 7C 6B A1 00 68 38 C5 8D 00 50 E8 E0 86 FA FF .|k..h8...P.....
007388A0 83 C4 08 83 C8 FF C3 CC CC CC CC CC CC CC CC CC ................
007388B0 8B 4C 24 04 8B 41 08 33 D2 85 C0 74 0D 56 8B 71 .L$..A.3...t.V.q
007388C0 0C 3B 70 0C 5E 75 03 8B 51 14 89 54 24 04 E9 CD .;p.^u..Q..T$...
007388D0 C7 FC FF CC CC CC CC CC CC CC CC CC CC CC CC CC ................
007388E0 53 57 8B 7C 24 0C 8B 5F 08 85 DB 74 23 8B 47 0C SW.|$.._...t#.G.
007388F0 3B 43 0C 74 20 8B 0D E0 75 A1 00 68 54 C5 8D 00 ;C.t ...u..hT...
00738900 51 E8 7A 86 FA FF 83 C4 08 C7 47 0C FF FF FF FF Q.z.......G.....
00738910 5F 33 C0 5B C3 8B 47 10 8B 4B 10 3B C1 55 8B 6B _3.[..G..K.;.U.k
00738920 14 7F 1E 8D 54 C5 04 56 8B 32 85 F6 74 08 3B 35 ....T..V.2..t.;5
00738930 20 DF A6 00 75 0A 83 C0 01 83 C2 08 3B C1 7E E8  ...u.......;.~.
00738940 5E 3B C1 8D 50 01 89 57 10 7E 1E 83 03 FF 75 0C ^;..P..W.~....u.
00738950 8B 43 04 8B 48 18 53 FF D1 83 C4 04 5D C7 47 08 .C..H.S.....].G.
00738960 00 00 00 00 5F 33 C0 5B C3 83 47 14 FF 8B 44 C5 ...._3.[..G...D.
00738970 04 83 00 01 5D 5F 5B C3 CC CC CC CC CC CC CC CC ....]_[.........
00738980 68 F8 AC A2 00 E8 F6 53 FA FF 83 C4 04 85 C0 75 h......S.......u
00738990 01 C3 8B 4C 24 04 83 01 01 89 48 08 8B 51 0C 89 ...L$.....H..Q..
007389A0 50 0C C7 40 10 00 00 00 00 8B 49 0C 89 48 14 C3 P..@......I..H..

;; fn007389B0: 007389B0
;;   Called from:
;;     00738C7F (in fn00738BB0)
fn007389B0 proc
	sub	esp,18h
	push	esi
	mov	esi,eax
	mov	eax,[esi+4h]
	cmp	eax,0A2B490h
	jz	738B70h

l007389C4:
	cmp	eax,0A2B6F8h
	jz	738B70h

l007389CF:
	push	0A2B490h
	push	eax
	call	6D5670h
	add	esp,8h
	test	eax,eax
	jnz	738B70h

l007389E5:
	mov	eax,[esi+4h]
	push	0A2B6F8h
	push	eax
	call	6D5670h
	add	esp,8h
	test	eax,eax
	jnz	738B70h

l007389FE:
	cmp	dword ptr [esi+4h],0A1D1B8h
	push	esi
	jnz	738AC0h

l00738A0C:
	mov	[esp+10h],eax
	call	6FCF20h
	mov	ecx,eax
	add	esp,4h
	cmp	ecx,0FFh
	jz	738B68h

l00738A23:
	mov	eax,[edi+8h]
	add	eax,ecx
	lea	edx,[eax+eax*2]
	mov	eax,[edi+10h]
	lea	eax,[eax+eax+2h]
	cmp	edx,eax
	jl	738A4Eh

l00738A36:
	mov	eax,[edi+0Ch]
	add	eax,ecx
	add	eax,eax
	push	edi
	call	737F70h
	add	esp,4h
	test	eax,eax
	jnz	738B68h

l00738A4E:
	lea	ecx,[esp+8h]
	push	ecx
	lea	edx,[esp+14h]
	push	edx
	lea	eax,[esp+0Ch]
	push	eax
	lea	ecx,[esp+18h]
	push	ecx
	push	esi
	call	6FC0E0h
	add	esp,14h
	test	eax,eax
	jz	738AB9h

l00738A6F:
	nop

l00738A70:
	mov	eax,[esp+4h]
	mov	edx,[esp+8h]
	lea	ecx,[esp+14h]
	mov	[esp+18h],eax
	push	ecx
	mov	eax,edi
	mov	[esp+18h],edx
	call	7380A0h
	add	esp,4h
	cmp	eax,0FFh
	jz	738B68h

l00738A98:
	lea	edx,[esp+8h]
	push	edx
	lea	eax,[esp+14h]
	push	eax
	lea	ecx,[esp+0Ch]
	push	ecx
	lea	edx,[esp+18h]
	push	edx
	push	esi
	call	6FC0E0h
	add	esp,14h
	test	eax,eax
	jnz	738A70h

l00738AB9:
	xor	eax,eax
	pop	esi
	add	esp,18h
	ret

l00738AC0:
	call	704B00h
	mov	esi,eax
	add	esp,4h
	test	esi,esi
	jz	738B68h

l00738AD2:
	push	esi
	call	704040h
	add	esp,4h
	test	eax,eax
	mov	[esp+4h],eax
	jz	738B1Ch

l00738AE3:
	mov	ecx,edi
	call	738130h
	cmp	eax,0FFh
	jz	738B3Bh

l00738AEF:
	mov	eax,[esp+4h]
	add	dword ptr [eax],0FFh
	mov	eax,[esp+4h]
	cmp	dword ptr [eax],0h
	jnz	738B0Bh

l00738AFF:
	mov	ecx,[eax+4h]
	mov	edx,[ecx+18h]
	push	eax
	call	edx
	add	esp,4h

l00738B0B:
	push	esi
	call	704040h
	add	esp,4h
	test	eax,eax
	mov	[esp+4h],eax
	jnz	738AE3h

l00738B1C:
	add	dword ptr [esi],0FFh
	jnz	738B2Dh

l00738B21:
	mov	ecx,[esi+4h]
	mov	edx,[ecx+18h]
	push	esi
	call	edx
	add	esp,4h

l00738B2D:
	call	6E0FC0h
	neg	eax
	sbb	eax,eax
	pop	esi
	add	esp,18h
	ret

l00738B3B:
	add	dword ptr [esi],0FFh
	jnz	738B4Ch

l00738B40:
	mov	eax,[esi+4h]
	mov	ecx,[eax+18h]
	push	esi
	call	ecx
	add	esp,4h

l00738B4C:
	mov	eax,[esp+4h]
	add	dword ptr [eax],0FFh
	mov	eax,[esp+4h]
	cmp	dword ptr [eax],0h
	jnz	738B68h

l00738B5C:
	mov	edx,[eax+4h]
	push	eax
	mov	eax,[edx+18h]
	call	eax
	add	esp,4h

l00738B68:
	or	eax,0FFh
	pop	esi
	add	esp,18h
	ret

l00738B70:
	push	esi
	mov	eax,edi
	call	738600h
	add	esp,4h
	pop	esi
	add	esp,18h
	ret
00738B80 8B 44 24 08 57 8B 7C 24 08 E8 22 FE FF FF 83 F8 .D$.W.|$..".....
00738B90 FF 5F 75 03 33 C0 C3 83 05 B8 63 A1 00 01 B8 B8 ._u.3.....c.....
00738BA0 63 A1 00 C3 CC CC CC CC CC CC CC CC CC CC CC CC c...............

;; fn00738BB0: 00738BB0
;;   Called from:
;;     00738D0E (in fn00738CB0)
;;     00738D37 (in fn00738CB0)
;;     00738D66 (in fn00738CB0)
;;     0073A5D5 (in fn0073A5D0)
fn00738BB0 proc
	cmp	dword ptr [0A6DF20h],0h
	push	ebp
	mov	ebp,[esp+8h]
	push	esi
	mov	esi,eax
	jnz	738BDAh

l00738BC1:
	push	8D646Ch
	call	6ECAC0h
	add	esp,4h
	test	eax,eax
	mov	[0A6DF20h],eax
	jnz	738BDAh

l00738BD7:
	pop	esi
	pop	ebp
	ret

l00738BDA:
	mov	eax,[0A6DF24h]
	test	eax,eax
	push	edi
	jz	738C43h

l00738BE4:
	cmp	esi,0A2B490h
	jz	738BF4h

l00738BEC:
	cmp	esi,0A2B6F8h
	jnz	738C43h

l00738BF4:
	mov	edi,[0A6DDDCh+eax*4]
	sub	eax,1h
	push	40h
	mov	[edi+4h],esi
	lea	esi,[edi+1Ch]
	push	0h
	push	esi
	mov	[0A6DF24h],eax
	mov	dword ptr [edi],1h
	call	695020h
	push	edi
	mov	dword ptr [edi+8h],0h
	mov	dword ptr [edi+0Ch],0h
	mov	[edi+14h],esi
	mov	dword ptr [edi+10h],7h
	mov	dword ptr [edi+5Ch],0FFFFFFFFh
	call	6FEE30h
	add	esp,10h
	jmp	738C6Bh

l00738C43:
	mov	eax,[esi+98h]
	push	0h
	push	esi
	call	eax
	mov	edi,eax
	add	esp,8h
	test	edi,edi
	jz	738C99h

l00738C57:
	lea	ecx,[edi+1Ch]
	mov	[edi+14h],ecx
	mov	dword ptr [edi+10h],7h
	mov	dword ptr [edi+5Ch],0FFFFFFFFh

l00738C6B:
	test	ebp,ebp
	mov	dword ptr [edi+18h],737DA0h
	mov	dword ptr [edi+60h],0h
	jz	738C9Fh

l00738C7D:
	mov	eax,ebp
	call	7389B0h
	cmp	eax,0FFh
	jnz	738C9Fh

l00738C89:
	add	[edi],eax
	jnz	738C99h

l00738C8D:
	mov	edx,[edi+4h]
	mov	eax,[edx+18h]
	push	edi
	call	eax
	add	esp,4h

l00738C99:
	pop	edi
	pop	esi
	xor	eax,eax
	pop	ebp
	ret

l00738C9F:
	mov	eax,edi
	pop	edi
	pop	esi
	pop	ebp
	ret
00738CA5                CC CC CC CC CC CC CC CC CC CC CC      ...........

;; fn00738CB0: 00738CB0
;;   Called from:
;;     0073A610 (in fn0073A5E0)
fn00738CB0 proc
	push	ecx
	push	esi
	mov	esi,[esp+0Ch]
	cmp	esi,0A2B6F8h
	mov	dword ptr [esp+4h],0h
	jnz	738CE1h

l00738CC6:
	mov	eax,[esp+14h]
	push	eax
	push	8DC578h
	call	6E5C00h
	add	esp,8h
	test	eax,eax
	jnz	738CE1h

l00738CDC:
	xor	eax,eax
	pop	esi
	pop	ecx
	ret

l00738CE1:
	mov	edx,[esi+0Ch]
	mov	eax,[esp+10h]
	lea	ecx,[esp+4h]
	push	ecx
	push	1h
	push	0h
	push	edx
	push	eax
	call	6E5AD0h
	add	esp,14h
	test	eax,eax
	jz	738CDCh

l00738CFF:
	cmp	esi,0A2B6F8h
	jz	738D19h

l00738D07:
	mov	ecx,[esp+4h]
	push	ecx
	mov	eax,esi
	call	738BB0h
	add	esp,4h
	pop	esi
	pop	ecx
	ret

l00738D19:
	mov	eax,[esp+4h]
	test	eax,eax
	jz	738D5Ah

l00738D21:
	cmp	dword ptr [eax+4h],0A2B6F8h
	jnz	738D34h

l00738D2A:
	add	dword ptr [eax],1h
	mov	eax,[esp+4h]
	pop	esi
	pop	ecx
	ret

l00738D34:
	push	eax
	mov	eax,esi
	call	738BB0h
	add	esp,4h
	test	eax,eax
	jz	738D7Ah

l00738D43:
	cmp	dword ptr [eax+0Ch],0h
	jnz	738D7Ah

l00738D49:
	add	dword ptr [eax],0FFh
	jnz	738D5Ah

l00738D4E:
	mov	edx,[eax+4h]
	push	eax
	mov	eax,[edx+18h]
	call	eax
	add	esp,4h

l00738D5A:
	mov	eax,[0A6DF28h]
	test	eax,eax
	jnz	738D77h

l00738D63:
	push	eax
	mov	eax,esi
	call	738BB0h
	add	esp,4h
	test	eax,eax
	mov	[0A6DF28h],eax
	jz	738D7Ah

l00738D77:
	add	dword ptr [eax],1h

l00738D7A:
	pop	esi
	pop	ecx
	ret
00738D7D                                        CC CC CC              ...

;; fn00738D80: 00738D80
;;   Called from:
;;     006E89A3 (in fn006E8910)
fn00738D80 proc
	mov	eax,[0A6DF24h]
	test	eax,eax
	jz	738DB1h

l00738D89:
	lea	esp,[esp+0h]

l00738D90:
	sub	eax,1h
	mov	[0A6DF24h],eax
	mov	eax,[0A6DDE0h+eax*4]
	push	eax
	call	6FEFD0h
	mov	eax,[0A6DF24h]
	add	esp,4h
	test	eax,eax
	jnz	738D90h

l00738DB1:
	mov	eax,[0A6DF20h]
	test	eax,eax
	jz	738DD5h

l00738DBA:
	add	dword ptr [eax],0FFh
	mov	dword ptr [0A6DF20h],0h
	jnz	738DD5h

l00738DC9:
	mov	ecx,[eax+4h]
	mov	edx,[ecx+18h]
	push	eax
	call	edx
	add	esp,4h

l00738DD5:
	mov	eax,[0A6DF28h]
	test	eax,eax
	jz	738DF7h

l00738DDE:
	add	dword ptr [eax],0FFh
	mov	dword ptr [0A6DF28h],0h
	jnz	738DF7h

l00738DED:
	mov	ecx,[eax+4h]
	mov	edx,[ecx+18h]
	push	eax
	call	edx
	pop	ecx

l00738DF7:
	ret
00738DF8                         CC CC CC CC CC CC CC CC         ........
00738E00 56 8B 74 24 08 81 FE 90 B4 A2 00 75 18 8B 44 24 V.t$.......u..D$
00738E10 10 50 68 84 C5 8D 00 E8 E4 CD FA FF 83 C4 08 85 .Ph.............
00738E20 C0 75 02 5E C3 6A 00 8B C6 E8 82 FD FF FF 83 C4 .u.^.j..........
00738E30 04 5E C3 CC CC CC CC CC CC CC CC CC CC CC CC CC .^..............
00738E40 8B 43 08 83 EC 40 55 8B 6C 24 48 8B 4D 08 89 4B .C...@U.l$H.M..K
00738E50 08 8B 55 0C 89 45 08 8B 43 0C 89 53 0C 8B 4D 10 ..U..E..C..S..M.
00738E60 89 45 0C 8B 43 10 89 4B 10 89 45 10 8B 4B 14 8D .E..C..K..E..K..
00738E70 43 1C 3B C8 75 03 8D 4D 1C 8B 55 14 89 53 14 8D C.;.u..M..U..S..
00738E80 55 1C 39 55 14 75 03 89 43 14 89 4D 14 8B 4B 18 U.9U.u..C..M..K.
00738E90 56 8B 75 18 89 73 18 89 4D 18 39 43 14 74 05 39 V.u..s..M.9C.t.9
00738EA0 55 14 75 27 57 B9 10 00 00 00 8B F0 8D 7C 24 0C U.u'W........|$.
00738EB0 F3 A5 B9 10 00 00 00 8B F2 8B F8 F3 A5 B9 10 00 ................
00738EC0 00 00 8D 74 24 0C 8B FA F3 A5 5F 8B 43 04 68 F8 ...t$....._.C.h.
00738ED0 B6 A2 00 50 E8 97 C7 F9 FF 83 C4 08 85 C0 5E 74 ...P..........^t
00738EE0 26 8B 4D 04 68 F8 B6 A2 00 51 E8 81 C7 F9 FF 83 &.M.h....Q......
00738EF0 C4 08 85 C0 74 11 8B 55 5C 8B 43 5C 89 53 5C 89 ....t..U\.C\.S\.
00738F00 45 5C 5D 83 C4 40 C3 83 C8 FF 89 43 5C 89 45 5C E\]..@.....C\.E\
00738F10 5D 83 C4 40 C3 CC CC CC CC CC CC CC CC CC CC CC ]..@............
00738F20 8B 44 24 04 89 44 24 04 8B 40 04 E9 80 FC FF FF .D$..D$..@......
00738F30 8B 44 24 04 8B 48 04 81 F9 F8 B6 A2 00 75 04 83 .D$..H.......u..
00738F40 00 01 C3 89 44 24 04 8B C1 E9 62 FC FF FF CC CC ....D$....b.....
00738F50 8B 44 24 04 50 E8 D6 F2 FF FF 83 05 B8 63 A1 00 .D$.P........c..
00738F60 01 83 C4 04 B8 B8 63 A1 00 C3 CC CC CC CC CC CC ......c.........
00738F70 56 8B 74 24 08 8B 46 04 57 56 E8 31 FC FF FF 8B V.t$..F.WV.1....
00738F80 F8 83 C4 04 85 FF 74 22 8B 44 24 10 3B F0 74 1F ......t".D$.;.t.
00738F90 E8 1B FA FF FF 83 F8 FF 75 15 01 07 75 0C 8B 47 ........u...u..G
00738FA0 04 8B 48 18 57 FF D1 83 C4 04 5F 33 C0 5E C3 8B ..H.W....._3.^..
00738FB0 C7 5F 5E C3 CC CC CC CC CC CC CC CC CC CC CC CC ._^.............
00738FC0 53 56 8B 74 24 0C 8B 46 04 3D 90 B4 A2 00 74 2E SV.t$..F.=....t.
00738FD0 3D F8 B6 A2 00 74 27 68 90 B4 A2 00 50 E8 8E C6 =....t'h....P...
00738FE0 F9 FF 83 C4 08 85 C0 75 15 8B 46 04 68 F8 B6 A2 .......u..F.h...
00738FF0 00 50 E8 79 C6 F9 FF 83 C4 08 85 C0 74 3C 8B 5C .P.y........t<.\
00739000 24 10 8B 43 04 3D 90 B4 A2 00 74 3D 3D F8 B6 A2 $..C.=....t==...
00739010 00 74 36 68 90 B4 A2 00 50 E8 52 C6 F9 FF 83 C4 .t6h....P.R.....
00739020 08 85 C0 75 24 8B 4B 04 68 F8 B6 A2 00 51 E8 3D ...u$.K.h....Q.=
00739030 C6 F9 FF 83 C4 08 85 C0 75 0F 83 05 80 64 A1 00 ........u....d..
00739040 01 5E B8 80 64 A1 00 5B C3 8B 46 04 57 56 E8 5D .^..d..[..F.WV.]
00739050 FB FF FF 8B F8 83 C4 04 85 FF 74 20 3B F3 74 22 ..........t ;.t"
00739060 8B C3 E8 49 F9 FF FF 83 F8 FF 75 16 01 07 75 0C ...I......u...u.
00739070 8B 57 04 8B 42 18 57 FF D0 83 C4 04 5F 5E 33 C0 .W..B.W....._^3.
00739080 5B C3 8B C7 5F 5E 5B C3 CC CC CC CC CC CC CC CC [..._^[.........
00739090 56 8B 74 24 0C 8B 46 04 3D 90 B4 A2 00 74 3C 3D V.t$..F.=....t<=
007390A0 F8 B6 A2 00 74 35 68 90 B4 A2 00 50 E8 BF C5 F9 ....t5h....P....
007390B0 FF 83 C4 08 85 C0 75 23 8B 46 04 68 F8 B6 A2 00 ......u#.F.h....
007390C0 50 E8 AA C5 F9 FF 83 C4 08 85 C0 75 0E 83 05 80 P..........u....
007390D0 64 A1 00 01 B8 80 64 A1 00 5E C3 57 8B 7C 24 0C d.....d..^.W.|$.
007390E0 8B C6 E8 C9 F8 FF FF 83 F8 FF 75 05 5F 33 C0 5E ..........u._3.^
007390F0 C3 83 07 01 8B C7 5F 5E C3 CC CC CC CC CC CC CC ......_^........
00739100 83 EC 08 56 8B 74 24 10 8B 46 04 57 8B 7C 24 18 ...V.t$..F.W.|$.
00739110 3B F7 75 0F 56 E8 96 FA FF FF 83 C4 04 5F 5E 83 ;.u.V........_^.
00739120 C4 08 C3 55 6A 00 E8 85 FA FF FF 8B E8 83 C4 04 ...Uj...........
00739130 85 ED 0F 84 18 01 00 00 8B 47 04 3D 90 B4 A2 00 .........G.=....
00739140 0F 84 59 01 00 00 3D F8 B6 A2 00 0F 84 4E 01 00 ..Y...=......N..
00739150 00 68 90 B4 A2 00 50 E8 14 C5 F9 FF 83 C4 08 85 .h....P.........
00739160 C0 0F 85 38 01 00 00 8B 47 04 68 F8 B6 A2 00 50 ...8....G.h....P
00739170 E8 FB C4 F9 FF 83 C4 08 85 C0 0F 85 1F 01 00 00 ................
00739180 57 E8 7A B9 FC FF 8B F8 83 C4 04 85 FF 75 1F 83 W.z..........u..
00739190 45 00 FF 0F 85 B7 00 00 00 8B 4D 04 8B 51 18 55 E.........M..Q.U
007391A0 FF D2 83 C4 04 5D 5F 33 C0 5E 83 C4 08 C3 57 E8 .....]_3.^....W.
007391B0 8C AE FC FF 8B F0 83 C4 04 85 F6 74 67 8D 49 00 ...........tg.I.
007391C0 56 E8 1A 51 FA FF 83 C4 04 83 F8 FF 0F 84 87 00 V..Q............
007391D0 00 00 8B 4C 24 18 89 44 24 0C 8D 44 24 0C 89 74 ...L$..D$..D$..t
007391E0 24 10 E8 E9 F4 FF FF 83 F8 FF 74 6D 85 C0 74 14 $.........tm..t.
007391F0 8D 44 24 0C 50 8B C5 E8 A4 EE FF FF 83 C4 04 83 .D$.P...........
00739200 F8 FF 74 55 83 06 FF 75 0C 8B 4E 04 8B 51 18 56 ..tU...u..N..Q.V
00739210 FF D2 83 C4 04 57 E8 25 AE FC FF 8B F0 83 C4 04 .....W.%........
00739220 85 F6 75 9C 83 07 FF 75 0C 8B 47 04 8B 48 18 57 ..u....u..G..H.W
00739230 FF D1 83 C4 04 E8 86 7D FA FF 85 C0 74 58 83 45 .......}....tX.E
00739240 00 FF 75 0C 8B 55 04 8B 42 18 55 FF D0 83 C4 04 ..u..U..B.U.....
00739250 5D 5F 33 C0 5E 83 C4 08 C3 83 07 FF 75 0C 8B 47 ]_3.^.......u..G
00739260 04 8B 48 18 57 FF D1 83 C4 04 83 45 00 FF 75 0C ..H.W......E..u.
00739270 8B 55 04 8B 42 18 55 FF D0 83 C4 04 83 06 FF 75 .U..B.U........u
00739280 CF 8B 4E 04 8B 51 18 56 FF D2 83 C4 04 5D 5F 33 ..N..Q.V.....]_3
00739290 C0 5E 83 C4 08 C3 8B C5 5D 5F 5E 83 C4 08 C3 8B .^......]_^.....
007392A0 4F 0C 3B 4E 0C C7 44 24 0C 00 00 00 00 7E 06 89 O.;N..D$.....~..
007392B0 7C 24 18 8B FE 53 8D 54 24 20 52 8D 5C 24 14 8B |$...S.T$ R.\$..
007392C0 CF E8 4A F0 FF FF 83 C4 04 85 C0 74 55 8D 49 00 ..J........tU.I.
007392D0 8B 74 24 20 8B 06 8B 4E 04 50 8B 44 24 20 8B 50 .t$ ...N.P.D$ .P
007392E0 18 51 50 FF D2 83 C4 0C 85 C0 74 40 8B 40 04 85 .QP.......t@.@..
007392F0 C0 74 18 3B 05 20 DF A6 00 74 10 56 8B C5 E8 9D .t.;. ...t.V....
00739300 ED FF FF 83 C4 04 83 F8 FF 74 3D 8D 44 24 20 50 .........t=.D$ P
00739310 8D 5C 24 14 8B CF E8 F5 EF FF FF 83 C4 04 85 C0 .\$.............
00739320 75 AE 5B 8B C5 5D 5F 5E 83 C4 08 C3 83 45 00 FF u.[..]_^.....E..
00739330 75 28 8B 4D 04 8B 51 18 55 FF D2 83 C4 04 5B 5D u(.M..Q.U.....[]
00739340 5F 33 C0 5E 83 C4 08 C3 83 45 00 FF 75 0C 8B 45 _3.^.....E..u..E
00739350 04 8B 48 18 55 FF D1 83 C4 04 5B 5D 5F 33 C0 5E ..H.U.....[]_3.^
00739360 83 C4 08 C3 CC CC CC CC CC CC CC CC CC CC CC CC ................
00739370 8B 44 24 08 53 8B 5C 24 08 56 50 53 E8 7F FD FF .D$.S.\$.VPS....
00739380 FF 8B F0 83 C4 08 85 F6 75 03 5E 5B C3 56 E8 AD ........u.^[.V..
00739390 FA FF FF 83 C4 04 83 06 FF 75 0C 8B 4E 04 8B 51 .........u..N..Q
007393A0 18 56 FF D2 83 C4 04 83 05 B8 63 A1 00 01 5E B8 .V........c...^.
007393B0 B8 63 A1 00 5B C3 CC CC CC CC CC CC CC CC CC CC .c..[...........
007393C0 56 57 8B 7C 24 0C 8B 47 04 3D 90 B4 A2 00 74 2E VW.|$..G.=....t.
007393D0 3D F8 B6 A2 00 74 27 68 90 B4 A2 00 50 E8 8E C2 =....t'h....P...
007393E0 F9 FF 83 C4 08 85 C0 75 15 8B 47 04 68 F8 B6 A2 .......u..G.h...
007393F0 00 50 E8 79 C2 F9 FF 83 C4 08 85 C0 74 3C 8B 74 .P.y........t<.t
00739400 24 10 8B 46 04 3D 90 B4 A2 00 74 3D 3D F8 B6 A2 $..F.=....t==...
00739410 00 74 36 68 90 B4 A2 00 50 E8 52 C2 F9 FF 83 C4 .t6h....P.R.....
00739420 08 85 C0 75 24 8B 4E 04 68 F8 B6 A2 00 51 E8 3D ...u$.N.h....Q.=
00739430 C2 F9 FF 83 C4 08 85 C0 75 0F 83 05 80 64 A1 00 ........u....d..
00739440 01 5F B8 80 64 A1 00 5E C3 56 57 E8 B0 FC FF FF ._..d..^.VW.....
00739450 83 C4 08 5F 5E C3 CC CC CC CC CC CC CC CC CC CC ..._^...........
00739460 56 8B 74 24 0C 8B 46 04 3D 90 B4 A2 00 74 3C 3D V.t$..F.=....t<=
00739470 F8 B6 A2 00 74 35 68 90 B4 A2 00 50 E8 EF C1 F9 ....t5h....P....
00739480 FF 83 C4 08 85 C0 75 23 8B 46 04 68 F8 B6 A2 00 ......u#.F.h....
00739490 50 E8 DA C1 F9 FF 83 C4 08 85 C0 75 0E 83 05 80 P..........u....
007394A0 64 A1 00 01 B8 80 64 A1 00 5E C3 53 8B 5C 24 0C d.....d..^.S.\$.
007394B0 56 53 E8 49 FC FF FF 8B F0 83 C4 08 85 F6 74 46 VS.I..........tF
007394C0 56 E8 7A F9 FF FF 83 C4 04 83 06 FF 75 0C 8B 4E V.z.........u..N
007394D0 04 8B 51 18 56 FF D2 83 C4 04 BE 01 00 00 00 01 ..Q.V...........
007394E0 35 B8 63 A1 00 29 35 B8 63 A1 00 75 12 A1 BC 63 5.c..)5.c..u...c
007394F0 A1 00 8B 48 18 68 B8 63 A1 00 FF D1 83 C4 04 01 ...H.h.c........
00739500 33 8B C3 5B 5E C3 5B 33 C0 5E C3 CC CC CC CC CC 3..[^.[3.^......
00739510 83 EC 08 56 57 8B F8 8B F1 3B F7 75 0F 56 E8 0D ...VW....;.u.V..
00739520 ED FF FF 83 C4 04 5F 5E 83 C4 08 C3 8B 47 04 3D ......_^.....G.=
00739530 90 B4 A2 00 53 0F 84 D6 00 00 00 3D F8 B6 A2 00 ....S......=....
00739540 0F 84 CB 00 00 00 68 90 B4 A2 00 50 E8 1F C1 F9 ......h....P....
00739550 FF 83 C4 08 85 C0 0F 85 B5 00 00 00 8B 47 04 68 .............G.h
00739560 F8 B6 A2 00 50 E8 06 C1 F9 FF 83 C4 08 85 C0 0F ....P...........
00739570 85 9C 00 00 00 57 E8 85 B5 FC FF 8B D8 83 C4 04 .....W..........
00739580 85 DB 74 57 53 E8 B6 AA FC FF 8B F8 83 C4 04 85 ..tWS...........
00739590 FF 74 2A E8 28 EC FF FF 83 F8 FF 74 48 83 07 FF .t*.(......tH...
007395A0 75 0C 8B 4F 04 8B 51 18 57 FF D2 83 C4 04 53 E8 u..O..Q.W.....S.
007395B0 8C AA FC FF 8B F8 83 C4 04 85 FF 75 D6 83 03 FF ...........u....
007395C0 75 0C 8B 4B 04 8B 51 18 53 FF D2 83 C4 04 E8 ED u..K..Q.S.......
007395D0 79 FA FF 85 C0 0F 84 B0 00 00 00 5B 5F 83 C8 FF y..........[_...
007395E0 5E 83 C4 08 C3 83 03 FF 75 0C 8B 43 04 8B 48 18 ^.......u..C..H.
007395F0 53 FF D1 83 C4 04 83 07 FF 75 0C 8B 57 04 8B 42 S........u..W..B
00739600 18 57 FF D0 83 C4 04 5B 5F 83 C8 FF 5E 83 C4 08 .W.....[_...^...
00739610 C3 8D 44 24 0C 50 8D 5C 24 14 8B CF C7 44 24 14 ..D$.P.\$....D$.
00739620 00 00 00 00 E8 E7 EC FF FF 83 C4 04 85 C0 74 5B ..............t[
00739630 8B 44 24 0C 8B 08 8B 50 04 8B 46 18 51 52 56 FF .D$....P..F.QRV.
00739640 D0 83 C4 0C 85 C0 74 93 8B 48 04 85 C9 74 25 8B ......t..H...t%.
00739650 15 20 DF A6 00 3B CA 74 1B 83 02 01 89 50 04 83 . ...;.t.....P..
00739660 46 0C FF 83 01 FF 75 0C 8B 51 04 8B 42 18 51 FF F.....u..Q..B.Q.
00739670 D0 83 C4 04 8D 4C 24 0C 51 8D 5C 24 14 8B CF E8 .....L$.Q.\$....
00739680 8C EC FF FF 83 C4 04 85 C0 75 A5 8B 4E 0C 8B 46 .........u..N..F
00739690 08 2B C1 8D 14 80 3B 56 10 7D 09 5B 5F 33 C0 5E .+....;V.}.[_3.^
007396A0 83 C4 08 C3 81 F9 50 C3 00 00 8D 04 09 7F 07 8D ......P.........
007396B0 04 8D 00 00 00 00 56 E8 B4 E8 FF FF 83 C4 04 5B ......V........[
007396C0 5F 5E 83 C4 08 C3 CC CC CC CC CC CC CC CC CC CC _^..............
007396D0 8B 44 24 08 8B 4C 24 04 E8 33 FE FF FF 83 F8 FF .D$..L$..3......
007396E0 74 0D 83 05 B8 63 A1 00 01 B8 B8 63 A1 00 C3 33 t....c.....c...3
007396F0 C0 C3 CC CC CC CC CC CC CC CC CC CC CC CC CC CC ................
00739700 83 EC 0C 53 56 8B 74 24 1C 8B 46 04 3D 90 B4 A2 ...SV.t$..F.=...
00739710 00 57 C7 44 24 0C 00 00 00 00 BB B8 D1 A1 00 74 .W.D$..........t
00739720 7A 3D F8 B6 A2 00 74 73 68 90 B4 A2 00 50 E8 3D z=....tsh....P.=
00739730 BF F9 FF 83 C4 08 85 C0 75 61 8B 46 04 68 F8 B6 ........ua.F.h..
00739740 A2 00 50 E8 28 BF F9 FF 83 C4 08 85 C0 75 4C 39 ..P.(........uL9
00739750 5E 04 74 47 8B 44 24 1C 50 8B 40 04 E8 4F F4 FF ^.tG.D$.P.@..O..
00739760 FF 8B F8 83 C4 04 85 FF 74 28 8B C6 8B CF E8 9D ........t(......
00739770 FD FF FF 83 F8 FF 74 09 8B C7 5F 5E 5B 83 C4 0C ......t..._^[...
00739780 C3 83 07 FF 75 0C 8B 4F 04 8B 51 18 57 FF D2 83 ....u..O..Q.W...
00739790 C4 04 5F 5E 33 C0 5B 83 C4 0C C3 55 8B 6C 24 20 .._^3.[....U.l$ 
007397A0 8B 45 04 6A 00 E8 06 F4 FF FF 8B F8 83 C4 04 85 .E.j............
007397B0 FF 0F 84 0D 01 00 00 39 5E 04 8B CD 8D 5C 24 10 .......9^....\$.
007397C0 75 6A 8D 44 24 24 50 E8 44 EB FF FF 83 C4 04 85 uj.D$$P.D.......
007397D0 C0 74 4F 8B 4C 24 24 8B 01 8B 49 04 50 51 56 89 .tO.L$$...I.PQV.
007397E0 44 24 20 89 4C 24 24 E8 44 40 FC FF 83 C4 0C 85 D$ .L$$.D@......
007397F0 C0 75 18 8D 4C 24 14 51 8B C7 E8 A1 E8 FF FF 83 .u..L$.Q........
00739800 C4 04 83 F8 FF 0F 84 A8 00 00 00 8D 54 24 24 52 ............T$$R
00739810 8D 5C 24 14 8B CD E8 F5 EA FF FF 83 C4 04 85 C0 .\$.............
00739820 75 B1 5D 8B C7 5F 5E 5B 83 C4 0C C3 8D 54 24 24 u.].._^[.....T$$
00739830 52 E8 DA EA FF FF 83 C4 04 85 C0 74 E5 8D 49 00 R..........t..I.
00739840 8B 5C 24 24 8B 03 8B 4B 04 8B 56 18 50 51 56 FF .\$$...K..V.PQV.
00739850 D2 83 C4 0C 85 C0 74 40 8B 40 04 85 C0 74 08 3B ......t@.@...t.;
00739860 05 20 DF A6 00 75 10 53 8B C7 E8 31 E8 FF FF 83 . ...u.S...1....
00739870 C4 04 83 F8 FF 74 3C 8D 44 24 24 50 8D 5C 24 14 .....t<.D$$P.\$.
00739880 8B CD E8 89 EA FF FF 83 C4 04 85 C0 75 B2 5D 8B ............u.].
00739890 C7 5F 5E 5B 83 C4 0C C3 83 07 FF 75 27 8B 4F 04 ._^[.......u'.O.
007398A0 8B 51 18 57 FF D2 83 C4 04 5D 5F 5E 33 C0 5B 83 .Q.W.....]_^3.[.
007398B0 C4 0C C3 83 07 FF 75 0C 8B 47 04 8B 48 18 57 FF ......u..G..H.W.
007398C0 D1 83 C4 04 5D 5F 5E 33 C0 5B 83 C4 0C C3 CC CC ....]_^3.[......
007398D0 56 57 8B 7C 24 0C 8B 47 04 3D 90 B4 A2 00 74 2E VW.|$..G.=....t.
007398E0 3D F8 B6 A2 00 74 27 68 90 B4 A2 00 50 E8 7E BD =....t'h....P.~.
007398F0 F9 FF 83 C4 08 85 C0 75 15 8B 47 04 68 F8 B6 A2 .......u..G.h...
00739900 00 50 E8 69 BD F9 FF 83 C4 08 85 C0 74 3C 8B 74 .P.i........t<.t
00739910 24 10 8B 46 04 3D 90 B4 A2 00 74 3D 3D F8 B6 A2 $..F.=....t==...
00739920 00 74 36 68 90 B4 A2 00 50 E8 42 BD F9 FF 83 C4 .t6h....P.B.....
00739930 08 85 C0 75 24 8B 4E 04 68 F8 B6 A2 00 51 E8 2D ...u$.N.h....Q.-
00739940 BD F9 FF 83 C4 08 85 C0 75 0F 83 05 80 64 A1 00 ........u....d..
00739950 01 5F B8 80 64 A1 00 5E C3 56 57 E8 A0 FD FF FF ._..d..^.VW.....
00739960 83 C4 08 5F 5E C3 CC CC CC CC CC CC CC CC CC CC ..._^...........
00739970 56 8B 74 24 0C 8B 46 04 3D 90 B4 A2 00 74 3C 3D V.t$..F.=....t<=
00739980 F8 B6 A2 00 74 35 68 90 B4 A2 00 50 E8 DF BC F9 ....t5h....P....
00739990 FF 83 C4 08 85 C0 75 23 8B 46 04 68 F8 B6 A2 00 ......u#.F.h....
007399A0 50 E8 CA BC F9 FF 83 C4 08 85 C0 75 0E 83 05 80 P..........u....
007399B0 64 A1 00 01 B8 80 64 A1 00 5E C3 8B C6 8B 74 24 d.....d..^....t$
007399C0 08 8B CE E8 48 FB FF FF 83 F8 FF 74 2A 83 05 B8 ....H......t*...
007399D0 63 A1 00 01 83 2D B8 63 A1 00 01 75 13 8B 0D BC c....-.c...u....
007399E0 63 A1 00 8B 51 18 68 B8 63 A1 00 FF D2 83 C4 04 c...Q.h.c.......
007399F0 83 06 01 8B C6 5E C3 33 C0 5E C3 CC CC CC CC CC .....^.3.^......
00739A00 83 EC 10 55 8B 6C 24 1C 56 8B 74 24 1C 3B F5 C7 ...U.l$.V.t$.;..
00739A10 44 24 08 00 00 00 00 75 1B 56 E8 11 E8 FF FF 83 D$.....u.V......
00739A20 C4 04 83 05 B8 63 A1 00 01 5E B8 B8 63 A1 00 5D .....c...^..c..]
00739A30 83 C4 10 C3 8B 45 04 3D B8 D1 A1 00 0F 85 BD 00 .....E.=........
00739A40 00 00 8D 44 24 1C 50 8D 4C 24 10 51 8D 54 24 28 ...D$.P.L$.Q.T$(
00739A50 52 8D 44 24 14 50 55 E8 84 26 FC FF 83 C4 14 85 R.D$.PU..&......
00739A60 C0 74 BF 8B 44 24 1C 8B 4C 24 20 50 51 89 4C 24 .t..D$..L$ PQ.L$
00739A70 1C 8B 4E 18 56 89 44 24 1C FF D1 83 C4 0C 85 C0 ..N.V.D$........
00739A80 0F 84 C0 00 00 00 8B 48 04 85 C9 74 27 8B 15 20 .......H...t'.. 
00739A90 DF A6 00 3B CA 74 1D 83 02 01 89 50 04 83 46 0C ...;.t.....P..F.
00739AA0 FF 83 01 FF 75 22 8B 51 04 8B 42 18 51 FF D0 83 ....u".Q..B.Q...
00739AB0 C4 04 EB 14 8D 4C 24 10 51 8B C6 E8 E0 E5 FF FF .....L$.Q.......
00739AC0 83 C4 04 83 F8 FF 74 7E 8D 54 24 1C 52 8D 44 24 ......t~.T$.R.D$
00739AD0 10 50 8D 4C 24 28 51 8D 54 24 14 52 55 E8 FE 25 .P.L$(Q.T$.RU..%
00739AE0 FC FF 83 C4 14 85 C0 0F 85 76 FF FF FF 83 05 B8 .........v......
00739AF0 63 A1 00 01 5E B8 B8 63 A1 00 5D 83 C4 10 C3 3D c...^..c..]....=
00739B00 90 B4 A2 00 74 48 3D F8 B6 A2 00 74 41 68 90 B4 ....tH=....tAh..
00739B10 A2 00 50 E8 58 BB F9 FF 83 C4 08 85 C0 75 2F 8B ..P.X........u/.
00739B20 45 04 68 F8 B6 A2 00 50 E8 43 BB F9 FF 83 C4 08 E.h....P.C......
00739B30 85 C0 75 1A 8B 46 04 55 E8 73 F0 FF FF 8B E8 83 ..u..F.U.s......
00739B40 C4 04 85 ED 75 0C 5E 33 C0 5D 83 C4 10 C3 83 45 ....u.^3.].....E
00739B50 00 01 53 8D 4C 24 20 57 51 8D 5C 24 14 8B CD E8 ..S.L$ WQ.\$....
00739B60 AC E7 FF FF 83 C4 04 85 C0 74 72 EB 03 8D 49 00 .........tr...I.
00739B70 8B 7C 24 24 8B 17 8B 47 04 8B 4E 18 52 50 56 FF .|$$...G..N.RPV.
00739B80 D1 83 C4 0C 85 C0 74 7B 8B 48 04 85 C9 74 27 8B ......t{.H...t'.
00739B90 15 20 DF A6 00 3B CA 74 1D 83 02 01 89 50 04 83 . ...;.t.....P..
00739BA0 46 0C FF 83 01 FF 75 1E 8B 51 04 8B 42 18 51 FF F.....u..Q..B.Q.
00739BB0 D0 83 C4 04 EB 10 57 8B C6 E8 E2 E4 FF FF 83 C4 ......W.........
00739BC0 04 83 F8 FF 74 59 8D 4C 24 24 51 8D 5C 24 14 8B ....tY.L$$Q.\$..
00739BD0 CD E8 3A E7 FF FF 83 C4 04 85 C0 75 93 83 45 00 ..:........u..E.
00739BE0 FF 75 0C 8B 45 04 8B 48 18 55 FF D1 83 C4 04 83 .u..E..H.U......
00739BF0 05 B8 63 A1 00 01 5F 5B 5E B8 B8 63 A1 00 5D 83 ..c..._[^..c..].
00739C00 C4 10 C3 83 45 00 FF 75 28 8B 55 04 8B 42 18 55 ....E..u(.U..B.U
00739C10 FF D0 83 C4 04 5F 5B 5E 33 C0 5D 83 C4 10 C3 83 ....._[^3.].....
00739C20 45 00 FF 75 0C 8B 4D 04 8B 51 18 55 FF D2 83 C4 E..u..M..Q.U....
00739C30 04 5F 5B 5E 33 C0 5D 83 C4 10 C3 CC CC CC CC CC ._[^3.].........
00739C40 8B 44 24 08 56 57 8B 7C 24 0C 50 8B 47 04 E8 5D .D$.VW.|$.P.G..]
00739C50 EF FF FF 8B F0 83 C4 04 85 F6 75 05 5F 33 C0 5E ..........u._3.^
00739C60 C3 57 56 E8 98 FD FF FF 83 C4 08 85 C0 74 ED 83 .WV..........t..
00739C70 00 FF 75 0C 8B 48 04 8B 51 18 50 FF D2 83 C4 04 ..u..H..Q.P.....
00739C80 5F 8B C6 5E C3 CC CC CC CC CC CC CC CC CC CC CC _..^............
00739C90 56 57 8B 7C 24 0C 8B 47 04 3D 90 B4 A2 00 74 2E VW.|$..G.=....t.
00739CA0 3D F8 B6 A2 00 74 27 68 90 B4 A2 00 50 E8 BE B9 =....t'h....P...
00739CB0 F9 FF 83 C4 08 85 C0 75 15 8B 47 04 68 F8 B6 A2 .......u..G.h...
00739CC0 00 50 E8 A9 B9 F9 FF 83 C4 08 85 C0 74 3C 8B 74 .P..........t<.t
00739CD0 24 10 8B 46 04 3D 90 B4 A2 00 74 3D 3D F8 B6 A2 $..F.=....t==...
00739CE0 00 74 36 68 90 B4 A2 00 50 E8 82 B9 F9 FF 83 C4 .t6h....P.......
00739CF0 08 85 C0 75 24 8B 4E 04 68 F8 B6 A2 00 51 E8 6D ...u$.N.h....Q.m
00739D00 B9 F9 FF 83 C4 08 85 C0 75 0F 83 05 80 64 A1 00 ........u....d..
00739D10 01 5F B8 80 64 A1 00 5E C3 8B 47 04 56 E8 8E EE ._..d..^..G.V...
00739D20 FF FF 8B F0 83 C4 04 85 F6 75 05 5F 33 C0 5E C3 .........u._3.^.
00739D30 57 56 E8 C9 FC FF FF 83 C4 08 85 C0 74 ED 83 00 WV..........t...
00739D40 FF 75 0C 8B 50 04 50 8B 42 18 FF D0 83 C4 04 5F .u..P.P.B......_
00739D50 8B C6 5E C3 CC CC CC CC CC CC CC CC CC CC CC CC ..^.............
00739D60 56 8B 74 24 0C 8B 46 04 3D 90 B4 A2 00 74 3C 3D V.t$..F.=....t<=
00739D70 F8 B6 A2 00 74 35 68 90 B4 A2 00 50 E8 EF B8 F9 ....t5h....P....
00739D80 FF 83 C4 08 85 C0 75 23 8B 46 04 68 F8 B6 A2 00 ......u#.F.h....
00739D90 50 E8 DA B8 F9 FF 83 C4 08 85 C0 75 0E 83 05 80 P..........u....
00739DA0 64 A1 00 01 B8 80 64 A1 00 5E C3 56 8B 74 24 0C d.....d..^.V.t$.
00739DB0 56 E8 4A FC FF FF 83 C4 08 85 C0 75 02 5E C3 83 V.J........u.^..
00739DC0 00 FF 75 0C 8B 48 04 8B 51 18 50 FF D2 83 C4 04 ..u..H..Q.P.....
00739DD0 83 06 01 8B C6 5E C3 CC CC CC CC CC CC CC CC CC .....^..........
00739DE0 51 56 8B 74 24 10 8B 46 04 3D 90 B4 A2 00 57 C7 QV.t$..F.=....W.
00739DF0 44 24 08 00 00 00 00 74 6D 3D F8 B6 A2 00 74 66 D$.....tm=....tf
00739E00 68 90 B4 A2 00 50 E8 65 B8 F9 FF 83 C4 08 85 C0 h....P.e........
00739E10 75 54 8B 46 04 68 F8 B6 A2 00 50 E8 50 B8 F9 FF uT.F.h....P.P...
00739E20 83 C4 08 85 C0 75 3F 56 B8 90 B4 A2 00 E8 7E ED .....u?V......~.
00739E30 FF FF 8B F0 83 C4 04 85 F6 75 04 5F 5E 59 C3 8B .........u._^Y..
00739E40 4C 24 10 56 51 E8 96 FF FF FF 83 C4 08 83 06 FF L$.VQ...........
00739E50 8B F8 75 0C 8B 56 04 8B 42 18 56 FF D0 83 C4 04 ..u..V..B.V.....
00739E60 8B C7 5F 5E 59 C3 8B 7C 24 10 8B 4F 0C 3B 4E 0C .._^Y..|$..O.;N.
00739E70 7E 10 83 05 D8 91 A1 00 01 5F B8 D8 91 A1 00 5E ~........_.....^
00739E80 59 C3 53 8D 54 24 18 52 8D 5C 24 10 8B CF E8 7D Y.S.T$.R.\$....}
00739E90 E4 FF FF 83 C4 04 85 C0 74 44 8D 9B 00 00 00 00 ........tD......
00739EA0 8B 44 24 18 8B 08 8B 50 04 8B 46 18 51 52 56 FF .D$....P..F.QRV.
00739EB0 D0 83 C4 0C 85 C0 74 37 8B 40 04 85 C0 74 37 3B ......t7.@...t7;
00739EC0 05 20 DF A6 00 74 2F 8D 4C 24 18 51 8D 5C 24 10 . ...t/.L$.Q.\$.
00739ED0 8B CF E8 39 E4 FF FF 83 C4 04 85 C0 75 C2 83 05 ...9........u...
00739EE0 E4 91 A1 00 01 5B 5F B8 E4 91 A1 00 5E 59 C3 5B .....[_.....^Y.[
00739EF0 5F 33 C0 5E 59 C3 83 05 D8 91 A1 00 01 5B 5F B8 _3.^Y........[_.
00739F00 D8 91 A1 00 5E 59 C3 CC CC CC CC CC CC CC CC CC ....^Y..........
00739F10 56 8B 74 24 0C 8B 46 04 3D 90 B4 A2 00 74 6B 3D V.t$..F.=....tk=
00739F20 F8 B6 A2 00 74 64 68 90 B4 A2 00 50 E8 3F B7 F9 ....tdh....P.?..
00739F30 FF 83 C4 08 85 C0 75 52 8B 46 04 68 F8 B6 A2 00 ......uR.F.h....
00739F40 50 E8 2A B7 F9 FF 83 C4 08 85 C0 75 3D 56 B8 90 P.*........u=V..
00739F50 B4 A2 00 E8 58 EC FF FF 8B F0 83 C4 04 85 F6 75 ....X..........u
00739F60 02 5E C3 8B 4C 24 08 57 56 51 E8 A1 FF FF FF 83 .^..L$.WVQ......
00739F70 C4 08 83 06 FF 8B F8 75 0C 8B 56 04 8B 42 18 56 .......u..V..B.V
00739F80 FF D0 83 C4 04 8B C7 5F 5E C3 8B 4C 24 08 51 56 ......._^..L$.QV
00739F90 E8 4B FE FF FF 83 C4 08 5E C3 CC CC CC CC CC CC .K......^.......
00739FA0 56 8B 74 24 0C 8B 46 04 3D 90 B4 A2 00 74 70 3D V.t$..F.=....tp=
00739FB0 F8 B6 A2 00 74 69 68 90 B4 A2 00 50 E8 AF B6 F9 ....tih....P....
00739FC0 FF 83 C4 08 85 C0 75 57 8B 46 04 68 F8 B6 A2 00 ......uW.F.h....
00739FD0 50 E8 9A B6 F9 FF 83 C4 08 85 C0 75 42 8B 44 24 P..........uB.D$
00739FE0 10 83 F8 02 75 0E 83 05 D8 91 A1 00 01 B8 D8 91 ....u...........
00739FF0 A1 00 5E C3 83 F8 03 75 0E 83 05 E4 91 A1 00 01 ..^....u........
0073A000 B8 E4 91 A1 00 5E C3 8B 0D 7C 6B A1 00 68 8C C5 .....^...|k..h..
0073A010 8D 00 51 E8 68 6F FA FF 83 C4 08 33 C0 5E C3 8B ..Q.ho.....3.^..
0073A020 44 24 10 83 F8 05 0F 87 C9 00 00 00 FF 24 85 04 D$...........$..
0073A030 A1 73 00 8B 54 24 08 8B 42 0C 3B 46 0C 75 A7 8B .s..T$..B.;F.u..
0073A040 4A 5C 83 F9 FF 74 0C 8B 46 5C 83 F8 FF 74 04 3B J\...t..F\...t.;
0073A050 C8 75 93 56 52 E8 86 FD FF FF 83 C4 08 5E C3 8B .u.VR........^..
0073A060 4C 24 08 6A 02 56 51 E8 34 FF FF FF 8B F0 83 C4 L$.j.VQ.4.......
0073A070 0C 85 F6 74 A6 57 56 E8 84 4A FA FF 50 E8 DE B2 ...t.WV..J..P...
0073A080 FA FF 83 C4 08 83 06 FF 8B F8 75 0C 8B 56 04 8B ..........u..V..
0073A090 42 18 56 FF D0 83 C4 04 8B C7 5F 5E C3 8B 4C 24 B.V......._^..L$
0073A0A0 08 56 51 E8 38 FD FF FF 83 C4 08 5E C3 8B 54 24 .VQ.8......^..T$
0073A0B0 08 56 52 E8 58 FE FF FF 83 C4 08 5E C3 8B 44 24 .VR.X......^..D$
0073A0C0 08 8B 48 0C 3B 4E 0C 0F 8D 19 FF FF FF 56 50 E8 ..H.;N.......VP.
0073A0D0 0C FD FF FF 83 C4 08 5E C3 8B 44 24 08 8B 50 0C .......^..D$..P.
0073A0E0 3B 56 0C 0F 8E FD FE FF FF 56 50 E8 20 FE FF FF ;V.......VP. ...
0073A0F0 83 C4 08 5E C3 83 05 80 64 A1 00 01 B8 80 64 A1 ...^....d.....d.
0073A100 00 5E C3 90 BD A0 73 00 9D A0 73 00 33 A0 73 00 .^....s...s.3.s.
0073A110 5F A0 73 00 D9 A0 73 00 AD A0 73 00 CC CC CC CC _.s...s...s.....
0073A120 A1 7C 6B A1 00 68 A8 C5 8D 00 50 E8 50 6E FA FF .|k..h....P.Pn..
0073A130 83 C4 08 83 C8 FF C3 CC CC CC CC CC CC CC CC CC ................
0073A140 8B 44 24 08 8B 4C 24 04 E8 E3 DF FF FF 83 F8 FF .D$..L$.........
0073A150 75 03 33 C0 C3 83 05 B8 63 A1 00 01 B8 B8 63 A1 u.3.....c.....c.
0073A160 00 C3 CC CC CC CC CC CC CC CC CC CC CC CC CC CC ................
0073A170 53 56 8B 74 24 10 81 7E 04 50 B4 A1 00 57 8B 7C SV.t$..~.P...W.|
0073A180 24 10 75 08 8B 46 0C 83 F8 FF 75 0E 56 E8 4E 41 $.u..F....u.V.NA
0073A190 FA FF 83 C4 04 83 F8 FF 74 31 50 8B 47 18 56 57 ........t1P.G.VW
0073A1A0 FF D0 83 C4 0C 85 C0 74 22 8B 40 04 85 C0 74 13 .......t".@...t.
0073A1B0 3B 05 20 DF A6 00 74 0B BF 01 00 00 00 8B C7 5F ;. ...t........_
0073A1C0 5E 5B C3 33 FF 8B C7 5F 5E 5B C3 8B 46 04 3D 90 ^[.3..._^[..F.=.
0073A1D0 B4 A2 00 74 2E 3D F8 B6 A2 00 74 27 68 90 B4 A2 ...t.=....t'h...
0073A1E0 00 50 E8 89 B4 F9 FF 83 C4 08 85 C0 75 15 8B 4E .P..........u..N
0073A1F0 04 68 F8 B6 A2 00 51 E8 74 B4 F9 FF 83 C4 08 85 .h....Q.t.......
0073A200 C0 74 13 8B 15 7C 6B A1 00 52 E8 01 6F FA FF 83 .t...|k..R..o...
0073A210 C4 04 85 C0 75 07 5F 5E 83 C8 FF 5B C3 E8 3E 6F ....u._^...[..>o
0073A220 FA FF 6A 00 B8 F8 B6 A2 00 E8 82 E9 FF FF 8B D8 ..j.............
0073A230 83 C4 04 85 DB 74 DF 56 E8 03 EC FF FF 53 57 E8 .....t.V.....SW.
0073A240 2C FF FF FF 56 8B F8 E8 F4 EB FF FF 83 C4 10 83 ,...V...........
0073A250 03 FF 75 0C 8B 43 04 8B 48 18 53 FF D1 83 C4 04 ..u..C..H.S.....
0073A260 8B C7 5F 5E 5B C3 CC CC CC CC CC CC CC CC CC CC .._^[...........
0073A270 8B 44 24 08 8B 4C 24 04 50 51 E8 F1 FE FF FF 83 .D$..L$.PQ......
0073A280 C4 08 83 F8 FF 75 03 33 C0 C3 50 E8 D0 B0 FA FF .....u.3..P.....
0073A290 83 C4 04 C3 CC CC CC CC CC CC CC CC CC CC CC CC ................
0073A2A0 56 8B 74 24 08 57 8B 7C 24 10 E8 11 DF FF FF 83 V.t$.W.|$.......
0073A2B0 F8 FF 0F 85 A1 00 00 00 8B 47 04 3D 90 B4 A2 00 .........G.=....
0073A2C0 74 32 3D F8 B6 A2 00 74 2B 68 90 B4 A2 00 50 E8 t2=....t+h....P.
0073A2D0 9C B3 F9 FF 83 C4 08 85 C0 75 19 8B 47 04 68 F8 .........u..G.h.
0073A2E0 B6 A2 00 50 E8 87 B3 F9 FF 83 C4 08 85 C0 0F 84 ...P............
0073A2F0 9B 00 00 00 8B 0D 7C 6B A1 00 51 E8 10 6E FA FF ......|k..Q..n..
0073A300 83 C4 04 85 C0 0F 84 84 00 00 00 53 E8 4F 6E FA ...........S.On.
0073A310 FF 6A 00 B8 F8 B6 A2 00 E8 93 E8 FF FF 8B D8 83 .j..............
0073A320 C4 04 85 DB 75 04 5B 5F 5E C3 57 E8 10 EB FF FF ....u.[_^.W.....
0073A330 53 56 E8 69 FF FF FF 57 8B F0 E8 01 EB FF FF 83 SV.i...W........
0073A340 C4 10 83 03 FF 75 0C 8B 53 04 8B 42 18 53 FF D0 .....u..S..B.S..
0073A350 83 C4 04 5B 5F 8B C6 5E C3 85 C0 75 37 57 6A 01 ...[_..^...u7Wj.
0073A360 E8 1B 5C FA FF 8B F0 83 C4 08 85 F6 74 21 8B 0D ..\.........t!..
0073A370 28 7E A1 00 56 51 E8 15 6B FA FF 83 C4 08 83 06 (~..VQ..k.......
0073A380 FF 75 0C 8B 56 04 8B 42 18 56 FF D0 83 C4 04 5F .u..V..B.V....._
0073A390 33 C0 5E C3 83 05 B8 63 A1 00 01 5F B8 B8 63 A1 3.^....c..._..c.
0073A3A0 00 5E C3 CC CC CC CC CC CC CC CC CC CC CC CC CC .^..............
0073A3B0 56 8B 74 24 08 57 8B 7C 24 10 E8 01 DE FF FF 83 V.t$.W.|$.......
0073A3C0 F8 FF 0F 85 9E 00 00 00 8B 47 04 3D 90 B4 A2 00 .........G.=....
0073A3D0 74 2E 3D F8 B6 A2 00 74 27 68 90 B4 A2 00 50 E8 t.=....t'h....P.
0073A3E0 8C B2 F9 FF 83 C4 08 85 C0 75 15 8B 47 04 68 F8 .........u..G.h.
0073A3F0 B6 A2 00 50 E8 77 B2 F9 FF 83 C4 08 85 C0 74 13 ...P.w........t.
0073A400 8B 0D 7C 6B A1 00 51 E8 04 6D FA FF 83 C4 04 85 ..|k..Q..m......
0073A410 C0 75 05 5F 33 C0 5E C3 53 E8 42 6D FA FF 6A 00 .u._3.^.S.Bm..j.
0073A420 B8 F8 B6 A2 00 E8 86 E7 FF FF 8B D8 83 C4 04 85 ................
0073A430 DB 75 04 5B 5F 5E C3 57 E8 03 EA FF FF 53 56 E8 .u.[_^.W.....SV.
0073A440 6C FF FF FF 57 8B F0 E8 F4 E9 FF FF 83 C4 10 83 l...W...........
0073A450 03 FF 75 0C 8B 53 04 8B 42 18 53 FF D0 83 C4 04 ..u..S..B.S.....
0073A460 5B 5F 8B C6 5E C3 83 05 B8 63 A1 00 01 5F B8 B8 [_..^....c..._..
0073A470 63 A1 00 5E C3 CC CC CC CC CC CC CC CC CC CC CC c..^............
0073A480 51 53 55 8B 6C 24 10 56 57 55 33 FF 33 F6 E8 2D QSU.l$.VWU3.3..-
0073A490 91 FC FF 8B D8 83 C4 04 85 DB 0F 84 8B 00 00 00 ................
0073A4A0 53 6A 01 E8 D8 5A FA FF 8B F8 83 C4 08 85 FF 74 Sj...Z.........t
0073A4B0 4A 68 7C C1 8A 00 55 E8 A4 52 FA FF 8B F0 83 C4 Jh|...U..R......
0073A4C0 08 85 F6 75 11 E8 96 6C FA FF 83 05 B8 63 A1 00 ...u...l.....c..
0073A4D0 01 BE B8 63 A1 00 8B 45 04 56 57 50 6A 03 E8 9D ...c...E.VWPj...
0073A4E0 5A FA FF 83 C4 10 83 07 FF 8B E8 75 10 8B 4F 04 Z..........u..O.
0073A4F0 8B 51 18 57 FF D2 83 C4 04 EB 02 8B EE 83 03 FF .Q.W............
0073A500 75 0C 8B 43 04 8B 48 18 53 FF D1 83 C4 04 85 F6 u..C..H.S.......
0073A510 74 11 83 06 FF 75 0C 8B 56 04 8B 42 18 56 FF D0 t....u..V..B.V..
0073A520 83 C4 04 5F 5E 8B C5 5D 5B 59 C3 8B C7 5F 5E 5D ..._^..][Y..._^]
0073A530 5B 59 C3 CC CC CC CC CC CC CC CC CC CC CC CC CC [Y..............
0073A540 51 57 8B 7C 24 0C 8B 47 04 3D 90 B4 A2 00 C7 44 QW.|$..G.=.....D
0073A550 24 04 00 00 00 00 74 34 3D F8 B6 A2 00 74 2D 68 $.....t4=....t-h
0073A560 90 B4 A2 00 50 E8 06 B1 F9 FF 83 C4 08 85 C0 75 ....P..........u
0073A570 1B 8B 47 04 68 F8 B6 A2 00 50 E8 F1 B0 F9 FF 83 ..G.h....P......
0073A580 C4 08 85 C0 75 06 83 C8 FF 5F 59 C3 8B 57 04 8B ....u...._Y..W..
0073A590 42 0C 8D 4C 24 04 51 8B 4C 24 14 6A 01 6A 00 50 B..L$.Q.L$.j.j.P
0073A5A0 51 E8 2A B5 FA FF 83 C4 14 85 C0 74 D9 57 E8 7D Q.*........t.W.}
0073A5B0 DC FF FF 8B 44 24 08 83 C4 04 85 C0 C7 47 5C FF ....D$.......G\.
0073A5C0 FF FF FF 75 03 5F 59 C3 E8 E3 E3 FF FF 5F 59 C3 ...u._Y......_Y.

;; fn0073A5D0: 0073A5D0
;;   Called from:
;;     00736F42 (in fn007367D0)
fn0073A5D0 proc
	mov	eax,0A2B490h
	jmp	738BB0h
0073A5DA                               CC CC CC CC CC CC           ......

;; fn0073A5E0: 0073A5E0
;;   Called from:
;;     00736F67 (in fn007367D0)
fn0073A5E0 proc
	mov	eax,[esp+4h]
	test	eax,eax
	push	esi
	jnz	73A5F4h

l0073A5E9:
	push	eax
	call	6DFD20h
	add	esp,4h
	jmp	73A5FFh

l0073A5F4:
	push	eax
	push	1h
	call	6DFF80h
	add	esp,8h

l0073A5FF:
	mov	esi,eax
	test	esi,esi
	jnz	73A607h

l0073A605:
	pop	esi
	ret

l0073A607:
	push	edi
	push	0h
	push	esi
	push	0A2B6F8h
	call	738CB0h
	add	esp,0Ch
	add	dword ptr [esi],0FFh
	mov	edi,eax
	jnz	73A62Bh

l0073A61F:
	mov	eax,[esi+4h]
	mov	ecx,[eax+18h]
	push	esi
	call	ecx
	add	esp,4h

l0073A62B:
	mov	eax,edi
	pop	edi
	pop	esi
	ret
0073A630 56 8B 74 24 08 8B 46 04 3D 90 B4 A2 00 74 45 3D V.t$..F.=....tE=
0073A640 F8 B6 A2 00 74 3E 68 90 B4 A2 00 50 E8 1F B0 F9 ....t>h....P....
0073A650 FF 83 C4 08 85 C0 75 2C 8B 46 04 68 F8 B6 A2 00 ......u,.F.h....
0073A660 50 E8 0A B0 F9 FF 83 C4 08 85 C0 75 17 68 70 08 P..........u.hp.
0073A670 00 00 68 C8 C5 8D 00 E8 44 77 FA FF 83 C4 08 83 ..h.....Dw......
0073A680 C8 FF 5E C3 53 8B 5C 24 10 8D 4C 24 0C 51 8B CE ..^.S.\$..L$.Q..
0073A690 E8 7B DC FF FF 83 C4 04 85 C0 5B 75 02 5E C3 8B .{........[u.^..
0073A6A0 44 24 08 8B 50 04 8B 4C 24 10 89 11 8B 10 8B 44 D$..P..L$......D
0073A6B0 24 14 89 10 B8 01 00 00 00 5E C3 CC CC CC CC CC $........^......
0073A6C0 8B 44 24 04 83 78 28 00 74 0D 8B 40 40 50 E8 CD .D$..x(.t..@@P..
0073A6D0 A9 FC FF 83 C4 04 C3 8B 48 3C 8B 50 10 51 52 E8 ........H<.P.QR.
0073A6E0 6C AE FF FF 83 C4 08 50 E8 B3 A9 FC FF 83 C4 04 l......P........
0073A6F0 C3 CC CC CC CC CC CC CC CC CC CC CC CC CC CC CC ................
0073A700 81 EC CC 00 00 00 53 8B 9C 24 D8 00 00 00 8B 43 ......S..$.....C
0073A710 04 56 33 F6 3D E8 E7 A1 00 89 74 24 08 89 74 24 .V3.=.....t$..t$
0073A720 14 89 74 24 24 89 74 24 10 89 74 24 20 74 31 68 ..t$$.t$..t$ t1h
0073A730 E8 E7 A1 00 50 E8 36 AF F9 FF 83 C4 08 85 C0 75 ....P.6........u
0073A740 1F A1 2C 7E A1 00 68 78 C7 8D 00 50 E8 2F 68 FA ..,~..hx...P./h.
0073A750 FF 83 C4 08 5E 83 C8 FF 5B 81 C4 CC 00 00 00 C3 ....^...[.......
0073A760 57 8B BC 24 DC 00 00 00 39 77 28 75 21 8B 0D 2C W..$....9w(u!..,
0073A770 7E A1 00 68 48 C7 8D 00 51 E8 52 6E FA FF 83 C4 ~..hH...Q.Rn....
0073A780 08 5F 5E 83 C8 FF 5B 81 C4 CC 00 00 00 C3 53 E8 ._^...[.......S.
0073A790 0C AA FC FF 8B D8 8B 47 10 83 C4 04 3B 58 38 7D .......G....;X8}
0073A7A0 22 8B 15 2C 7E A1 00 53 68 1C C7 8D 00 52 E8 1D "..,~..Sh....R..
0073A7B0 6E FA FF 83 C4 0C 5F 5E 83 C8 FF 5B 81 C4 CC 00 n....._^...[....
0073A7C0 00 00 C3 8B 40 3C 55 8D 4C 24 18 51 8D 54 24 30 ....@<U.L$.Q.T$0
0073A7D0 52 50 E8 49 FC FA FF 8B 47 10 8B 68 38 83 C4 0C RP.I....G..h8...
0073A7E0 39 74 24 18 7E 3E 8B 54 24 2C 83 C9 FF 8D 42 01 9t$.~>.T$,....B.
0073A7F0 2B CA EB 04 8B 6C 24 30 0F BE 50 FF 03 F2 0F BE +....l$0..P.....
0073A800 10 03 EA 3B EB 89 6C 24 30 7D 0E 83 C0 02 8D 14 ...;..l$0}......
0073A810 01 3B 54 24 18 7C DD EB 0B 83 FE FF 89 74 24 14 .;T$.|.......t$.
0073A820 8B DD 75 22 A1 2C 7E A1 00 53 68 F0 C6 8D 00 50 ..u".,~..Sh....P
0073A830 E8 9B 6D FA FF 83 C4 0C 5D 5F 5E 83 C8 FF 5B 81 ..m.....]_^...[.
0073A840 C4 CC 00 00 00 C3 8B 47 10 8B 40 18 8D 4C 24 1C .......G..@..L$.
0073A850 51 8D 54 24 14 52 50 E8 C4 FB FA FF 8B 47 3C 83 Q.T$.RP......G<.
0073A860 C4 0C 3B F0 89 74 24 34 7C 0E 89 44 24 34 7E 08 ..;..t$4|..D$4~.
0073A870 8B DE 89 5C 24 20 EB 06 89 44 24 20 8B D8 8B 6C ...\$ ...D$ ...l
0073A880 24 10 8A 04 2E 3C 04 0F 84 FA 01 00 00 3C 01 0F $....<.......<..
0073A890 84 F2 01 00 00 6A 50 83 C8 FF 8D 4C 24 40 6A 00 .....jP....L$@j.
0073A8A0 51 89 44 24 30 89 44 24 44 E8 72 A7 F5 FF 6A 50 Q.D$0.D$D.r...jP
0073A8B0 8D 94 24 9C 00 00 00 6A 00 52 E8 61 A7 F5 FF 33 ..$....j.R.a...3
0073A8C0 D2 83 C4 18 33 C0 39 54 24 1C 0F 8E DE 00 00 00 ....3.9T$.......
0073A8D0 8D B4 24 8C 00 00 00 83 EE 04 8D 9B 00 00 00 00 ..$.............
0073A8E0 8A 1C 2A 0F B6 CB 83 C1 A9 83 F9 23 77 46 0F B6 ..*........#wF..
0073A8F0 89 B8 AA 73 00 FF 24 8D A8 AA 73 00 89 54 84 3C ...s..$...s..T.<
0073A900 83 C0 01 83 C6 04 C7 06 00 00 00 00 EB 26 8B 4C .............&.L
0073A910 84 38 80 3C 29 7A 75 16 C7 06 01 00 00 00 EB 14 .8.<)zu.........
0073A920 85 C0 7E 10 8B 4C 84 38 80 3C 29 7A 75 06 83 E8 ..~..L.8.<)zu...
0073A930 01 83 EE 04 3B 54 24 14 74 05 3B 57 3C 75 42 83 ....;T$.t.;W<uB.
0073A940 F8 01 8D 48 FF 7C 3A EB 07 8D A4 24 00 00 00 00 ...H.|:....$....
0073A950 83 BC 8C 8C 00 00 00 00 75 07 83 E9 01 79 F1 EB ........u....y..
0073A960 20 8B 4C 8C 3C 83 F9 FF 74 17 3B 54 24 14 75 04  .L.<...t.;T$.u.
0073A970 89 4C 24 38 3B 57 3C 8B 6C 24 10 75 04 89 4C 24 .L$8;W<.l$.u..L$
0073A980 24 80 FB 5A 72 03 83 C2 02 83 C2 01 3B 54 24 1C $..Zr.......;T$.
0073A990 0F 8C 4A FF FF FF 8B 54 24 24 39 54 24 38 74 0A ..J....T$$9T$8t.
0073A9A0 68 C4 C6 8D 00 E9 E2 00 00 00 8B 5C 24 20 8B 4C h..........\$ .L
0073A9B0 24 34 8B 74 24 28 33 D2 3B CB 7D 2E 8D 64 24 00 $4.t$(3.;.}..d$.
0073A9C0 8A 04 29 3C 57 74 0D 3C 77 76 0C 3C 7A 77 08 83 ..)<Wt.<wv.<zw..
0073A9D0 C2 01 EB 03 83 EA 01 3B F2 0F 4D F2 3C 5A 72 03 .......;..M.<Zr.
0073A9E0 83 C1 02 83 C1 01 3B CB 7C D6 8B 47 44 8D 0C 30 ......;.|..GD..0
0073A9F0 8B 74 24 14 3B 77 3C 7E 05 8D 1C 10 EB 04 8B D8 .t$.;w<~........
0073AA00 2B DA 3B D9 7E 0E 8B 0D 2C 7E A1 00 68 9C C6 8D +.;.~...,~..h...
0073AA10 00 51 EB 7E 3B C3 7E 54 BD FC FF FF FF 8D 49 00 .Q.~;.~T......I.
0073AA20 83 47 44 FF 8B 47 44 8D 54 40 12 8B 47 24 2B 47 .GD..GD.T@..G$+G
0073AA30 20 8D 34 97 C1 F8 02 3B 46 08 7E 2B 8D 64 24 00  .4....;F.~+.d$.
0073AA40 01 6F 24 8B 47 24 8B 00 83 00 FF 75 0C 8B 48 04 .o$.G$.....u..H.
0073AA50 8B 51 18 50 FF D2 83 C4 04 8B 47 24 2B 47 20 C1 .Q.P......G$+G .
0073AA60 F8 02 3B 46 08 7F D9 39 5F 44 7F B4 8B 4C 24 30 ..;F...9_D...L$0
0073AA70 8B 54 24 14 5D 89 4F 40 89 57 3C 5F 5E 33 C0 5B .T$.].O@.W<_^3.[
0073AA80 81 C4 CC 00 00 00 C3 68 68 C6 8D 00 A1 2C 7E A1 .......hh....,~.
0073AA90 00 50 E8 E9 64 FA FF 83 C4 08 5D 5F 5E 83 C8 FF .P..d.....]_^...
0073AAA0 5B 81 C4 CC 00 00 00 C3 0E A9 73 00 20 A9 73 00 [.........s. .s.
0073AAB0 FC A8 73 00 34 A9 73 00 00 01 03 03 03 03 03 03 ..s.4.s.........
0073AAC0 03 03 03 03 03 03 03 03 03 03 03 03 03 03 03 03 ................
0073AAD0 03 03 03 03 03 03 03 03 03 02 02 02 CC CC CC CC ................
0073AAE0 8B 44 24 04 8B 40 28 85 C0 75 05 B8 B8 63 A1 00 .D$..@(..u...c..
0073AAF0 83 00 01 C3 CC CC CC CC CC CC CC CC CC CC CC CC ................
0073AB00 8B 44 24 08 85 C0 56 8B 74 24 08 57 8B 7E 28 74 .D$...V.t$.W.~(t
0073AB10 03 83 00 01 85 C0 89 46 28 74 13 8B 46 3C 8B 4E .......F(t..F<.N
0073AB20 10 50 51 E8 28 AA FF FF 83 C4 08 89 46 40 85 FF .PQ.(.......F@..
0073AB30 74 11 83 07 FF 75 0C 8B 57 04 8B 42 18 57 FF D0 t....u..W..B.W..
0073AB40 83 C4 04 5F 33 C0 5E C3 CC CC CC CC CC CC CC CC ..._3.^.........
0073AB50 8B 44 24 04 8B 48 38 8B 51 04 8B 40 14 33 C9 3B .D$..H8.Q..@.3.;
0073AB60 42 10 0F 95 C1 51 E8 F5 A7 FA FF 83 C4 04 C3 CC B....Q..........
0073AB70 56 8B 74 24 08 56 E8 05 43 FC FF 83 C4 04 83 3D V.t$.V..C......=
0073AB80 C4 C4 A6 00 32 0F 8D A9 01 00 00 83 05 C4 C4 A6 ....2...........
0073AB90 00 01 53 8B 5E 20 55 57 8D BE 38 01 00 00 33 ED ..S.^ UW..8...3.
0073ABA0 3B FB 73 20 8B 07 3B C5 74 13 89 2F 83 00 FF 75 ;.s ..;.t../...u
0073ABB0 0C 8B 48 04 8B 51 18 50 FF D2 83 C4 04 83 C7 04 ..H..Q.P........
0073ABC0 3B FB 72 E0 8B 46 24 3B C5 74 29 3B D8 8B FB 73 ;.r..F$;.t);...s
0073ABD0 23 8B 07 3B C5 74 15 83 00 FF 8B 07 39 28 75 0C #..;.t......9(u.
0073ABE0 8B 48 04 8B 51 18 50 FF D2 83 C4 04 83 C7 04 3B .H..Q.P........;
0073ABF0 7E 24 72 DD 8B 46 0C 3B C5 74 16 83 00 FF 8B 46 ~$r..F.;.t.....F
0073AC00 0C 39 28 75 0C 8B 48 04 8B 51 18 50 FF D2 83 C4 .9(u..H..Q.P....
0073AC10 04 8B 46 14 83 00 FF 8B 46 14 39 28 75 0C 8B 48 ..F.....F.9(u..H
0073AC20 04 8B 51 18 50 FF D2 83 C4 04 8B 46 18 83 00 FF ..Q.P......F....
0073AC30 8B 46 18 39 28 75 0C 8B 48 04 8B 51 18 50 FF D2 .F.9(u..H..Q.P..
0073AC40 83 C4 04 8B 46 1C 3B C5 74 14 89 6E 1C 83 00 FF ....F.;.t..n....
0073AC50 75 0C 8B 48 04 8B 51 18 50 FF D2 83 C4 04 8B 46 u..H..Q.P......F
0073AC60 28 3B C5 74 14 89 6E 28 83 00 FF 75 0C 8B 48 04 (;.t..n(...u..H.
0073AC70 8B 51 18 50 FF D2 83 C4 04 8B 46 2C 3B C5 74 14 .Q.P......F,;.t.
0073AC80 89 6E 2C 83 00 FF 75 0C 8B 48 04 8B 51 18 50 FF .n,...u..H..Q.P.
0073AC90 D2 83 C4 04 8B 46 30 3B C5 74 14 89 6E 30 83 00 .....F0;.t..n0..
0073ACA0 FF 75 0C 8B 48 04 8B 51 18 50 FF D2 83 C4 04 8B .u..H..Q.P......
0073ACB0 46 34 3B C5 74 14 89 6E 34 83 00 FF 75 0C 8B 48 F4;.t..n4...u..H
0073ACC0 04 8B 51 18 50 FF D2 83 C4 04 8B 7E 10 39 6F 40 ..Q.P......~.9o@
0073ACD0 75 05 89 77 40 EB 2C 81 3D 34 DF A6 00 C8 00 00 u..w@.,.=4......
0073ACE0 00 7D 17 A1 30 DF A6 00 83 05 34 DF A6 00 01 89 .}..0.....4.....
0073ACF0 46 0C 89 35 30 DF A6 00 EB 09 56 E8 D0 42 FC FF F..50.....V..B..
0073AD00 83 C4 04 83 07 FF 75 0C 8B 4F 04 8B 51 18 57 FF ......u..O..Q.W.
0073AD10 D2 83 C4 04 83 2D C4 C4 A6 00 01 39 2D C8 C4 A6 .....-.....9-...
0073AD20 00 74 1C 39 2D C4 C4 A6 00 7F 14 5F 5D 5B 5E E9 .t.9-......_][^.
0073AD30 2C 41 FA FF 56 E8 06 41 FA FF 83 C4 04 5E C3 5F ,A..V..A.....^._
0073AD40 5D 5B 5E C3 CC CC CC CC CC CC CC CC CC CC CC CC ][^.............
0073AD50 55 8B 6C 24 08 8B 45 0C 85 C0 56 8B 74 24 14 57 U.l$..E...V.t$.W
0073AD60 8B 7C 24 14 74 0F 56 50 FF D7 83 C4 08 85 C0 0F .|$.t.VP........
0073AD70 85 17 01 00 00 8B 45 10 85 C0 74 0F 56 50 FF D7 ......E...t.VP..
0073AD80 83 C4 08 85 C0 0F 85 01 01 00 00 8B 45 14 85 C0 ............E...
0073AD90 74 0F 56 50 FF D7 83 C4 08 85 C0 0F 85 EB 00 00 t.VP............
0073ADA0 00 8B 45 18 85 C0 74 0F 56 50 FF D7 83 C4 08 85 ..E...t.VP......
0073ADB0 C0 0F 85 D5 00 00 00 8B 45 1C 85 C0 74 0F 56 50 ........E...t.VP
0073ADC0 FF D7 83 C4 08 85 C0 0F 85 BF 00 00 00 8B 45 28 ..............E(
0073ADD0 85 C0 74 0F 56 50 FF D7 83 C4 08 85 C0 0F 85 A9 ..t.VP..........
0073ADE0 00 00 00 8B 45 2C 85 C0 74 0F 56 50 FF D7 83 C4 ....E,..t.VP....
0073ADF0 08 85 C0 0F 85 93 00 00 00 8B 45 30 85 C0 74 0F ..........E0..t.
0073AE00 56 50 FF D7 83 C4 08 85 C0 0F 85 7D 00 00 00 8B VP.........}....
0073AE10 45 34 85 C0 74 0B 56 50 FF D7 83 C4 08 85 C0 75 E4..t.VP.......u
0073AE20 6B 8B 45 10 8B 48 2C 8B 50 28 8B 49 08 03 4A 08 k.E..H,.P(.I..J.
0073AE30 8B 50 0C 53 8D 9D 38 01 00 00 8D 6C 11 FF 85 ED .P.S..8....l....
0073AE40 7C 19 8B 03 85 C0 74 0B 56 50 FF D7 83 C4 08 85 |.....t.VP......
0073AE50 C0 75 38 83 C3 04 83 ED 01 79 E7 8B 6C 24 14 8B .u8......y..l$..
0073AE60 45 24 85 C0 74 23 8B 5D 20 3B D8 73 1C 8D 49 00 E$..t#.] ;.s..I.
0073AE70 8B 03 85 C0 74 0B 56 50 FF D7 83 C4 08 85 C0 75 ....t.VP.......u
0073AE80 0A 83 C3 04 3B 5D 24 72 E7 33 C0 5B 5F 5E 5D C3 ....;]$r.3.[_^].
0073AE90 55 56 8B 74 24 0C 8B 46 24 89 44 24 0C 8B 46 2C UV.t$..F$.D$..F,
0073AEA0 33 ED 3B C5 57 89 6E 24 74 14 89 6E 2C 83 00 FF 3.;.W.n$t..n,...
0073AEB0 75 0C 8B 48 04 8B 51 18 50 FF D2 83 C4 04 8B 46 u..H..Q.P......F
0073AEC0 30 3B C5 74 14 89 6E 30 83 00 FF 75 0C 8B 48 04 0;.t..n0...u..H.
0073AED0 8B 51 18 50 FF D2 83 C4 04 8B 46 34 3B C5 74 14 .Q.P......F4;.t.
0073AEE0 89 6E 34 83 00 FF 75 0C 8B 48 04 8B 51 18 50 FF .n4...u..H..Q.P.
0073AEF0 D2 83 C4 04 8B 46 28 3B C5 74 14 89 6E 28 83 00 .....F(;.t..n(..
0073AF00 FF 75 0C 8B 48 04 8B 51 18 50 FF D2 83 C4 04 8B .u..H..Q.P......
0073AF10 46 10 8B 48 2C 8B 50 28 8B 49 08 03 4A 08 8B 50 F..H,.P(.I..J..P
0073AF20 0C 53 8D 5C 11 FF 3B DD 8D BE 38 01 00 00 7C 21 .S.\..;...8...|!
0073AF30 8B 07 3B C5 74 13 89 2F 83 00 FF 75 0C 8B 48 04 ..;.t../...u..H.
0073AF40 8B 51 18 50 FF D2 83 C4 04 83 C7 04 83 EB 01 79 .Q.P...........y
0073AF50 DF 8B 7C 24 14 3B FD 5B 74 27 8B 76 20 3B F7 73 ..|$.;.[t'.v ;.s
0073AF60 20 8B 06 3B C5 74 13 89 2E 83 00 FF 75 0C 8B 48  ..;.t......u..H
0073AF70 04 8B 51 18 50 FF D2 83 C4 04 83 C6 04 3B F7 72 ..Q.P........;.r
0073AF80 E0 5F 5E 5D C3 CC CC CC CC CC CC CC CC CC CC CC ._^]............
0073AF90 68 A4 41 8D 00 E8 D6 6A FB FF 33 C9 83 C4 04 85 h.A....j..3.....
0073AFA0 C0 0F 95 C1 A3 2C DF A6 00 8B C1 C3 CC CC CC CC .....,..........

;; fn0073AFB0: 0073AFB0
;;   Called from:
;;     00707892 (in fn00707850)
;;     0070B643 (in fn0070B600)
fn0073AFB0 proc
	sub	esp,8h
	mov	eax,[esp+0Ch]
	push	ebp
	push	edi
	mov	edi,[eax+8h]
	test	edi,edi
	mov	[esp+0Ch],edi
	jz	73AFF7h

l0073AFC4:
	mov	ecx,[edi+18h]
	cmp	ecx,[esp+1Ch]
	jnz	73AFF7h

l0073AFCD:
	mov	ebp,[edi+14h]

l0073AFD0:
	add	dword ptr [ebp+0h],1h

l0073AFD4:
	push	ebx
	mov	ebx,[esp+1Ch]
	push	esi
	mov	esi,[ebx+40h]
	test	esi,esi
	jz	73B08Ch

l0073AFE5:
	mov	dword ptr [ebx+40h],0h
	mov	dword ptr [esi],1h
	jmp	73B170h

l0073AFF7:
	mov	edx,[0A6DF2Ch]
	mov	eax,[esp+1Ch]
	push	edx
	push	eax
	call	6FBCC0h
	mov	ebp,eax
	add	esp,8h
	test	ebp,ebp
	jz	73B05Eh

l0073B011:
	mov	eax,[ebp+4h]
	cmp	eax,0A215C0h
	jz	73B04Bh

l0073B01B:
	push	0A215C0h
	push	eax
	call	6D5670h
	add	esp,8h
	test	eax,eax
	jnz	73B04Bh

l0073B02D:
	mov	eax,[ebp+4h]
	cmp	eax,0A1D1B8h
	jz	73B056h

l0073B037:
	push	0A1D1B8h
	push	eax
	call	6D5670h
	add	esp,8h
	test	eax,eax
	jnz	73B056h

l0073B049:
	jmp	73B05Eh

l0073B04B:
	push	ebp
	call	717230h
	add	esp,4h
	mov	ebp,eax

l0073B056:
	test	ebp,ebp
	jnz	73AFD0h

l0073B05E:
	call	6FDCC0h
	mov	ebp,eax
	test	ebp,ebp
	jz	73B084h

l0073B069:
	push	0A163B8h
	push	8ABDD0h
	push	ebp
	call	6FD8F0h
	add	esp,0Ch
	test	eax,eax
	jge	73AFD4h

l0073B084:
	pop	edi
	xor	eax,eax
	pop	ebp
	add	esp,8h
	ret

l0073B08C:
	mov	ecx,[ebx+2Ch]
	mov	edx,[ebx+28h]
	mov	eax,[ebx+10h]
	add	eax,[ebx+0Ch]
	mov	edi,[ecx+8h]
	mov	ecx,[edx+8h]
	mov	esi,[0A6DF30h]
	add	eax,ecx
	xor	edx,edx
	add	eax,edi
	cmp	esi,edx
	mov	[esp+10h],ecx
	jnz	73B0E6h

l0073B0B2:
	push	eax
	push	0A2B8D8h
	call	6FEF50h
	mov	esi,eax
	add	esp,8h
	test	esi,esi
	jnz	73B135h

l0073B0C6:
	add	dword ptr [ebp+0h],0FFh
	jnz	73B1BBh

l0073B0D0:
	mov	eax,[ebp+4h]
	mov	ecx,[eax+18h]
	push	ebp
	call	ecx
	add	esp,4h
	pop	esi
	pop	ebx
	pop	edi
	xor	eax,eax
	pop	ebp
	add	esp,8h
	ret

l0073B0E6:
	sub	dword ptr [0A6DF34h],1h
	cmp	[esi+8h],eax
	mov	ecx,[esi+0Ch]
	mov	[0A6DF30h],ecx
	jge	73B12Dh

l0073B0FB:
	push	eax
	push	esi
	call	6FEF90h
	mov	esi,eax
	add	esp,8h
	test	esi,esi
	jnz	73B12Bh

l0073B10B:
	add	dword ptr [ebp+0h],0FFh
	jnz	73B1BBh

l0073B115:
	mov	edx,[ebp+4h]
	mov	eax,[edx+18h]
	push	ebp
	call	eax
	add	esp,4h
	pop	esi
	pop	ebx
	pop	edi
	xor	eax,eax
	pop	ebp
	add	esp,8h
	ret

l0073B12B:
	xor	edx,edx

l0073B12D:
	mov	dword ptr [esi],1h
	jmp	73B137h

l0073B135:
	xor	edx,edx

l0073B137:
	mov	[esi+10h],ebx
	mov	ecx,[ebx+0Ch]
	add	ecx,[esp+10h]
	add	ecx,edi
	cmp	ecx,edx
	lea	eax,[esi+ecx*4+138h]
	mov	[esi+20h],eax
	jle	73B15Dh

l0073B151:
	xor	eax,eax
	lea	edi,[esi+138h]

l0073B159:
	rep stosd

l0073B15B:
	xor	edx,edx

l0073B15D:
	mov	edi,[esp+14h]
	mov	[esi+1Ch],edx
	mov	[esi+28h],edx
	mov	[esi+34h],edx
	mov	[esi+30h],edx
	mov	[esi+2Ch],edx

l0073B170:
	test	edi,edi
	mov	ecx,[esi+20h]
	mov	[esi+24h],ecx
	mov	[esi+14h],ebp
	jz	73B180h

l0073B17D:
	add	dword ptr [edi],1h

l0073B180:
	mov	[esi+0Ch],edi
	add	dword ptr [ebx],1h
	mov	edi,[esp+24h]
	add	dword ptr [edi],1h
	mov	[esi+18h],edi
	mov	eax,[ebx+14h]
	mov	edx,eax
	and	edx,3h
	cmp	dl,3h
	jz	73B1D4h

l0073B19D:
	test	al,2h
	jz	73B1C5h

l0073B1A1:
	call	6FDCC0h
	test	eax,eax
	jnz	73B1D1h

l0073B1AA:
	add	dword ptr [esi],0FFh
	jnz	73B1BBh

l0073B1AF:
	mov	eax,[esi+4h]
	mov	ecx,[eax+18h]
	push	esi
	call	ecx
	add	esp,4h

l0073B1BB:
	pop	esi
	pop	ebx
	pop	edi
	xor	eax,eax
	pop	ebp
	add	esp,8h
	ret

l0073B1C5:
	mov	eax,[esp+28h]
	test	eax,eax
	cmovz	eax,edi

l0073B1CE:
	add	dword ptr [eax],1h

l0073B1D1:
	mov	[esi+1Ch],eax

l0073B1D4:
	mov	edx,[esp+1Ch]
	mov	[esi+38h],edx
	mov	dword ptr [esi+3Ch],0FFFFFFFFh
	mov	eax,[ebx+38h]
	lea	edi,[esi-10h]
	mov	[esi+40h],eax
	mov	dword ptr [esi+44h],0h
	cmp	dword ptr [edi+8h],0FEh
	jz	73B205h

l0073B1F8:
	push	8D0E04h
	call	6E86F0h
	add	esp,4h

l0073B205:
	mov	dword ptr [edi+8h],0FFFFFFFDh
	mov	ecx,[0A1D558h]
	mov	[edi],ecx
	mov	edx,[0A1D558h]
	mov	eax,[edx+4h]
	mov	[edi+4h],eax
	mov	[eax],edi
	mov	eax,[0A1D558h]
	mov	[eax+4h],edi
	mov	eax,esi
	pop	esi
	pop	ebx
	pop	edi
	pop	ebp
	add	esp,8h
	ret
0073B234             CC CC CC CC CC CC CC CC CC CC CC CC     ............

;; fn0073B240: 0073B240
;;   Called from:
;;     0070AB7C (in fn00708DC0)
;;     0070B115 (in fn00708DC0)
fn0073B240 proc
	push	esi
	mov	esi,[esp+8h]
	cmp	dword ptr [esi+44h],14h
	jl	73B258h

l0073B24B:
	push	8DC794h
	call	6E86F0h
	add	esp,4h

l0073B258:
	mov	eax,[esi+44h]
	mov	edx,[esp+0Ch]
	lea	ecx,[eax+eax*2+12h]
	lea	ecx,[esi+ecx*4]
	add	eax,1h
	mov	[esi+44h],eax
	mov	eax,[esp+14h]
	mov	[ecx],edx
	mov	edx,[esp+10h]
	mov	[ecx+8h],eax
	mov	[ecx+4h],edx
	pop	esi
	ret
0073B27E                                           CC CC               ..

;; fn0073B280: 0073B280
;;   Called from:
;;     0070A138 (in fn00708DC0)
;;     0070B09C (in fn00708DC0)
fn0073B280 proc
	push	esi
	mov	esi,[esp+8h]
	cmp	dword ptr [esi+44h],0h
	jg	73B298h

l0073B28B:
	push	8DC7B0h
	call	6E86F0h
	add	esp,4h

l0073B298:
	add	dword ptr [esi+44h],0FFh
	mov	eax,[esi+44h]
	lea	eax,[eax+eax*2+12h]
	lea	eax,[esi+eax*4]
	pop	esi
	ret
0073B2A8                         CC CC CC CC CC CC CC CC         ........

;; fn0073B2B0: 0073B2B0
;;   Called from:
;;     0073B45F (in fn0073B3D0)
;;     0073B492 (in fn0073B3D0)
;;     0073B4AC (in fn0073B3D0)
fn0073B2B0 proc
	push	ebp
	mov	ebp,[esp+0Ch]
	push	esi
	mov	esi,ecx
	add	esi,0FFh
	js	73B306h

l0073B2BD:
	push	edi
	lea	edi,[eax+esi*4+0Ch]

l0073B2C2:
	test	ebx,ebx
	mov	ecx,[edi]
	mov	eax,[ebp+esi*4+0h]
	jz	73B2CFh

l0073B2CC:
	mov	eax,[eax+8h]

l0073B2CF:
	test	eax,eax
	jnz	73B2E3h

l0073B2D3:
	push	ecx
	mov	ecx,[esp+14h]
	push	ecx
	call	704400h
	add	esp,8h
	jmp	73B2F2h

l0073B2E3:
	mov	edx,[esp+10h]
	push	eax
	push	ecx
	push	edx
	call	704300h
	add	esp,0Ch

l0073B2F2:
	test	eax,eax
	jz	73B2FBh

l0073B2F6:
	call	6E1160h

l0073B2FB:
	sub	esi,1h
	sub	edi,4h
	test	esi,esi
	jge	73B2C2h

l0073B305:
	pop	edi

l0073B306:
	pop	esi
	pop	ebp
	ret
0073B309                            CC CC CC CC CC CC CC          .......

;; fn0073B310: 0073B310
;;   Called from:
;;     0073B561 (in fn0073B4E0)
;;     0073B596 (in fn0073B4E0)
;;     0073B5B7 (in fn0073B4E0)
fn0073B310 proc
	push	edi
	mov	edi,ecx
	add	edi,0FFh
	js	73B3C8h

l0073B31C:
	push	ebp
	push	esi
	lea	ebp,[eax+edi*4+0Ch]

l0073B322:
	mov	eax,[ebp+0h]
	mov	ecx,[esp+10h]
	push	eax
	push	ecx
	call	704220h
	mov	esi,eax
	add	esp,8h
	test	esi,esi
	jnz	73B33Eh

l0073B339:
	call	6E1160h

l0073B33E:
	cmp	dword ptr [esp+14h],0h
	jz	73B36Ch

l0073B345:
	test	esi,esi
	jnz	73B34Fh

l0073B349:
	cmp	[esp+18h],esi
	jz	73B3B8h

l0073B34F:
	mov	eax,[ebx+edi*4]
	cmp	[eax+8h],esi
	jz	73B3A3h

l0073B357:
	push	esi
	push	eax
	call	750420h
	add	esp,8h
	test	eax,eax
	jge	73B3A3h

l0073B365:
	call	6E1160h
	jmp	73B3A3h

l0073B36C:
	test	esi,esi
	jnz	73B376h

l0073B370:
	cmp	[esp+18h],esi
	jz	73B3B8h

l0073B376:
	cmp	[ebx+edi*4],esi
	jz	73B3A3h

l0073B37B:
	test	esi,esi
	jz	73B382h

l0073B37F:
	add	dword ptr [esi],1h

l0073B382:
	mov	eax,[ebx+edi*4]
	test	eax,eax
	jz	73B3A0h

l0073B389:
	add	dword ptr [eax],0FFh
	mov	eax,[ebx+edi*4]
	cmp	dword ptr [eax],0h
	jnz	73B3A0h

l0073B394:
	mov	edx,[eax+4h]
	push	eax
	mov	eax,[edx+18h]
	call	eax
	add	esp,4h

l0073B3A0:
	mov	[ebx+edi*4],esi

l0073B3A3:
	test	esi,esi
	jz	73B3B8h

l0073B3A7:
	add	dword ptr [esi],0FFh
	jnz	73B3B8h

l0073B3AC:
	mov	ecx,[esi+4h]
	mov	edx,[ecx+18h]
	push	esi
	call	edx
	add	esp,4h

l0073B3B8:
	sub	edi,1h
	sub	ebp,4h
	test	edi,edi
	jge	73B322h

l0073B3C6:
	pop	esi
	pop	ebp

l0073B3C8:
	pop	edi
	ret
0073B3CA                               CC CC CC CC CC CC           ......

;; fn0073B3D0: 0073B3D0
;;   Called from:
;;     0070A94C (in fn00708DC0)
;;     0070BD9A (in fn0070BCC0)
fn0073B3D0 proc
	sub	esp,10h
	push	ebx
	mov	ebx,[esp+18h]
	test	ebx,ebx
	jz	73B4CEh

l0073B3E0:
	push	ebp
	mov	ebp,[ebx+1Ch]
	test	ebp,ebp
	jnz	73B401h

l0073B3E8:
	call	6FDCC0h
	mov	ebp,eax
	test	ebp,ebp
	mov	[ebx+1Ch],eax
	jnz	73B401h

l0073B3F6:
	call	6E1160h
	pop	ebp
	pop	ebx
	add	esp,10h
	ret

l0073B401:
	push	esi
	mov	esi,[ebx+10h]
	push	edi
	mov	edi,[esi+24h]
	mov	eax,[edi+4h]
	cmp	eax,0A16588h
	jz	73B429h

l0073B413:
	push	0A16588h
	push	eax
	call	6D5670h
	add	esp,8h
	test	eax,eax
	jz	73B4CBh

l0073B429:
	lea	eax,[esp+14h]
	push	eax
	lea	ecx,[esp+1Ch]
	push	ecx
	lea	edx,[esp+24h]
	push	edx
	call	6E1130h
	mov	eax,[esi+0Ch]
	mov	ecx,[edi+8h]
	add	esp,0Ch
	cmp	ecx,eax
	lea	edx,[ebx+138h]
	cmovg	ecx,eax

l0073B451:
	test	eax,eax
	mov	[esp+24h],edx
	jz	73B467h

l0073B459:
	push	edx
	push	ebp
	xor	ebx,ebx
	mov	eax,edi
	call	73B2B0h
	add	esp,8h

l0073B467:
	mov	eax,[esi+2Ch]
	mov	ecx,[esi+28h]
	mov	edi,[eax+8h]
	test	edi,edi
	mov	ecx,[ecx+8h]
	mov	[esp+10h],ecx
	jnz	73B47Fh

l0073B47B:
	test	ecx,ecx
	jz	73B4B4h

l0073B47F:
	mov	edx,[esi+0Ch]
	mov	ecx,[esp+24h]
	lea	edx,[ecx+edx*4]
	push	edx
	push	ebp
	mov	ebx,1h
	mov	ecx,edi
	call	73B2B0h
	mov	eax,[esi+0Ch]
	mov	ecx,[esp+2Ch]
	add	eax,edi
	lea	edx,[ecx+eax*4]
	mov	ecx,[esp+18h]
	mov	eax,[esi+28h]
	push	edx
	push	ebp
	call	73B2B0h
	add	esp,10h

l0073B4B4:
	mov	eax,[esp+14h]
	mov	ecx,[esp+18h]
	mov	edx,[esp+1Ch]
	push	eax
	push	ecx
	push	edx
	call	6E0E00h
	add	esp,0Ch

l0073B4CB:
	pop	edi
	pop	esi
	pop	ebp

l0073B4CE:
	pop	ebx
	add	esp,10h
	ret
0073B4D3          CC CC CC CC CC CC CC CC CC CC CC CC CC    .............

;; fn0073B4E0: 0073B4E0
;;   Called from:
;;     0070A985 (in fn00708DC0)
;;     0070C043 (in fn0070BCC0)
fn0073B4E0 proc
	sub	esp,10h
	push	ebp
	mov	ebp,[esp+18h]
	test	ebp,ebp
	jz	73B5D9h

l0073B4F0:
	push	ebx
	mov	ebx,[ebp+1Ch]
	test	ebx,ebx
	push	esi
	mov	esi,[ebp+10h]
	push	edi
	mov	edi,[esi+24h]
	mov	[esp+24h],ebx
	jz	73B5D6h

l0073B508:
	mov	eax,[edi+4h]
	cmp	eax,0A16588h
	jz	73B528h

l0073B512:
	push	0A16588h
	push	eax
	call	6D5670h
	add	esp,8h
	test	eax,eax
	jz	73B5D6h

l0073B528:
	lea	eax,[esp+14h]
	push	eax
	lea	ecx,[esp+1Ch]
	push	ecx
	lea	edx,[esp+24h]
	push	edx
	call	6E1130h
	mov	eax,[esi+0Ch]
	mov	ecx,[edi+8h]
	add	esp,0Ch
	add	ebp,138h
	cmp	ecx,eax
	cmovg	ecx,eax

l0073B550:
	test	eax,eax
	jz	73B569h

l0073B554:
	mov	eax,[esp+28h]
	push	eax
	mov	eax,[esi+24h]
	push	0h
	push	ebx
	mov	ebx,ebp
	call	73B310h
	add	esp,0Ch

l0073B569:
	mov	eax,[esi+2Ch]
	mov	ecx,[esi+28h]
	mov	edi,[eax+8h]
	test	edi,edi
	mov	ecx,[ecx+8h]
	mov	[esp+10h],ecx
	jnz	73B581h

l0073B57D:
	test	ecx,ecx
	jz	73B5BFh

l0073B581:
	mov	edx,[esp+28h]
	mov	ecx,[esi+0Ch]
	push	edx
	mov	edx,[esp+28h]
	push	1h
	lea	ebx,[ebp+ecx*4+0h]
	push	edx
	mov	ecx,edi
	call	73B310h
	mov	eax,[esp+34h]
	mov	ecx,[esi+0Ch]
	mov	edx,[esp+30h]
	push	eax
	mov	eax,[esi+28h]
	add	ecx,edi
	push	1h
	lea	ebx,[ebp+ecx*4+0h]
	mov	ecx,[esp+24h]
	push	edx
	call	73B310h
	add	esp,18h

l0073B5BF:
	mov	eax,[esp+14h]
	mov	ecx,[esp+18h]
	mov	edx,[esp+1Ch]
	push	eax
	push	ecx
	push	edx
	call	6E0E00h
	add	esp,0Ch

l0073B5D6:
	pop	edi
	pop	esi
	pop	ebx

l0073B5D9:
	pop	ebp
	add	esp,10h
	ret
0073B5DE                                           CC CC               ..

;; fn0073B5E0: 0073B5E0
;;   Called from:
;;     006E898F (in fn006E8910)
fn0073B5E0 proc
	mov	eax,[0A6DF30h]
	test	eax,eax
	jz	73B612h

l0073B5E9:
	lea	esp,[esp+0h]

l0073B5F0:
	mov	ecx,[eax+0Ch]
	push	eax
	mov	[0A6DF30h],ecx
	call	6FEFD0h
	mov	eax,[0A6DF30h]
	sub	dword ptr [0A6DF34h],1h
	add	esp,4h
	test	eax,eax
	jnz	73B5F0h

l0073B612:
	mov	eax,[0A6DF2Ch]
	test	eax,eax
	jz	73B62Ch

l0073B61B:
	add	dword ptr [eax],0FFh
	jnz	73B62Ch

l0073B620:
	mov	edx,[eax+4h]
	push	eax
	mov	eax,[edx+18h]
	call	eax
	add	esp,4h

l0073B62C:
	mov	dword ptr [0A6DF2Ch],0h
	ret
0073B637                      CC CC CC CC CC CC CC CC CC        .........
0073B640 56 8B 74 24 08 56 E8 85 FD FF FF 8B 46 1C 83 00 V.t$.V......F...
0073B650 01 8B 46 1C 83 C4 04 5E C3 CC CC CC CC CC CC CC ..F....^........

;; fn0073B660: 0073B660
;;   Called from:
;;     00740A2F (in fn007406A0)
;;     00755235 (in fn007551F0)
fn0073B660 proc
	push	18h
	call	723860h
	xor	ecx,ecx
	add	esp,4h
	cmp	eax,ecx
	jnz	73B673h

l0073B670:
	xor	eax,eax
	ret

l0073B673:
	mov	dx,[esp+4h]
	mov	[eax],dx
	mov	[eax+4h],ecx
	mov	[eax+8h],ecx
	mov	[eax+10h],ecx
	mov	[eax+14h],ecx
	ret
0073B688                         CC CC CC CC CC CC CC CC         ........

;; fn0073B690: 0073B690
;;   Called from:
;;     0073B6E5 (in fn0073B6B0)
;;     0073B705 (in fn0073B6B0)
fn0073B690 proc
	mov	eax,100h
	cmp	ecx,eax
	jle	73B6AEh

l0073B699:
	lea	esp,[esp+0h]

l0073B6A0:
	add	eax,eax
	test	eax,eax
	jle	73B6ABh

l0073B6A6:
	cmp	eax,ecx
	jl	73B6A0h

l0073B6AA:
	ret

l0073B6AB:
	or	eax,0FFh

l0073B6AE:
	ret
0073B6AF                                              CC                .

;; fn0073B6B0: 0073B6B0
;;   Called from:
;;     007552B0 (in fn007552A0)
;;     0075560C (in fn00755500)
fn0073B6B0 proc
	push	esi
	mov	esi,[esp+8h]
	mov	ecx,[esi+10h]
	cmp	ecx,7FFFFFFFh
	jz	73B782h

l0073B6C4:
	test	ecx,ecx
	jl	73B782h

l0073B6CC:
	cmp	ecx,1h
	jg	73B6D5h

l0073B6D1:
	mov	edx,ecx
	jmp	73B6ECh

l0073B6D5:
	cmp	ecx,80h
	jg	73B6E5h

l0073B6DD:
	lea	edx,[ecx+3h]
	and	edx,0FCh
	jmp	73B6ECh

l0073B6E5:
	call	73B690h
	mov	edx,eax

l0073B6EC:
	lea	eax,[ecx+1h]
	cmp	eax,1h
	jle	73B70Ah

l0073B6F4:
	cmp	eax,80h
	jg	73B703h

l0073B6FB:
	lea	eax,[ecx+4h]
	and	eax,0FCh
	jmp	73B70Ah

l0073B703:
	mov	ecx,eax
	call	73B690h

l0073B70A:
	test	edx,edx
	jl	73B782h

l0073B70E:
	test	eax,eax
	jl	73B782h

l0073B712:
	cmp	edx,eax
	jge	73B741h

l0073B716:
	cmp	eax,0AAAAAAAh
	jbe	73B724h

l0073B71D:
	mov	eax,0Fh
	pop	esi
	ret

l0073B724:
	mov	ecx,[esi+14h]
	lea	eax,[eax+eax*2]
	add	eax,eax
	add	eax,eax
	add	eax,eax
	push	eax
	push	ecx
	call	723B60h
	add	esp,8h
	test	eax,eax
	jz	73B71Dh

l0073B73E:
	mov	[esi+14h],eax

l0073B741:
	mov	ecx,[esi+10h]
	mov	eax,[esi+14h]
	lea	edx,[ecx+ecx*2]
	lea	eax,[eax+edx*8]
	mov	edx,[esp+10h]
	add	ecx,1h
	mov	[esi+10h],ecx
	mov	cx,[esp+0Ch]
	mov	[eax],cx
	mov	ecx,[esp+14h]
	mov	[eax+4h],edx
	mov	edx,[esp+18h]
	mov	[eax+8h],ecx
	mov	[eax+0Ch],edx
	mov	dword ptr [eax+10h],0h
	mov	dword ptr [eax+14h],0h
	xor	eax,eax
	pop	esi
	ret

l0073B782:
	mov	eax,13h
	pop	esi
	ret
0073B789                            CC CC CC CC CC CC CC          .......

;; fn0073B790: 0073B790
;;   Called from:
;;     0073B7AE (in fn0073B790)
;;     0073B7FA (in fn0073B7F0)
fn0073B790 proc
	push	ebx
	mov	ebx,[esp+8h]
	push	esi
	mov	esi,[ebx+10h]
	sub	esi,1h
	js	73B7C1h

l0073B79E:
	push	edi
	lea	edi,[esi+esi*2]
	add	edi,edi
	add	edi,edi
	add	edi,edi

l0073B7A8:
	mov	eax,[ebx+14h]
	add	eax,edi
	push	eax
	call	73B790h
	sub	esi,1h
	add	esp,4h
	sub	edi,18h
	test	esi,esi
	jge	73B7A8h

l0073B7C0:
	pop	edi

l0073B7C1:
	mov	eax,[ebx+14h]
	test	eax,eax
	jz	73B7D1h

l0073B7C8:
	push	eax
	call	7239C0h
	add	esp,4h

l0073B7D1:
	mov	ebx,[ebx+4h]
	test	ebx,ebx
	jz	73B7E1h

l0073B7D8:
	push	ebx
	call	7239C0h
	add	esp,4h

l0073B7E1:
	pop	esi
	pop	ebx
	ret
0073B7E4             CC CC CC CC CC CC CC CC CC CC CC CC     ............

;; fn0073B7F0: 0073B7F0
;;   Called from:
;;     006E8B22 (in fn006E8AC0)
;;     006E8BBC (in fn006E8B50)
;;     0075528C (in fn00755280)
fn0073B7F0 proc
	push	esi
	mov	esi,[esp+8h]
	test	esi,esi
	jz	73B808h

l0073B7F9:
	push	esi
	call	73B790h
	push	esi
	call	7239C0h
	add	esp,8h

l0073B808:
	pop	esi
	ret
0073B80A                               CC CC CC CC CC CC           ......

;; fn0073B810: 0073B810
;;   Called from:
;;     0073C91B (in fn0073C870)
;;     0073FC0B (in fn0073FAF0)
fn0073B810 proc
	push	esi
	push	eax
	call	6F1A70h
	mov	ecx,[esp+0Ch]
	mov	esi,eax
	push	esi
	push	ecx
	call	740DF0h
	add	esp,0Ch
	mov	eax,esi
	pop	esi
	ret
0073B82B                                  CC CC CC CC CC            .....

;; fn0073B830: 0073B830
;;   Called from:
;;     0073BC4A (in fn0073BBE0)
;;     0073BCF8 (in fn0073BBE0)
;;     0073BD87 (in fn0073BBE0)
;;     0073C907 (in fn0073C870)
;;     0073CCA0 (in fn0073CAE0)
;;     0073DE6F (in fn0073DBD0)
;;     0073DE86 (in fn0073DBD0)
;;     0073DE9D (in fn0073DBD0)
;;     0073DEB1 (in fn0073DBD0)
;;     0073EC2F (in fn0073EB70)
;;     0073EC42 (in fn0073EB70)
;;     0073EC74 (in fn0073EB70)
;;     0073ECFA (in fn0073EB70)
;;     0073F97A (in fn0073F7B0)
;;     007400F6 (in fn00740060)
;;     00740416 (in fn007403E0)
fn0073B830 proc
	mov	ecx,[eax+8h]
	push	esi
	push	ecx
	push	edx
	push	8DC7CCh
	call	6EA200h
	mov	esi,eax
	add	esp,0Ch
	test	esi,esi
	jz	73B869h

l0073B849:
	mov	eax,[0A178F4h]
	push	esi
	push	eax
	call	6E0E90h
	add	esp,8h
	add	dword ptr [esi],0FFh
	jnz	73B869h

l0073B85D:
	mov	ecx,[esi+4h]
	mov	edx,[ecx+18h]
	push	esi
	call	edx
	add	esp,4h

l0073B869:
	xor	eax,eax
	pop	esi
	ret
0073B86D                                        CC CC CC              ...

;; fn0073B870: 0073B870
;;   Called from:
;;     0074041F (in fn007403E0)
fn0073B870 proc
	mov	eax,[0A178F4h]
	sub	esp,0Ch
	push	ebp
	mov	ebp,[esp+14h]
	push	eax
	call	6E1110h
	add	esp,4h
	test	eax,eax
	jz	73B9A9h

l0073B88E:
	push	edi
	lea	ecx,[esp+0Ch]
	push	ecx
	lea	edx,[esp+0Ch]
	push	edx
	lea	eax,[esp+18h]
	push	eax
	call	6E1130h
	mov	ecx,[esp+14h]
	push	0h
	push	ecx
	call	6DFE60h
	mov	edi,eax
	add	esp,14h
	test	edi,edi
	jz	73B9A8h

l0073B8BC:
	add	dword ptr [edi],1h
	mov	edx,[esp+8h]
	push	ebx
	push	1h
	push	edx
	call	6DFE60h
	push	eax
	call	7051A0h
	mov	ebx,eax
	add	esp,0Ch
	cmp	ebx,0FFh
	jz	73B942h

l0073B8DC:
	mov	eax,[esp+0Ch]
	add	dword ptr [eax],0FFh
	mov	eax,[esp+0Ch]
	cmp	dword ptr [eax],0h
	jnz	73B8F8h

l0073B8EC:
	mov	edx,[eax+4h]
	push	eax
	mov	eax,[edx+18h]
	call	eax
	add	esp,4h

l0073B8F8:
	push	esi
	push	ebx
	push	ebp
	call	6E1AB0h
	mov	esi,eax
	add	esp,8h
	test	esi,esi
	jnz	73B915h

l0073B909:
	add	dword ptr [0A163B8h],1h
	mov	esi,0A163B8h

l0073B915:
	push	esi
	push	0A163B8h
	push	ebx
	push	ebp
	push	8DC7D0h
	call	6EA200h
	add	esp,14h
	add	dword ptr [esi],0FFh
	mov	ebx,eax
	jnz	73B93Dh

l0073B931:
	mov	ecx,[esi+4h]
	mov	edx,[ecx+18h]
	push	esi
	call	edx
	add	esp,4h

l0073B93D:
	test	ebx,ebx
	pop	esi
	jnz	73B95Ah

l0073B942:
	add	dword ptr [edi],0FFh
	jnz	73B9A7h

l0073B947:
	mov	eax,[edi+4h]
	mov	ecx,[eax+18h]
	push	edi
	call	ecx
	add	esp,4h
	pop	ebx
	pop	edi
	pop	ebp
	add	esp,0Ch
	ret

l0073B95A:
	push	ebx
	push	edi
	push	2h
	call	6DFF80h
	add	esp,0Ch
	mov	[esp+0Ch],eax
	add	dword ptr [edi],0FFh
	jnz	73B97Bh

l0073B96F:
	mov	edx,[edi+4h]
	mov	eax,[edx+18h]
	push	edi
	call	eax
	add	esp,4h

l0073B97B:
	add	dword ptr [ebx],0FFh
	jnz	73B98Ch

l0073B980:
	mov	ecx,[ebx+4h]
	mov	edx,[ecx+18h]
	push	ebx
	call	edx
	add	esp,4h

l0073B98C:
	mov	eax,[esp+0Ch]
	test	eax,eax
	jz	73B9A7h

l0073B994:
	mov	ecx,[esp+10h]
	mov	edx,[esp+14h]
	push	ecx
	push	eax
	push	edx
	call	6E0E00h
	add	esp,0Ch

l0073B9A7:
	pop	ebx

l0073B9A8:
	pop	edi

l0073B9A9:
	pop	ebp
	add	esp,0Ch
	ret
0073B9AE                                           CC CC               ..

;; fn0073B9B0: 0073B9B0
;;   Called from:
;;     0073BA6D (in fn0073B9B0)
;;     0073BAB6 (in fn0073B9B0)
;;     0073CED0 (in fn0073CEC0)
;;     0073CF98 (in fn0073CEC0)
;;     0074049A (in fn007403E0)
;;     007404E2 (in fn007403E0)
;;     007405E7 (in fn007403E0)
fn0073B9B0 proc
	sub	esp,84h
	mov	eax,[0A14188h]
	xor	eax,esp
	mov	[esp+80h],eax
	push	ebx
	push	ebp
	push	esi
	mov	esi,[esp+94h]
	movsx	eax,word ptr [esi]
	sub	eax,100h
	cmp	eax,2Bh
	push	edi
	ja	73BA13h

l0073B9DC:
	lea	esp,[esp+0h]

l0073B9E0:
	movzx	eax,byte ptr [eax+73BAF4h]
	jmp	dword ptr [73BAD8h+eax*4]

l0073B9EE:
	mov	esi,[esi+14h]
	cmp	word ptr [esi],4h
	jz	73BA38h

l0073B9F7:
	jmp	73BA06h

l0073B9F9:
	cmp	dword ptr [esi+10h],1h
	jnz	73BA97h

l0073BA03:
	mov	esi,[esi+14h]

l0073BA06:
	movsx	eax,word ptr [esi]
	sub	eax,100h
	cmp	eax,2Bh
	jbe	73B9E0h

l0073BA13:
	mov	ecx,[esi+10h]
	movsx	edx,word ptr [esi]
	push	ecx
	push	edx
	lea	eax,[esp+18h]
	push	8DC7D8h
	push	eax
	call	dword ptr [8A4650h]
	lea	ecx,[esp+20h]
	push	ecx
	call	6E86F0h
	add	esp,14h

l0073BA38:
	xor	eax,eax

l0073BA3A:
	mov	ecx,[esp+90h]
	pop	edi
	pop	esi
	pop	ebp
	pop	ebx
	xor	ecx,esp
	call	694B8Eh
	add	esp,84h
	ret

l0073BA53:
	xor	ebx,ebx
	xor	ebp,ebp
	cmp	[esi+10h],ebx
	jle	73BA82h

l0073BA5C:
	xor	edi,edi
	mov	edi,edi

l0073BA60:
	mov	eax,[esi+14h]
	add	eax,edi
	cmp	word ptr [eax],10Ah
	jnz	73BA77h

l0073BA6C:
	push	eax
	call	73B9B0h
	add	esp,4h
	add	ebp,eax

l0073BA77:
	add	ebx,1h
	add	edi,18h
	cmp	ebx,[esi+10h]
	jl	73BA60h

l0073BA82:
	mov	eax,ebp
	jmp	73BA3Ah

l0073BA86:
	mov	eax,1h
	jmp	73BA3Ah

l0073BA8D:
	mov	eax,[esi+10h]
	cdq
	sub	eax,edx
	sar	eax,1h
	jmp	73BA3Ah

l0073BA97:
	mov	ecx,[esi+10h]
	mov	edi,2h
	sub	ecx,1h
	xor	ebp,ebp
	cmp	ecx,edi
	jle	73BAD0h

l0073BAA8:
	mov	ebx,30h
	lea	ecx,[ecx+0h]

l0073BAB0:
	mov	edx,[esi+14h]
	add	edx,ebx
	push	edx
	call	73B9B0h
	add	ebp,eax
	mov	eax,[esi+10h]
	add	edi,1h
	sub	eax,1h
	add	esp,4h
	add	ebx,18h
	cmp	edi,eax
	jl	73BAB0h

l0073BAD0:
	mov	eax,ebp
	jmp	73BA3Ah
0073BAD7                      90                                .       
l0073BAD8	dd	0x0073B9EE
l0073BADC	dd	0x0073BA53
l0073BAE0	dd	0x0073BA03
l0073BAE4	dd	0x0073BA8D
l0073BAE8	dd	0x0073BA86
l0073BAEC	dd	0x0073B9F9
l0073BAF0	dd	0x0073BA13
l0073BAF4	db	0x00
l0073BAF5	db	0x01
l0073BAF6	db	0x06
l0073BAF7	db	0x06
l0073BAF8	db	0x06
l0073BAF9	db	0x06
l0073BAFA	db	0x06
l0073BAFB	db	0x06
l0073BAFC	db	0x06
l0073BAFD	db	0x06
l0073BAFE	db	0x02
l0073BAFF	db	0x03
l0073BB00	db	0x06
l0073BB01	db	0x06
l0073BB02	db	0x06
l0073BB03	db	0x06
l0073BB04	db	0x06
l0073BB05	db	0x06
l0073BB06	db	0x06
l0073BB07	db	0x06
l0073BB08	db	0x06
l0073BB09	db	0x06
l0073BB0A	db	0x06
l0073BB0B	db	0x06
l0073BB0C	db	0x06
l0073BB0D	db	0x06
l0073BB0E	db	0x06
l0073BB0F	db	0x06
l0073BB10	db	0x06
l0073BB11	db	0x06
l0073BB12	db	0x06
l0073BB13	db	0x06
l0073BB14	db	0x06
l0073BB15	db	0x06
l0073BB16	db	0x06
l0073BB17	db	0x04
l0073BB18	db	0x06
l0073BB19	db	0x06
l0073BB1A	db	0x06
l0073BB1B	db	0x06
l0073BB1C	db	0x06
l0073BB1D	db	0x06
l0073BB1E	db	0x06
l0073BB1F	db	0x05

;; fn0073BB20: 0073BB20
;;   Called from:
;;     0073C6C6 (in fn0073C680)
;;     0073C723 (in fn0073C680)
fn0073BB20 proc
	movsx	eax,word ptr [eax]
	add	eax,0F2h
	cmp	eax,22h
	ja	73BB7Bh

l0073BB2B:
	movzx	ecx,byte ptr [eax+73BBB0h]
	jmp	dword ptr [73BB80h+ecx*4]

l0073BB39:
	mov	eax,9h
	ret

l0073BB3F:
	mov	eax,0Ah
	ret

l0073BB45:
	mov	eax,0Bh
	ret

l0073BB4B:
	mov	eax,7h
	ret

l0073BB51:
	mov	eax,8h
	ret

l0073BB57:
	mov	eax,1h
	ret

l0073BB5D:
	mov	eax,2h
	ret

l0073BB63:
	mov	eax,3h
	ret

l0073BB69:
	mov	eax,4h
	ret

l0073BB6F:
	mov	eax,0Ch
	ret

l0073BB75:
	mov	eax,5h
	ret

l0073BB7B:
	xor	eax,eax
	ret
0073BB7E                                           8B FF               ..
l0073BB80	dd	0x0073BB57
l0073BB84	dd	0x0073BB5D
l0073BB88	dd	0x0073BB63
l0073BB8C	dd	0x0073BB69
l0073BB90	dd	0x0073BB39
l0073BB94	dd	0x0073BB45
l0073BB98	dd	0x0073BB75
l0073BB9C	dd	0x0073BB3F
l0073BBA0	dd	0x0073BB4B
l0073BBA4	dd	0x0073BB51
l0073BBA8	dd	0x0073BB6F
l0073BBAC	dd	0x0073BB7B
l0073BBB0	db	0x00
l0073BBB1	db	0x01
l0073BBB2	db	0x02
l0073BBB3	db	0x03
l0073BBB4	db	0x04
l0073BBB5	db	0x05
l0073BBB6	db	0x0B
l0073BBB7	db	0x0B
l0073BBB8	db	0x0B
l0073BBB9	db	0x0B
l0073BBBA	db	0x06
l0073BBBB	db	0x0B
l0073BBBC	db	0x0B
l0073BBBD	db	0x0B
l0073BBBE	db	0x0B
l0073BBBF	db	0x0B
l0073BBC0	db	0x0B
l0073BBC1	db	0x0B
l0073BBC2	db	0x0B
l0073BBC3	db	0x07
l0073BBC4	db	0x08
l0073BBC5	db	0x09
l0073BBC6	db	0x0B
l0073BBC7	db	0x0B
l0073BBC8	db	0x0B
l0073BBC9	db	0x0B
l0073BBCA	db	0x0B
l0073BBCB	db	0x0B
l0073BBCC	db	0x0B
l0073BBCD	db	0x0B
l0073BBCE	db	0x0B
l0073BBCF	db	0x0B
l0073BBD0	db	0x0B
l0073BBD1	db	0x0B
l0073BBD2	db	0x0A
0073BBD3          CC CC CC CC CC CC CC CC CC CC CC CC CC    .............

;; fn0073BBE0: 0073BBE0
;;   Called from:
;;     0073BCCD (in fn0073BBE0)
;;     0073C220 (in fn0073C100)
;;     0073C844 (in fn0073C7D0)
;;     0073EC8C (in fn0073EB70)
;;     0073ED56 (in fn0073EB70)
;;     0073F73A (in fn0073F690)
;;     0073FA99 (in fn0073FA50)
fn0073BBE0 proc
	sub	esp,134h
	mov	eax,[0A14188h]
	xor	eax,esp
	mov	[esp+130h],eax
	mov	eax,[esp+138h]
	mov	edx,[eax]
	push	ebx
	push	ebp
	push	esi
	mov	esi,[esp+14Ch]
	lea	ecx,[edx-1h]
	cmp	ecx,12h
	push	edi
	mov	[esp+10h],esi
	ja	73BD8Eh

l0073BC18:
	jmp	dword ptr [73BDC4h+ecx*4]

l0073BC1F:
	mov	edx,[esp+14Ch]
	cmp	edx,2h
	jnz	73BC54h

l0073BC2B:
	mov	esi,[eax+8h]
	add	esi,14h
	mov	edi,8ABDD0h
	mov	ecx,5h
	xor	ebx,ebx

l0073BC3D:
	rep cmpsb

l0073BC3F:
	jnz	73BC54h

l0073BC41:
	mov	eax,[esp+10h]
	mov	edx,8DC8D4h
	call	73B830h
	jmp	73BDA9h

l0073BC54:
	mov	[eax+0Ch],edx

l0073BC57:
	mov	eax,1h
	jmp	73BDA9h

l0073BC61:
	mov	ecx,[esp+14Ch]
	mov	[eax+0Ch],ecx
	mov	eax,1h
	jmp	73BDA9h

l0073BC75:
	mov	edx,[esp+14Ch]
	cmp	edx,2h
	jnz	73BC97h

l0073BC81:
	mov	esi,[eax+4h]
	add	esi,14h
	mov	edi,8ABDD0h
	mov	ecx,5h
	xor	ebx,ebx

l0073BC93:
	rep cmpsb

l0073BC95:
	jz	73BC41h

l0073BC97:
	mov	[eax+8h],edx
	mov	eax,1h
	jmp	73BDA9h

l0073BCA4:
	mov	ebp,[esp+14Ch]
	mov	ebx,[eax+4h]
	mov	[eax+8h],ebp

l0073BCB1:
	test	ebx,ebx
	jz	73BC57h

l0073BCB5:
	xor	esi,esi
	lea	edi,[ebx+4h]
	lea	ebx,[ebx+0h]

l0073BCC0:
	cmp	esi,[ebx]
	jge	73BC57h

l0073BCC4:
	mov	eax,[esp+10h]
	mov	ecx,[edi]
	push	eax
	push	ebp
	push	ecx
	call	73BBE0h
	add	esp,0Ch
	test	eax,eax
	jz	73BDA7h

l0073BCDD:
	add	esi,1h
	add	edi,4h
	jmp	73BCC0h

l0073BCE5:
	mov	ecx,[eax+4h]
	test	ecx,ecx
	jz	73BCF1h

l0073BCEC:
	cmp	dword ptr [ecx],0h
	jnz	73BD02h

l0073BCF1:
	mov	edx,8DC8C0h
	mov	eax,esi
	call	73B830h
	jmp	73BDA9h

l0073BD02:
	mov	ebp,[esp+14Ch]
	mov	[eax+8h],ebp
	mov	ebx,ecx
	jmp	73BCB1h

l0073BD10:
	mov	eax,8DBB80h
	jmp	73BD54h

l0073BD17:
	mov	eax,8DC8B0h
	jmp	73BD54h

l0073BD1E:
	mov	eax,8DC8A4h
	jmp	73BD54h

l0073BD25:
	mov	eax,8DC88Ch
	jmp	73BD54h

l0073BD2C:
	mov	eax,8DC878h
	jmp	73BD54h

l0073BD33:
	mov	eax,8DC864h
	jmp	73BD54h

l0073BD3A:
	mov	eax,8DC85Ch
	jmp	73BD54h

l0073BD41:
	mov	eax,8DBE48h
	jmp	73BD54h

l0073BD48:
	mov	eax,8DC854h
	jmp	73BD54h

l0073BD4F:
	mov	eax,8DC83Ch

l0073BD54:
	cmp	dword ptr [esp+14Ch],2h
	mov	ecx,8D1C20h
	jz	73BD68h

l0073BD63:
	mov	ecx,8DC834h

l0073BD68:
	push	eax
	push	ecx
	push	8DC828h
	lea	edx,[esp+20h]
	push	12Ch
	push	edx
	call	724FE0h
	add	esp,14h
	lea	edx,[esp+14h]
	mov	eax,esi
	call	73B830h
	jmp	73BDA9h

l0073BD8E:
	mov	eax,[eax+18h]
	mov	ecx,[0A18720h]
	push	eax
	push	edx
	push	8DC7F4h
	push	ecx
	call	6E15D0h
	add	esp,10h

l0073BDA7:
	xor	eax,eax

l0073BDA9:
	mov	ecx,[esp+140h]
	pop	edi
	pop	esi
	pop	ebp
	pop	ebx
	xor	ecx,esp
	call	694B8Eh
	add	esp,134h
	ret
0073BDC2       8B FF                                       ..           
l0073BDC4	dd	0x0073BD1E
l0073BDC8	dd	0x0073BD1E
l0073BDCC	dd	0x0073BD1E
l0073BDD0	dd	0x0073BD10
l0073BDD4	dd	0x0073BD4F
l0073BDD8	dd	0x0073BD3A
l0073BDDC	dd	0x0073BD33
l0073BDE0	dd	0x0073BD25
l0073BDE4	dd	0x0073BD2C
l0073BDE8	dd	0x0073BD41
l0073BDEC	dd	0x0073BD17
l0073BDF0	dd	0x0073BD48
l0073BDF4	dd	0x0073BD3A
l0073BDF8	dd	0x0073BD3A
l0073BDFC	dd	0x0073BC1F
l0073BE00	dd	0x0073BC61
l0073BE04	dd	0x0073BC75
l0073BE08	dd	0x0073BCA4
l0073BE0C	dd	0x0073BCE5

;; fn0073BE10: 0073BE10
;;   Called from:
;;     0073ECCA (in fn0073EB70)
fn0073BE10 proc
	mov	eax,[eax+14h]
	mov	eax,[eax+4h]
	movsx	ecx,byte ptr [eax]
	add	ecx,0DBh
	cmp	ecx,57h
	ja	73BE82h

l0073BE21:
	movzx	ecx,byte ptr [ecx+73BEC8h]
	jmp	dword ptr [73BE9Ch+ecx*4]

l0073BE2F:
	mov	eax,1h
	ret

l0073BE35:
	mov	eax,2h
	ret

l0073BE3B:
	xor	edx,edx
	cmp	byte ptr [eax+1h],2Fh
	setz	dl
	lea	edx,[0004h+edx*8]
	mov	eax,edx
	ret

l0073BE4E:
	mov	eax,5h
	ret

l0073BE54:
	mov	eax,7h
	ret

l0073BE5A:
	mov	eax,8h
	ret

l0073BE60:
	mov	eax,0Bh
	ret

l0073BE66:
	mov	eax,0Ah
	ret

l0073BE6C:
	mov	eax,9h
	ret

l0073BE72:
	mov	al,[eax+1h]
	sub	al,2Ah
	neg	al
	sbb	eax,eax
	and	eax,0FDh
	add	eax,6h
	ret

l0073BE82:
	push	eax
	mov	eax,[0A18720h]
	push	8DC8E8h
	push	eax
	call	6E15D0h
	add	esp,0Ch
	xor	eax,eax
	ret
0073BE99                            8D 49 00                      .I.   
l0073BE9C	dd	0x0073BE4E
l0073BEA0	dd	0x0073BE60
l0073BEA4	dd	0x0073BE72
l0073BEA8	dd	0x0073BE2F
l0073BEAC	dd	0x0073BE35
l0073BEB0	dd	0x0073BE3B
l0073BEB4	dd	0x0073BE54
l0073BEB8	dd	0x0073BE5A
l0073BEBC	dd	0x0073BE66
l0073BEC0	dd	0x0073BE6C
l0073BEC4	dd	0x0073BE82
l0073BEC8	db	0x00
l0073BEC9	db	0x01
l0073BECA	db	0x0A
l0073BECB	db	0x0A
l0073BECC	db	0x0A
l0073BECD	db	0x02
l0073BECE	db	0x03
l0073BECF	db	0x0A
l0073BED0	db	0x04
l0073BED1	db	0x0A
l0073BED2	db	0x05
l0073BED3	db	0x0A
l0073BED4	db	0x0A
l0073BED5	db	0x0A
l0073BED6	db	0x0A
l0073BED7	db	0x0A
l0073BED8	db	0x0A
l0073BED9	db	0x0A
l0073BEDA	db	0x0A
l0073BEDB	db	0x0A
l0073BEDC	db	0x0A
l0073BEDD	db	0x0A
l0073BEDE	db	0x0A
l0073BEDF	db	0x06
l0073BEE0	db	0x0A
l0073BEE1	db	0x07
l0073BEE2	db	0x0A
l0073BEE3	db	0x0A
l0073BEE4	db	0x0A
l0073BEE5	db	0x0A
l0073BEE6	db	0x0A
l0073BEE7	db	0x0A
l0073BEE8	db	0x0A
l0073BEE9	db	0x0A
l0073BEEA	db	0x0A
l0073BEEB	db	0x0A
l0073BEEC	db	0x0A
l0073BEED	db	0x0A
l0073BEEE	db	0x0A
l0073BEEF	db	0x0A
l0073BEF0	db	0x0A
l0073BEF1	db	0x0A
l0073BEF2	db	0x0A
l0073BEF3	db	0x0A
l0073BEF4	db	0x0A
l0073BEF5	db	0x0A
l0073BEF6	db	0x0A
l0073BEF7	db	0x0A
l0073BEF8	db	0x0A
l0073BEF9	db	0x0A
l0073BEFA	db	0x0A
l0073BEFB	db	0x0A
l0073BEFC	db	0x0A
l0073BEFD	db	0x0A
l0073BEFE	db	0x0A
l0073BEFF	db	0x0A
l0073BF00	db	0x0A
l0073BF01	db	0x08
l0073BF02	db	0x0A
l0073BF03	db	0x0A
l0073BF04	db	0x0A
l0073BF05	db	0x0A
l0073BF06	db	0x0A
l0073BF07	db	0x0A
l0073BF08	db	0x0A
l0073BF09	db	0x0A
l0073BF0A	db	0x0A
l0073BF0B	db	0x0A
l0073BF0C	db	0x0A
l0073BF0D	db	0x0A
l0073BF0E	db	0x0A
l0073BF0F	db	0x0A
l0073BF10	db	0x0A
l0073BF11	db	0x0A
l0073BF12	db	0x0A
l0073BF13	db	0x0A
l0073BF14	db	0x0A
l0073BF15	db	0x0A
l0073BF16	db	0x0A
l0073BF17	db	0x0A
l0073BF18	db	0x0A
l0073BF19	db	0x0A
l0073BF1A	db	0x0A
l0073BF1B	db	0x0A
l0073BF1C	db	0x0A
l0073BF1D	db	0x0A
l0073BF1E	db	0x0A
l0073BF1F	db	0x09

;; fn0073BF20: 0073BF20
;;   Called from:
;;     0073E946 (in fn0073E7A0)
fn0073BF20 proc
	mov	eax,[edx+10h]
	cmp	eax,1h
	push	ebx
	push	esi
	push	edi
	jnz	73BFC5h

l0073BF2F:
	mov	eax,[edx+14h]
	movsx	ecx,word ptr [eax]
	add	ecx,0FFh
	cmp	ecx,1Eh
	ja	73BFBAh

l0073BF3D:
	movzx	ecx,byte ptr [ecx+73C06Ch]
	jmp	dword ptr [73C04Ch+ecx*4]

l0073BF4B:
	pop	edi
	pop	esi
	mov	eax,3h
	pop	ebx
	ret

l0073BF54:
	pop	edi
	pop	esi
	mov	eax,5h
	pop	ebx
	ret

l0073BF5D:
	pop	edi
	pop	esi
	mov	eax,1h
	pop	ebx
	ret

l0073BF66:
	pop	edi
	pop	esi
	mov	eax,4h
	pop	ebx
	ret

l0073BF6F:
	pop	edi
	pop	esi
	mov	eax,6h
	pop	ebx
	ret

l0073BF78:
	pop	edi
	pop	esi
	mov	eax,2h
	pop	ebx
	ret

l0073BF81:
	mov	edx,[eax+4h]
	mov	edi,8DBBCCh
	mov	esi,edx
	mov	ecx,3h
	xor	ebx,ebx

l0073BF92:
	rep cmpsb

l0073BF94:
	jnz	73BF9Fh

l0073BF96:
	pop	edi
	pop	esi
	mov	eax,9h
	pop	ebx
	ret

l0073BF9F:
	mov	esi,edx
	mov	edi,8DBB70h
	mov	ecx,3h
	xor	edx,edx

l0073BFAD:
	rep cmpsb

l0073BFAF:
	jnz	73BFBAh

l0073BFB1:
	pop	edi
	pop	esi
	mov	eax,7h
	pop	ebx
	ret

l0073BFBA:
	mov	eax,[eax+4h]
	push	eax
	push	8DC93Ch
	jmp	73C037h

l0073BFC5:
	cmp	eax,2h
	jnz	73C031h

l0073BFCA:
	mov	eax,[edx+14h]
	movsx	ecx,word ptr [eax]
	sub	ecx,1h
	jnz	73C00Dh

l0073BFD5:
	mov	esi,[eax+1Ch]
	mov	edi,8DBBCCh
	mov	ecx,3h
	xor	ebx,ebx

l0073BFE4:
	rep cmpsb

l0073BFE6:
	jnz	73BFF1h

l0073BFE8:
	pop	edi
	pop	esi
	mov	eax,0Ah
	pop	ebx
	ret

l0073BFF1:
	mov	esi,[eax+4h]
	mov	edi,8DBB70h
	mov	ecx,3h
	xor	eax,eax

l0073C000:
	rep cmpsb

l0073C002:
	jnz	73C00Dh

l0073C004:
	pop	edi
	pop	esi
	mov	eax,8h
	pop	ebx
	ret

l0073C00D:
	mov	edx,[edx+14h]
	mov	ecx,[edx+1Ch]
	mov	edx,[edx+4h]
	mov	eax,[0A18720h]
	push	ecx
	push	edx
	push	8DC924h
	push	eax
	call	6E15D0h
	add	esp,10h
	pop	edi
	pop	esi
	xor	eax,eax
	pop	ebx
	ret

l0073C031:
	push	eax
	push	8DC900h

l0073C037:
	mov	ecx,[0A18720h]
	push	ecx
	call	6E15D0h
	add	esp,0Ch
	pop	edi
	pop	esi
	xor	eax,eax
	pop	ebx
	ret
l0073C04C	dd	0x0073BF81
l0073C050	dd	0x0073BF4B
l0073C054	dd	0x0073BF54
l0073C058	dd	0x0073BF5D
l0073C05C	dd	0x0073BF78
l0073C060	dd	0x0073BF66
l0073C064	dd	0x0073BF6F
l0073C068	dd	0x0073BFBA
l0073C06C	db	0x00
l0073C06D	db	0x07
l0073C06E	db	0x07
l0073C06F	db	0x07
l0073C070	db	0x07
l0073C071	db	0x07
l0073C072	db	0x07
l0073C073	db	0x07
l0073C074	db	0x07
l0073C075	db	0x07
l0073C076	db	0x07
l0073C077	db	0x07
l0073C078	db	0x07
l0073C079	db	0x07
l0073C07A	db	0x07
l0073C07B	db	0x07
l0073C07C	db	0x07
l0073C07D	db	0x07
l0073C07E	db	0x07
l0073C07F	db	0x01
l0073C080	db	0x02
l0073C081	db	0x07
l0073C082	db	0x07
l0073C083	db	0x07
l0073C084	db	0x07
l0073C085	db	0x07
l0073C086	db	0x07
l0073C087	db	0x03
l0073C088	db	0x04
l0073C089	db	0x05
l0073C08A	db	0x06
0073C08B                                  CC CC CC CC CC            .....

;; fn0073C090: 0073C090
;;   Called from:
;;     0073C7A9 (in fn0073C790)
;;     0073D0DA (in fn0073D050)
;;     0073DF47 (in fn0073DF10)
;;     0073E1F0 (in fn0073E050)
;;     0073EB5D (in fn0073EB20)
;;     0073EB9B (in fn0073EB70)
fn0073C090 proc
	mov	eax,[esp+4h]
	mov	ecx,[eax+4h]
	mov	eax,[edi+10h]
	add	eax,1h
	cdq
	push	ebp
	sub	eax,edx
	push	ecx
	sar	eax,1h
	push	eax
	call	752E30h
	mov	ebp,eax
	add	esp,8h
	test	ebp,ebp
	jnz	73C0B5h

l0073C0B3:
	pop	ebp
	ret

l0073C0B5:
	push	ebx
	push	esi
	xor	esi,esi
	cmp	[edi+10h],esi
	jle	73C0EFh

l0073C0BE:
	xor	ebx,ebx

l0073C0C0:
	mov	edx,[edi+14h]
	mov	eax,[esp+10h]
	add	edx,ebx
	push	edx
	push	eax
	call	73E7A0h
	mov	ecx,eax
	add	esp,8h
	test	ecx,ecx
	jz	73C0F5h

l0073C0D9:
	mov	eax,esi
	cdq
	sub	eax,edx
	sar	eax,1h
	add	esi,2h
	mov	[ebp+eax*4+4h],ecx
	add	ebx,30h
	cmp	esi,[edi+10h]
	jl	73C0C0h

l0073C0EF:
	pop	esi
	pop	ebx
	mov	eax,ebp
	pop	ebp
	ret

l0073C0F5:
	pop	esi
	pop	ebx
	xor	eax,eax
	pop	ebp
	ret
0073C0FB                                  CC CC CC CC CC            .....

;; fn0073C100: 0073C100
;;   Called from:
;;     0073C1D5 (in fn0073C100)
;;     0073FDED (in fn0073FC30)
fn0073C100 proc
	sub	esp,10h
	push	ebp
	mov	ebp,[esp+18h]
	push	esi
	push	edi
	mov	edi,[esp+24h]
	mov	eax,[edi+10h]
	add	eax,1h
	cdq
	sub	eax,edx
	mov	esi,eax
	mov	eax,[ebp+4h]
	sar	esi,1h
	push	eax
	push	esi
	mov	[esp+1Ch],esi
	call	752E30h
	xor	ecx,ecx
	add	esp,8h
	cmp	eax,ecx
	mov	[esp+18h],eax
	jnz	73C13Fh

l0073C136:
	pop	edi
	pop	esi
	xor	eax,eax
	pop	ebp
	add	esp,10h
	ret

l0073C13F:
	cmp	esi,ecx
	push	ebx
	mov	[esp+10h],ecx
	jle	73C206h

l0073C14C:
	add	eax,4h
	mov	[esp+24h],ecx
	mov	[esp+14h],eax
	jmp	73C160h
0073C159                            8D A4 24 00 00 00 00          ..$....

l0073C160:
	mov	eax,[edi+14h]
	add	eax,[esp+24h]
	mov	ecx,1h
	mov	ebx,[eax+14h]
	cmp	[ebx],cx
	jz	73C187h

l0073C174:
	cmp	[ebx+28h],ecx
	lea	eax,[ebx+18h]
	jnz	73C1D3h

l0073C17C:
	mov	eax,[eax+14h]
	mov	ebx,[eax+14h]
	cmp	[ebx],cx
	jnz	73C174h

l0073C187:
	mov	eax,[ebx+4h]
	mov	edi,8ABDD0h
	mov	esi,eax
	mov	ecx,5h
	xor	edx,edx

l0073C198:
	rep cmpsb

l0073C19A:
	jz	73C236h

l0073C1A0:
	mov	edi,[ebp+4h]
	push	eax
	call	6F1A70h
	mov	esi,eax
	push	esi
	push	edi
	call	740DF0h
	mov	eax,[ebp+4h]
	mov	ecx,[ebx+0Ch]
	mov	edx,[ebx+8h]
	push	eax
	push	ecx
	push	edx
	push	2h
	push	esi
	call	743EE0h
	mov	edi,[esp+48h]
	mov	esi,[esp+38h]
	add	esp,20h
	jmp	73C1DDh

l0073C1D3:
	push	eax
	push	ebp
	call	73C100h
	add	esp,8h

l0073C1DD:
	mov	ecx,[esp+14h]
	add	dword ptr [esp+24h],30h
	mov	[ecx],eax
	mov	eax,[esp+10h]
	add	eax,1h
	add	ecx,4h
	cmp	eax,esi
	mov	[esp+10h],eax
	mov	[esp+14h],ecx
	jl	73C160h

l0073C202:
	mov	eax,[esp+1Ch]

l0073C206:
	mov	ecx,[ebp+4h]
	mov	edx,[edi+0Ch]
	push	ecx
	mov	ecx,[edi+8h]
	push	edx
	push	ecx
	push	2h
	push	eax
	call	743FC0h
	push	edi
	mov	esi,eax
	push	2h
	push	esi
	call	73BBE0h
	add	esp,20h
	neg	eax
	pop	ebx
	sbb	eax,eax
	pop	edi
	and	eax,esi
	pop	esi
	pop	ebp
	add	esp,10h
	ret

l0073C236:
	mov	eax,[ebx+8h]
	push	eax
	push	8DC8D4h
	push	8DC7CCh
	call	6EA200h
	mov	esi,eax
	add	esp,0Ch
	test	esi,esi
	jz	73C273h

l0073C252:
	mov	ecx,[0A178F4h]
	push	esi
	push	ecx
	call	6E0E90h
	add	esp,8h
	add	dword ptr [esi],0FFh
	jnz	73C273h

l0073C267:
	mov	edx,[esi+4h]
	mov	eax,[edx+18h]
	push	esi
	call	eax
	add	esp,4h

l0073C273:
	pop	ebx
	pop	edi
	pop	esi
	xor	eax,eax
	pop	ebp
	add	esp,10h
	ret
0073C27D                                        CC CC CC              ...

;; fn0073C280: 0073C280
;;   Called from:
;;     0073DFC1 (in fn0073DF70)
fn0073C280 proc
	sub	esp,10h
	mov	eax,[ebx+8h]
	mov	edx,[ebx+14h]
	mov	ecx,[ebx+0Ch]
	push	ebp
	mov	ebp,[esp+18h]
	push	esi
	mov	[esp+0Ch],eax
	mov	eax,[edx+4h]
	push	edi
	mov	edi,[ebp+4h]
	push	eax
	mov	[esp+10h],ecx
	call	6F1A70h
	mov	esi,eax
	push	esi
	push	edi
	call	740DF0h
	add	esp,0Ch
	test	esi,esi
	jnz	73C2C0h

l0073C2B7:
	pop	edi
	pop	esi
	xor	eax,eax
	pop	ebp
	add	esp,10h
	ret

l0073C2C0:
	mov	eax,[ebp+4h]
	mov	ecx,[esp+0Ch]
	mov	edx,[esp+10h]
	push	eax
	push	ecx
	push	edx
	push	1h
	push	esi
	call	743EE0h
	mov	edi,eax
	add	esp,14h
	test	edi,edi
	jz	73C2B7h

l0073C2DF:
	mov	eax,2h
	cmp	[ebx+10h],eax
	mov	[esp+14h],eax
	jle	73C35Ah

l0073C2ED:
	mov	dword ptr [esp+20h],30h

l0073C2F5:
	mov	eax,[ebp+4h]
	mov	ecx,[ebx+14h]
	mov	edx,[esp+20h]
	mov	[esp+18h],eax
	mov	eax,[ecx+edx+4h]
	push	eax
	call	6F1A70h
	mov	esi,eax
	mov	eax,[esp+1Ch]
	push	esi
	push	eax
	call	740DF0h
	add	esp,0Ch
	test	esi,esi
	jz	73C2B7h

l0073C321:
	mov	ecx,[ebp+4h]
	mov	edx,[esp+0Ch]
	mov	eax,[esp+10h]
	push	ecx
	push	edx
	push	eax
	push	1h
	push	esi
	push	edi
	call	743D80h
	mov	edi,eax
	add	esp,18h
	test	edi,edi
	jz	73C2B7h

l0073C345:
	mov	eax,[esp+14h]
	add	dword ptr [esp+20h],30h
	add	eax,2h
	cmp	eax,[ebx+10h]
	mov	[esp+14h],eax
	jl	73C2F5h

l0073C35A:
	mov	eax,edi
	pop	edi
	pop	esi
	pop	ebp
	add	esp,10h
	ret
0073C363          CC CC CC CC CC CC CC CC CC CC CC CC CC    .............

;; fn0073C370: 0073C370
;;   Called from:
;;     0073EA3F (in fn0073E7A0)
fn0073C370 proc
	cmp	dword ptr [esi+10h],3h
	push	ebx
	jnz	73C3A9h

l0073C377:
	mov	eax,[edi+4h]
	push	eax
	push	0h
	push	0h
	push	0h
	push	0h
	call	7441C0h
	mov	ebx,eax
	add	esp,14h
	test	ebx,ebx
	jz	73C3A5h

l0073C391:
	mov	ecx,[esi+14h]
	add	ecx,30h
	push	ecx

l0073C398:
	push	edi
	call	73E7A0h
	add	esp,8h
	test	eax,eax
	jnz	73C3C8h

l0073C3A5:
	xor	eax,eax
	pop	ebx
	ret

l0073C3A9:
	mov	edx,[esi+14h]
	add	edx,18h
	push	edx
	push	edi
	call	73FC30h
	mov	ebx,eax
	add	esp,8h
	test	ebx,ebx
	jz	73C3A5h

l0073C3BF:
	mov	eax,[esi+14h]
	add	eax,48h
	push	eax
	jmp	73C398h

l0073C3C8:
	mov	ecx,[edi+4h]
	mov	edx,[esi+0Ch]
	push	ecx
	mov	ecx,[esi+8h]
	push	edx
	push	ecx
	push	eax
	push	ebx
	call	743900h
	add	esp,14h
	pop	ebx
	ret

;; fn0073C3E0: 0073C3E0
;;   Called from:
;;     0073EA2E (in fn0073E7A0)
fn0073C3E0 proc
	mov	eax,[esi+14h]
	push	ebp
	push	eax
	push	edi
	call	73E7A0h
	mov	ebp,eax
	add	esp,8h
	test	ebp,ebp
	jnz	73C3F6h

l0073C3F4:
	pop	ebp
	ret

l0073C3F6:
	mov	ecx,[esi+14h]
	push	ebx
	add	ecx,30h
	push	ecx
	push	edi
	call	73E7A0h
	mov	ebx,eax
	add	esp,8h
	test	ebx,ebx
	jz	73C421h

l0073C40D:
	mov	edx,[esi+14h]
	add	edx,60h
	push	edx
	push	edi
	call	73E7A0h
	add	esp,8h
	test	eax,eax
	jnz	73C426h

l0073C421:
	pop	ebx
	xor	eax,eax
	pop	ebp
	ret

l0073C426:
	mov	ecx,[edi+4h]
	mov	edx,[esi+0Ch]
	push	ecx
	mov	ecx,[esi+8h]
	push	edx
	push	ecx
	push	eax
	push	ebp
	push	ebx
	call	743980h
	add	esp,18h
	pop	ebx
	pop	ebp
	ret

;; fn0073C440: 0073C440
;;   Called from:
;;     0073D7CB (in fn0073D7A0)
fn0073C440 proc
	mov	ecx,[eax+14h]
	add	ecx,18h
	cmp	dword ptr [ecx+10h],5h
	push	edi
	mov	eax,1h
	jnz	73C4A4h

l0073C452:
	mov	edi,3h

l0073C457:
	mov	ecx,[ecx+14h]
	mov	ecx,[ecx+74h]
	movzx	edx,word ptr [ecx]
	cmp	dx,14Ch
	jz	73C483h

l0073C467:
	cmp	dx,14Dh
	jnz	73C48Eh

l0073C46E:
	cmp	[ecx+10h],edi
	jnz	73C4A4h

l0073C473:
	mov	edx,[ecx+14h]
	mov	ecx,[edx+44h]
	movzx	edx,word ptr [ecx]
	cmp	dx,14Ch
	jnz	73C467h

l0073C483:
	add	eax,1h
	cmp	dword ptr [ecx+10h],5h
	jz	73C457h

l0073C48C:
	pop	edi
	ret

l0073C48E:
	mov	eax,[0A18720h]
	push	8DC950h
	push	eax
	call	6E0F80h
	add	esp,8h
	or	eax,0FFh

l0073C4A4:
	pop	edi
	ret
0073C4A6                   CC CC CC CC CC CC CC CC CC CC       ..........

;; fn0073C4B0: 0073C4B0
;;   Called from:
;;     0073D9EB (in fn0073D9C0)
fn0073C4B0 proc
	mov	ecx,[eax+14h]
	add	ecx,18h
	cmp	dword ptr [ecx+10h],5h
	push	edi
	mov	eax,1h
	jnz	73C514h

l0073C4C2:
	mov	edi,3h

l0073C4C7:
	mov	ecx,[ecx+14h]
	mov	ecx,[ecx+74h]
	movzx	edx,word ptr [ecx]
	cmp	dx,14Fh
	jz	73C4F3h

l0073C4D7:
	cmp	dx,150h
	jnz	73C4FEh

l0073C4DE:
	cmp	[ecx+10h],edi
	jnz	73C514h

l0073C4E3:
	mov	edx,[ecx+14h]
	mov	ecx,[edx+44h]
	movzx	edx,word ptr [ecx]
	cmp	dx,14Fh
	jnz	73C4D7h

l0073C4F3:
	add	eax,1h
	cmp	dword ptr [ecx+10h],5h
	jz	73C4C7h

l0073C4FC:
	pop	edi
	ret

l0073C4FE:
	mov	eax,[0A18720h]
	push	8DC970h
	push	eax
	call	6E0F80h
	add	esp,8h
	or	eax,0FFh

l0073C514:
	pop	edi
	ret
0073C516                   CC CC CC CC CC CC CC CC CC CC       ..........

;; fn0073C520: 0073C520
;;   Called from:
;;     0073E438 (in fn0073E390)
;;     0073E497 (in fn0073E390)
fn0073C520 proc
	sub	esp,8h
	push	ebx
	push	ebp
	mov	ebx,eax
	push	edi
	mov	edi,[ebx+14h]
	movzx	eax,word ptr [edi]
	xor	ebp,ebp
	cmp	ax,17h
	mov	[esp+10h],ebp
	mov	[esp+0Ch],ebp
	jnz	73C551h

l0073C53E:
	mov	eax,[esi+4h]
	push	eax
	call	744020h
	add	esp,4h
	pop	edi
	pop	ebp
	pop	ebx
	add	esp,8h
	ret

l0073C551:
	cmp	dword ptr [ebx+10h],1h
	jnz	73C57Fh

l0073C557:
	cmp	ax,12Fh
	jnz	73C597h

l0073C55D:
	push	edi
	push	esi
	call	73E7A0h
	add	esp,8h
	test	eax,eax
	jz	73C5C2h

l0073C56B:
	mov	ecx,[esi+4h]
	push	ecx
	push	eax
	call	7440C0h
	add	esp,8h
	pop	edi
	pop	ebp
	pop	ebx
	add	esp,8h
	ret

l0073C57F:
	cmp	ax,12Fh
	jnz	73C597h

l0073C585:
	push	edi
	push	esi
	call	73E7A0h
	add	esp,8h
	test	eax,eax
	mov	[esp+10h],eax
	jz	73C5C2h

l0073C597:
	cmp	word ptr [edi],0Bh
	jnz	73C5CBh

l0073C59D:
	cmp	dword ptr [ebx+10h],1h
	jle	73C5D9h

l0073C5A3:
	mov	eax,[ebx+14h]
	add	eax,18h

l0073C5A9:
	cmp	word ptr [eax],12Fh
	jnz	73C5D9h

l0073C5B0:
	push	eax
	push	esi
	call	73E7A0h
	add	esp,8h
	test	eax,eax
	mov	[esp+0Ch],eax
	jnz	73C5D9h

l0073C5C2:
	pop	edi
	pop	ebp
	xor	eax,eax
	pop	ebx
	add	esp,8h
	ret

l0073C5CB:
	cmp	dword ptr [ebx+10h],2h
	jle	73C5D9h

l0073C5D1:
	mov	eax,[ebx+14h]
	add	eax,30h
	jmp	73C5A9h

l0073C5D9:
	mov	eax,[ebx+10h]
	lea	edx,[eax+eax*2]
	mov	eax,[ebx+14h]
	cmp	word ptr [eax+edx*8-18h],144h
	lea	eax,[eax+edx*8-18h]
	jnz	73C653h

l0073C5EF:
	cmp	dword ptr [eax+10h],1h
	jnz	73C632h

l0073C5F5:
	mov	edi,[eax+14h]
	mov	ebp,[esi+4h]
	push	8ABDD0h
	call	6F1A70h
	mov	ebx,eax
	push	ebx
	push	ebp
	call	740DF0h
	mov	ecx,[esi+4h]
	mov	edx,[edi+0Ch]
	mov	eax,[edi+8h]
	push	ecx
	push	edx
	push	eax
	push	1h
	push	ebx
	call	743EE0h
	mov	ebp,eax
	add	esp,20h
	test	ebp,ebp
	jnz	73C653h

l0073C62B:
	pop	edi
	pop	ebp
	pop	ebx
	add	esp,8h
	ret

l0073C632:
	mov	eax,[eax+14h]
	add	eax,18h
	cmp	word ptr [eax],12Fh
	jnz	73C653h

l0073C63F:
	push	eax
	push	esi
	call	73E7A0h
	mov	ebp,eax
	add	esp,8h
	test	ebp,ebp
	jz	73C5C2h

l0073C653:
	mov	ecx,[esi+4h]
	mov	edx,[esp+0Ch]
	mov	eax,[esp+10h]
	push	ecx
	push	ebp
	push	edx
	push	eax
	call	744050h
	add	esp,10h
	pop	edi
	pop	ebp
	pop	ebx
	add	esp,8h
	ret
0073C671    CC CC CC CC CC CC CC CC CC CC CC CC CC CC CC  ...............

;; fn0073C680: 0073C680
;;   Called from:
;;     0073E9DC (in fn0073E7A0)
fn0073C680 proc
	sub	esp,8h
	push	ebp
	mov	ebp,[esp+14h]
	mov	eax,[ebp+14h]
	push	esi
	mov	esi,[esp+14h]
	push	edi
	push	eax
	push	esi
	call	73E7A0h
	mov	edi,eax
	add	esp,8h
	test	edi,edi
	jnz	73C6AAh

l0073C6A1:
	pop	edi
	pop	esi
	xor	eax,eax
	pop	ebp
	add	esp,8h
	ret

l0073C6AA:
	mov	ecx,[ebp+14h]
	add	ecx,30h
	push	ecx
	push	esi
	call	73E7A0h
	mov	edx,eax
	add	esp,8h
	test	edx,edx
	jz	73C6A1h

l0073C6C0:
	mov	eax,[ebp+14h]
	add	eax,18h
	call	73BB20h
	test	eax,eax
	jz	73C6A1h

l0073C6CF:
	mov	ecx,[esi+4h]
	push	ebx
	push	ecx
	mov	ecx,[ebp+0Ch]
	push	ecx
	mov	ecx,[ebp+8h]
	push	ecx
	push	edx
	push	eax
	push	edi
	call	7437D0h
	mov	ebx,eax
	add	esp,18h
	test	ebx,ebx
	jz	73C784h

l0073C6F1:
	mov	eax,[ebp+10h]
	sub	eax,1h
	cdq
	sub	eax,edx
	sar	eax,1h
	cmp	eax,1h
	mov	[esp+14h],eax
	mov	dword ptr [esp+10h],1h
	jle	73C77Ah

l0073C70D:
	mov	dword ptr [esp+20h],30h

l0073C715:
	mov	eax,[esp+20h]
	mov	edx,[ebp+14h]
	add	edx,eax
	lea	esi,[edx+18h]
	mov	eax,esi
	call	73BB20h
	mov	edi,eax
	test	edi,edi
	jz	73C784h

l0073C72E:
	mov	ecx,[esp+1Ch]
	add	edx,30h
	push	edx
	push	ecx
	call	73E7A0h
	add	esp,8h
	test	eax,eax
	jz	73C784h

l0073C743:
	mov	edx,[esp+1Ch]
	mov	ecx,[edx+4h]
	mov	edx,[esi+0Ch]
	push	ecx
	mov	ecx,[esi+8h]
	push	edx
	push	ecx
	push	eax
	push	edi
	push	ebx
	call	7437D0h
	add	esp,18h
	test	eax,eax
	jz	73C784h

l0073C762:
	add	dword ptr [esp+20h],30h
	mov	ebx,eax
	mov	eax,[esp+10h]
	add	eax,1h
	cmp	eax,[esp+14h]
	mov	[esp+10h],eax
	jl	73C715h

l0073C77A:
	mov	eax,ebx
	pop	ebx
	pop	edi
	pop	esi
	pop	ebp
	add	esp,8h
	ret

l0073C784:
	pop	ebx
	pop	edi
	pop	esi
	xor	eax,eax
	pop	ebp
	add	esp,8h
	ret
0073C78E                                           CC CC               ..

;; fn0073C790: 0073C790
;;   Called from:
;;     0073D83E (in fn0073D7A0)
;;     0073E303 (in fn0073E050)
;;     0073EA7D (in fn0073E7A0)
;;     0073EBFC (in fn0073EB70)
;;     0073ECA9 (in fn0073EB70)
;;     0073ED3E (in fn0073EB70)
;;     0073ED9F (in fn0073EB70)
;;     0073EFEA (in fn0073EF40)
;;     0074047B (in fn007403E0)
fn0073C790 proc
	push	edi
	mov	edi,eax
	cmp	dword ptr [edi+10h],1h
	jnz	73C7A8h

l0073C799:
	mov	eax,[edi+14h]
	push	eax
	push	esi
	call	73E7A0h
	add	esp,8h
	pop	edi
	ret

l0073C7A8:
	push	esi
	call	73C090h
	add	esp,4h
	test	eax,eax
	jnz	73C7B7h

l0073C7B5:
	pop	edi
	ret

l0073C7B7:
	mov	ecx,[esi+4h]
	mov	edx,[edi+0Ch]
	push	ecx
	mov	ecx,[edi+8h]
	push	edx
	push	ecx
	push	1h
	push	eax
	call	743FC0h
	add	esp,14h
	pop	edi
	ret

;; fn0073C7D0: 0073C7D0
;;   Called from:
;;     0073D08E (in fn0073D050)
;;     0073D822 (in fn0073D7A0)
;;     0073DA40 (in fn0073D9C0)
;;     007401DF (in fn00740160)
fn0073C7D0 proc
	push	ecx
	mov	eax,[esp+8h]
	mov	ecx,[eax+4h]
	mov	eax,[esi+10h]
	add	eax,1h
	cdq
	push	ebp
	mov	ebp,[esp+10h]
	sub	eax,edx
	push	ecx
	sar	eax,1h
	push	eax
	call	752E30h
	add	esp,8h
	test	eax,eax
	mov	[esp+4h],eax
	jnz	73C7FDh

l0073C7FA:
	pop	ebp
	pop	ecx
	ret

l0073C7FD:
	push	ebx
	xor	ebx,ebx
	cmp	[esi+10h],ebx
	push	edi
	jle	73C866h

l0073C806:
	xor	edi,edi
	jmp	73C810h
0073C80A                               8D 9B 00 00 00 00           ......

l0073C810:
	mov	edx,[esi+14h]
	mov	eax,[esp+14h]
	add	edx,edi
	push	edx
	push	eax
	call	73E7A0h
	mov	ecx,eax
	add	esp,8h
	test	ecx,ecx
	jz	73C864h

l0073C829:
	mov	eax,ebx
	cdq
	sub	eax,edx
	mov	edx,[esp+0Ch]
	sar	eax,1h
	test	ebp,ebp
	mov	[edx+eax*4+4h],ecx
	jz	73C850h

l0073C83C:
	mov	eax,[esi+14h]
	add	eax,edi
	push	eax
	push	ebp
	push	ecx
	call	73BBE0h
	add	esp,0Ch
	test	eax,eax
	jz	73C864h

l0073C850:
	add	ebx,2h
	add	edi,30h
	cmp	ebx,[esi+10h]
	jl	73C810h

l0073C85B:
	mov	eax,[esp+0Ch]
	pop	edi
	pop	ebx
	pop	ebp
	pop	ecx
	ret

l0073C864:
	xor	eax,eax

l0073C866:
	pop	edi
	pop	ebx
	pop	ebp
	pop	ecx
	ret
0073C86B                                  CC CC CC CC CC            .....

;; fn0073C870: 0073C870
;;   Called from:
;;     0073C974 (in fn0073C870)
;;     0073CB4B (in fn0073CAE0)
;;     0073CC71 (in fn0073CAE0)
;;     0073CD33 (in fn0073CAE0)
;;     0073CD5C (in fn0073CAE0)
fn0073C870 proc
	push	ecx
	push	ebx
	push	ebp
	mov	ebp,[esp+14h]
	movsx	eax,word ptr [ebp+0h]
	cmp	eax,11Ch
	push	esi
	push	edi
	jg	73C89Eh

l0073C884:
	jnz	73C8C9h

l0073C886:
	cmp	dword ptr [ebp+10h],1h
	jnz	73C96Bh

l0073C890:
	mov	ebp,[ebp+14h]
	movsx	eax,word ptr [ebp+0h]
	cmp	eax,11Ch
	jle	73C884h

l0073C89E:
	cmp	eax,11Fh
	jz	73C9C3h

l0073C8A9:
	movsx	edx,word ptr [ebp+0h]
	mov	eax,[0A18720h]
	push	edx
	push	8DC9A8h
	push	eax
	call	6E15D0h
	add	esp,0Ch
	pop	edi
	pop	esi
	pop	ebp
	xor	eax,eax
	pop	ebx
	pop	ecx
	ret

l0073C8C9:
	cmp	eax,10h
	jz	73C957h

l0073C8D2:
	cmp	eax,11Bh
	jnz	73C8A9h

l0073C8D9:
	mov	ebx,[esp+18h]
	mov	ecx,3h
	mov	dword ptr [esp+1Ch],0h
	cmp	[ebp+10h],ecx
	jnz	73C927h

l0073C8EF:
	mov	eax,[ebp+14h]
	mov	esi,[eax+1Ch]
	mov	edi,8DBBE0h
	xor	edx,edx

l0073C8FC:
	rep cmpsb

l0073C8FE:
	jz	73C914h

l0073C900:
	mov	edx,8DC990h
	mov	eax,ebp
	call	73B830h

l0073C90C:
	pop	edi
	pop	esi
	pop	ebp
	xor	eax,eax
	pop	ebx
	pop	ecx
	ret

l0073C914:
	mov	ecx,[ebx+4h]
	mov	eax,[eax+34h]
	push	ecx
	call	73B810h
	add	esp,4h
	mov	[esp+1Ch],eax

l0073C927:
	mov	edx,[ebp+14h]
	mov	eax,[edx+4h]
	mov	edi,[ebx+4h]
	push	eax
	call	6F1A70h
	mov	esi,eax
	push	esi
	push	edi
	call	740DF0h
	mov	eax,[ebx+4h]
	mov	ecx,[esp+28h]
	push	eax
	push	ecx
	push	esi
	call	744270h
	add	esp,18h
	pop	edi
	pop	esi
	pop	ebp
	pop	ebx
	pop	ecx
	ret

l0073C957:
	push	8A7F90h
	call	6F1A70h
	mov	[esp+20h],eax
	push	eax
	jmp	73CAB4h

l0073C96B:
	mov	edx,[ebp+14h]
	mov	eax,[esp+18h]
	push	edx
	push	eax
	call	73C870h
	mov	ebx,eax
	add	esp,8h
	test	ebx,ebx
	jz	73C90Ch

l0073C982:
	mov	eax,[ebp+14h]
	mov	esi,[eax+1Ch]
	mov	edi,8DBBE0h
	mov	ecx,3h
	xor	edx,edx

l0073C994:
	rep cmpsb

l0073C996:
	jnz	73C900h

l0073C99C:
	mov	eax,[eax+34h]
	mov	ecx,[esp+18h]
	mov	edi,[ecx+4h]
	push	eax
	call	6F1A70h
	mov	esi,eax
	push	esi
	push	edi
	call	740DF0h
	add	esp,0Ch
	pop	edi
	mov	[ebx+4h],esi
	pop	esi
	pop	ebp
	mov	eax,ebx
	pop	ebx
	pop	ecx
	ret

l0073C9C3:
	mov	edi,[ebp+10h]
	cmp	edi,1h
	jnz	73C9FCh

l0073C9CB:
	mov	ecx,[ebp+14h]
	mov	eax,[ecx+4h]
	mov	edi,[esp+18h]
	mov	ebx,[edi+4h]
	push	eax
	call	6F1A70h
	mov	esi,eax
	push	esi
	push	ebx
	call	740DF0h
	mov	edx,[edi+4h]
	push	edx
	push	0h
	push	esi
	call	744270h
	add	esp,18h
	pop	edi
	pop	esi
	pop	ebp
	pop	ebx
	pop	ecx
	ret

l0073C9FC:
	xor	esi,esi
	test	edi,edi
	jle	73CA2Ch

l0073CA02:
	mov	ecx,[ebp+14h]
	add	edi,0FFh
	shr	edi,1h
	add	ecx,4h
	add	edi,1h

l0073CA10:
	mov	eax,[ecx]
	lea	ebx,[eax+1h]

l0073CA15:
	mov	dl,[eax]
	add	eax,1h
	test	dl,dl
	jnz	73CA15h

l0073CA1E:
	sub	eax,ebx
	add	ecx,30h
	sub	edi,1h
	lea	esi,[esi+eax+1h]
	jnz	73CA10h

l0073CA2C:
	add	esi,0FFh
	push	esi
	push	0h
	call	6EC9B0h
	add	esp,8h
	test	eax,eax
	mov	[esp+1Ch],eax
	jz	73C90Ch

l0073CA46:
	lea	ecx,[eax+14h]
	test	ecx,ecx
	jz	73C90Ch

l0073CA51:
	xor	ebx,ebx
	cmp	[ebp+10h],ebx
	jle	73CAA1h

l0073CA58:
	mov	[esp+10h],ebx
	lea	esp,[esp+0h]

l0073CA60:
	mov	eax,[ebp+14h]
	mov	edx,[esp+10h]
	mov	eax,[edx+eax+4h]
	mov	esi,eax
	mov	edi,ecx
	nop

l0073CA70:
	mov	dl,[esi]
	mov	[edi],dl
	add	esi,1h
	add	edi,1h
	test	dl,dl
	jnz	73CA70h

l0073CA7E:
	lea	esi,[eax+1h]

l0073CA81:
	mov	dl,[eax]
	add	eax,1h
	test	dl,dl
	jnz	73CA81h

l0073CA8A:
	add	dword ptr [esp+10h],30h
	sub	eax,esi
	add	ecx,eax
	mov	byte ptr [ecx],2Eh
	add	ebx,2h
	add	ecx,1h
	cmp	ebx,[ebp+10h]
	jl	73CA60h

l0073CAA1:
	lea	eax,[esp+1Ch]
	push	eax
	mov	byte ptr [ecx-1h],0h
	call	6EC890h
	mov	ecx,[esp+20h]
	push	ecx

l0073CAB4:
	mov	esi,[esp+20h]
	mov	edx,[esi+4h]
	push	edx
	call	740DF0h
	mov	eax,[esi+4h]
	mov	ecx,[esp+28h]
	push	eax
	push	0h
	push	ecx
	call	744270h
	add	esp,18h
	pop	edi
	pop	esi
	pop	ebp
	pop	ebx
	pop	ecx
	ret
0073CADA                               CC CC CC CC CC CC           ......

;; fn0073CAE0: 0073CAE0
;;   Called from:
;;     00740238 (in fn00740160)
fn0073CAE0 proc
	sub	esp,10h
	mov	ecx,[eax+8h]
	mov	edx,[eax+0Ch]
	push	ebx
	push	ebp
	push	esi
	push	edi
	mov	edi,[eax+14h]
	movzx	eax,word ptr [edi]
	cmp	ax,119h
	mov	[esp+1Ch],ecx
	mov	[esp+18h],edx
	jnz	73CB96h

l0073CB05:
	mov	esi,[edi+14h]
	mov	eax,[esp+24h]
	mov	ecx,[eax+4h]
	mov	eax,[esi+28h]
	add	esi,18h
	add	eax,1h
	cdq
	sub	eax,edx
	push	ecx
	sar	eax,1h
	push	eax
	call	752E30h
	mov	ebp,eax
	add	esp,8h
	test	ebp,ebp
	jz	73CDEDh

l0073CB31:
	xor	edi,edi
	cmp	[esi+10h],edi
	jle	73CB73h

l0073CB38:
	xor	ebx,ebx
	lea	ebx,[ebx+0h]

l0073CB40:
	mov	edx,[esi+14h]
	mov	eax,[esp+24h]
	add	edx,ebx
	push	edx
	push	eax
	call	73C870h
	mov	ecx,eax
	add	esp,8h
	test	ecx,ecx
	jz	73CDEDh

l0073CB5D:
	mov	eax,edi
	cdq
	sub	eax,edx
	sar	eax,1h
	add	edi,2h
	mov	[ebp+eax*4+4h],ecx
	add	ebx,30h
	cmp	edi,[esi+10h]
	jl	73CB40h

l0073CB73:
	mov	ecx,[esp+24h]
	mov	edx,[ecx+4h]
	mov	eax,[esp+18h]
	mov	ecx,[esp+1Ch]
	push	edx
	push	eax
	push	ecx
	push	ebp
	call	743520h
	add	esp,10h
	pop	edi
	pop	esi
	pop	ebp
	pop	ebx
	add	esp,10h
	ret

l0073CB96:
	cmp	ax,11Ah
	jnz	73CDD2h

l0073CBA0:
	mov	eax,[edi+10h]
	xor	ebp,ebp
	mov	esi,1h
	cmp	eax,esi
	mov	[esp+10h],ebp
	mov	[esp+14h],ebp
	jle	73CBE5h

l0073CBB6:
	mov	ebx,[edi+14h]
	lea	ecx,[ebx+18h]
	lea	esp,[esp+0h]

l0073CBC0:
	movzx	edx,word ptr [ecx]
	cmp	dx,11Fh
	jz	73CC61h

l0073CBCE:
	cmp	dx,17h
	jnz	73CBE1h

l0073CBD4:
	add	esi,1h
	add	ebp,1h
	add	ecx,18h
	cmp	esi,eax
	jl	73CBC0h

l0073CBE1:
	mov	[esp+10h],ebp

l0073CBE5:
	mov	ebx,[esp+24h]

l0073CBE9:
	mov	edx,[edi+14h]
	add	esi,1h
	lea	ecx,[esi+esi*2]
	movsx	eax,word ptr [edx+ecx*8]
	cmp	eax,7h
	lea	esi,[edx+ecx*8]
	jz	73CD06h

l0073CC02:
	cmp	eax,10h
	jz	73CCAFh

l0073CC0B:
	cmp	eax,11Dh
	jz	73CC85h

l0073CC12:
	mov	eax,[edi+8h]
	push	eax
	push	8DCA5Ch
	push	8DC7CCh
	call	6EA200h
	mov	esi,eax
	add	esp,0Ch
	test	esi,esi
	jz	73CDEDh

l0073CC32:
	mov	ecx,[0A178F4h]
	push	esi
	push	ecx
	call	6E0E90h
	add	esp,8h
	add	dword ptr [esi],0FFh
	jnz	73CDEDh

l0073CC4B:
	mov	edx,[esi+4h]
	mov	eax,[edx+18h]
	push	esi
	call	eax
	add	esp,4h
	pop	edi
	pop	esi
	pop	ebp
	xor	eax,eax
	pop	ebx
	add	esp,10h
	ret

l0073CC61:
	lea	edx,[esi+esi*2]
	lea	eax,[ebx+edx*8]
	mov	ebx,[esp+24h]
	push	eax
	push	ebx
	mov	[esp+18h],ebp
	call	73C870h
	add	esp,8h
	mov	[esp+14h],eax
	add	esi,1h
	jmp	73CBE9h

l0073CC85:
	mov	eax,[esi+10h]
	mov	ecx,eax
	and	ecx,80000001h
	jns	73CC97h

l0073CC92:
	dec	ecx
	or	ecx,0FEh
	inc	ecx

l0073CC97:
	jnz	73CD0Ch

l0073CC99:
	mov	edx,8DCA20h
	mov	eax,esi
	call	73B830h
	pop	edi
	pop	esi
	pop	ebp
	xor	eax,eax
	pop	ebx
	add	esp,10h
	ret

l0073CCAF:
	test	ebp,ebp
	mov	eax,1h
	jz	73CD0Ch

l0073CCB8:
	mov	edx,[esi+8h]
	push	edx
	push	8DC9F8h
	push	8DC7CCh
	call	6EA200h
	mov	esi,eax
	add	esp,0Ch
	test	esi,esi
	jz	73CDEDh

l0073CCD8:
	mov	eax,[0A178F4h]
	push	esi
	push	eax
	call	6E0E90h
	add	esp,8h
	add	dword ptr [esi],0FFh
	jnz	73CDEDh

l0073CCF0:
	mov	ecx,[esi+4h]
	mov	edx,[ecx+18h]
	push	esi
	call	edx
	add	esp,4h
	pop	edi
	pop	esi
	pop	ebp
	xor	eax,eax
	pop	ebx
	add	esp,10h
	ret

l0073CD06:
	mov	eax,[esi+28h]
	add	esi,18h

l0073CD0C:
	mov	ecx,[ebx+4h]
	add	eax,1h
	cdq
	sub	eax,edx
	push	ecx
	sar	eax,1h
	push	eax
	call	752E30h
	mov	ebp,eax
	add	esp,8h
	test	ebp,ebp
	jz	73CDEDh

l0073CD2B:
	cmp	word ptr [esi],10h
	jnz	73CD48h

l0073CD31:
	push	esi
	push	ebx
	call	73C870h
	add	esp,8h
	test	eax,eax
	jz	73CDEDh

l0073CD43:
	mov	[ebp+4h],eax
	jmp	73CD88h

l0073CD48:
	xor	edi,edi
	cmp	[esi+10h],edi
	jle	73CD88h

l0073CD4F:
	xor	ebx,ebx

l0073CD51:
	mov	edx,[esi+14h]
	mov	eax,[esp+24h]
	add	edx,ebx
	push	edx
	push	eax
	call	73C870h
	mov	ecx,eax
	add	esp,8h
	test	ecx,ecx
	jz	73CDEDh

l0073CD6E:
	mov	eax,edi
	cdq
	sub	eax,edx
	sar	eax,1h
	add	edi,2h
	mov	[ebp+eax*4+4h],ecx
	add	ebx,30h
	cmp	edi,[esi+10h]
	jl	73CD51h

l0073CD84:
	mov	ebx,[esp+24h]

l0073CD88:
	mov	eax,[esp+14h]
	test	eax,eax
	jz	73CD94h

l0073CD90:
	mov	esi,[eax]
	jmp	73CDADh

l0073CD94:
	mov	edi,[ebx+4h]
	push	8A698Fh
	call	6F1A70h
	mov	esi,eax
	push	esi
	push	edi
	call	740DF0h
	add	esp,0Ch

l0073CDAD:
	mov	ecx,[ebx+4h]
	mov	edx,[esp+18h]
	mov	eax,[esp+1Ch]
	push	ecx
	mov	ecx,[esp+14h]
	push	edx
	push	eax
	push	ecx
	push	ebp
	push	esi
	call	743560h
	add	esp,18h
	pop	edi
	pop	esi
	pop	ebp
	pop	ebx
	add	esp,10h
	ret

l0073CDD2:
	mov	edx,[edi+14h]
	mov	eax,[edx+4h]
	mov	ecx,[0A18720h]
	push	eax
	push	8DC9C4h
	push	ecx
	call	6E15D0h
	add	esp,0Ch

l0073CDED:
	pop	edi
	pop	esi
	pop	ebp
	xor	eax,eax
	pop	ebx
	add	esp,10h
	ret
0073CDF7                      CC CC CC CC CC CC CC CC CC        .........

;; fn0073CE00: 0073CE00
;;   Called from:
;;     00740249 (in fn00740160)
fn0073CE00 proc
	sub	esp,8h
	mov	eax,[esp+0Ch]
	mov	ecx,[eax+4h]
	mov	eax,[edi+10h]
	cdq
	sub	eax,edx
	push	ecx
	sar	eax,1h
	push	eax
	call	752E30h
	add	esp,8h
	test	eax,eax
	mov	[esp],eax
	jnz	73CE27h

l0073CE23:
	add	esp,8h
	ret

l0073CE27:
	push	ebx
	mov	ebx,1h
	cmp	[edi+10h],ebx
	push	ebp
	push	esi
	jle	73CE88h

l0073CE34:
	mov	ebp,18h
	lea	esp,[esp+0h]

l0073CE40:
	mov	edx,[esp+18h]
	mov	eax,[edx+4h]
	mov	ecx,[edi+14h]
	mov	[esp+10h],eax
	mov	eax,[ecx+ebp+4h]
	push	eax
	call	6F1A70h
	mov	edx,[esp+14h]
	mov	esi,eax
	push	esi
	push	edx
	call	740DF0h
	add	esp,0Ch
	test	esi,esi
	jz	73CEA8h

l0073CE6C:
	mov	ecx,[esp+0Ch]
	mov	eax,ebx
	cdq
	sub	eax,edx
	sar	eax,1h
	add	ebx,2h
	mov	[ecx+eax*4+4h],esi
	add	ebp,30h
	cmp	ebx,[edi+10h]
	jl	73CE40h

l0073CE86:
	mov	eax,ecx

l0073CE88:
	mov	edx,[esp+18h]
	mov	ecx,[edx+4h]
	mov	edx,[edi+0Ch]
	push	ecx
	mov	ecx,[edi+8h]
	push	edx
	push	ecx
	push	eax
	call	743640h
	add	esp,10h
	pop	esi
	pop	ebp
	pop	ebx
	add	esp,8h
	ret

l0073CEA8:
	pop	esi
	pop	ebp
	xor	eax,eax
	pop	ebx
	add	esp,8h
	ret
0073CEB1    CC CC CC CC CC CC CC CC CC CC CC CC CC CC CC  ...............

;; fn0073CEC0: 0073CEC0
;;   Called from:
;;     0073D06E (in fn0073D050)
;;     0073D10B (in fn0073D050)
;;     0073F2F1 (in fn0073F2C0)
;;     0073F348 (in fn0073F2C0)
;;     0073F365 (in fn0073F2C0)
;;     0073F42A (in fn0073F2C0)
;;     0073F44B (in fn0073F2C0)
;;     0073F4EC (in fn0073F2C0)
;;     0073F55E (in fn0073F2C0)
;;     0073F5DB (in fn0073F5B0)
;;     0073F629 (in fn0073F5B0)
;;     0073F642 (in fn0073F5B0)
;;     0073F69E (in fn0073F690)
;;     0073F6EB (in fn0073F690)
;;     0073F763 (in fn0073F690)
;;     0073F7E5 (in fn0073F7B0)
;;     0073F84C (in fn0073F7B0)
;;     0073F874 (in fn0073F7B0)
;;     0073F89C (in fn0073F7B0)
;;     0073FAB6 (in fn0073FA50)
;;     0073FB5F (in fn0073FAF0)
;;     0073FBB9 (in fn0073FAF0)
;;     0073FBE6 (in fn0073FAF0)
;;     00740127 (in fn00740060)
fn0073CEC0 proc
	sub	esp,10h
	push	ebp
	mov	ebp,[esp+1Ch]
	push	esi
	xor	esi,esi
	push	ebp
	mov	[esp+0Ch],esi
	call	73B9B0h
	mov	ecx,[esp+20h]
	mov	edx,[ecx+4h]
	push	edx
	push	eax
	call	752E30h
	add	esp,0Ch
	test	eax,eax
	mov	[esp+0Ch],eax
	jnz	73CEF4h

l0073CEEE:
	pop	esi
	pop	ebp
	add	esp,10h
	ret

l0073CEF4:
	mov	ecx,[ebp+14h]
	cmp	word ptr [ecx],10Bh
	push	ebx
	push	edi
	mov	[esp+1Ch],ecx
	jnz	73CF6Ah

l0073CF04:
	mov	ebp,[ecx+10h]
	mov	esi,[ecx+14h]
	sub	ebp,1h
	lea	edx,[ebp+ebp*2+0h]
	cmp	word ptr [esi+edx*8-18h],0Dh
	jnz	73CF1Ch

l0073CF19:
	sub	ebp,1h

l0073CF1C:
	xor	esi,esi
	test	ebp,ebp
	jle	73D046h

l0073CF26:
	xor	edi,edi
	lea	ebx,[eax+4h]
	jmp	73CF34h
0073CF2D                                        8D 49 00              .I.

l0073CF30:
	mov	ecx,[esp+1Ch]

l0073CF34:
	mov	eax,[ecx+14h]
	add	eax,edi
	push	eax
	mov	eax,[esp+28h]
	push	eax
	call	740160h
	add	esp,8h
	test	eax,eax
	jz	73D044h

l0073CF4F:
	mov	[ebx],eax
	add	esi,2h
	add	ebx,4h
	add	edi,30h
	cmp	esi,ebp
	jl	73CF30h

l0073CF5E:
	mov	eax,[esp+14h]
	pop	edi
	pop	ebx
	pop	esi
	pop	ebp
	add	esp,10h
	ret

l0073CF6A:
	mov	ecx,[ebp+10h]
	sub	ecx,1h
	cmp	ecx,2h
	mov	dword ptr [esp+1Ch],2h
	jle	73D046h

l0073CF81:
	mov	dword ptr [esp+18h],30h
	lea	esp,[esp+0h]

l0073CF90:
	mov	edi,[ebp+14h]
	add	edi,[esp+18h]
	push	edi
	call	73B9B0h
	add	esp,4h
	cmp	eax,1h
	jnz	73CFCCh

l0073CFA5:
	mov	edx,[esp+24h]
	push	edi
	push	edx
	call	740160h
	add	esp,8h
	test	eax,eax
	jz	73D044h

l0073CFBB:
	mov	ecx,[esp+14h]
	mov	[ecx+esi*4+4h],eax
	add	esi,1h
	mov	[esp+10h],esi
	jmp	73D01Ah

l0073CFCC:
	mov	ebx,[edi+14h]
	xor	edi,edi
	cmp	[ebx+10h],edi
	jle	73D01Ah

l0073CFD6:
	mov	edx,[esp+14h]
	xor	ebp,ebp
	lea	esi,[edx+esi*4+4h]

l0073CFE0:
	mov	eax,[ebx+14h]
	add	eax,ebp
	cmp	dword ptr [eax+10h],0h
	jz	73D012h

l0073CFEB:
	mov	ecx,[esp+24h]
	push	eax
	push	ecx
	call	740160h
	add	esp,8h
	test	eax,eax
	jz	73D044h

l0073CFFD:
	add	dword ptr [esp+10h],1h
	mov	[esi],eax
	add	edi,2h
	add	esi,4h
	add	ebp,30h
	cmp	edi,[ebx+10h]
	jl	73CFE0h

l0073D012:
	mov	esi,[esp+10h]
	mov	ebp,[esp+28h]

l0073D01A:
	mov	eax,[esp+1Ch]
	mov	edx,[ebp+10h]
	add	dword ptr [esp+18h],18h
	add	eax,1h
	sub	edx,1h
	cmp	eax,edx
	mov	[esp+1Ch],eax
	jl	73CF90h

l0073D038:
	mov	eax,[esp+14h]
	pop	edi
	pop	ebx
	pop	esi
	pop	ebp
	add	esp,10h
	ret

l0073D044:
	xor	eax,eax

l0073D046:
	pop	edi
	pop	ebx
	pop	esi
	pop	ebp
	add	esp,10h
	ret
0073D04E                                           CC CC               ..

;; fn0073D050: 0073D050
;;   Called from:
;;     007402C1 (in fn00740160)
fn0073D050 proc
	push	ecx
	cmp	dword ptr [ebx+10h],9h
	push	ebp
	mov	ebp,[esp+0Ch]
	mov	dword ptr [esp+4h],0h
	jnz	73D081h

l0073D064:
	mov	eax,[ebx+14h]
	add	eax,0C0h
	push	eax
	push	ebp
	call	73CEC0h
	add	esp,8h
	test	eax,eax
	mov	[esp+4h],eax
	jnz	73D081h

l0073D07E:
	pop	ebp
	pop	ecx
	ret

l0073D081:
	push	esi
	push	edi
	mov	edi,[ebx+14h]
	add	edi,18h
	push	2h
	push	ebp
	mov	esi,edi
	call	73C7D0h
	add	esp,8h
	test	eax,eax
	jz	73D117h

l0073D09A:
	cmp	dword ptr [edi+10h],1h
	jnz	73D0A5h

l0073D0A0:
	mov	esi,[eax+4h]
	jmp	73D0BEh

l0073D0A5:
	mov	ecx,[ebp+4h]
	mov	edx,[ebx+0Ch]
	push	ecx
	mov	ecx,[ebx+8h]
	push	edx
	push	ecx
	push	2h
	push	eax
	call	743FC0h
	add	esp,14h
	mov	esi,eax

l0073D0BE:
	mov	edi,[ebx+14h]
	add	edi,48h
	cmp	dword ptr [edi+10h],1h
	jnz	73D0D9h

l0073D0CA:
	mov	edx,[edi+14h]
	push	edx
	push	ebp
	call	73E7A0h
	add	esp,8h
	jmp	73D0FDh

l0073D0D9:
	push	ebp
	call	73C090h
	add	esp,4h
	test	eax,eax
	jz	73D117h

l0073D0E6:
	mov	ecx,[ebp+4h]
	mov	edx,[edi+0Ch]
	push	ecx
	mov	ecx,[edi+8h]
	push	edx
	push	ecx
	push	1h
	push	eax
	call	743FC0h
	add	esp,14h

l0073D0FD:
	mov	edi,eax
	test	edi,edi
	jz	73D117h

l0073D103:
	mov	edx,[ebx+14h]
	add	edx,78h
	push	edx
	push	ebp
	call	73CEC0h
	add	esp,8h
	test	eax,eax
	jnz	73D11Eh

l0073D117:
	pop	edi
	pop	esi
	xor	eax,eax
	pop	ebp
	pop	ecx
	ret

l0073D11E:
	mov	ecx,[ebp+4h]
	mov	edx,[ebx+0Ch]
	push	ecx
	mov	ecx,[ebx+8h]
	push	edx
	mov	edx,[esp+14h]
	push	ecx
	push	edx
	push	eax
	push	edi
	push	esi
	call	743200h
	add	esp,1Ch
	pop	edi
	pop	esi
	pop	ebp
	pop	ecx
	ret
0073D13F                                              CC                .

;; fn0073D140: 0073D140
;;   Called from:
;;     0073E0F2 (in fn0073E050)
fn0073D140 proc
	sub	esp,14h
	push	ebx
	mov	ebx,[8A46E4h]
	push	ebp
	push	edi
	call	ebx
	mov	dword ptr [eax],0h
	mov	eax,esi
	lea	edx,[eax+1h]
	lea	esp,[esp+0h]

l0073D160:
	mov	cl,[eax]
	add	eax,1h
	test	cl,cl
	jnz	73D160h

l0073D169:
	sub	eax,edx
	lea	eax,[eax+esi-1h]
	mov	[esp+0Ch],eax
	mov	al,[eax]
	cmp	al,6Ah
	jz	73D181h

l0073D179:
	cmp	al,4Ah
	jz	73D181h

l0073D17D:
	xor	ebp,ebp
	jmp	73D186h

l0073D181:
	mov	ebp,1h

l0073D186:
	cmp	al,6Ch
	jz	73D1B0h

l0073D18A:
	cmp	al,4Ch
	jz	73D1B0h

l0073D18E:
	cmp	byte ptr [esi],30h
	push	0h
	jnz	73D1C4h

l0073D195:
	lea	eax,[esp+10h]
	push	eax
	push	esi
	call	7501A0h
	mov	edi,eax
	add	esp,0Ch
	test	edi,edi
	jge	73D1D4h

l0073D1A9:
	call	ebx
	cmp	dword ptr [eax],0h
	jnz	73D1D4h

l0073D1B0:
	push	0h
	push	0h
	push	esi
	call	7120F0h
	add	esp,0Ch
	pop	edi
	pop	ebp
	pop	ebx
	add	esp,14h
	ret

l0073D1C4:
	lea	ecx,[esp+10h]
	push	ecx
	push	esi
	call	7502F0h
	add	esp,0Ch
	mov	edi,eax

l0073D1D4:
	mov	edx,[esp+0Ch]
	cmp	byte ptr [edx],0h
	jnz	73D1F4h

l0073D1DD:
	call	ebx
	cmp	dword ptr [eax],0h
	jnz	73D1B0h

l0073D1E4:
	push	edi
	call	7050A0h
	add	esp,4h
	pop	edi
	pop	ebp
	pop	ebx
	add	esp,14h
	ret

l0073D1F4:
	test	ebp,ebp
	push	esi
	jz	73D221h

l0073D1F9:
	fldz
	fstp	double ptr [esp+14h]
	call	74F3B0h
	fld	double ptr [esp+14h]
	sub	esp,0Ch
	mov	eax,esp
	fstp	double ptr [eax]
	fstp	double ptr [eax+8h]
	call	7331D0h
	add	esp,10h
	pop	edi
	pop	ebp
	pop	ebx
	add	esp,14h
	ret

l0073D221:
	call	74F3B0h
	push	ecx
	fstp	double ptr [esp]
	call	6FF060h
	add	esp,8h
	pop	edi
	pop	ebp
	pop	ebx
	add	esp,14h
	ret
0073D239                            CC CC CC CC CC CC CC          .......

;; fn0073D240: 0073D240
;;   Called from:
;;     0073D35F (in fn0073D2A0)
fn0073D240 proc
	push	esi
	mov	esi,eax
	mov	eax,[esi]
	cmp	eax,edx
	mov	ecx,eax
	jnc	73D25Ch

l0073D24B:
	jmp	73D250h
0073D24D                                        8D 49 00              .I.

l0073D250:
	test	byte ptr [eax],80h
	jz	73D25Ch

l0073D255:
	add	eax,1h
	cmp	eax,edx
	jc	73D250h

l0073D25C:
	mov	[esi],eax
	push	0h
	sub	eax,ecx
	push	eax
	push	ecx
	call	71FC80h
	mov	esi,eax
	add	esp,0Ch
	test	esi,esi
	jnz	73D274h

l0073D272:
	pop	esi
	ret

l0073D274:
	mov	eax,[esp+8h]
	push	edi
	push	0h
	push	eax
	push	esi
	call	71FB20h
	add	esp,0Ch
	add	dword ptr [esi],0FFh
	mov	edi,eax
	jnz	73D298h

l0073D28C:
	mov	ecx,[esi+4h]
	mov	edx,[ecx+18h]
	push	esi
	call	edx
	add	esp,4h

l0073D298:
	mov	eax,edi
	pop	edi
	pop	esi
	ret
0073D29D                                        CC CC CC              ...

;; fn0073D2A0: 0073D2A0
;;   Called from:
;;     0073D64B (in fn0073D450)
fn0073D2A0 proc
	sub	esp,10h
	push	ebx
	mov	ebx,[esp+18h]
	push	ebp
	mov	ebp,[esp+20h]
	push	esi
	mov	esi,eax
	test	esi,esi
	push	edi
	jnz	73D2BCh

l0073D2B5:
	xor	edi,edi
	jmp	73D3E7h

l0073D2BC:
	mov	edi,8DCAA0h
	mov	ecx,0Bh
	xor	eax,eax

l0073D2C8:
	rep cmpsb

l0073D2CA:
	jnz	73D2D3h

l0073D2CC:
	mov	edi,eax
	jmp	73D3E7h

l0073D2D3:
	cmp	ebp,3FFFFFFFh
	ja	73D41Ch

l0073D2DF:
	lea	ecx,[0000h+ebp*4]
	push	ecx
	push	0h
	call	6EC9B0h
	add	esp,8h
	test	eax,eax
	mov	[esp+10h],eax
	jz	73D41Ch

l0073D2FD:
	push	eax
	call	6ECC50h
	lea	edx,[ebx+ebp]
	add	esp,4h
	cmp	ebx,edx
	mov	[esp+1Ch],eax
	mov	edi,eax
	mov	[esp+14h],edx
	jnc	73D3DDh

l0073D31B:
	jmp	73D320h
0073D31D                                        8D 49 00              .I.

l0073D320:
	cmp	byte ptr [ebx],5Ch
	jnz	73D34Ch

l0073D325:
	mov	byte ptr [edi],5Ch
	add	ebx,1h
	add	edi,1h
	test	byte ptr [ebx],80h
	mov	[esp+24h],ebx
	jz	73D34Ch

l0073D337:
	mov	eax,[8DCA98h]
	mov	[edi],eax
	mov	cx,[8DCA9Ch]
	mov	[edi+4h],cx
	add	edi,5h

l0073D34C:
	mov	al,[ebx]
	test	al,al
	jns	73D3F9h

l0073D356:
	push	8DCA8Ch
	lea	eax,[esp+28h]
	call	73D240h
	mov	esi,eax
	add	esp,4h
	test	esi,esi
	mov	[esp+18h],esi
	jz	73D407h

l0073D375:
	push	esi
	call	6ECC50h
	push	esi
	mov	ebx,eax
	call	6ECC00h
	mov	ebp,eax
	add	esp,8h
	xor	esi,esi
	test	ebp,ebp
	jle	73D3B4h

l0073D38E:
	mov	edi,edi

l0073D390:
	movzx	edx,byte ptr [esi+ebx+1h]
	movzx	eax,byte ptr [esi+ebx]
	push	edx
	push	eax
	push	8DCA80h
	push	edi
	call	dword ptr [8A4650h]
	add	esi,2h
	add	esp,10h
	add	edi,6h
	cmp	esi,ebp
	jl	73D390h

l0073D3B4:
	mov	eax,[esp+18h]
	add	dword ptr [eax],0FFh
	jnz	73D3C9h

l0073D3BD:
	mov	ecx,[eax+4h]
	mov	edx,[ecx+18h]
	push	eax
	call	edx
	add	esp,4h

l0073D3C9:
	mov	edx,[esp+14h]
	mov	ebx,[esp+24h]

l0073D3D1:
	cmp	ebx,edx
	jc	73D320h

l0073D3D9:
	mov	eax,[esp+1Ch]

l0073D3DD:
	sub	edi,eax
	mov	ebp,edi
	mov	edi,[esp+10h]
	mov	ebx,eax

l0073D3E7:
	cmp	dword ptr [esp+2Ch],0h
	push	0h
	push	ebp
	push	ebx
	jz	73D426h

l0073D3F2:
	call	719870h
	jmp	73D42Bh

l0073D3F9:
	mov	[edi],al
	add	edi,1h
	add	ebx,1h
	mov	[esp+24h],ebx
	jmp	73D3D1h

l0073D407:
	mov	eax,[esp+10h]
	add	dword ptr [eax],0FFh
	jnz	73D41Ch

l0073D410:
	mov	ecx,[eax+4h]
	mov	edx,[ecx+18h]
	push	eax
	call	edx
	add	esp,4h

l0073D41C:
	pop	edi
	pop	esi
	pop	ebp
	xor	eax,eax
	pop	ebx
	add	esp,10h
	ret

l0073D426:
	call	718F10h

l0073D42B:
	add	esp,0Ch
	test	edi,edi
	mov	esi,eax
	jz	73D445h

l0073D434:
	add	dword ptr [edi],0FFh
	jnz	73D445h

l0073D439:
	mov	eax,[edi+4h]
	mov	ecx,[eax+18h]
	push	edi
	call	ecx
	add	esp,4h

l0073D445:
	pop	edi
	mov	eax,esi
	pop	esi
	pop	ebp
	pop	ebx
	add	esp,10h
	ret
0073D44F                                              CC                .

;; fn0073D450: 0073D450
;;   Called from:
;;     0073D673 (in fn0073D660)
;;     0073D6AE (in fn0073D660)
fn0073D450 proc
	push	ecx
	push	ebx
	push	esi
	mov	ebx,eax
	movzx	esi,byte ptr [ebx]
	push	edi
	xor	edi,edi
	push	esi
	mov	[esp+10h],edi
	call	dword ptr [8A46C8h]
	add	esp,4h
	test	eax,eax
	jnz	73D472h

l0073D46D:
	cmp	esi,5Fh
	jnz	73D4A1h

l0073D472:
	cmp	esi,75h
	jz	73D47Ch

l0073D477:
	cmp	esi,55h
	jnz	73D488h

l0073D47C:
	movsx	esi,byte ptr [ebx+1h]
	add	ebx,1h
	mov	edi,1h

l0073D488:
	cmp	esi,72h
	jz	73D492h

l0073D48D:
	cmp	esi,52h
	jnz	73D4A1h

l0073D492:
	movsx	esi,byte ptr [ebx+1h]
	add	ebx,1h
	mov	dword ptr [esp+0Ch],1h

l0073D4A1:
	cmp	esi,27h
	jz	73D4C4h

l0073D4A6:
	cmp	esi,22h
	jz	73D4C4h

l0073D4AB:
	push	0C89h
	push	8DCAC8h
	call	6E1DC0h
	add	esp,8h
	pop	edi
	pop	esi
	xor	eax,eax
	pop	ebx
	pop	ecx
	ret

l0073D4C4:
	add	ebx,1h
	push	ebp
	mov	ebp,ebx
	lea	ecx,[ebp+1h]
	lea	ecx,[ecx+0h]

l0073D4D0:
	mov	al,[ebp+0h]
	add	ebp,1h
	test	al,al
	jnz	73D4D0h

l0073D4DA:
	sub	ebp,ecx
	cmp	ebp,7FFFFFFFh
	jbe	73D4FFh

l0073D4E4:
	mov	eax,[0A18598h]
	push	8DCAACh
	push	eax
	call	6E0F80h
	add	esp,8h
	pop	ebp
	pop	edi
	pop	esi
	xor	eax,eax
	pop	ebx
	pop	ecx
	ret

l0073D4FF:
	movsx	ecx,byte ptr [ebx+ebp-1h]
	sub	ebp,1h
	cmp	ecx,esi
	jz	73D525h

l0073D50B:
	push	0C94h
	push	8DCAC8h
	call	6E1DC0h
	add	esp,8h
	pop	ebp
	pop	edi
	pop	esi
	xor	eax,eax
	pop	ebx
	pop	ecx
	ret

l0073D525:
	cmp	ebp,4h
	jc	73D56Eh

l0073D52A:
	movsx	edx,byte ptr [ebx]
	cmp	edx,esi
	jnz	73D56Eh

l0073D531:
	movsx	eax,byte ptr [ebx+1h]
	cmp	eax,esi
	jnz	73D56Eh

l0073D539:
	movsx	ecx,byte ptr [ebx+ebp-1h]
	add	ebx,2h
	sub	ebp,3h
	cmp	ecx,esi
	jnz	73D554h

l0073D548:
	movsx	edx,byte ptr [ebx+ebp-1h]
	sub	ebp,1h
	cmp	edx,esi
	jz	73D56Eh

l0073D554:
	push	0C9Bh
	push	8DCAC8h
	call	6E1DC0h
	add	esp,8h

l0073D566:
	pop	ebp
	pop	edi
	pop	esi
	xor	eax,eax
	pop	ebx
	pop	ecx
	ret

l0073D56E:
	test	edi,edi
	jnz	73D640h

l0073D576:
	cmp	[0A6C618h],edi
	jnz	73D640h

l0073D582:
	mov	eax,[esp+18h]
	test	eax,eax
	jz	73D5B5h

l0073D58A:
	mov	edi,8D9880h
	mov	esi,eax
	mov	ecx,6h
	xor	edx,edx

l0073D598:
	rep cmpsb

l0073D59A:
	jz	73D5B5h

l0073D59C:
	mov	esi,eax
	mov	edi,8DCAA0h
	mov	ecx,0Bh
	xor	eax,eax

l0073D5AA:
	rep cmpsb

l0073D5AC:
	jz	73D5B5h

l0073D5AE:
	mov	esi,1h
	jmp	73D5B7h

l0073D5B5:
	xor	esi,esi

l0073D5B7:
	cmp	dword ptr [esp+10h],0h
	jnz	73D5EBh

l0073D5BE:
	push	5Ch
	push	ebx
	call	dword ptr [8A46B0h]
	add	esp,8h
	test	eax,eax
	jz	73D5EBh

l0073D5CE:
	neg	esi
	sbb	esi,esi
	and	esi,[esp+18h]
	push	esi
	push	0h
	push	0h
	push	ebp
	push	ebx
	call	6F2090h
	add	esp,14h
	pop	ebp
	pop	edi
	pop	esi
	pop	ebx
	pop	ecx
	ret

l0073D5EB:
	test	esi,esi
	jz	73D630h

l0073D5EF:
	push	0h
	push	ebp
	push	ebx
	call	71FC80h
	mov	esi,eax
	add	esp,0Ch
	test	esi,esi
	jz	73D566h

l0073D605:
	mov	ecx,[esp+18h]
	push	0h
	push	ecx
	push	esi
	call	71FB20h
	add	esp,0Ch
	add	dword ptr [esi],0FFh
	mov	edi,eax
	jnz	73D628h

l0073D61C:
	mov	edx,[esi+4h]
	mov	eax,[edx+18h]
	push	esi
	call	eax
	add	esp,4h

l0073D628:
	pop	ebp
	mov	eax,edi
	pop	edi
	pop	esi
	pop	ebx
	pop	ecx
	ret

l0073D630:
	push	ebp
	push	ebx
	call	6EC9B0h
	add	esp,8h
	pop	ebp
	pop	edi
	pop	esi
	pop	ebx
	pop	ecx
	ret

l0073D640:
	mov	ecx,[esp+10h]
	mov	eax,[esp+18h]
	push	ecx
	push	ebp
	push	ebx
	call	73D2A0h
	add	esp,0Ch
	pop	ebp
	pop	edi
	pop	esi
	pop	ebx
	pop	ecx
	ret
0073D659                            CC CC CC CC CC CC CC          .......

;; fn0073D660: 0073D660
;;   Called from:
;;     0073E0B6 (in fn0073E050)
fn0073D660 proc
	sub	esp,8h
	mov	eax,[esp+0Ch]
	mov	ecx,[eax]
	mov	edx,[ebx+14h]
	mov	eax,[edx+4h]
	push	ebp
	push	esi
	push	edi
	push	ecx
	call	73D450h
	add	esp,4h
	test	eax,eax
	mov	[esp+0Ch],eax
	jz	73D797h

l0073D687:
	mov	ecx,1h
	cmp	[ebx+10h],ecx
	mov	[esp+10h],ecx
	jle	73D797h

l0073D699:
	mov	ebp,18h
	mov	edi,edi

l0073D6A0:
	mov	eax,[esp+18h]
	mov	ecx,[eax]
	mov	edx,[ebx+14h]
	mov	eax,[edx+ebp+4h]
	push	ecx
	call	73D450h
	mov	esi,eax
	mov	eax,[esp+10h]
	add	esp,4h
	test	esi,esi
	jz	73D779h

l0073D6C4:
	cmp	dword ptr [eax+4h],0A1B450h
	jz	73D6E2h

l0073D6CD:
	mov	eax,[eax+4h]
	push	0A1B450h
	push	eax
	call	6D5670h
	add	esp,8h
	test	eax,eax
	jz	73D6FEh

l0073D6E2:
	mov	eax,[esi+4h]
	cmp	eax,0A1B450h
	jz	73D745h

l0073D6EC:
	push	0A1B450h
	push	eax
	call	6D5670h
	add	esp,8h
	test	eax,eax
	jnz	73D745h

l0073D6FE:
	mov	ecx,[esp+0Ch]
	push	esi
	push	ecx
	call	721290h
	add	esp,8h
	add	dword ptr [esi],0FFh
	mov	edi,eax
	jnz	73D71Fh

l0073D713:
	mov	edx,[esi+4h]
	mov	eax,[edx+18h]
	push	esi
	call	eax
	add	esp,4h

l0073D71F:
	mov	eax,[esp+0Ch]
	add	dword ptr [eax],0FFh
	mov	eax,[esp+0Ch]
	cmp	dword ptr [eax],0h
	jnz	73D73Bh

l0073D72F:
	mov	ecx,[eax+4h]
	mov	edx,[ecx+18h]
	push	eax
	call	edx
	add	esp,4h

l0073D73B:
	mov	eax,edi
	mov	[esp+0Ch],eax
	test	edi,edi
	jmp	73D759h

l0073D745:
	lea	eax,[esp+0Ch]
	push	esi
	push	eax
	call	6EC4C0h
	mov	eax,[esp+14h]
	add	esp,8h
	test	eax,eax

l0073D759:
	jz	73D795h

l0073D75B:
	mov	ecx,[esp+10h]
	add	ecx,1h
	add	ebp,18h
	cmp	ecx,[ebx+10h]
	mov	[esp+10h],ecx
	jl	73D6A0h

l0073D772:
	pop	edi
	pop	esi
	pop	ebp
	add	esp,8h
	ret

l0073D779:
	test	eax,eax
	jz	73D795h

l0073D77D:
	add	dword ptr [eax],0FFh
	mov	eax,[esp+0Ch]
	cmp	dword ptr [eax],0h
	jnz	73D795h

l0073D789:
	mov	ecx,[eax+4h]
	mov	edx,[ecx+18h]
	push	eax
	call	edx
	add	esp,4h

l0073D795:
	xor	eax,eax

l0073D797:
	pop	edi
	pop	esi
	pop	ebp
	add	esp,8h
	ret
0073D79E                                           CC CC               ..

;; fn0073D7A0: 0073D7A0
;;   Called from:
;;     0073E1DF (in fn0073E050)
fn0073D7A0 proc
	sub	esp,1Ch
	push	ebx
	mov	ebx,[esp+28h]
	mov	eax,[ebx+14h]
	push	esi
	mov	esi,[esp+28h]
	push	eax
	push	esi
	call	73E7A0h
	add	esp,8h
	test	eax,eax
	mov	[esp+20h],eax
	jnz	73D7C8h

l0073D7C2:
	pop	esi
	pop	ebx
	add	esp,1Ch
	ret

l0073D7C8:
	push	ebp
	mov	eax,ebx
	call	73C440h
	mov	ebp,eax
	cmp	ebp,0FFh
	mov	[esp+1Ch],ebp
	jz	73D7F0h

l0073D7DB:
	mov	ecx,[esi+4h]
	push	ecx
	push	ebp
	call	752E30h
	add	esp,8h
	test	eax,eax
	mov	[esp+20h],eax
	jnz	73D7F9h

l0073D7F0:
	pop	ebp
	pop	esi
	xor	eax,eax
	pop	ebx
	add	esp,1Ch
	ret

l0073D7F9:
	push	edi
	mov	edi,[ebx+14h]
	add	edi,18h
	test	ebp,ebp
	mov	dword ptr [esp+14h],0h
	jle	73D987h

l0073D810:
	add	eax,4h
	mov	[esp+18h],eax

l0073D817:
	mov	ebx,[edi+14h]
	push	2h
	add	ebx,18h
	push	esi
	mov	esi,ebx
	call	73C7D0h
	mov	ebp,eax
	add	esp,8h
	test	ebp,ebp
	jz	73D9A9h

l0073D834:
	mov	eax,[edi+14h]
	mov	esi,[esp+30h]
	add	eax,48h
	call	73C790h
	test	eax,eax
	jz	73D9A9h

l0073D84B:
	cmp	dword ptr [ebx+10h],1h
	jnz	73D86Bh

l0073D851:
	mov	edx,esi
	mov	ecx,[edx+4h]
	mov	edx,[ebp+4h]
	push	ecx
	push	0h
	push	eax
	push	edx
	call	744110h
	mov	ebp,eax
	mov	[esp+20h],ebp
	jmp	73D894h

l0073D86B:
	mov	edx,[edi+0Ch]
	mov	ecx,esi
	mov	ecx,[ecx+4h]
	push	ecx
	push	0h
	push	eax
	mov	eax,[edi+8h]
	push	ecx
	push	edx
	push	eax
	push	2h
	push	ebp
	call	743FC0h
	add	esp,14h
	push	eax
	call	744110h
	mov	[esp+20h],eax
	mov	ebp,eax

l0073D894:
	add	esp,10h
	test	ebp,ebp
	jz	73D9A9h

l0073D89F:
	cmp	dword ptr [edi+10h],5h
	jnz	73D959h

l0073D8A9:
	mov	edi,[edi+14h]
	add	edi,60h
	mov	ecx,[edi+14h]
	lea	eax,[edi+14h]
	xor	esi,esi
	cmp	word ptr [ecx],14Ch
	jz	73D8E6h

l0073D8BE:
	mov	ecx,2h

l0073D8C3:
	mov	eax,[eax]
	add	esi,1h
	cmp	[eax+10h],ecx
	jz	73D8DDh

l0073D8CD:
	mov	eax,[eax+14h]
	mov	edx,[eax+44h]
	add	eax,44h
	cmp	word ptr [edx],14Ch
	jnz	73D8C3h

l0073D8DD:
	cmp	esi,0FFh
	jz	73D9A9h

l0073D8E6:
	mov	eax,[esp+30h]
	mov	ecx,[eax+4h]
	push	ecx
	push	esi
	call	752E30h
	add	esp,8h
	test	eax,eax
	mov	[esp+1Ch],eax
	jz	73D9A9h

l0073D903:
	xor	ebx,ebx
	test	esi,esi
	jle	73D94Ch

l0073D909:
	lea	ebp,[eax+4h]
	lea	esp,[esp+0h]

l0073D910:
	mov	edi,[edi+14h]
	mov	edx,[edi+14h]
	mov	eax,[esp+30h]
	add	edx,18h
	push	edx
	push	eax
	call	73E7A0h
	add	esp,8h
	test	eax,eax
	jz	73D9A9h

l0073D92B:
	mov	[ebp+0h],eax
	cmp	dword ptr [edi+10h],3h
	jnz	73D93Ah

l0073D934:
	mov	edi,[edi+14h]
	add	edi,30h

l0073D93A:
	add	ebx,1h
	add	ebp,4h
	cmp	ebx,esi
	jl	73D910h

l0073D944:
	mov	eax,[esp+1Ch]
	mov	ebp,[esp+10h]

l0073D94C:
	cmp	word ptr [edi],14Bh
	jnz	73D956h

l0073D953:
	mov	edi,[edi+14h]

l0073D956:
	mov	[ebp+8h],eax

l0073D959:
	mov	ecx,[esp+18h]
	mov	eax,[esp+14h]
	mov	esi,[esp+30h]
	add	eax,1h
	mov	[ecx],ebp
	add	ecx,4h
	cmp	eax,[esp+20h]
	mov	[esp+14h],eax
	mov	[esp+18h],ecx
	jl	73D817h

l0073D97F:
	mov	ebx,[esp+34h]
	mov	eax,[esp+24h]

l0073D987:
	mov	ecx,[esi+4h]
	mov	edx,[ebx+0Ch]
	push	ecx
	mov	ecx,[ebx+8h]
	push	edx
	mov	edx,[esp+30h]
	push	ecx
	push	eax
	push	edx
	call	743A70h
	add	esp,14h
	pop	edi
	pop	ebp
	pop	esi
	pop	ebx
	add	esp,1Ch
	ret

l0073D9A9:
	pop	edi
	pop	ebp
	pop	esi
	xor	eax,eax
	pop	ebx
	add	esp,1Ch
	ret
0073D9B3          CC CC CC CC CC CC CC CC CC CC CC CC CC    .............

;; fn0073D9C0: 0073D9C0
;;   Called from:
;;     0073DD33 (in fn0073DBD0)
;;     0073DF28 (in fn0073DF10)
;;     0073E185 (in fn0073E050)
fn0073D9C0 proc
	sub	esp,1Ch
	push	ebp
	mov	ebp,[esp+24h]
	push	esi
	mov	esi,[esp+2Ch]
	mov	eax,[esi+14h]
	push	eax
	push	ebp
	call	73E7A0h
	add	esp,8h
	test	eax,eax
	mov	[esp+20h],eax
	jnz	73D9E8h

l0073D9E2:
	pop	esi
	pop	ebp
	add	esp,1Ch
	ret

l0073D9E8:
	push	ebx
	mov	eax,esi
	call	73C4B0h
	mov	ebx,eax
	cmp	ebx,0FFh
	mov	[esp+1Ch],ebx
	jz	73DA10h

l0073D9FB:
	mov	ecx,[ebp+4h]
	push	ecx
	push	ebx
	call	752E30h
	add	esp,8h
	test	eax,eax
	mov	[esp+20h],eax
	jnz	73DA19h

l0073DA10:
	pop	ebx
	pop	esi
	xor	eax,eax
	pop	ebp
	add	esp,1Ch
	ret

l0073DA19:
	push	edi
	mov	edi,[esi+14h]
	add	edi,18h
	test	ebx,ebx
	mov	dword ptr [esp+14h],0h
	jle	73DB96h

l0073DA30:
	add	eax,4h
	mov	[esp+18h],eax

l0073DA37:
	mov	esi,[edi+14h]
	push	2h
	add	esi,18h
	push	ebp
	call	73C7D0h
	mov	ebx,eax
	add	esp,8h
	test	ebx,ebx
	jz	73DBB8h

l0073DA52:
	mov	edx,[edi+14h]
	add	edx,48h
	push	edx
	push	ebp
	call	73E7A0h
	add	esp,8h
	test	eax,eax
	jz	73DBB8h

l0073DA6A:
	cmp	dword ptr [esi+10h],1h
	mov	ecx,[ebp+4h]
	push	ecx
	push	0h
	push	eax
	jnz	73DA88h

l0073DA77:
	mov	edx,[ebx+4h]
	push	edx
	call	744110h
	mov	ebx,eax
	mov	[esp+20h],ebx
	jmp	73DAA8h

l0073DA88:
	mov	eax,[edi+0Ch]
	push	ecx
	mov	ecx,[edi+8h]
	push	eax
	push	ecx
	push	2h
	push	ebx
	call	743FC0h
	add	esp,14h
	push	eax
	call	744110h
	mov	[esp+20h],eax
	mov	ebx,eax

l0073DAA8:
	add	esp,10h
	test	ebx,ebx
	jz	73DBB8h

l0073DAB3:
	cmp	dword ptr [edi+10h],5h
	jnz	73DB6Ch

l0073DABD:
	mov	edi,[edi+14h]
	add	edi,60h
	mov	edx,[edi+14h]
	lea	eax,[edi+14h]
	xor	esi,esi
	cmp	word ptr [edx],14Fh
	jz	73DAF6h

l0073DAD2:
	mov	eax,[eax]
	add	esi,1h
	cmp	dword ptr [eax+10h],2h
	jz	73DAEDh

l0073DADD:
	mov	eax,[eax+14h]
	mov	ecx,[eax+44h]
	add	eax,44h
	cmp	word ptr [ecx],14Fh
	jnz	73DAD2h

l0073DAED:
	cmp	esi,0FFh
	jz	73DBB8h

l0073DAF6:
	mov	edx,[ebp+4h]
	push	edx
	push	esi
	call	752E30h
	add	esp,8h
	test	eax,eax
	mov	[esp+1Ch],eax
	jz	73DBB8h

l0073DB0F:
	xor	ebp,ebp
	test	esi,esi
	jle	73DB5Bh

l0073DB15:
	lea	ebx,[eax+4h]
	jmp	73DB20h
0073DB1A                               8D 9B 00 00 00 00           ......

l0073DB20:
	mov	edi,[edi+14h]
	mov	eax,[edi+14h]
	mov	ecx,[esp+30h]
	add	eax,18h
	push	eax
	push	ecx
	call	73E7A0h
	add	esp,8h
	test	eax,eax
	jz	73DBB8h

l0073DB3B:
	mov	[ebx],eax
	cmp	dword ptr [edi+10h],3h
	jnz	73DB49h

l0073DB43:
	mov	edi,[edi+14h]
	add	edi,30h

l0073DB49:
	add	ebp,1h
	add	ebx,4h
	cmp	ebp,esi
	jl	73DB20h

l0073DB53:
	mov	ebx,[esp+10h]
	mov	eax,[esp+1Ch]

l0073DB5B:
	cmp	word ptr [edi],14Eh
	jnz	73DB65h

l0073DB62:
	mov	edi,[edi+14h]

l0073DB65:
	mov	ebp,[esp+30h]
	mov	[ebx+8h],eax

l0073DB6C:
	mov	ecx,[esp+18h]
	mov	eax,[esp+14h]
	add	eax,1h
	mov	[ecx],ebx
	add	ecx,4h
	cmp	eax,[esp+20h]
	mov	[esp+14h],eax
	mov	[esp+18h],ecx
	jl	73DA37h

l0073DB8E:
	mov	eax,[esp+24h]
	mov	esi,[esp+34h]

l0073DB96:
	mov	edx,[ebp+4h]
	mov	ecx,[esi+0Ch]
	push	edx
	mov	edx,[esi+8h]
	push	ecx
	push	edx
	push	eax
	mov	eax,[esp+38h]
	push	eax
	call	743AD0h
	add	esp,14h
	pop	edi
	pop	ebx
	pop	esi
	pop	ebp
	add	esp,1Ch
	ret

l0073DBB8:
	pop	edi
	pop	ebx
	pop	esi
	xor	eax,eax
	pop	ebp
	add	esp,1Ch
	ret
0073DBC2       CC CC CC CC CC CC CC CC CC CC CC CC CC CC   ..............

;; fn0073DBD0: 0073DBD0
;;   Called from:
;;     0073E002 (in fn0073DF70)
;;     0073E3DE (in fn0073E390)
fn0073DBD0 proc
	sub	esp,20h
	push	ebx
	push	ebp
	push	esi
	push	edi
	mov	edi,[esp+38h]
	mov	eax,[edi+10h]
	xor	edx,edx
	xor	ebx,ebx
	xor	ebp,ebp
	cmp	eax,edx
	mov	[esp+28h],edx
	mov	[esp+24h],edx
	jle	73DC3Dh

l0073DBF0:
	mov	ecx,[edi+14h]

l0073DBF3:
	cmp	word ptr [ecx],14Ah
	jnz	73DC18h

l0073DBFA:
	cmp	dword ptr [ecx+10h],1h
	jnz	73DC05h

l0073DC00:
	add	ebx,1h
	jmp	73DC18h

l0073DC05:
	mov	esi,[ecx+14h]
	cmp	word ptr [esi+18h],14Fh
	jnz	73DC15h

l0073DC10:
	add	edx,1h
	jmp	73DC18h

l0073DC15:
	add	ebp,1h

l0073DC18:
	add	ecx,18h
	sub	eax,1h
	jnz	73DBF3h

l0073DC20:
	cmp	edx,1h
	jg	73DEC0h

l0073DC29:
	test	edx,edx
	jz	73DC3Dh

l0073DC2D:
	test	ebx,ebx
	jnz	73DEC0h

l0073DC35:
	test	ebp,ebp
	jnz	73DEC0h

l0073DC3D:
	lea	eax,[edx+ebp]
	add	eax,ebx
	cmp	eax,0FFh
	jle	73DC98h

l0073DC49:
	mov	ecx,[edi+8h]
	push	ecx
	push	8DCB80h
	push	8DC7CCh
	call	6EA200h
	mov	esi,eax
	add	esp,0Ch
	test	esi,esi
	jz	73DEFDh

l0073DC69:
	mov	edx,[0A178F4h]
	push	esi
	push	edx
	call	6E0E90h
	add	esp,8h
	add	dword ptr [esi],0FFh
	jnz	73DEFDh

l0073DC82:
	mov	eax,[esi+4h]
	mov	ecx,[eax+18h]
	push	esi
	call	ecx
	add	esp,4h
	pop	edi
	pop	esi
	pop	ebp
	xor	eax,eax
	pop	ebx
	add	esp,20h
	ret

l0073DC98:
	mov	esi,[esp+34h]
	mov	eax,[esi+4h]
	push	eax
	add	edx,ebx
	push	edx
	call	752E30h
	mov	ebx,eax
	add	esp,8h
	test	ebx,ebx
	mov	[esp+2Ch],ebx
	jz	73DEFDh

l0073DCB9:
	mov	ecx,[esi+4h]
	push	ecx
	push	ebp
	call	752E30h
	xor	ebp,ebp
	add	esp,8h
	cmp	eax,ebp
	mov	[esp+20h],eax
	jz	73DEFDh

l0073DCD4:
	cmp	[edi+10h],ebp
	mov	[esp+14h],ebp
	mov	[esp+18h],ebp
	jle	73DE3Ah

l0073DCE5:
	xor	edi,edi
	add	ebx,4h
	mov	[esp+1Ch],edi
	mov	[esp+10h],ebx

l0073DCF2:
	mov	edx,[esp+38h]
	mov	eax,[edx+14h]
	lea	ebx,[edi+eax]
	movzx	eax,word ptr [ebx]
	cmp	ax,14Ah
	jnz	73DDE4h

l0073DD09:
	cmp	dword ptr [ebx+10h],1h
	jnz	73DD26h

l0073DD0F:
	cmp	dword ptr [esp+14h],0h
	jnz	73DE67h

l0073DD1A:
	mov	ecx,[ebx+14h]
	push	ecx
	push	esi
	call	73E7A0h
	jmp	73DD38h

l0073DD26:
	mov	eax,[ebx+14h]
	cmp	word ptr [eax+18h],14Fh
	jnz	73DD55h

l0073DD31:
	push	ebx
	push	esi
	call	73D9C0h

l0073DD38:
	add	esp,8h
	test	eax,eax
	jz	73DEFDh

l0073DD43:
	mov	ecx,[esp+10h]
	mov	[ecx],eax
	add	ecx,4h
	mov	[esp+10h],ecx
	jmp	73DE17h

l0073DD55:
	push	eax
	push	esi
	call	73E7A0h
	add	esp,8h
	test	eax,eax
	jz	73DEFDh

l0073DD67:
	mov	ecx,[eax]
	cmp	ecx,4h
	jz	73DE7Eh

l0073DD72:
	cmp	ecx,11h
	jnz	73DE95h

l0073DD7B:
	mov	ebp,[eax+4h]
	mov	eax,[ebx+14h]
	mov	edi,8ABDD0h
	lea	esi,[ebp+14h]
	mov	ecx,5h
	xor	edx,edx

l0073DD90:
	rep cmpsb

l0073DD92:
	jz	73DEACh

l0073DD98:
	mov	esi,[esp+34h]
	add	eax,30h
	push	eax
	push	esi
	call	73E7A0h
	add	esp,8h
	test	eax,eax
	jz	73DEFDh

l0073DDB1:
	mov	ecx,[esi+4h]
	push	ecx
	push	eax
	push	ebp
	call	744200h
	add	esp,0Ch
	test	eax,eax
	jz	73DEFDh

l0073DDC7:
	mov	ecx,[esp+14h]
	mov	edx,[esp+20h]
	mov	ebp,[esp+18h]
	mov	edi,[esp+1Ch]
	mov	[edx+ecx*4+4h],eax
	add	ecx,1h
	mov	[esp+14h],ecx
	jmp	73DE17h

l0073DDE4:
	cmp	ax,10h
	jnz	73DDFAh

l0073DDEA:
	add	ebx,18h
	push	ebx
	push	esi
	call	73E7A0h
	mov	[esp+30h],eax
	jmp	73DE0Eh

l0073DDFA:
	cmp	ax,24h
	jnz	73DE17h

l0073DE00:
	add	ebx,18h
	push	ebx
	push	esi
	call	73E7A0h
	mov	[esp+2Ch],eax

l0073DE0E:
	add	esp,8h
	add	ebp,1h
	add	edi,18h

l0073DE17:
	mov	eax,[esp+38h]
	add	ebp,1h
	add	edi,18h
	cmp	ebp,[eax+10h]
	mov	[esp+18h],ebp
	mov	[esp+1Ch],edi
	jl	73DCF2h

l0073DE32:
	mov	eax,[esp+20h]
	mov	ebx,[esp+2Ch]

l0073DE3A:
	mov	ecx,[esi+4h]
	push	ecx
	mov	ecx,[esp+40h]
	mov	edx,[ecx+1Ch]
	push	edx
	mov	edx,[ecx+18h]
	push	edx
	mov	edx,[esp+30h]
	push	edx
	mov	edx,[esp+38h]
	push	edx
	push	eax
	push	ebx
	push	ecx
	call	743BE0h
	add	esp,20h
	pop	edi
	pop	esi
	pop	ebp
	pop	ebx
	add	esp,20h
	ret

l0073DE67:
	mov	eax,[ebx+14h]
	mov	edx,8DCB5Ch
	call	73B830h
	pop	edi
	pop	esi
	pop	ebp
	xor	eax,eax
	pop	ebx
	add	esp,20h
	ret

l0073DE7E:
	mov	eax,[ebx+14h]
	mov	edx,8DCB38h
	call	73B830h
	pop	edi
	pop	esi
	pop	ebp
	xor	eax,eax
	pop	ebx
	add	esp,20h
	ret

l0073DE95:
	mov	eax,[ebx+14h]
	mov	edx,8DCB18h
	call	73B830h
	pop	edi
	pop	esi
	pop	ebp
	xor	eax,eax
	pop	ebx
	add	esp,20h
	ret

l0073DEAC:
	mov	edx,8DC8D4h
	call	73B830h
	pop	edi
	pop	esi
	pop	ebp
	xor	eax,eax
	pop	ebx
	add	esp,20h
	ret

l0073DEC0:
	mov	eax,[edi+8h]
	push	eax
	push	8DCAD8h
	push	8DC7CCh
	call	6EA200h
	mov	esi,eax
	add	esp,0Ch
	test	esi,esi
	jz	73DEFDh

l0073DEDC:
	mov	ecx,[0A178F4h]
	push	esi
	push	ecx
	call	6E0E90h
	add	esp,8h
	add	dword ptr [esi],0FFh
	jnz	73DEFDh

l0073DEF1:
	mov	edx,[esi+4h]
	mov	eax,[edx+18h]
	push	esi
	call	eax
	add	esp,4h

l0073DEFD:
	pop	edi
	pop	esi
	pop	ebp
	xor	eax,eax
	pop	ebx
	add	esp,20h
	ret
0073DF07                      CC CC CC CC CC CC CC CC CC        .........

;; fn0073DF10: 0073DF10
;;   Called from:
;;     0073E197 (in fn0073E050)
fn0073DF10 proc
	push	edi
	mov	edi,eax
	mov	eax,[edi+10h]
	cmp	eax,1h
	jle	73DF35h

l0073DF1B:
	mov	ecx,[edi+14h]
	cmp	word ptr [ecx+18h],14Fh
	jnz	73DF32h

l0073DF26:
	push	edi
	push	esi
	call	73D9C0h
	add	esp,8h
	pop	edi
	ret

l0073DF32:
	cmp	eax,1h

l0073DF35:
	jnz	73DF46h

l0073DF37:
	mov	edx,[edi+14h]
	push	edx
	push	esi
	call	73E7A0h
	add	esp,8h
	pop	edi
	ret

l0073DF46:
	push	esi
	call	73C090h
	add	esp,4h
	test	eax,eax
	jnz	73DF55h

l0073DF53:
	pop	edi
	ret

l0073DF55:
	mov	ecx,[esi+4h]
	mov	edx,[edi+0Ch]
	push	ecx
	mov	ecx,[edi+8h]
	push	edx
	push	ecx
	push	1h
	push	eax
	call	743FC0h
	add	esp,14h
	pop	edi
	ret
0073DF6E                                           CC CC               ..

;; fn0073DF70: 0073DF70
;;   Called from:
;;     0074007B (in fn00740060)
fn0073DF70 proc
	sub	esp,0Ch
	mov	eax,[edi+4h]
	push	ebp
	mov	ebp,[esp+14h]
	mov	ecx,[ebp+10h]
	push	eax
	push	ecx
	call	752E30h
	xor	ecx,ecx
	add	esp,8h
	cmp	eax,ecx
	mov	[esp+0Ch],eax
	jnz	73DF99h

l0073DF92:
	xor	eax,eax
	pop	ebp
	add	esp,0Ch
	ret

l0073DF99:
	cmp	[ebp+10h],ecx
	push	ebx
	push	esi
	mov	[esp+0Ch],ecx
	jle	73E034h

l0073DFA8:
	add	eax,4h
	mov	[esp+1Ch],ecx
	mov	[esp+10h],eax

l0073DFB3:
	mov	esi,[ebp+14h]
	add	esi,[esp+1Ch]
	push	edi
	mov	ebx,[esi+14h]
	add	ebx,18h
	call	73C280h
	add	esp,4h
	test	eax,eax
	jz	73E03Bh

l0073DFCD:
	mov	ecx,[esi+10h]
	cmp	ecx,3h
	jz	73E00Eh

l0073DFD5:
	cmp	ecx,5h
	jnz	73DFF9h

l0073DFDA:
	mov	edx,[edi+4h]
	mov	ecx,[esi+0Ch]
	push	edx
	mov	edx,[esi+8h]
	push	ecx
	push	edx
	push	0h
	push	0h
	push	0h
	push	0h
	push	eax
	call	743BE0h
	add	esp,20h
	jmp	73E00Ah

l0073DFF9:
	push	eax
	mov	eax,[esi+14h]
	add	eax,48h
	push	eax
	push	edi
	call	73DBD0h
	add	esp,0Ch

l0073E00A:
	test	eax,eax
	jz	73E03Bh

l0073E00E:
	mov	ecx,[esp+10h]
	add	dword ptr [esp+1Ch],18h
	mov	[ecx],eax
	mov	eax,[esp+0Ch]
	add	eax,1h
	add	ecx,4h
	cmp	eax,[ebp+10h]
	mov	[esp+0Ch],eax
	mov	[esp+10h],ecx
	jl	73DFB3h

l0073E030:
	mov	eax,[esp+14h]

l0073E034:
	pop	esi
	pop	ebx
	pop	ebp
	add	esp,0Ch
	ret

l0073E03B:
	pop	esi
	pop	ebx
	xor	eax,eax
	pop	ebp
	add	esp,0Ch
	ret
0073E044             CC CC CC CC CC CC CC CC CC CC CC CC     ............

;; fn0073E050: 0073E050
;;   Called from:
;;     0073E632 (in fn0073E590)
;;     0073E6EA (in fn0073E6E0)
fn0073E050 proc
	sub	esp,0Ch
	push	ebx
	push	ebp
	mov	ebp,[esp+18h]
	push	esi
	mov	esi,[esp+20h]
	push	edi
	mov	edi,[esi+14h]
	movsx	ecx,word ptr [edi]
	lea	eax,[ecx-1h]
	cmp	eax,19h
	ja	73E32Dh

l0073E071:
	movzx	eax,byte ptr [eax+73E36Ch]
	jmp	dword ptr [73E34Ch+eax*4]

l0073E07F:
	mov	edi,[edi+4h]
	mov	ebx,[ebp+4h]
	push	edi
	call	6F1A70h
	mov	edi,eax
	push	edi
	push	ebx
	call	740DF0h
	mov	ecx,[ebp+4h]
	mov	edx,[esi+0Ch]
	mov	eax,[esi+8h]
	push	ecx
	push	edx
	push	eax
	push	1h
	push	edi
	call	743EE0h
	add	esp,20h
	pop	edi
	pop	esi
	pop	ebp
	pop	ebx
	add	esp,0Ch
	ret

l0073E0B3:
	push	ebp
	mov	ebx,esi
	call	73D660h
	mov	edi,eax
	add	esp,4h
	test	edi,edi
	jz	73E342h

l0073E0C8:
	mov	ecx,[ebp+4h]
	push	edi
	push	ecx
	call	740DF0h
	mov	edx,[ebp+4h]
	mov	eax,[esi+0Ch]
	mov	ecx,[esi+8h]
	push	edx
	push	eax
	push	ecx
	push	edi
	call	743D20h
	add	esp,18h
	pop	edi
	pop	esi
	pop	ebp
	pop	ebx
	add	esp,0Ch
	ret

l0073E0EF:
	mov	esi,[edi+4h]
	call	73D140h
	mov	esi,eax
	test	esi,esi
	jz	73E342h

l0073E101:
	mov	edx,[ebp+4h]
	push	esi
	push	edx
	call	740DF0h
	mov	eax,[ebp+4h]
	push	eax
	mov	eax,[esp+30h]
	mov	ecx,[eax+0Ch]
	mov	edx,[eax+8h]
	push	ecx
	push	edx
	push	esi
	call	743CC0h
	add	esp,18h
	pop	edi
	pop	esi
	pop	ebp
	pop	ebx
	add	esp,0Ch
	ret

l0073E12C:
	movzx	ecx,word ptr [edi+18h]
	cmp	cx,8h
	lea	eax,[edi+18h]
	jnz	73E159h

l0073E139:
	mov	eax,[ebp+4h]
	mov	ecx,[esi+0Ch]
	mov	edx,[esi+8h]
	push	eax
	push	ecx
	push	edx
	push	1h
	push	0h
	call	743FC0h
	add	esp,14h
	pop	edi
	pop	esi
	pop	ebp
	pop	ebx
	add	esp,0Ch
	ret

l0073E159:
	cmp	cx,153h
	jnz	73E172h

l0073E160:
	push	eax
	push	ebp
	call	73E7A0h
	add	esp,8h
	pop	edi
	pop	esi
	pop	ebp
	pop	ebx
	add	esp,0Ch
	ret

l0073E172:
	cmp	dword ptr [eax+10h],1h
	jle	73E195h

l0073E178:
	mov	ecx,[eax+14h]
	cmp	word ptr [ecx+18h],14Fh
	jnz	73E195h

l0073E183:
	push	eax
	push	ebp
	call	73D9C0h
	add	esp,8h
	pop	edi
	pop	esi
	pop	ebp
	pop	ebx
	add	esp,0Ch
	ret

l0073E195:
	mov	esi,ebp
	call	73DF10h
	pop	edi
	pop	esi
	pop	ebp
	pop	ebx
	add	esp,0Ch
	ret

l0073E1A4:
	add	edi,18h
	cmp	word ptr [edi],0Ah
	jnz	73E1CDh

l0073E1AD:
	mov	edx,[ebp+4h]
	mov	eax,[esi+0Ch]
	mov	ecx,[esi+8h]
	push	edx
	push	eax
	push	ecx
	push	1h
	push	0h
	call	743F60h
	add	esp,14h
	pop	edi
	pop	esi
	pop	ebp
	pop	ebx
	add	esp,0Ch
	ret

l0073E1CD:
	cmp	dword ptr [edi+10h],1h
	jz	73E1EFh

l0073E1D3:
	mov	edx,[edi+14h]
	cmp	word ptr [edx+18h],0Ch
	jz	73E1EFh

l0073E1DD:
	push	edi
	push	ebp
	call	73D7A0h
	add	esp,8h
	pop	edi
	pop	esi
	pop	ebp
	pop	ebx
	add	esp,0Ch
	ret

l0073E1EF:
	push	ebp
	call	73C090h
	add	esp,4h
	test	eax,eax
	jz	73E342h

l0073E200:
	mov	ecx,[ebp+4h]
	mov	edx,[esi+0Ch]
	push	ecx
	mov	ecx,[esi+8h]
	push	edx
	push	ecx
	push	1h
	push	eax
	call	743F60h
	add	esp,14h
	pop	edi
	pop	esi
	pop	ebp
	pop	ebx
	add	esp,0Ch
	ret

l0073E21F:
	mov	eax,[edi+28h]
	add	eax,1h
	cdq
	and	edx,3h
	add	eax,edx
	mov	edx,[ebp+4h]
	mov	ebx,eax
	push	edx
	sar	ebx,2h
	push	ebx
	call	752E30h
	add	esp,8h
	test	eax,eax
	mov	[esp+18h],eax
	jz	73E342h

l0073E249:
	mov	eax,[ebp+4h]
	push	eax
	push	ebx
	call	752E30h
	add	esp,8h
	test	eax,eax
	mov	[esp+14h],eax
	jz	73E342h

l0073E262:
	xor	ebx,ebx
	cmp	[edi+28h],ebx
	jle	73E2DCh

l0073E269:
	mov	[esp+10h],ebx
	lea	ecx,[ecx+0h]

l0073E270:
	mov	ecx,[edi+2Ch]
	add	ecx,[esp+10h]
	push	ecx
	push	ebp
	call	73E7A0h
	mov	ecx,eax
	add	esp,8h
	test	ecx,ecx
	jz	73E342h

l0073E28B:
	mov	eax,ebx
	cdq
	and	edx,3h
	add	eax,edx
	mov	edx,[esp+18h]
	mov	esi,eax
	sar	esi,2h
	add	esi,esi
	add	esi,esi
	mov	[esi+edx+4h],ecx
	mov	eax,[edi+2Ch]
	mov	ecx,[esp+10h]
	lea	edx,[ecx+eax+30h]
	push	edx
	push	ebp
	call	73E7A0h
	add	esp,8h
	test	eax,eax
	jz	73E342h

l0073E2C1:
	mov	ecx,[esp+14h]
	add	dword ptr [esp+10h],60h
	add	ebx,4h
	mov	[esi+ecx+4h],eax
	cmp	ebx,[edi+28h]
	jl	73E270h

l0073E2D6:
	mov	esi,[esp+24h]
	mov	eax,ecx

l0073E2DC:
	mov	edx,[ebp+4h]
	mov	ecx,[esi+0Ch]
	push	edx
	mov	edx,[esi+8h]
	push	ecx
	push	edx
	push	eax
	mov	eax,[esp+28h]
	push	eax
	call	743A30h
	add	esp,14h
	pop	edi
	pop	esi
	pop	ebp
	pop	ebx
	add	esp,0Ch
	ret

l0073E2FE:
	lea	eax,[edi+18h]
	mov	esi,ebp
	call	73C790h
	test	eax,eax
	jz	73E342h

l0073E30C:
	mov	ecx,[ebp+4h]
	push	ecx
	mov	ecx,[esp+28h]
	mov	edx,[ecx+0Ch]
	mov	ecx,[ecx+8h]
	push	edx
	push	ecx
	push	eax
	call	743C60h
	add	esp,10h
	pop	edi
	pop	esi
	pop	ebp
	pop	ebx
	add	esp,0Ch
	ret

l0073E32D:
	mov	edx,[0A18720h]
	push	ecx
	push	8DCB98h
	push	edx
	call	6E15D0h
	add	esp,0Ch

l0073E342:
	pop	edi
	pop	esi
	pop	ebp
	xor	eax,eax
	pop	ebx
	add	esp,0Ch
	ret
l0073E34C	dd	0x0073E07F
l0073E350	dd	0x0073E0EF
l0073E354	dd	0x0073E0B3
l0073E358	dd	0x0073E12C
l0073E35C	dd	0x0073E1A4
l0073E360	dd	0x0073E2FE
l0073E364	dd	0x0073E21F
l0073E368	dd	0x0073E32D
l0073E36C	db	0x00
l0073E36D	db	0x01
l0073E36E	db	0x02
l0073E36F	db	0x07
l0073E370	db	0x07
l0073E371	db	0x07
l0073E372	db	0x03
l0073E373	db	0x07
l0073E374	db	0x04
l0073E375	db	0x07
l0073E376	db	0x07
l0073E377	db	0x07
l0073E378	db	0x07
l0073E379	db	0x07
l0073E37A	db	0x07
l0073E37B	db	0x07
l0073E37C	db	0x07
l0073E37D	db	0x07
l0073E37E	db	0x07
l0073E37F	db	0x07
l0073E380	db	0x07
l0073E381	db	0x07
l0073E382	db	0x07
l0073E383	db	0x07
l0073E384	db	0x05
l0073E385	db	0x06
0073E386                   CC CC CC CC CC CC CC CC CC CC       ..........

;; fn0073E390: 0073E390
;;   Called from:
;;     0073E727 (in fn0073E6E0)
fn0073E390 proc
	sub	esp,8h
	push	ebx
	push	esi
	mov	ebx,eax
	push	edi
	mov	edi,[ebx+14h]
	movzx	eax,word ptr [edi]
	cmp	ax,7h
	mov	esi,ecx
	jnz	73E3EDh

l0073E3A6:
	cmp	dword ptr [ebx+10h],2h
	jnz	73E3D4h

l0073E3AC:
	mov	eax,[esi+4h]
	mov	ecx,[ebx+0Ch]
	mov	edx,[ebx+8h]
	push	eax
	mov	eax,[esp+1Ch]
	push	ecx
	push	edx
	push	0h
	push	0h
	push	0h
	push	0h
	push	eax
	call	743BE0h
	add	esp,20h
	pop	edi
	pop	esi
	pop	ebx
	add	esp,8h
	ret

l0073E3D4:
	mov	ecx,[esp+18h]
	push	ecx
	add	edi,18h
	push	edi
	push	esi
	call	73DBD0h
	add	esp,0Ch
	pop	edi
	pop	esi
	pop	ebx
	add	esp,8h
	ret

l0073E3ED:
	cmp	ax,17h
	push	ebp
	jnz	73E42Dh

l0073E3F4:
	mov	edi,[edi+1Ch]
	mov	ebp,[esi+4h]
	push	edi
	call	6F1A70h
	mov	edi,eax
	push	edi
	push	ebp
	call	740DF0h
	mov	edx,[esi+4h]
	mov	eax,[ebx+0Ch]
	mov	ecx,[ebx+8h]
	push	edx
	mov	edx,[esp+2Ch]
	push	eax
	push	ecx
	push	1h
	push	edi
	push	edx
	call	743D80h
	add	esp,24h
	pop	ebp
	pop	edi
	pop	esi
	pop	ebx
	add	esp,8h
	ret

l0073E42D:
	mov	eax,[edi+28h]
	cmp	eax,1h
	jnz	73E458h

l0073E435:
	mov	eax,[edi+2Ch]
	call	73C520h
	test	eax,eax
	jz	73E555h

l0073E445:
	mov	ecx,[esi+4h]
	mov	edx,[edi+24h]
	push	ecx
	mov	ecx,[edi+20h]
	push	edx
	push	ecx
	push	1h
	jmp	73E577h

l0073E458:
	mov	ecx,[esi+4h]
	add	eax,1h
	cdq
	sub	eax,edx
	push	ecx
	sar	eax,1h
	push	eax
	mov	dword ptr [esp+1Ch],1h
	call	752E30h
	mov	ebp,eax
	xor	ebx,ebx
	add	esp,8h
	cmp	ebp,ebx
	jz	73E555h

l0073E481:
	cmp	[edi+28h],ebx
	jle	73E500h

l0073E486:
	mov	[esp+10h],ebx
	lea	ebx,[ebx+0h]

l0073E490:
	mov	eax,[edi+2Ch]
	add	eax,[esp+10h]
	call	73C520h
	mov	ecx,eax
	test	ecx,ecx
	jz	73E555h

l0073E4A6:
	cmp	dword ptr [ecx],4h
	jz	73E4B3h

l0073E4AB:
	mov	dword ptr [esp+14h],0h

l0073E4B3:
	add	dword ptr [esp+10h],30h
	mov	eax,ebx
	cdq
	sub	eax,edx
	sar	eax,1h
	add	ebx,2h
	mov	[ebp+eax*4+4h],ecx
	cmp	ebx,[edi+28h]
	jl	73E490h

l0073E4CB:
	cmp	dword ptr [esp+14h],0h
	jnz	73E500h

l0073E4D2:
	mov	esi,[esi+4h]
	mov	edx,[edi+24h]
	mov	eax,[edi+20h]
	push	esi
	push	edx
	push	eax
	push	1h
	push	esi
	push	ebp
	call	744090h
	mov	ecx,[esp+34h]
	add	esp,8h
	push	eax
	push	ecx
	call	743E30h
	add	esp,18h
	pop	ebp
	pop	edi
	pop	esi
	pop	ebx
	add	esp,8h
	ret

l0073E500:
	mov	edx,[esi+4h]
	mov	eax,[ebp+0h]
	push	edx
	push	eax
	call	752E30h
	add	esp,8h
	test	eax,eax
	jz	73E555h

l0073E514:
	mov	ebx,ebp
	xor	edx,edx
	sub	ebx,eax
	lea	ecx,[eax+4h]
	mov	[esp+14h],ebx

l0073E521:
	cmp	edx,[ebp+0h]
	jge	73E53Ah

l0073E526:
	mov	ebx,[ebx+ecx]
	mov	ebx,[ebx+4h]
	mov	[ecx],ebx
	mov	ebx,[esp+14h]
	add	edx,1h
	add	ecx,4h
	jmp	73E521h

l0073E53A:
	mov	ecx,[esi+4h]
	mov	edx,[edi+24h]
	push	ecx
	mov	ecx,[edi+20h]
	push	edx
	push	ecx
	push	1h
	push	eax
	call	743FC0h
	add	esp,14h
	test	eax,eax
	jnz	73E55Fh

l0073E555:
	pop	ebp
	pop	edi
	pop	esi
	xor	eax,eax
	pop	ebx
	add	esp,8h
	ret

l0073E55F:
	mov	esi,[esi+4h]
	mov	edx,[edi+24h]
	mov	ecx,[edi+20h]
	push	esi
	push	edx
	push	ecx
	push	1h
	push	esi
	push	eax
	call	7440C0h
	add	esp,8h

l0073E577:
	mov	edx,[esp+2Ch]
	push	eax
	push	edx
	call	743E30h
	add	esp,18h
	pop	ebp
	pop	edi
	pop	esi
	pop	ebx
	add	esp,8h
	ret
0073E58D                                        CC CC CC              ...

;; fn0073E590: 0073E590
;;   Called from:
;;     0073EAA8 (in fn0073E7A0)
fn0073E590 proc
	push	ebx
	push	ebp
	mov	ebp,[esp+0Ch]
	push	esi
	mov	esi,eax
	mov	eax,[esi+14h]
	cmp	word ptr [eax],0Fh
	push	edi
	jnz	73E63Fh

l0073E5A7:
	cmp	dword ptr [esi+10h],2h
	jnz	73E63Fh

l0073E5B1:
	cmp	word ptr [eax+18h],13Bh
	jnz	73E63Fh

l0073E5BD:
	mov	edx,1h
	cmp	[eax+28h],edx
	jnz	73E63Fh

l0073E5C7:
	mov	ecx,[eax+2Ch]
	cmp	word ptr [ecx],13Ch
	jnz	73E63Fh

l0073E5D1:
	cmp	[ecx+10h],edx
	jnz	73E63Fh

l0073E5D6:
	mov	ebx,[ecx+14h]
	cmp	word ptr [ebx],13Dh
	jnz	73E63Fh

l0073E5E0:
	mov	edi,[ebx+14h]
	cmp	word ptr [edi],2h
	jnz	73E63Fh

l0073E5E9:
	mov	eax,[edi+4h]
	lea	edx,[eax+1h]
	nop

l0073E5F0:
	mov	cl,[eax]
	add	eax,1h
	test	cl,cl
	jnz	73E5F0h

l0073E5F9:
	sub	eax,edx
	add	eax,2h
	push	eax
	call	723860h
	mov	esi,eax
	add	esp,4h
	test	esi,esi
	jz	73E67Ch

l0073E60D:
	mov	byte ptr [esi],2Dh
	mov	ecx,[edi+4h]
	lea	edx,[esi+1h]

l0073E616:
	mov	al,[ecx]
	mov	[edx],al
	add	ecx,1h
	add	edx,1h
	test	al,al
	jnz	73E616h

l0073E624:
	mov	eax,[edi+4h]
	push	eax
	call	7239C0h
	push	ebx
	push	ebp
	mov	[edi+4h],esi
	call	73E050h
	add	esp,0Ch
	pop	edi
	pop	esi
	pop	ebp
	pop	ebx
	ret

l0073E63F:
	add	eax,18h
	push	eax
	push	ebp
	call	73E7A0h
	add	esp,8h
	test	eax,eax
	jz	73E67Ch

l0073E650:
	mov	ecx,[esi+14h]
	movsx	edx,word ptr [ecx]
	mov	ecx,edx
	sub	ecx,0Eh
	jz	73E6BBh

l0073E65D:
	sub	ecx,1h
	jz	73E69Fh

l0073E662:
	sub	ecx,11h
	jz	73E683h

l0073E667:
	push	edx
	mov	edx,[0A18720h]
	push	8DCBACh
	push	edx
	call	6E15D0h
	add	esp,0Ch

l0073E67C:
	pop	edi
	pop	esi
	pop	ebp
	xor	eax,eax
	pop	ebx
	ret

l0073E683:
	mov	ecx,[ebp+4h]
	mov	edx,[esi+0Ch]
	push	ecx
	mov	ecx,[esi+8h]
	push	edx
	push	ecx
	push	eax
	push	1h
	call	743880h
	add	esp,14h
	pop	edi
	pop	esi
	pop	ebp
	pop	ebx
	ret

l0073E69F:
	mov	edx,[ebp+4h]
	mov	ecx,[esi+0Ch]
	push	edx
	mov	edx,[esi+8h]
	push	ecx
	push	edx
	push	eax
	push	4h
	call	743880h
	add	esp,14h
	pop	edi
	pop	esi
	pop	ebp
	pop	ebx
	ret

l0073E6BB:
	mov	ecx,[ebp+4h]
	mov	edx,[esi+0Ch]
	push	ecx
	mov	ecx,[esi+8h]
	push	edx
	push	ecx
	push	eax
	push	3h
	call	743880h
	add	esp,14h
	pop	edi
	pop	esi
	pop	ebp
	pop	ebx
	ret
0073E6D7                      CC CC CC CC CC CC CC CC CC        .........

;; fn0073E6E0: 0073E6E0
;;   Called from:
;;     0073EABD (in fn0073E7A0)
fn0073E6E0 proc
	mov	eax,[edi+14h]
	mov	ecx,[esp+4h]
	push	esi
	push	eax
	push	ecx
	call	73E050h
	mov	esi,eax
	add	esp,8h
	test	esi,esi
	jnz	73E6FAh

l0073E6F8:
	pop	esi
	ret

l0073E6FA:
	mov	eax,[edi+10h]
	cmp	eax,1h
	jnz	73E706h

l0073E702:
	mov	eax,esi
	pop	esi
	ret

l0073E706:
	push	ebx
	mov	ebx,1h
	cmp	eax,ebx
	push	ebp
	jle	73E74Ch

l0073E711:
	mov	ebp,18h

l0073E716:
	mov	eax,[edi+14h]
	add	eax,ebp
	cmp	word ptr [eax],141h
	jnz	73E74Ch

l0073E722:
	mov	ecx,[esp+10h]
	push	esi
	call	73E390h
	add	esp,4h
	test	eax,eax
	jz	73E790h

l0073E733:
	mov	edx,[esi+18h]
	mov	[eax+18h],edx
	mov	ecx,[esi+1Ch]
	add	ebx,1h
	mov	[eax+1Ch],ecx
	add	ebp,18h
	cmp	ebx,[edi+10h]
	mov	esi,eax
	jl	73E716h

l0073E74C:
	mov	eax,[edi+10h]
	lea	edx,[eax+eax*2]
	mov	eax,[edi+14h]
	cmp	word ptr [eax+edx*8-18h],13Bh
	lea	eax,[eax+edx*8-18h]
	jnz	73E798h

l0073E762:
	mov	ebx,[esp+10h]
	push	eax
	push	ebx
	call	73E7A0h
	add	esp,8h
	test	eax,eax
	jz	73E790h

l0073E774:
	mov	ecx,[ebx+4h]
	mov	edx,[edi+0Ch]
	push	ecx
	mov	ecx,[edi+8h]
	push	edx
	push	ecx
	push	eax
	push	6h
	push	esi
	call	7437D0h
	add	esp,18h
	test	eax,eax
	jnz	73E796h

l0073E790:
	pop	ebp
	pop	ebx
	xor	eax,eax
	pop	esi
	ret

l0073E796:
	mov	esi,eax

l0073E798:
	pop	ebp
	pop	ebx
	mov	eax,esi
	pop	esi
	ret
0073E79E                                           CC CC               ..

;; fn0073E7A0: 0073E7A0
;;   Called from:
;;     0073C0CB (in fn0073C090)
;;     0073C399 (in fn0073C370)
;;     0073C3E6 (in fn0073C3E0)
;;     0073C3FF (in fn0073C3E0)
;;     0073C415 (in fn0073C3E0)
;;     0073C55F (in fn0073C520)
;;     0073C587 (in fn0073C520)
;;     0073C5B2 (in fn0073C520)
;;     0073C641 (in fn0073C520)
;;     0073C693 (in fn0073C680)
;;     0073C6B2 (in fn0073C680)
;;     0073C737 (in fn0073C680)
;;     0073C79E (in fn0073C790)
;;     0073C81B (in fn0073C7D0)
;;     0073D0CF (in fn0073D050)
;;     0073D7B2 (in fn0073D7A0)
;;     0073D91F (in fn0073D7A0)
;;     0073D9D2 (in fn0073D9C0)
;;     0073DA5A (in fn0073D9C0)
;;     0073DB2F (in fn0073D9C0)
;;     0073DD1F (in fn0073DBD0)
;;     0073DD57 (in fn0073DBD0)
;;     0073DDA1 (in fn0073DBD0)
;;     0073DDEF (in fn0073DBD0)
;;     0073DE05 (in fn0073DBD0)
;;     0073DF3C (in fn0073DF10)
;;     0073E162 (in fn0073E050)
;;     0073E279 (in fn0073E050)
;;     0073E2B1 (in fn0073E050)
;;     0073E644 (in fn0073E590)
;;     0073E768 (in fn0073E6E0)
;;     0073E83B (in fn0073E7A0)
;;     0073E8B4 (in fn0073E7A0)
;;     0073E962 (in fn0073E7A0)
;;     0073E9A3 (in fn0073E7A0)
;;     0073EB43 (in fn0073EB20)
;;     0073EB8C (in fn0073EB70)
;;     0073ECB2 (in fn0073EB70)
;;     0073EDF0 (in fn0073EB70)
;;     0073EE6A (in fn0073EE40)
;;     0073EECC (in fn0073EE40)
;;     0073EF99 (in fn0073EF40)
;;     0073F045 (in fn0073EF40)
;;     0073F080 (in fn0073EF40)
;;     0073F09A (in fn0073EF40)
;;     0073F0D4 (in fn0073EF40)
;;     0073F0EC (in fn0073EF40)
;;     0073F102 (in fn0073EF40)
;;     0073F1A1 (in fn0073F160)
;;     0073F1C2 (in fn0073F160)
;;     0073F1E1 (in fn0073F160)
;;     0073F230 (in fn0073F220)
;;     0073F262 (in fn0073F220)
;;     0073F278 (in fn0073F220)
;;     0073F2D4 (in fn0073F2C0)
;;     0073F32E (in fn0073F2C0)
;;     0073F405 (in fn0073F2C0)
;;     0073F4CF (in fn0073F2C0)
;;     0073F548 (in fn0073F2C0)
;;     0073F5C1 (in fn0073F5B0)
;;     0073F613 (in fn0073F5B0)
;;     0073F6D3 (in fn0073F690)
;;     0073F722 (in fn0073F690)
;;     0073F74F (in fn0073F690)
;;     0073FA35 (in fn0073F9D0)
;;     0073FA62 (in fn0073FA50)
;;     0073FD92 (in fn0073FC30)
fn0073E7A0 proc
	push	ecx
	push	ebx
	mov	ebx,[esp+10h]
	movsx	eax,word ptr [ebx]
	push	ebp
	sub	eax,12Dh
	cmp	eax,26h
	push	esi
	push	edi
	ja	73EA08h

l0073E7BA:
	lea	ebx,[ebx+0h]

l0073E7C0:
	movzx	eax,byte ptr [eax+73EAF0h]
	jmp	dword ptr [73EACCh+eax*4]

l0073E7CE:
	mov	ecx,[ebx+14h]
	movzx	eax,word ptr [ecx]
	cmp	ax,140h
	jz	73EA39h

l0073E7DE:
	cmp	ax,12Eh
	jz	73EA39h

l0073E7E8:
	cmp	dword ptr [ebx+10h],1h
	jg	73EA28h

l0073E7F2:
	cmp	dword ptr [ebx+10h],1h
	jz	73E9F4h

l0073E7FC:
	mov	edx,[esp+18h]
	mov	eax,[edx+4h]
	push	eax
	mov	eax,[ebx+10h]
	add	eax,1h
	cdq
	sub	eax,edx
	sar	eax,1h
	push	eax
	call	752E30h
	mov	ebp,eax
	add	esp,8h
	test	ebp,ebp
	jz	73EA20h

l0073E822:
	xor	esi,esi
	cmp	[ebx+10h],esi
	jle	73E863h

l0073E829:
	xor	edi,edi
	jmp	73E830h
0073E82D                                        8D 49 00              .I.

l0073E830:
	mov	ecx,[ebx+14h]
	mov	edx,[esp+18h]
	add	ecx,edi
	push	ecx
	push	edx
	call	73E7A0h
	mov	ecx,eax
	add	esp,8h
	test	ecx,ecx
	jz	73EA20h

l0073E84D:
	mov	eax,esi
	cdq
	sub	eax,edx
	sar	eax,1h
	add	esi,2h
	mov	[ebp+eax*4+4h],ecx
	add	edi,30h
	cmp	esi,[ebx+10h]
	jl	73E830h

l0073E863:
	mov	eax,[ebx+14h]
	mov	esi,[eax+1Ch]
	mov	edi,8DBB78h
	mov	ecx,4h
	xor	edx,edx

l0073E875:
	rep cmpsb

l0073E877:
	jnz	73EA4Ah

l0073E87D:
	mov	eax,[esp+18h]
	mov	ecx,[eax+4h]
	mov	edx,[ebx+0Ch]
	mov	eax,[ebx+8h]
	push	ecx
	push	edx
	push	eax
	push	ebp
	push	1h
	call	743770h
	add	esp,14h
	pop	edi
	pop	esi
	pop	ebp
	pop	ebx
	pop	ecx
	ret

l0073E89E:
	cmp	dword ptr [ebx+10h],1h
	jz	73E9F4h

l0073E8A8:
	mov	edx,[ebx+14h]
	mov	esi,[esp+18h]
	add	edx,18h
	push	edx
	push	esi
	call	73E7A0h
	add	esp,8h
	test	eax,eax
	jz	73EA20h

l0073E8C4:
	mov	ecx,[esi+4h]
	mov	edx,[ebx+0Ch]
	push	ecx
	mov	ecx,[ebx+8h]
	push	edx
	push	ecx
	push	eax
	push	2h
	call	743880h
	add	esp,14h
	pop	edi
	pop	esi
	pop	ebp
	pop	ebx
	pop	ecx
	ret

l0073E8E1:
	mov	esi,1h
	cmp	[ebx+10h],esi
	jz	73E9F4h

l0073E8EF:
	mov	edi,[esp+18h]
	mov	edx,[edi+4h]
	mov	eax,[ebx+10h]
	push	edx
	cdq
	sub	eax,edx
	sar	eax,1h
	push	eax
	call	752E30h
	add	esp,8h
	test	eax,eax
	mov	[esp+1Ch],eax
	jz	73EA20h

l0073E914:
	mov	eax,[edi+4h]
	push	eax
	mov	eax,[ebx+10h]
	cdq
	sub	eax,edx
	sar	eax,1h
	push	eax
	call	752E30h
	mov	ebp,eax
	add	esp,8h
	test	ebp,ebp
	mov	[esp+10h],ebp
	jz	73EA20h

l0073E937:
	cmp	[ebx+10h],esi
	jle	73E99Eh

l0073E93C:
	mov	edi,18h

l0073E941:
	mov	edx,[ebx+14h]
	add	edx,edi
	call	73BF20h
	mov	ebp,eax
	test	ebp,ebp
	jz	73EA20h

l0073E955:
	mov	ecx,[ebx+14h]
	mov	eax,[esp+18h]
	lea	edx,[edi+ecx+18h]
	push	edx
	push	eax
	call	73E7A0h
	mov	ecx,eax
	add	esp,8h
	test	ecx,ecx
	jz	73EA20h

l0073E974:
	mov	eax,esi
	cdq
	sub	eax,edx
	mov	edx,[esp+1Ch]
	sar	eax,1h
	add	eax,eax
	add	eax,eax
	mov	[eax+edx+4h],ebp
	mov	ebp,[esp+10h]
	add	esi,2h
	mov	[eax+ebp+4h],ecx
	add	edi,30h
	cmp	esi,[ebx+10h]
	jl	73E941h

l0073E99A:
	mov	edi,[esp+18h]

l0073E99E:
	mov	eax,[ebx+14h]
	push	eax
	push	edi
	call	73E7A0h
	add	esp,8h
	test	eax,eax
	jz	73EA20h

l0073E9AF:
	mov	ecx,[edi+4h]
	mov	edx,[ebx+0Ch]
	push	ecx
	mov	ecx,[ebx+8h]
	push	edx
	mov	edx,[esp+24h]
	push	ecx
	push	ebp
	push	edx
	push	eax
	call	743B70h
	add	esp,18h
	pop	edi
	pop	esi
	pop	ebp
	pop	ebx
	pop	ecx
	ret

l0073E9D0:
	cmp	dword ptr [ebx+10h],1h
	jz	73E9F4h

l0073E9D6:
	mov	eax,[esp+18h]
	push	ebx
	push	eax
	call	73C680h
	add	esp,8h
	pop	edi
	pop	esi
	pop	ebp
	pop	ebx
	pop	ecx
	ret

l0073E9EA:
	cmp	dword ptr [ebx+10h],1h
	jnz	73EAA1h

l0073E9F4:
	mov	ebx,[ebx+14h]
	movsx	eax,word ptr [ebx]
	sub	eax,12Dh
	cmp	eax,26h
	jbe	73E7C0h

l0073EA08:
	movsx	ecx,word ptr [ebx]
	mov	edx,[0A18720h]
	push	ecx
	push	8DCBC4h
	push	edx
	call	6E15D0h
	add	esp,0Ch

l0073EA20:
	pop	edi
	pop	esi
	pop	ebp
	xor	eax,eax
	pop	ebx
	pop	ecx
	ret

l0073EA28:
	mov	edi,[esp+18h]
	mov	esi,ebx
	call	73C3E0h
	pop	edi
	pop	esi
	pop	ebp
	pop	ebx
	pop	ecx
	ret

l0073EA39:
	mov	edi,[esp+18h]
	mov	esi,ecx
	call	73C370h
	pop	edi
	pop	esi
	pop	ebp
	pop	ebx
	pop	ecx
	ret

l0073EA4A:
	mov	ecx,[esp+18h]
	mov	edx,[ecx+4h]
	mov	eax,[ebx+0Ch]
	mov	ecx,[ebx+8h]
	push	edx
	push	eax
	push	ecx
	push	ebp
	push	2h
	call	743770h
	add	esp,14h
	pop	edi
	pop	esi
	pop	ebp
	pop	ebx
	pop	ecx
	ret

l0073EA6B:
	mov	esi,[esp+18h]
	xor	eax,eax
	cmp	dword ptr [ebx+10h],2h
	jnz	73EA86h

l0073EA77:
	mov	eax,[ebx+14h]
	add	eax,18h
	call	73C790h
	test	eax,eax
	jz	73EA20h

l0073EA86:
	mov	ecx,[esi+4h]
	mov	edx,[ebx+0Ch]
	push	ecx
	mov	ecx,[ebx+8h]
	push	edx
	push	ecx
	push	eax
	call	743B30h
	add	esp,10h
	pop	edi
	pop	esi
	pop	ebp
	pop	ebx
	pop	ecx
	ret

l0073EAA1:
	mov	edx,[esp+18h]
	push	edx
	mov	eax,ebx
	call	73E590h
	add	esp,4h
	pop	edi
	pop	esi
	pop	ebp
	pop	ebx
	pop	ecx
	ret

l0073EAB6:
	mov	eax,[esp+18h]
	push	eax
	mov	edi,ebx
	call	73E6E0h
	add	esp,4h
	pop	edi
	pop	esi
	pop	ebp
	pop	ebx
	pop	ecx
	ret
0073EACB                                  90                        .   
l0073EACC	dd	0x0073E7CE
l0073EAD0	dd	0x0073E7F2
l0073EAD4	dd	0x0073E89E
l0073EAD8	dd	0x0073E8E1
l0073EADC	dd	0x0073E9D0
l0073EAE0	dd	0x0073E9EA
l0073EAE4	dd	0x0073EAB6
l0073EAE8	dd	0x0073EA6B
l0073EAEC	dd	0x0073EA08
l0073EAF0	db	0x00
l0073EAF1	db	0x08
l0073EAF2	db	0x00
l0073EAF3	db	0x01
l0073EAF4	db	0x01
l0073EAF5	db	0x02
l0073EAF6	db	0x03
l0073EAF7	db	0x08
l0073EAF8	db	0x04
l0073EAF9	db	0x04
l0073EAFA	db	0x04
l0073EAFB	db	0x04
l0073EAFC	db	0x04
l0073EAFD	db	0x04
l0073EAFE	db	0x05
l0073EAFF	db	0x06
l0073EB00	db	0x08
l0073EB01	db	0x08
l0073EB02	db	0x08
l0073EB03	db	0x08
l0073EB04	db	0x08
l0073EB05	db	0x08
l0073EB06	db	0x08
l0073EB07	db	0x08
l0073EB08	db	0x08
l0073EB09	db	0x08
l0073EB0A	db	0x08
l0073EB0B	db	0x08
l0073EB0C	db	0x08
l0073EB0D	db	0x08
l0073EB0E	db	0x08
l0073EB0F	db	0x08
l0073EB10	db	0x08
l0073EB11	db	0x08
l0073EB12	db	0x08
l0073EB13	db	0x08
l0073EB14	db	0x08
l0073EB15	db	0x08
l0073EB16	db	0x07
0073EB17                      CC CC CC CC CC CC CC CC CC        .........

;; fn0073EB20: 0073EB20
;;   Called from:
;;     0073FBCC (in fn0073FAF0)
fn0073EB20 proc
	push	edi
	mov	edi,eax
	cmp	dword ptr [edi+10h],1h
	jnz	73EB5Ch

l0073EB29:
	mov	eax,[ebx+4h]
	push	esi
	push	eax
	push	1h
	call	752E30h
	mov	esi,eax
	add	esp,8h
	test	esi,esi
	jz	73EB4Fh

l0073EB3E:
	mov	ecx,[edi+14h]
	push	ecx
	push	ebx
	call	73E7A0h
	add	esp,8h
	test	eax,eax
	jnz	73EB54h

l0073EB4F:
	pop	esi
	xor	eax,eax
	pop	edi
	ret

l0073EB54:
	mov	[esi+4h],eax
	mov	eax,esi
	pop	esi
	pop	edi
	ret

l0073EB5C:
	push	ebx
	call	73C090h
	add	esp,4h
	pop	edi
	ret
0073EB67                      CC CC CC CC CC CC CC CC CC        .........

;; fn0073EB70: 0073EB70
;;   Called from:
;;     007401B3 (in fn00740160)
fn0073EB70 proc
	push	ecx
	mov	eax,[ebx+10h]
	cmp	eax,1h
	push	esi
	push	edi
	mov	edi,[ebx+14h]
	jnz	73EBE5h

l0073EB7E:
	cmp	[edi+10h],eax
	jnz	73EB96h

l0073EB83:
	mov	eax,[edi+14h]
	mov	ecx,[esp+10h]
	push	eax
	push	ecx
	call	73E7A0h
	add	esp,8h
	jmp	73EBBEh

l0073EB96:
	mov	esi,[esp+10h]
	push	esi
	call	73C090h
	add	esp,4h
	test	eax,eax
	jz	73EBC2h

l0073EBA7:
	mov	edx,[esi+4h]
	mov	ecx,[edi+0Ch]
	push	edx
	mov	edx,[edi+8h]
	push	ecx
	push	edx
	push	1h
	push	eax
	call	743FC0h
	add	esp,14h

l0073EBBE:
	test	eax,eax
	jnz	73EBC8h

l0073EBC2:
	pop	edi
	xor	eax,eax
	pop	esi
	pop	ecx
	ret

l0073EBC8:
	mov	ecx,[esp+10h]
	mov	edx,[ecx+4h]
	mov	ecx,[ebx+0Ch]
	push	edx
	mov	edx,[ebx+8h]
	push	ecx
	push	edx
	push	eax
	call	743680h
	add	esp,10h
	pop	edi
	pop	esi
	pop	ecx
	ret

l0073EBE5:
	cmp	word ptr [edi+18h],10Eh
	mov	esi,[esp+10h]
	push	ebp
	mov	[esp+0Ch],edi
	jnz	73ED06h

l0073EBFA:
	mov	eax,edi
	call	73C790h
	mov	ebp,eax
	test	ebp,ebp
	jz	73EDE7h

l0073EC0B:
	mov	eax,[ebp+0h]
	add	eax,0F8h
	cmp	eax,9h
	ja	73ECF3h

l0073EC1A:
	movzx	eax,byte ptr [eax+73EE30h]
	jmp	dword ptr [73EE1Ch+eax*4]

l0073EC28:
	mov	edx,8DCC68h
	mov	eax,edi
	call	73B830h
	pop	ebp
	pop	edi
	xor	eax,eax
	pop	esi
	pop	ecx
	ret

l0073EC3B:
	mov	edx,8DCC30h
	mov	eax,edi
	call	73B830h
	pop	ebp
	pop	edi
	xor	eax,eax
	pop	esi
	pop	ecx
	ret

l0073EC4E:
	mov	eax,[ebp+4h]
	add	eax,14h
	cmp	byte ptr [eax],4Eh
	jnz	73EC88h

l0073EC59:
	mov	edi,8ABDD0h
	mov	esi,eax
	mov	ecx,5h
	xor	edx,edx

l0073EC67:
	rep cmpsb

l0073EC69:
	jnz	73EC80h

l0073EC6B:
	mov	eax,[esp+0Ch]
	mov	edx,8DC8D4h
	call	73B830h
	pop	ebp
	pop	edi
	xor	eax,eax
	pop	esi
	pop	ecx
	ret

l0073EC80:
	mov	edi,[esp+0Ch]
	mov	esi,[esp+14h]

l0073EC88:
	push	edi
	push	2h
	push	ebp
	call	73BBE0h
	add	esp,0Ch
	test	eax,eax
	jz	73EDE7h

l0073EC9C:
	mov	eax,[ebx+14h]
	add	eax,30h
	cmp	word ptr [eax],146h
	jnz	73ECB0h

l0073ECA9:
	call	73C790h
	jmp	73ECBAh

l0073ECB0:
	push	eax
	push	esi
	call	73E7A0h
	add	esp,8h

l0073ECBA:
	mov	edi,eax
	test	edi,edi
	jz	73EDE7h

l0073ECC4:
	mov	eax,[ebx+14h]
	add	eax,18h
	call	73BE10h
	test	eax,eax
	jz	73EDE7h

l0073ECD7:
	mov	ecx,[esi+4h]
	mov	edx,[ebx+0Ch]
	push	ecx
	mov	ecx,[ebx+8h]
	push	edx
	push	ecx
	push	edi
	push	eax
	push	ebp
	call	743100h
	add	esp,18h
	pop	ebp
	pop	edi
	pop	esi
	pop	ecx
	ret

l0073ECF3:
	mov	edx,8DCC04h
	mov	eax,edi
	call	73B830h
	pop	ebp
	pop	edi
	xor	eax,eax
	pop	esi
	pop	ecx
	ret

l0073ED06:
	mov	edx,[esi+4h]
	push	edx
	cdq
	sub	eax,edx
	sar	eax,1h
	push	eax
	call	752E30h
	add	esp,8h
	test	eax,eax
	mov	[esp+0Ch],eax
	jz	73EDE7h

l0073ED24:
	mov	eax,[ebx+10h]
	sub	eax,2h
	xor	edi,edi
	test	eax,eax
	jle	73ED89h

l0073ED30:
	xor	ebp,ebp

l0073ED32:
	mov	eax,[ebx+14h]
	add	eax,ebp
	cmp	word ptr [eax],153h
	jz	73EDAAh

l0073ED3E:
	call	73C790h
	mov	esi,eax
	test	esi,esi
	jz	73EDE7h

l0073ED4D:
	mov	ecx,[ebx+14h]
	add	ecx,ebp
	push	ecx
	push	2h
	push	esi
	call	73BBE0h
	add	esp,0Ch
	test	eax,eax
	jz	73EDE7h

l0073ED66:
	mov	eax,edi
	cdq
	sub	eax,edx
	mov	edx,[esp+0Ch]
	sar	eax,1h
	mov	[edx+eax*4+4h],esi
	mov	eax,[ebx+10h]
	mov	esi,[esp+14h]
	add	edi,2h
	sub	eax,2h
	add	ebp,30h
	cmp	edi,eax
	jl	73ED32h

l0073ED89:
	mov	eax,[ebx+10h]
	lea	edx,[eax+eax*2]
	mov	eax,[ebx+14h]
	cmp	word ptr [eax+edx*8-18h],146h
	lea	eax,[eax+edx*8-18h]
	jnz	73EDEEh

l0073ED9F:
	call	73C790h
	mov	esi,[esp+14h]
	jmp	73EDF8h

l0073EDAA:
	mov	ecx,[eax+8h]
	push	ecx
	push	8DCBD8h
	push	8DC7CCh
	call	6EA200h
	mov	esi,eax
	add	esp,0Ch
	test	esi,esi
	jz	73EDE7h

l0073EDC6:
	mov	edx,[0A178F4h]
	push	esi
	push	edx
	call	6E0E90h
	add	esp,8h
	add	dword ptr [esi],0FFh
	jnz	73EDE7h

l0073EDDB:
	mov	eax,[esi+4h]
	mov	ecx,[eax+18h]
	push	esi
	call	ecx
	add	esp,4h

l0073EDE7:
	pop	ebp
	pop	edi
	xor	eax,eax
	pop	esi
	pop	ecx
	ret

l0073EDEE:
	push	eax
	push	esi
	call	73E7A0h
	add	esp,8h

l0073EDF8:
	test	eax,eax
	jz	73EDE7h

l0073EDFC:
	mov	ecx,[esi+4h]
	mov	edx,[ebx+0Ch]
	push	ecx
	mov	ecx,[ebx+8h]
	push	edx
	mov	edx,[esp+14h]
	push	ecx
	push	eax
	push	edx
	call	7430A0h
	add	esp,14h
	pop	ebp
	pop	edi
	pop	esi
	pop	ecx
	ret
0073EE1B                                  90                        .   
l0073EE1C	dd	0x0073EC28
l0073EE20	dd	0x0073EC3B
l0073EE24	dd	0x0073EC88
l0073EE28	dd	0x0073EC4E
l0073EE2C	dd	0x0073ECF3
l0073EE30	db	0x00
l0073EE31	db	0x01
l0073EE32	db	0x04
l0073EE33	db	0x04
l0073EE34	db	0x04
l0073EE35	db	0x04
l0073EE36	db	0x04
l0073EE37	db	0x02
l0073EE38	db	0x02
l0073EE39	db	0x03
0073EE3A                               CC CC CC CC CC CC           ......

;; fn0073EE40: 0073EE40
;;   Called from:
;;     007401C6 (in fn00740160)
fn0073EE40 proc
	sub	esp,8h
	cmp	dword ptr [esi+10h],2h
	push	edi
	mov	dword ptr [esp+4h],0h
	mov	edi,1h
	jl	73EE86h

l0073EE57:
	mov	eax,[esi+14h]
	cmp	word ptr [eax+18h],23h
	jnz	73EE86h

l0073EE61:
	add	eax,30h
	push	eax
	mov	eax,[esp+14h]
	push	eax
	call	73E7A0h
	add	esp,8h
	test	eax,eax
	mov	[esp+4h],eax
	jnz	73EE81h

l0073EE7A:
	xor	eax,eax
	pop	edi
	add	esp,8h
	ret

l0073EE81:
	mov	edi,4h

l0073EE86:
	mov	eax,[esi+10h]
	mov	ecx,[esp+10h]
	mov	edx,[ecx+4h]
	sub	eax,edi
	add	eax,1h
	push	edx
	cdq
	sub	eax,edx
	sar	eax,1h
	push	eax
	call	752E30h
	add	esp,8h
	test	eax,eax
	mov	[esp+8h],eax
	jz	73EE7Ah

l0073EEAC:
	cmp	edi,[esi+10h]
	push	ebx
	push	ebp
	mov	ebp,edi
	jge	73EEECh

l0073EEB5:
	lea	edi,[edi+edi*2]
	add	edi,edi
	add	edi,edi
	add	edi,edi
	lea	ebx,[eax+4h]

l0073EEC1:
	mov	eax,[esi+14h]
	mov	ecx,[esp+18h]
	add	eax,edi
	push	eax
	push	ecx
	call	73E7A0h
	add	esp,8h
	test	eax,eax
	jz	73EF28h

l0073EED8:
	mov	[ebx],eax
	add	ebp,2h
	add	edi,30h
	add	ebx,4h
	cmp	ebp,[esi+10h]
	jl	73EEC1h

l0073EEE8:
	mov	eax,[esp+10h]

l0073EEEC:
	mov	ecx,[esi+10h]
	lea	edx,[ecx+ecx*2]
	mov	ecx,[esi+14h]
	xor	ebx,ebx
	cmp	word ptr [ecx+edx*8-18h],0Ch
	mov	edx,[esp+18h]
	mov	edx,[edx+4h]
	push	edx
	mov	edx,[esi+0Ch]
	setnz	bl
	push	edx
	mov	edx,[esi+8h]
	push	edx
	mov	ecx,ebx
	push	ecx
	push	eax
	mov	eax,[esp+20h]
	push	eax
	call	7431B0h
	add	esp,18h
	pop	ebp
	pop	ebx
	pop	edi
	add	esp,8h
	ret

l0073EF28:
	pop	ebp
	pop	ebx
	xor	eax,eax
	pop	edi
	add	esp,8h
	ret
0073EF31    CC CC CC CC CC CC CC CC CC CC CC CC CC CC CC  ...............

;; fn0073EF40: 0073EF40
;;   Called from:
;;     00740228 (in fn00740160)
fn0073EF40 proc
	push	ecx
	push	ebx
	mov	ebx,[edi+14h]
	movsx	ecx,word ptr [ebx]
	push	ebp
	push	esi
	mov	esi,eax
	lea	eax,[ecx-113h]
	cmp	eax,4h
	ja	73F12Eh

l0073EF5B:
	jmp	dword ptr [73F14Ch+eax*4]

l0073EF62:
	mov	eax,[esi+4h]
	mov	ecx,[edi+0Ch]
	mov	edx,[edi+8h]
	push	eax
	push	ecx
	push	edx
	call	743710h
	add	esp,0Ch
	pop	esi
	pop	ebp
	pop	ebx
	pop	ecx
	ret

l0073EF7B:
	mov	eax,[esi+4h]
	mov	ecx,[edi+0Ch]
	mov	edx,[edi+8h]
	push	eax
	push	ecx
	push	edx
	call	743740h
	add	esp,0Ch
	pop	esi
	pop	ebp
	pop	ebx
	pop	ecx
	ret

l0073EF94:
	mov	eax,[ebx+14h]
	push	eax
	push	esi
	call	73E7A0h
	add	esp,8h
	test	eax,eax
	jz	73F143h

l0073EFA9:
	mov	ecx,[esi+4h]
	mov	edx,[edi+0Ch]
	push	ecx
	mov	ecx,[edi+8h]
	push	edx
	push	ecx
	push	eax
	call	743680h
	add	esp,10h
	pop	esi
	pop	ebp
	pop	ebx
	pop	ecx
	ret

l0073EFC3:
	cmp	dword ptr [ebx+10h],1h
	jnz	73EFE4h

l0073EFC9:
	mov	edx,[esi+4h]
	mov	eax,[edi+0Ch]
	mov	ecx,[edi+8h]
	push	edx
	push	eax
	push	ecx
	push	0h
	call	743020h
	add	esp,10h
	pop	esi
	pop	ebp
	pop	ebx
	pop	ecx
	ret

l0073EFE4:
	mov	eax,[ebx+14h]
	add	eax,18h
	call	73C790h
	test	eax,eax
	jz	73F143h

l0073EFF7:
	mov	edx,[esi+4h]
	mov	ecx,[edi+0Ch]
	push	edx
	mov	edx,[edi+8h]
	push	ecx
	push	edx
	push	eax
	call	743020h
	add	esp,10h
	pop	esi
	pop	ebp
	pop	ebx
	pop	ecx
	ret

l0073F011:
	mov	eax,[ebx+10h]
	cmp	eax,1h
	jnz	73F038h

l0073F019:
	mov	eax,[esi+4h]
	mov	ecx,[edi+0Ch]
	mov	edx,[edi+8h]
	push	eax
	push	ecx
	push	edx
	push	0h
	push	0h
	push	0h
	call	7433E0h
	add	esp,18h
	pop	esi
	pop	ebp
	pop	ebx
	pop	ecx
	ret

l0073F038:
	cmp	eax,2h
	jnz	73F073h

l0073F03D:
	mov	eax,[ebx+14h]
	add	eax,18h
	push	eax
	push	esi
	call	73E7A0h
	add	esp,8h
	test	eax,eax
	jz	73F143h

l0073F055:
	mov	ecx,[esi+4h]
	mov	edx,[edi+0Ch]
	push	ecx
	mov	ecx,[edi+8h]
	push	edx
	push	ecx
	push	0h
	push	0h
	push	eax
	call	7433E0h
	add	esp,18h
	pop	esi
	pop	ebp
	pop	ebx
	pop	ecx
	ret

l0073F073:
	cmp	eax,4h
	jnz	73F0C7h

l0073F078:
	mov	edx,[ebx+14h]
	add	edx,18h
	push	edx
	push	esi
	call	73E7A0h
	mov	ebp,eax
	add	esp,8h
	test	ebp,ebp
	jz	73F143h

l0073F092:
	mov	eax,[ebx+14h]
	add	eax,48h
	push	eax
	push	esi
	call	73E7A0h
	add	esp,8h
	test	eax,eax
	jz	73F143h

l0073F0AA:
	mov	ecx,[esi+4h]
	mov	edx,[edi+0Ch]
	push	ecx
	mov	ecx,[edi+8h]
	push	edx
	push	ecx
	push	0h
	push	eax
	push	ebp
	call	7433E0h
	add	esp,18h
	pop	esi
	pop	ebp
	pop	ebx
	pop	ecx
	ret

l0073F0C7:
	cmp	eax,6h
	jnz	73F12Eh

l0073F0CC:
	mov	edx,[ebx+14h]
	add	edx,18h
	push	edx
	push	esi
	call	73E7A0h
	add	esp,8h
	test	eax,eax
	mov	[esp+0Ch],eax
	jz	73F143h

l0073F0E4:
	mov	eax,[ebx+14h]
	add	eax,48h
	push	eax
	push	esi
	call	73E7A0h
	mov	ebp,eax
	add	esp,8h
	test	ebp,ebp
	jz	73F143h

l0073F0FA:
	mov	ecx,[ebx+14h]
	add	ecx,78h
	push	ecx
	push	esi
	call	73E7A0h
	add	esp,8h
	test	eax,eax
	jz	73F143h

l0073F10E:
	mov	edx,[esi+4h]
	mov	ecx,[edi+0Ch]
	push	edx
	mov	edx,[edi+8h]
	push	ecx
	push	edx
	push	eax
	mov	eax,[esp+1Ch]
	push	ebp
	push	eax
	call	7433E0h
	add	esp,18h
	pop	esi
	pop	ebp
	pop	ebx
	pop	ecx
	ret

l0073F12E:
	push	ecx
	mov	ecx,[0A18720h]
	push	8DCCA4h
	push	ecx
	call	6E15D0h
	add	esp,0Ch

l0073F143:
	pop	esi
	pop	ebp
	xor	eax,eax
	pop	ebx
	pop	ecx
	ret
0073F14A                               8B FF                       ..   
l0073F14C	dd	0x0073EF62
l0073F150	dd	0x0073EF7B
l0073F154	dd	0x0073EFC3
l0073F158	dd	0x0073EF94
l0073F15C	dd	0x0073F011

;; fn0073F160: 0073F160
;;   Called from:
;;     0074025C (in fn00740160)
fn0073F160 proc
	push	ecx
	push	ebx
	push	ebp
	push	edi
	mov	edi,[esi+10h]
	xor	ebp,ebp
	xor	ebx,ebx
	cmp	edi,2h
	jz	73F195h

l0073F170:
	cmp	edi,4h
	jz	73F195h

l0073F175:
	cmp	edi,6h
	jz	73F195h

l0073F17A:
	mov	eax,[0A18720h]
	push	edi
	push	8DCCC0h
	push	eax
	call	6E15D0h
	add	esp,0Ch

l0073F18E:
	pop	edi
	pop	ebp
	xor	eax,eax
	pop	ebx
	pop	ecx
	ret

l0073F195:
	mov	ecx,[esi+14h]
	mov	edx,[esp+14h]
	add	ecx,18h
	push	ecx
	push	edx
	call	73E7A0h
	add	esp,8h
	test	eax,eax
	mov	[esp+0Ch],eax
	jz	73F18Eh

l0073F1B1:
	cmp	edi,4h
	jl	73F1D0h

l0073F1B6:
	mov	eax,[esi+14h]
	mov	ecx,[esp+14h]
	add	eax,48h
	push	eax
	push	ecx
	call	73E7A0h
	mov	ebp,eax
	add	esp,8h
	test	ebp,ebp
	jz	73F18Eh

l0073F1D0:
	cmp	edi,6h
	jnz	73F1EFh

l0073F1D5:
	mov	edx,[esi+14h]
	mov	eax,[esp+14h]
	add	edx,78h
	push	edx
	push	eax
	call	73E7A0h
	mov	ebx,eax
	add	esp,8h
	test	ebx,ebx
	jz	73F18Eh

l0073F1EF:
	mov	ecx,[esp+14h]
	mov	edx,[ecx+4h]
	mov	eax,[esi+0Ch]
	mov	ecx,[esi+8h]
	push	edx
	mov	edx,[esp+10h]
	push	eax
	push	ecx
	push	ebx
	push	ebp
	push	edx
	call	7435D0h
	add	esp,18h
	pop	edi
	pop	ebp
	pop	ebx
	pop	ecx
	ret
0073F213          CC CC CC CC CC CC CC CC CC CC CC CC CC    .............

;; fn0073F220: 0073F220
;;   Called from:
;;     0074026E (in fn00740160)
fn0073F220 proc
	mov	eax,[esi+10h]
	cmp	eax,2h
	jnz	73F254h

l0073F228:
	mov	eax,[esi+14h]
	add	eax,18h
	push	eax
	push	edi
	call	73E7A0h
	add	esp,8h
	test	eax,eax
	jz	73F2B5h

l0073F23C:
	mov	ecx,[edi+4h]
	mov	edx,[esi+0Ch]
	push	ecx
	mov	ecx,[esi+8h]
	push	edx
	push	ecx
	push	0h
	push	eax
	call	7434C0h
	add	esp,14h
	ret

l0073F254:
	cmp	eax,4h
	jnz	73F2A0h

l0073F259:
	mov	edx,[esi+14h]
	push	ebx
	add	edx,18h
	push	edx
	push	edi
	call	73E7A0h
	mov	ebx,eax
	add	esp,8h
	test	ebx,ebx
	jz	73F284h

l0073F270:
	mov	eax,[esi+14h]
	add	eax,48h
	push	eax
	push	edi
	call	73E7A0h
	add	esp,8h
	test	eax,eax
	jnz	73F288h

l0073F284:
	xor	eax,eax
	pop	ebx
	ret

l0073F288:
	mov	ecx,[edi+4h]
	mov	edx,[esi+0Ch]
	push	ecx
	mov	ecx,[esi+8h]
	push	edx
	push	ecx
	push	eax
	push	ebx
	call	7434C0h
	add	esp,14h
	pop	ebx
	ret

l0073F2A0:
	mov	edx,[0A18720h]
	push	eax
	push	8DCCF8h
	push	edx
	call	6E15D0h
	add	esp,0Ch

l0073F2B5:
	xor	eax,eax
	ret
0073F2B8                         CC CC CC CC CC CC CC CC         ........

;; fn0073F2C0: 0073F2C0
;;   Called from:
;;     007402A4 (in fn00740160)
fn0073F2C0 proc
	mov	eax,[esi+10h]
	sub	esp,10h
	cmp	eax,4h
	push	ebx
	jnz	73F31Ah

l0073F2CC:
	mov	eax,[esi+14h]
	add	eax,18h
	push	eax
	push	edi
	call	73E7A0h
	mov	ebx,eax
	add	esp,8h
	test	ebx,ebx
	jnz	73F2E9h

l0073F2E2:
	xor	eax,eax
	pop	ebx
	add	esp,10h
	ret

l0073F2E9:
	mov	ecx,[esi+14h]
	add	ecx,48h
	push	ecx
	push	edi
	call	73CEC0h
	add	esp,8h
	test	eax,eax
	jz	73F2E2h

l0073F2FD:
	mov	edx,[edi+4h]
	mov	ecx,[esi+0Ch]
	push	edx
	mov	edx,[esi+8h]
	push	ecx
	push	edx
	push	0h
	push	eax
	push	ebx
	call	743300h
	add	esp,18h
	pop	ebx
	add	esp,10h
	ret

l0073F31A:
	mov	ecx,[esi+14h]
	mov	ebx,[ecx+64h]
	mov	dl,[ebx+2h]
	cmp	dl,73h
	push	ebp
	jnz	73F392h

l0073F329:
	add	ecx,18h
	push	ecx
	push	edi
	call	73E7A0h
	mov	ebp,eax
	add	esp,8h
	test	ebp,ebp
	jz	73F59Fh

l0073F340:
	mov	eax,[esi+14h]
	add	eax,48h
	push	eax
	push	edi
	call	73CEC0h
	mov	ebx,eax
	add	esp,8h
	test	ebx,ebx
	jz	73F59Fh

l0073F35A:
	mov	ecx,[esi+14h]
	add	ecx,90h
	push	ecx
	push	edi
	call	73CEC0h
	add	esp,8h
	test	eax,eax
	jz	73F59Fh

l0073F375:
	mov	edx,[edi+4h]
	mov	ecx,[esi+0Ch]
	push	edx
	mov	edx,[esi+8h]
	push	ecx
	push	edx
	push	eax
	push	ebx
	push	ebp
	call	743300h
	add	esp,18h
	pop	ebp
	pop	ebx
	add	esp,10h
	ret

l0073F392:
	cmp	dl,69h
	jnz	73F58Bh

l0073F39B:
	add	eax,0FCh
	lea	edx,[eax+eax*2]
	xor	ebp,ebp
	cmp	word ptr [ecx+edx*8+18h],1h
	lea	ecx,[ecx+edx*8]
	mov	[esp+8h],ebp
	jnz	73F3C3h

l0073F3B2:
	mov	ecx,[ecx+1Ch]
	cmp	byte ptr [ecx+2h],73h
	jnz	73F3C3h

l0073F3BB:
	mov	ebp,1h
	sub	eax,3h

l0073F3C3:
	cdq
	and	edx,3h
	add	eax,edx
	mov	ebx,eax
	sar	ebx,2h
	test	ebp,ebp
	mov	[esp+14h],ebx
	jz	73F496h

l0073F3DA:
	mov	edx,[edi+4h]
	push	edx
	push	1h
	call	752E30h
	add	esp,8h
	test	eax,eax
	mov	[esp+8h],eax
	jz	73F59Fh

l0073F3F4:
	mov	eax,[esi+10h]
	mov	ecx,[esi+14h]
	sub	eax,6h
	lea	eax,[eax+eax*2]
	lea	edx,[ecx+eax*8]
	push	edx
	push	edi
	call	73E7A0h
	add	esp,8h
	test	eax,eax
	mov	[esp+0Ch],eax
	jz	73F59Fh

l0073F419:
	mov	eax,[esi+10h]
	mov	ecx,[esi+14h]
	sub	eax,4h
	lea	eax,[eax+eax*2]
	lea	edx,[ecx+eax*8]
	push	edx
	push	edi
	call	73CEC0h
	mov	ebp,eax
	add	esp,8h
	test	ebp,ebp
	jz	73F59Fh

l0073F43C:
	mov	eax,[esi+10h]
	mov	ecx,[esi+14h]
	lea	eax,[eax+eax*2]
	lea	edx,[ecx+eax*8-18h]
	push	edx
	push	edi
	call	73CEC0h
	add	esp,8h
	test	eax,eax
	jz	73F59Fh

l0073F45B:
	mov	ecx,[esi+10h]
	mov	edx,[esi+14h]
	lea	ecx,[ecx+ecx*2]
	lea	ecx,[edx+ecx*8]
	mov	edx,[edi+4h]
	push	edx
	mov	edx,[ecx-84h]
	mov	ecx,[ecx-88h]
	push	edx
	mov	edx,[esp+14h]
	push	ecx
	push	eax
	push	ebp
	push	edx
	call	743300h
	mov	ecx,[esp+20h]
	add	esp,18h
	sub	ebx,1h
	mov	[ecx+4h],eax
	mov	[esp+14h],ebx

l0073F496:
	test	ebx,ebx
	mov	dword ptr [esp+10h],0h
	jle	73F540h

l0073F4A6:
	lea	ebx,[ebx+ebx*2]
	shl	ebx,5h
	add	ebx,18h
	nop

l0073F4B0:
	mov	edx,[edi+4h]
	push	edx
	push	1h
	call	752E30h
	mov	ebp,eax
	add	esp,8h
	test	ebp,ebp
	jz	73F59Fh

l0073F4C8:
	mov	eax,[esi+14h]
	add	eax,ebx
	push	eax
	push	edi
	call	73E7A0h
	add	esp,8h
	test	eax,eax
	mov	[esp+0Ch],eax
	jz	73F59Fh

l0073F4E3:
	mov	ecx,[esi+14h]
	lea	edx,[ebx+ecx+30h]
	push	edx
	push	edi
	call	73CEC0h
	add	esp,8h
	test	eax,eax
	jz	73F59Fh

l0073F4FC:
	mov	ecx,[esi+14h]
	mov	edx,[edi+4h]
	push	edx
	mov	edx,[ecx+ebx+0Ch]
	add	ecx,ebx
	mov	ecx,[ecx+8h]
	push	edx
	mov	edx,[esp+10h]
	push	ecx
	push	edx
	push	eax
	mov	eax,[esp+20h]
	push	eax
	call	743300h
	mov	[ebp+4h],eax
	mov	eax,[esp+28h]
	add	eax,1h
	add	esp,18h
	sub	ebx,60h
	cmp	eax,[esp+14h]
	mov	[esp+8h],ebp
	mov	[esp+10h],eax
	jl	73F4B0h

l0073F540:
	mov	ecx,[esi+14h]
	add	ecx,18h
	push	ecx
	push	edi
	call	73E7A0h
	mov	ebx,eax
	add	esp,8h
	test	ebx,ebx
	jz	73F59Fh

l0073F556:
	mov	edx,[esi+14h]
	add	edx,48h
	push	edx
	push	edi
	call	73CEC0h
	add	esp,8h
	test	eax,eax
	jz	73F59Fh

l0073F56A:
	mov	ecx,[edi+4h]
	mov	edx,[esi+0Ch]
	push	ecx
	mov	ecx,[esi+8h]
	push	edx
	mov	edx,[esp+10h]
	push	ecx
	push	edx
	push	eax
	push	ebx
	call	743300h
	add	esp,18h
	pop	ebp
	pop	ebx
	add	esp,10h
	ret

l0073F58B:
	mov	eax,[0A18720h]
	push	ebx
	push	8DCD2Ch
	push	eax
	call	6E15D0h
	add	esp,0Ch

l0073F59F:
	pop	ebp
	xor	eax,eax
	pop	ebx
	add	esp,10h
	ret
0073F5A7                      CC CC CC CC CC CC CC CC CC        .........

;; fn0073F5B0: 0073F5B0
;;   Called from:
;;     007402B1 (in fn00740160)
fn0073F5B0 proc
	mov	eax,[esi+10h]
	cmp	eax,4h
	push	ebx
	jnz	73F605h

l0073F5B9:
	mov	eax,[esi+14h]
	add	eax,18h
	push	eax
	push	edi
	call	73E7A0h
	mov	ebx,eax
	add	esp,8h
	test	ebx,ebx
	jz	73F682h

l0073F5D3:
	mov	ecx,[esi+14h]
	add	ecx,48h
	push	ecx
	push	edi
	call	73CEC0h
	add	esp,8h
	test	eax,eax
	jz	73F682h

l0073F5EB:
	mov	edx,[edi+4h]
	mov	ecx,[esi+0Ch]
	push	edx
	mov	edx,[esi+8h]
	push	ecx
	push	edx
	push	0h
	push	eax
	push	ebx
	call	743290h
	add	esp,18h
	pop	ebx
	ret

l0073F605:
	cmp	eax,7h
	jnz	73F66Dh

l0073F60A:
	mov	eax,[esi+14h]
	push	ebp
	add	eax,18h
	push	eax
	push	edi
	call	73E7A0h
	mov	ebp,eax
	add	esp,8h
	test	ebp,ebp
	jz	73F64Eh

l0073F621:
	mov	ecx,[esi+14h]
	add	ecx,48h
	push	ecx
	push	edi
	call	73CEC0h
	mov	ebx,eax
	add	esp,8h
	test	ebx,ebx
	jz	73F64Eh

l0073F637:
	mov	edx,[esi+14h]
	add	edx,90h
	push	edx
	push	edi
	call	73CEC0h
	add	esp,8h
	test	eax,eax
	jnz	73F653h

l0073F64E:
	pop	ebp
	xor	eax,eax
	pop	ebx
	ret

l0073F653:
	mov	ecx,[edi+4h]
	mov	edx,[esi+0Ch]
	push	ecx
	mov	ecx,[esi+8h]
	push	edx
	push	ecx
	push	eax
	push	ebx
	push	ebp
	call	743290h
	add	esp,18h
	pop	ebp
	pop	ebx
	ret

l0073F66D:
	mov	edx,[0A18720h]
	push	eax
	push	8DCD54h
	push	edx
	call	6E15D0h
	add	esp,0Ch

l0073F682:
	xor	eax,eax
	pop	ebx
	ret
0073F686                   CC CC CC CC CC CC CC CC CC CC       ..........

;; fn0073F690: 0073F690
;;   Called from:
;;     0073F8FD (in fn0073F7B0)
fn0073F690 proc
	mov	eax,[esi+10h]
	cmp	eax,1h
	jnz	73F6C5h

l0073F698:
	mov	eax,[esp+4h]
	push	eax
	push	edi
	call	73CEC0h
	add	esp,8h
	test	eax,eax
	jnz	73F6ABh

l0073F6AA:
	ret

l0073F6AB:
	mov	ecx,[edi+4h]
	mov	edx,[esi+0Ch]
	push	ecx
	mov	ecx,[esi+8h]
	push	edx
	push	ecx
	push	eax
	push	0h
	push	0h
	call	744180h
	add	esp,18h
	ret

l0073F6C5:
	cmp	eax,2h
	push	ebx
	jnz	73F715h

l0073F6CB:
	mov	edx,[esi+14h]
	add	edx,18h
	push	edx
	push	edi
	call	73E7A0h
	mov	ebx,eax
	add	esp,8h
	test	ebx,ebx
	jz	73F7A3h

l0073F6E5:
	mov	eax,[esp+8h]
	push	eax
	push	edi
	call	73CEC0h
	add	esp,8h
	test	eax,eax
	jz	73F7A3h

l0073F6FB:
	mov	ecx,[edi+4h]
	mov	edx,[esi+0Ch]
	push	ecx
	mov	ecx,[esi+8h]
	push	edx
	push	ecx
	push	eax
	push	0h
	push	ebx
	call	744180h
	add	esp,18h
	pop	ebx
	ret

l0073F715:
	cmp	eax,4h
	jnz	73F78Eh

l0073F71A:
	mov	edx,[esi+14h]
	add	edx,48h
	push	edx
	push	edi
	call	73E7A0h
	mov	ebx,eax
	add	esp,8h
	test	ebx,ebx
	jz	73F7A3h

l0073F730:
	mov	eax,[esi+14h]
	add	eax,48h
	push	eax
	push	2h
	push	ebx
	call	73BBE0h
	add	esp,0Ch
	test	eax,eax
	jz	73F7A3h

l0073F746:
	mov	ecx,[esi+14h]
	push	ebp
	add	ecx,18h
	push	ecx
	push	edi
	call	73E7A0h
	mov	ebp,eax
	add	esp,8h
	test	ebp,ebp
	jz	73F76Fh

l0073F75D:
	mov	edx,[esp+0Ch]
	push	edx
	push	edi
	call	73CEC0h
	add	esp,8h
	test	eax,eax
	jnz	73F774h

l0073F76F:
	pop	ebp
	xor	eax,eax
	pop	ebx
	ret

l0073F774:
	mov	ecx,[edi+4h]
	mov	edx,[esi+0Ch]
	push	ecx
	mov	ecx,[esi+8h]
	push	edx
	push	ecx
	push	eax
	push	ebx
	push	ebp
	call	744180h
	add	esp,18h
	pop	ebp
	pop	ebx
	ret

l0073F78E:
	mov	edx,[0A18720h]
	push	eax
	push	8DCD88h
	push	edx
	call	6E15D0h
	add	esp,0Ch

l0073F7A3:
	xor	eax,eax
	pop	ebx
	ret
0073F7A7                      CC CC CC CC CC CC CC CC CC        .........

;; fn0073F7B0: 0073F7B0
;;   Called from:
;;     007402D3 (in fn00740160)
fn0073F7B0 proc
	sub	esp,18h
	mov	ecx,[esp+1Ch]
	push	ebx
	push	ebp
	push	esi
	mov	esi,[esp+2Ch]
	mov	ebp,[esi+10h]
	push	edi
	lea	edi,[ebp-3h]
	mov	eax,55555556h
	imul	edi
	xor	eax,eax
	mov	[esp+10h],eax
	mov	[esp+14h],eax
	mov	eax,[esi+14h]
	add	eax,30h
	mov	ebx,edx
	push	eax
	shr	ebx,1Fh
	push	ecx
	add	ebx,edx
	call	73CEC0h
	add	esp,8h
	test	eax,eax
	mov	[esp+18h],eax
	jz	73F884h

l0073F7F9:
	mov	eax,[esi+14h]
	lea	edx,[edi+edi*2]
	movzx	ecx,word ptr [eax+edx*8]
	cmp	cx,1h
	jnz	73F968h

l0073F80D:
	lea	ecx,[ebp+ebp*2+0h]
	add	ecx,ecx
	add	ecx,ecx
	add	ecx,ecx
	mov	esi,[ecx+eax-44h]
	mov	[esp+1Ch],ecx
	mov	edi,8DBB98h
	mov	ecx,8h
	xor	edx,edx

l0073F82B:
	rep cmpsb

l0073F82D:
	jnz	73F88Eh

l0073F82F:
	cmp	ebp,9h
	jl	73F85Fh

l0073F834:
	lea	ecx,[ebp+ebp*2-12h]
	cmp	word ptr [eax+ecx*8],1h
	jnz	73F85Fh

l0073F83F:
	mov	ecx,[esp+2Ch]
	lea	edx,[ebp+ebp*2-0Ch]
	lea	eax,[eax+edx*8]
	push	eax
	push	ecx
	call	73CEC0h
	add	esp,8h
	test	eax,eax
	mov	[esp+10h],eax
	jz	73F884h

l0073F85C:
	sub	ebx,1h

l0073F85F:
	mov	edx,[esp+30h]
	mov	eax,[edx+14h]
	mov	ecx,[esp+1Ch]
	lea	edx,[ecx+eax-18h]
	mov	eax,[esp+2Ch]
	push	edx
	push	eax
	call	73CEC0h
	add	esp,8h
	test	eax,eax
	mov	[esp+14h],eax
	jnz	73F8B0h

l0073F884:
	pop	edi
	pop	esi
	pop	ebp
	xor	eax,eax
	pop	ebx
	add	esp,18h
	ret

l0073F88E:
	mov	ecx,[esp+1Ch]
	lea	edx,[ecx+eax-18h]
	mov	eax,[esp+2Ch]
	push	edx
	push	eax
	call	73CEC0h
	add	esp,8h
	test	eax,eax
	mov	[esp+10h],eax
	jz	73F97Fh

l0073F8B0:
	mov	esi,[esp+30h]
	sub	ebx,1h

l0073F8B7:
	test	ebx,ebx
	mov	edi,[esp+2Ch]
	jle	73F9A6h

l0073F8C3:
	mov	ecx,[edi+4h]
	push	ecx
	push	ebx
	call	752E30h
	xor	ebp,ebp
	add	esp,8h
	cmp	eax,ebp
	mov	[esp+24h],eax
	jz	73F884h

l0073F8DA:
	cmp	ebx,ebp
	mov	[esp+1Ch],ebp
	jle	73F938h

l0073F8E2:
	add	eax,4h
	mov	[esp+20h],eax
	lea	esp,[esp+0h]

l0073F8F0:
	mov	edx,[esi+14h]
	lea	eax,[edx+ebp]
	lea	ecx,[eax+78h]
	push	ecx
	lea	esi,[eax+48h]
	call	73F690h
	add	esp,4h
	test	eax,eax
	jz	73F884h

l0073F90D:
	mov	ecx,[esp+20h]
	mov	esi,[esp+30h]
	mov	edi,[esp+2Ch]
	mov	[ecx],eax
	mov	eax,[esp+1Ch]
	add	eax,1h
	add	ecx,4h
	add	ebp,48h
	cmp	eax,ebx
	mov	[esp+1Ch],eax
	mov	[esp+20h],ecx
	jl	73F8F0h

l0073F934:
	mov	eax,[esp+24h]

l0073F938:
	mov	edx,[edi+4h]
	mov	ecx,[esi+0Ch]
	push	edx
	mov	edx,[esi+8h]
	push	ecx
	mov	ecx,[esp+18h]
	push	edx
	mov	edx,[esp+24h]
	push	ecx
	push	eax
	push	edx
	call	743430h
	add	esp,18h
	cmp	dword ptr [esp+14h],0h
	mov	ebx,eax
	jnz	73F989h

l0073F960:
	pop	edi
	pop	esi
	pop	ebp
	pop	ebx
	add	esp,18h
	ret

l0073F968:
	cmp	cx,12Ah
	jz	73F8B7h

l0073F973:
	mov	edx,8DCDBCh
	mov	eax,esi
	call	73B830h

l0073F97F:
	pop	edi
	pop	esi
	pop	ebp
	xor	eax,eax
	pop	ebx
	add	esp,18h
	ret

l0073F989:
	mov	eax,[edi+4h]
	push	eax
	push	1h
	call	752E30h
	add	esp,8h
	test	eax,eax
	mov	[esp+18h],eax
	jz	73F884h

l0073F9A3:
	mov	[eax+4h],ebx

l0073F9A6:
	mov	ecx,[edi+4h]
	mov	edx,[esi+0Ch]
	mov	eax,[esi+8h]
	push	ecx
	mov	ecx,[esp+18h]
	push	edx
	mov	edx,[esp+20h]
	push	eax
	push	ecx
	push	edx
	call	743480h
	add	esp,14h
	pop	edi
	pop	esi
	pop	ebp
	pop	ebx
	add	esp,18h
	ret
0073F9CC                                     CC CC CC CC             ....

;; fn0073F9D0: 0073F9D0
;;   Called from:
;;     0073FA87 (in fn0073FA50)
fn0073F9D0 proc
	mov	eax,[edx+14h]
	push	ebx
	push	esi
	mov	esi,[eax+4h]
	push	edi
	mov	edi,8DBBE0h
	mov	ecx,3h
	xor	ebx,ebx

l0073F9E5:
	rep cmpsb

l0073F9E7:
	jz	73FA2Ch

l0073F9E9:
	mov	eax,[edx+8h]
	push	eax
	push	8DCDD8h
	push	8DC7CCh
	call	6EA200h
	mov	esi,eax
	add	esp,0Ch
	test	esi,esi
	jz	73FA26h

l0073FA05:
	mov	ecx,[0A178F4h]
	push	esi
	push	ecx
	call	6E0E90h
	add	esp,8h
	add	dword ptr [esi],0FFh
	jnz	73FA26h

l0073FA1A:
	mov	edx,[esi+4h]
	mov	eax,[edx+18h]
	push	esi
	call	eax
	add	esp,4h

l0073FA26:
	pop	edi
	pop	esi
	xor	eax,eax
	pop	ebx
	ret

l0073FA2C:
	mov	ecx,[esp+10h]
	add	eax,18h
	push	eax
	push	ecx
	call	73E7A0h
	add	esp,8h
	pop	edi
	pop	esi
	pop	ebx
	ret
0073FA41    CC CC CC CC CC CC CC CC CC CC CC CC CC CC CC  ...............

;; fn0073FA50: 0073FA50
;;   Called from:
;;     007402E3 (in fn00740160)
fn0073FA50 proc
	push	ecx
	mov	eax,[esi+14h]
	push	ebx
	push	ebp
	add	eax,18h
	push	eax
	push	edi
	xor	ebx,ebx
	mov	ebp,3h
	call	73E7A0h
	add	esp,8h
	test	eax,eax
	mov	[esp+8h],eax
	jnz	73FA78h

l0073FA72:
	pop	ebp
	xor	eax,eax
	pop	ebx
	pop	ecx
	ret

l0073FA78:
	mov	eax,[esi+14h]
	cmp	word ptr [eax+30h],129h
	lea	edx,[eax+30h]
	jnz	73FAAAh

l0073FA86:
	push	edi
	call	73F9D0h
	mov	ebx,eax
	add	esp,4h
	test	ebx,ebx
	jz	73FA72h

l0073FA95:
	push	esi
	push	2h
	push	ebx
	call	73BBE0h
	add	esp,0Ch
	test	eax,eax
	jz	73FA72h

l0073FAA5:
	mov	ebp,4h

l0073FAAA:
	mov	edx,[esi+14h]
	lea	ecx,[ebp+ebp*2+0h]
	lea	eax,[edx+ecx*8]
	push	eax
	push	edi
	call	73CEC0h
	add	esp,8h
	test	eax,eax
	jz	73FA72h

l0073FAC2:
	mov	ecx,[edi+4h]
	mov	edx,[esi+0Ch]
	push	ecx
	mov	ecx,[esi+8h]
	push	edx
	mov	edx,[esp+10h]
	push	ecx
	push	eax
	push	ebx
	push	edx
	call	743370h
	add	esp,18h
	pop	ebp
	pop	ebx
	pop	ecx
	ret
0073FAE1    CC CC CC CC CC CC CC CC CC CC CC CC CC CC CC  ...............

;; fn0073FAF0: 0073FAF0
;;   Called from:
;;     00740304 (in fn00740160)
fn0073FAF0 proc
	push	ebx
	push	ebp
	mov	ebp,[esp+0Ch]
	mov	edx,[ebp+14h]
	push	esi
	mov	esi,[edx+1Ch]
	push	edi
	mov	ebx,eax
	mov	edi,8ABDD0h
	mov	ecx,5h
	xor	eax,eax

l0073FB0C:
	rep cmpsb

l0073FB0E:
	jnz	73FB54h

l0073FB10:
	mov	ecx,[ebp+8h]
	push	ecx
	push	8DC8D4h
	push	8DC7CCh
	call	6EA200h
	mov	esi,eax
	add	esp,0Ch
	test	esi,esi
	jz	73FB4Dh

l0073FB2C:
	mov	edx,[0A178F4h]
	push	esi
	push	edx
	call	6E0E90h
	add	esp,8h
	add	dword ptr [esi],0FFh
	jnz	73FB4Dh

l0073FB41:
	mov	eax,[esi+4h]
	mov	ecx,[eax+18h]
	push	esi
	call	ecx
	add	esp,4h

l0073FB4D:
	pop	edi
	pop	esi
	pop	ebp
	xor	eax,eax
	pop	ebx
	ret

l0073FB54:
	cmp	dword ptr [ebp+10h],4h
	jnz	73FBAAh

l0073FB5A:
	add	edx,48h
	push	edx
	push	ebx
	call	73CEC0h
	mov	edi,eax
	add	esp,8h
	test	edi,edi
	jz	73FB4Dh

l0073FB6D:
	mov	eax,[ebp+14h]
	mov	eax,[eax+1Ch]
	mov	edx,[ebx+4h]
	push	eax
	mov	[esp+18h],edx
	call	6F1A70h
	mov	ecx,[esp+18h]
	mov	esi,eax
	push	esi
	push	ecx
	call	740DF0h
	mov	edx,[ebx+4h]
	mov	eax,[ebp+0Ch]
	mov	ecx,[ebp+8h]
	push	edx
	push	eax
	push	ecx
	push	edi
	push	0h
	push	esi
	call	742FB0h
	add	esp,24h
	pop	edi
	pop	esi
	pop	ebp
	pop	ebx
	ret

l0073FBAA:
	cmp	word ptr [edx+48h],8h
	lea	eax,[edx+48h]
	jnz	73FBCCh

l0073FBB4:
	add	edx,78h
	push	edx
	push	ebx
	call	73CEC0h
	mov	edi,eax
	add	esp,8h
	test	edi,edi
	jnz	73FB6Dh

l0073FBC7:
	pop	edi
	pop	esi
	pop	ebp
	pop	ebx
	ret

l0073FBCC:
	call	73EB20h
	mov	esi,eax
	test	esi,esi
	jz	73FB4Dh

l0073FBDB:
	mov	edx,[ebp+14h]
	add	edx,90h
	push	edx
	push	ebx
	call	73CEC0h
	add	esp,8h
	test	eax,eax
	jz	73FB4Dh

l0073FBF6:
	mov	ebx,[ebx+4h]
	mov	ecx,[ebp+0Ch]
	mov	edx,[ebp+8h]
	push	ebx
	push	ecx
	push	edx
	push	eax
	mov	eax,[ebp+14h]
	mov	eax,[eax+1Ch]
	push	esi
	push	ebx
	call	73B810h
	add	esp,4h
	push	eax
	call	742FB0h
	add	esp,18h
	pop	edi
	pop	esi
	pop	ebp
	pop	ebx
	ret
0073FC21    CC CC CC CC CC CC CC CC CC CC CC CC CC CC CC  ...............

;; fn0073FC30: 0073FC30
;;   Called from:
;;     0073C3B1 (in fn0073C370)
;;     0074010D (in fn00740060)
fn0073FC30 proc
	sub	esp,20h
	push	ebx
	push	ebp
	push	esi
	xor	ebp,ebp
	push	edi
	mov	edi,[esp+38h]
	xor	esi,esi
	xor	ebx,ebx
	cmp	word ptr [edi],106h
	mov	[esp+2Ch],ebp
	mov	[esp+28h],ebp
	mov	[esp+24h],ebp
	jnz	73FC82h

l0073FC54:
	cmp	dword ptr [edi+10h],2h
	jnz	73FC76h

l0073FC5A:
	mov	eax,[esp+34h]
	mov	ecx,[eax+4h]
	push	ecx
	push	ebp
	push	ebp
	push	ebp
	push	ebp
	call	7441C0h
	add	esp,14h
	pop	edi
	pop	esi
	pop	ebp
	pop	ebx
	add	esp,20h
	ret

l0073FC76:
	mov	edx,[edi+14h]
	add	edx,18h
	mov	[esp+38h],edx
	mov	edi,edx

l0073FC82:
	mov	eax,[edi+10h]
	cmp	eax,ebp
	jle	73FD08h

l0073FC89:
	mov	edx,[edi+14h]
	lea	esp,[esp+0h]

l0073FC90:
	movzx	ecx,word ptr [edx]
	cmp	cx,108h
	jnz	73FC9Dh

l0073FC9A:
	add	esi,1h

l0073FC9D:
	cmp	cx,16h
	jnz	73FCA6h

l0073FCA3:
	add	ebx,1h

l0073FCA6:
	add	edx,18h
	sub	eax,1h
	jnz	73FC90h

l0073FCAE:
	cmp	esi,ebp
	jz	73FD08h

l0073FCB2:
	mov	eax,[esp+34h]
	mov	ecx,[eax+4h]
	push	ecx
	push	esi
	call	752E30h
	mov	esi,eax
	add	esp,8h
	cmp	esi,ebp
	mov	[esp+1Ch],esi
	jz	740055h

l0073FCD1:
	cmp	ebx,ebp
	jz	73FD10h

l0073FCD5:
	mov	edx,[esp+34h]
	mov	eax,[edx+4h]
	push	eax
	push	ebx
	call	752E30h
	add	esp,8h
	cmp	eax,ebp
	mov	[esp+20h],eax
	jz	740055h

l0073FCF2:
	cmp	[edi+10h],ebp
	mov	[esp+14h],ebp
	jle	73FEF2h

l0073FCFF:
	add	esi,4h
	mov	[esp+10h],esi
	jmp	73FD24h

l0073FD08:
	mov	[esp+1Ch],ebp
	mov	esi,ebp
	jmp	73FCD1h

l0073FD10:
	mov	[esp+20h],ebp
	jmp	73FCF2h
0073FD16                   EB 08 8D A4 24 00 00 00 00 90       ....$.....

l0073FD20:
	mov	edi,[esp+38h]

l0073FD24:
	mov	ecx,[edi+14h]
	lea	esi,[ebp+ebp*2+0h]
	add	esi,esi
	add	esi,esi
	add	esi,esi
	movsx	eax,word ptr [ecx+esi]
	cmp	eax,10h
	lea	ebx,[ecx+esi]
	jz	73FEA8h

l0073FD41:
	cmp	eax,24h
	jz	73FE73h

l0073FD4A:
	cmp	eax,108h
	jnz	73FF1Ah

l0073FD55:
	mov	eax,[esp+20h]
	mov	ecx,[esp+14h]
	lea	edx,[ebp+1h]
	mov	[esp+18h],edx
	lea	edi,[eax+ecx*4+4h]
	jmp	73FD70h
0073FD6A                               8D 9B 00 00 00 00           ......

l0073FD70:
	mov	ecx,[esp+38h]
	mov	edx,[esp+18h]
	cmp	edx,[ecx+10h]
	jge	73FDC1h

l0073FD7D:
	mov	eax,[ecx+14h]
	cmp	word ptr [esi+eax+18h],16h
	jnz	73FDC1h

l0073FD88:
	mov	ecx,[esp+34h]
	lea	eax,[esi+eax+30h]
	push	eax
	push	ecx
	call	73E7A0h
	add	esp,8h
	test	eax,eax
	jz	740023h

l0073FDA2:
	add	dword ptr [esp+18h],2h
	mov	ecx,1h
	add	[esp+14h],ecx
	mov	[edi],eax
	add	edi,4h
	add	ebp,2h
	add	esi,30h
	mov	[esp+2Ch],ecx
	jmp	73FDD1h

l0073FDC1:
	cmp	dword ptr [esp+2Ch],0h
	jnz	73FF37h

l0073FDCC:
	mov	ecx,1h

l0073FDD1:
	cmp	dword ptr [ebx+10h],3h
	jnz	73FE07h

l0073FDD7:
	mov	ebx,[ebx+14h]
	add	ebx,18h
	cmp	[ebx+10h],ecx
	jnz	73FDE7h

l0073FDE2:
	mov	ebx,[ebx+14h]
	jmp	73FD70h

l0073FDE7:
	mov	edx,[esp+34h]
	push	ebx
	push	edx
	call	73C100h
	mov	ecx,[esp+18h]
	mov	[ecx],eax
	add	esp,8h
	add	ecx,4h
	mov	[esp+10h],ecx
	mov	ecx,1h

l0073FE07:
	mov	eax,[ebx+14h]
	cmp	[eax],cx
	jnz	73FE6Eh

l0073FE0F:
	mov	eax,[eax+4h]
	mov	edi,8ABDD0h
	mov	esi,eax
	mov	ecx,5h
	xor	edx,edx

l0073FE20:
	rep cmpsb

l0073FE22:
	jz	73FF45h

l0073FE28:
	mov	ecx,[esp+34h]
	mov	edi,[ecx+4h]
	push	eax
	call	6F1A70h
	mov	esi,eax
	push	esi
	push	edi
	call	740DF0h
	mov	edx,[esp+40h]
	mov	eax,[edx+4h]
	mov	ecx,[ebx+0Ch]
	mov	edx,[ebx+8h]
	push	eax
	push	ecx
	push	edx
	push	6h
	push	esi
	call	743EE0h
	add	esp,20h
	test	eax,eax
	jz	740023h

l0073FE61:
	mov	ecx,[esp+10h]
	mov	[ecx],eax
	add	ecx,4h
	mov	[esp+10h],ecx

l0073FE6E:
	add	ebp,2h
	jmp	73FEE1h

l0073FE73:
	mov	ebx,[ebx+1Ch]
	mov	edi,8ABDD0h
	mov	esi,ebx
	mov	ecx,5h
	xor	eax,eax

l0073FE84:
	rep cmpsb

l0073FE86:
	jz	73FF8Eh

l0073FE8C:
	mov	ecx,[esp+34h]
	mov	edi,[ecx+4h]
	push	ebx
	call	6F1A70h
	mov	esi,eax
	push	esi
	push	edi
	call	740DF0h
	mov	[esp+30h],esi
	jmp	73FEDBh

l0073FEA8:
	mov	ebx,[ebx+1Ch]
	mov	edi,8ABDD0h
	mov	esi,ebx
	mov	ecx,5h
	xor	edx,edx

l0073FEB9:
	rep cmpsb

l0073FEBB:
	jz	73FFD8h

l0073FEC1:
	mov	eax,[esp+34h]
	mov	edi,[eax+4h]
	push	ebx
	call	6F1A70h
	mov	esi,eax
	push	esi
	push	edi
	call	740DF0h
	mov	[esp+34h],esi

l0073FEDB:
	add	esp,0Ch
	add	ebp,3h

l0073FEE1:
	mov	ecx,[esp+38h]
	cmp	ebp,[ecx+10h]
	jl	73FD20h

l0073FEEE:
	mov	esi,[esp+1Ch]

l0073FEF2:
	mov	eax,[esp+34h]
	mov	ecx,[eax+4h]
	mov	edx,[esp+20h]
	mov	eax,[esp+24h]
	push	ecx
	mov	ecx,[esp+2Ch]
	push	edx
	push	eax
	push	ecx
	push	esi
	call	7441C0h
	add	esp,14h
	pop	edi
	pop	esi
	pop	ebp
	pop	ebx
	add	esp,20h
	ret

l0073FF1A:
	movsx	edx,word ptr [ebx]
	mov	eax,[0A18720h]
	push	ebp
	push	edx
	push	8DCE28h
	push	eax
	call	6E15D0h
	add	esp,10h
	jmp	740023h

l0073FF37:
	mov	ecx,[ecx+8h]
	push	ecx
	push	8DCDF8h
	jmp	73FFEFh

l0073FF45:
	mov	ebx,[ebx+14h]
	mov	edx,[ebx+8h]
	push	edx
	push	8DC8D4h
	push	8DC7CCh
	call	6EA200h
	mov	esi,eax
	add	esp,0Ch
	test	esi,esi
	jz	740023h

l0073FF68:
	mov	eax,[0A178F4h]
	push	esi
	push	eax
	call	6E0E90h
	add	esp,8h
	add	dword ptr [esi],0FFh
	jnz	740023h

l0073FF80:
	mov	ecx,[esi+4h]
	mov	edx,[ecx+18h]
	push	esi
	call	edx
	jmp	740020h

l0073FF8E:
	mov	ecx,[esp+38h]
	mov	edx,[ecx+14h]
	lea	eax,[ebp+ebp*2+3h]
	lea	eax,[edx+eax*8]
	mov	eax,[eax+8h]
	push	eax
	push	8DC8D4h
	push	8DC7CCh
	call	6EA200h
	mov	esi,eax
	add	esp,0Ch
	test	esi,esi
	jz	740023h

l0073FFB8:
	mov	ecx,[0A178F4h]
	push	esi
	push	ecx
	call	6E0E90h
	add	esp,8h
	add	dword ptr [esi],0FFh
	jnz	740023h

l0073FFCD:
	mov	edx,[esi+4h]
	mov	eax,[edx+18h]
	push	esi
	call	eax
	jmp	740020h

l0073FFD8:
	mov	edx,[esp+38h]
	mov	eax,[edx+14h]
	lea	ecx,[ebp+ebp*2+3h]
	lea	eax,[eax+ecx*8]
	mov	ecx,[eax+8h]
	push	ecx
	push	8DC8D4h

l0073FFEF:
	push	8DC7CCh
	call	6EA200h
	mov	esi,eax
	add	esp,0Ch
	test	esi,esi
	jz	740023h

l00740002:
	mov	edx,[0A178F4h]
	push	esi
	push	edx
	call	6E0E90h
	add	esp,8h
	add	dword ptr [esi],0FFh
	jnz	740023h

l00740017:
	mov	eax,[esi+4h]
	mov	ecx,[eax+18h]
	push	esi
	call	ecx

l00740020:
	add	esp,4h

l00740023:
	mov	eax,[esp+28h]
	test	eax,eax
	jz	74003Ch

l0074002B:
	add	dword ptr [eax],0FFh
	jnz	74003Ch

l00740030:
	mov	edx,[eax+4h]
	push	eax
	mov	eax,[edx+18h]
	call	eax
	add	esp,4h

l0074003C:
	mov	eax,[esp+24h]
	test	eax,eax
	jz	740055h

l00740044:
	add	dword ptr [eax],0FFh
	jnz	740055h

l00740049:
	mov	ecx,[eax+4h]
	mov	edx,[ecx+18h]
	push	eax
	call	edx
	add	esp,4h

l00740055:
	pop	edi
	pop	esi
	pop	ebp
	xor	eax,eax
	pop	ebx
	add	esp,20h
	ret
0074005F                                              CC                .

;; fn00740060: 00740060
;;   Called from:
;;     007402F3 (in fn00740160)
fn00740060 proc
	sub	esp,0Ch
	cmp	dword ptr [ebx+10h],6h
	push	ebp
	push	edi
	mov	dword ptr [esp+8h],0h
	jnz	740098h

l00740073:
	mov	eax,[ebx+14h]
	mov	edi,[esp+18h]
	push	eax
	call	73DF70h
	add	esp,4h
	test	eax,eax
	mov	[esp+8h],eax
	jnz	740091h

l0074008B:
	pop	edi
	pop	ebp
	add	esp,0Ch
	ret

l00740091:
	mov	ebp,2h
	jmp	74009Dh

l00740098:
	mov	ebp,1h

l0074009D:
	mov	eax,[ebx+14h]
	mov	ecx,[esp+18h]
	mov	edx,[ecx+4h]
	push	esi
	lea	esi,[ebp+ebp*2+0h]
	add	esi,esi
	add	esi,esi
	add	esi,esi
	mov	eax,[esi+eax+4h]
	push	eax
	mov	[esp+14h],edx
	call	6F1A70h
	mov	ecx,[esp+14h]
	mov	edi,eax
	push	edi
	push	ecx
	mov	[esp+20h],edi
	call	740DF0h
	add	esp,0Ch
	test	edi,edi
	jz	7400FBh

l007400D8:
	mov	edx,[ebx+14h]
	lea	eax,[esi+edx]
	mov	esi,[eax+4h]
	mov	edi,8ABDD0h
	mov	ecx,5h
	xor	edx,edx

l007400ED:
	rep cmpsb

l007400EF:
	jnz	740104h

l007400F1:
	mov	edx,8DC8D4h
	call	73B830h

l007400FB:
	pop	esi
	pop	edi
	xor	eax,eax
	pop	ebp
	add	esp,0Ch
	ret

l00740104:
	mov	esi,[esp+1Ch]
	add	eax,18h
	push	eax
	push	esi
	call	73FC30h
	mov	edi,eax
	add	esp,8h
	test	edi,edi
	jz	7400FBh

l0074011B:
	mov	ecx,[ebx+14h]
	lea	eax,[ebp+ebp*2+9h]
	lea	edx,[ecx+eax*8]
	push	edx
	push	esi
	call	73CEC0h
	add	esp,8h
	test	eax,eax
	jz	7400FBh

l00740133:
	mov	ecx,[esi+4h]
	mov	edx,[ebx+0Ch]
	push	ecx
	mov	ecx,[ebx+8h]
	push	edx
	mov	edx,[esp+14h]
	push	ecx
	push	edx
	push	eax
	mov	eax,[esp+28h]
	push	edi
	push	eax
	call	742F20h
	add	esp,1Ch
	pop	esi
	pop	edi
	pop	ebp
	add	esp,0Ch
	ret
0074015A                               CC CC CC CC CC CC           ......

;; fn00740160: 00740160
;;   Called from:
;;     0073CF3F (in fn0073CEC0)
;;     0073CFAB (in fn0073CEC0)
;;     0073CFF1 (in fn0073CEC0)
;;     007404F9 (in fn007403E0)
;;     00740540 (in fn007403E0)
;;     00740614 (in fn007403E0)
;;     00740657 (in fn007403E0)
fn00740160 proc
	mov	eax,[esp+8h]
	cmp	word ptr [eax],10Ah
	jnz	74016Eh

l0074016B:
	mov	eax,[eax+14h]

l0074016E:
	cmp	word ptr [eax],10Bh
	jnz	740178h

l00740175:
	mov	eax,[eax+14h]

l00740178:
	movzx	edx,word ptr [eax]
	cmp	dx,10Ch
	push	ebx
	push	esi
	push	edi
	jnz	740281h

l00740189:
	mov	edi,[eax+14h]
	movsx	eax,word ptr [edi]
	lea	ecx,[eax-10Dh]
	cmp	ecx,15h
	ja	740277h

l0074019E:
	movzx	ecx,byte ptr [ecx+74035Ch]
	jmp	dword ptr [740334h+ecx*4]

l007401AC:
	mov	edx,[esp+10h]
	push	edx
	mov	ebx,edi
	call	73EB70h
	add	esp,4h
	pop	edi
	pop	esi
	pop	ebx
	ret

l007401BF:
	mov	eax,[esp+10h]
	push	eax
	mov	esi,edi
	call	73EE40h
	add	esp,4h
	pop	edi
	pop	esi
	pop	ebx
	ret

l007401D2:
	mov	esi,[edi+14h]
	mov	ebx,[esp+10h]
	push	3h
	add	esi,18h
	push	ebx
	call	73C7D0h
	add	esp,8h
	test	eax,eax
	jz	74032Ch

l007401EF:
	mov	ecx,[ebx+4h]
	mov	edx,[edi+0Ch]
	push	ecx
	mov	ecx,[edi+8h]
	push	edx
	push	ecx
	push	eax
	call	743060h
	add	esp,10h
	pop	edi
	pop	esi
	pop	ebx
	ret

l00740208:
	mov	edx,[esp+10h]
	mov	eax,[edx+4h]
	mov	ecx,[edi+0Ch]
	mov	edx,[edi+8h]
	push	eax
	push	ecx
	push	edx
	call	7436E0h
	add	esp,0Ch
	pop	edi
	pop	esi
	pop	ebx
	ret

l00740224:
	mov	eax,[esp+10h]
	call	73EF40h
	pop	edi
	pop	esi
	pop	ebx
	ret

l00740231:
	mov	eax,[esp+10h]
	push	eax
	mov	eax,edi
	call	73CAE0h
	add	esp,4h
	pop	edi
	pop	esi
	pop	ebx
	ret

l00740244:
	mov	ecx,[esp+10h]
	push	ecx
	call	73CE00h
	add	esp,4h
	pop	edi
	pop	esi
	pop	ebx
	ret

l00740255:
	mov	edx,[esp+10h]
	push	edx
	mov	esi,edi
	call	73F160h
	add	esp,4h
	pop	edi
	pop	esi
	pop	ebx
	ret

l00740268:
	mov	esi,edi
	mov	edi,[esp+10h]
	call	73F220h
	pop	edi
	pop	esi
	pop	ebx
	ret

l00740277:
	mov	ecx,[edi+10h]
	push	ecx
	push	eax
	jmp	740318h

l00740281:
	mov	esi,[eax+14h]
	movsx	ecx,word ptr [esi]
	add	ecx,0FFFFFEFBh
	cmp	ecx,43h
	ja	740310h

l00740292:
	movzx	ecx,byte ptr [ecx+740394h]
	jmp	dword ptr [740374h+ecx*4]

l007402A0:
	mov	edi,[esp+10h]
	call	73F2C0h
	pop	edi
	pop	esi
	pop	ebx
	ret

l007402AD:
	mov	edi,[esp+10h]
	call	73F5B0h
	pop	edi
	pop	esi
	pop	ebx
	ret

l007402BA:
	mov	edx,[esp+10h]
	push	edx
	mov	ebx,esi
	call	73D050h
	add	esp,4h
	pop	edi
	pop	esi
	pop	ebx
	ret

l007402CD:
	mov	eax,[esp+10h]
	push	esi
	push	eax
	call	73F7B0h
	add	esp,8h
	pop	edi
	pop	esi
	pop	ebx
	ret

l007402DF:
	mov	edi,[esp+10h]
	call	73FA50h
	pop	edi
	pop	esi
	pop	ebx
	ret

l007402EC:
	mov	ecx,[esp+10h]
	push	ecx
	mov	ebx,esi
	call	740060h
	add	esp,4h
	pop	edi
	pop	esi
	pop	ebx
	ret

l007402FF:
	mov	eax,[esp+10h]
	push	esi
	call	73FAF0h
	add	esp,4h
	pop	edi
	pop	esi
	pop	ebx
	ret

l00740310:
	mov	eax,[eax+10h]
	movsx	ecx,dx
	push	eax
	push	ecx

l00740318:
	mov	edx,[0A18720h]
	push	8DCE50h
	push	edx
	call	6E15D0h
	add	esp,10h

l0074032C:
	pop	edi
	pop	esi
	xor	eax,eax
	pop	ebx
	ret
00740332       8B FF                                       ..           
l00740334	dd	0x007401AC
l00740338	dd	0x007401BF
l0074033C	dd	0x007401D2
l00740340	dd	0x00740208
l00740344	dd	0x00740224
l00740348	dd	0x00740231
l0074034C	dd	0x00740244
l00740350	dd	0x00740255
l00740354	dd	0x00740268
l00740358	dd	0x00740277
l0074035C	db	0x00
l0074035D	db	0x09
l0074035E	db	0x01
l0074035F	db	0x02
l00740360	db	0x03
l00740361	db	0x04
l00740362	db	0x09
l00740363	db	0x09
l00740364	db	0x09
l00740365	db	0x09
l00740366	db	0x09
l00740367	db	0x05
l00740368	db	0x09
l00740369	db	0x09
l0074036A	db	0x09
l0074036B	db	0x09
l0074036C	db	0x09
l0074036D	db	0x09
l0074036E	db	0x09
l0074036F	db	0x06
l00740370	db	0x07
l00740371	db	0x08
00740372       8B FF                                       ..           
l00740374	dd	0x007402EC
l00740378	dd	0x007402A0
l0074037C	dd	0x007402AD
l00740380	dd	0x007402BA
l00740384	dd	0x007402CD
l00740388	dd	0x007402DF
l0074038C	dd	0x007402FF
l00740390	dd	0x00740310
l00740394	db	0x00
l00740395	db	0x07
l00740396	db	0x07
l00740397	db	0x07
l00740398	db	0x07
l00740399	db	0x07
l0074039A	db	0x07
l0074039B	db	0x07
l0074039C	db	0x07
l0074039D	db	0x07
l0074039E	db	0x07
l0074039F	db	0x07
l007403A0	db	0x07
l007403A1	db	0x07
l007403A2	db	0x07
l007403A3	db	0x07
l007403A4	db	0x07
l007403A5	db	0x07
l007403A6	db	0x07
l007403A7	db	0x07
l007403A8	db	0x07
l007403A9	db	0x07
l007403AA	db	0x07
l007403AB	db	0x07
l007403AC	db	0x07
l007403AD	db	0x07
l007403AE	db	0x07
l007403AF	db	0x07
l007403B0	db	0x07
l007403B1	db	0x07
l007403B2	db	0x07
l007403B3	db	0x01
l007403B4	db	0x02
l007403B5	db	0x03
l007403B6	db	0x04
l007403B7	db	0x05
l007403B8	db	0x07
l007403B9	db	0x07
l007403BA	db	0x07
l007403BB	db	0x07
l007403BC	db	0x07
l007403BD	db	0x07
l007403BE	db	0x07
l007403BF	db	0x07
l007403C0	db	0x07
l007403C1	db	0x07
l007403C2	db	0x07
l007403C3	db	0x07
l007403C4	db	0x07
l007403C5	db	0x07
l007403C6	db	0x07
l007403C7	db	0x07
l007403C8	db	0x07
l007403C9	db	0x07
l007403CA	db	0x07
l007403CB	db	0x07
l007403CC	db	0x07
l007403CD	db	0x07
l007403CE	db	0x07
l007403CF	db	0x07
l007403D0	db	0x07
l007403D1	db	0x07
l007403D2	db	0x07
l007403D3	db	0x07
l007403D4	db	0x07
l007403D5	db	0x07
l007403D6	db	0x07
l007403D7	db	0x06
007403D8                         CC CC CC CC CC CC CC CC         ........

;; fn007403E0: 007403E0
;;   Called from:
;;     006E8B1A (in fn006E8AC0)
;;     006E8BB4 (in fn006E8B50)
fn007403E0 proc
	push	ebp
	mov	ebp,esp
	and	esp,0F8h
	mov	eax,[ebp+0Ch]
	sub	esp,24h
	push	ebx
	push	esi
	xor	esi,esi
	cmp	eax,esi
	push	edi
	jz	740430h

l007403F5:
	test	dword ptr [eax],100h
	jz	740430h

l007403FD:
	mov	ebx,[ebp+8h]
	cmp	word ptr [ebx],152h
	mov	dword ptr [esp+28h],8D9880h
	jnz	740451h

l0074040F:
	mov	edx,8DCE78h
	mov	eax,ebx
	call	73B830h

l0074041B:
	mov	eax,[ebp+10h]
	push	eax
	call	73B870h
	add	esp,4h

l00740427:
	xor	eax,eax
	pop	edi
	pop	esi
	pop	ebx
	mov	esp,ebp
	pop	ebp
	ret

l00740430:
	mov	eax,[ebp+8h]
	cmp	word ptr [eax],152h
	jnz	74044Bh

l0074043A:
	mov	edx,[eax+14h]
	mov	ecx,[eax+4h]
	mov	[esp+28h],ecx
	mov	[ebp+8h],edx
	mov	ebx,edx
	jmp	740451h

l0074044B:
	mov	[esp+28h],esi
	mov	ebx,eax

l00740451:
	mov	ecx,[ebp+14h]
	mov	[esp+2Ch],ecx
	movsx	eax,word ptr [ebx]
	sub	eax,100h
	mov	[esp+14h],esi
	jz	7405A3h

l0074046A:
	sub	eax,1h
	jz	740498h

l0074046F:
	sub	eax,1h
	jnz	74041Bh

l00740474:
	mov	eax,[ebx+14h]
	lea	esi,[esp+28h]
	call	73C790h
	test	eax,eax
	jz	74041Bh

l00740484:
	mov	ecx,[ebp+14h]
	push	ecx
	push	eax
	call	742ED0h
	add	esp,8h
	pop	edi
	pop	esi
	pop	ebx
	mov	esp,ebp
	pop	ebp
	ret

l00740498:
	push	ecx
	push	ebx
	call	73B9B0h
	add	esp,4h
	push	eax
	call	752E30h
	xor	ecx,ecx
	add	esp,8h
	cmp	eax,ecx
	mov	[esp+10h],eax
	jz	740427h

l007404B9:
	mov	edx,[ebx+10h]
	sub	edx,1h
	test	edx,edx
	mov	[esp+1Ch],ecx
	jle	74058Fh

l007404CB:
	mov	[esp+18h],ecx
	nop

l007404D0:
	mov	edi,[ebx+14h]
	add	edi,[esp+18h]
	cmp	word ptr [edi],4h
	jz	74056Dh

l007404E1:
	push	edi
	call	73B9B0h
	add	esp,4h
	cmp	eax,1h
	mov	[esp+24h],eax
	jnz	74051Ah

l007404F3:
	lea	eax,[esp+28h]
	push	edi
	push	eax
	call	740160h
	add	esp,8h
	test	eax,eax
	jz	74041Bh

l00740509:
	mov	ecx,[esp+10h]
	mov	[ecx+esi*4+4h],eax
	add	esi,1h
	mov	[esp+14h],esi
	jmp	74056Dh

l0074051A:
	mov	edx,[edi+14h]
	xor	edi,edi
	test	eax,eax
	mov	[esp+20h],edx
	jle	74056Dh

l00740527:
	mov	eax,[esp+10h]
	xor	ebx,ebx
	lea	esi,[eax+esi*4+4h]

l00740531:
	mov	ecx,[esp+20h]
	mov	edx,[ecx+14h]
	add	edx,ebx
	push	edx
	lea	eax,[esp+2Ch]
	push	eax
	call	740160h
	add	esp,8h
	test	eax,eax
	jz	74041Bh

l00740550:
	add	dword ptr [esp+14h],1h
	mov	[esi],eax
	add	edi,1h
	add	esi,4h
	add	ebx,30h
	cmp	edi,[esp+24h]
	jl	740531h

l00740566:
	mov	esi,[esp+14h]
	mov	ebx,[ebp+8h]

l0074056D:
	mov	eax,[esp+1Ch]
	mov	ecx,[ebx+10h]
	add	dword ptr [esp+18h],18h
	add	eax,1h
	sub	ecx,1h
	cmp	eax,ecx
	mov	[esp+1Ch],eax
	jl	7404D0h

l0074058B:
	mov	eax,[esp+10h]

l0074058F:
	mov	edx,[ebp+14h]
	push	edx
	push	eax
	call	742E70h
	add	esp,8h
	pop	edi
	pop	esi
	pop	ebx
	mov	esp,ebp
	pop	ebp
	ret

l007405A3:
	mov	edi,[ebx+14h]
	cmp	word ptr [edi],4h
	jnz	7405E6h

l007405AC:
	push	ecx
	push	1h
	call	752E30h
	mov	edi,eax
	add	esp,8h
	test	edi,edi
	jz	74041Bh

l007405C1:
	mov	esi,[ebp+14h]
	mov	eax,[ebx+0Ch]
	mov	ecx,[ebx+8h]
	push	esi
	push	eax
	push	ecx
	call	7436E0h
	push	esi
	push	edi
	mov	[edi+4h],eax
	call	742EA0h
	add	esp,14h
	pop	edi
	pop	esi
	pop	ebx
	mov	esp,ebp
	pop	ebp
	ret

l007405E6:
	push	edi
	call	73B9B0h
	mov	edx,[ebp+14h]
	mov	ebx,eax
	push	edx
	push	ebx
	call	752E30h
	mov	esi,eax
	add	esp,0Ch
	test	esi,esi
	mov	[esp+10h],esi
	jz	74041Bh

l00740609:
	cmp	ebx,1h
	jnz	74063Bh

l0074060E:
	lea	eax,[esp+28h]
	push	edi
	push	eax
	call	740160h
	add	esp,8h
	test	eax,eax
	jz	74041Bh

l00740624:
	mov	ecx,[ebp+14h]
	push	ecx
	push	esi
	mov	[esi+4h],eax
	call	742EA0h
	add	esp,8h
	pop	edi
	pop	esi
	pop	ebx
	mov	esp,ebp
	pop	ebp
	ret

l0074063B:
	xor	esi,esi
	cmp	[edi+10h],esi
	jle	740683h

l00740642:
	xor	ebx,ebx

l00740644:
	mov	ecx,[edi+14h]
	cmp	word ptr [ecx+ebx],4h
	lea	eax,[ecx+ebx]
	jz	740683h

l00740651:
	push	eax
	lea	edx,[esp+2Ch]
	push	edx
	call	740160h
	mov	ecx,eax
	add	esp,8h
	test	ecx,ecx
	jz	74041Bh

l00740669:
	mov	eax,esi
	cdq
	sub	eax,edx
	mov	edx,[esp+10h]
	sar	eax,1h
	add	esi,2h
	mov	[edx+eax*4+4h],ecx
	add	ebx,30h
	cmp	esi,[edi+10h]
	jl	740644h

l00740683:
	mov	ecx,[ebp+14h]
	mov	esi,[esp+10h]
	push	ecx
	push	esi
	call	742EA0h
	add	esp,8h
	pop	edi
	pop	esi
	pop	ebx
	mov	esp,ebp
	pop	ebp
	ret
0074069B                                  CC CC CC CC CC            .....

;; fn007406A0: 007406A0
;;   Called from:
;;     00740B35 (in fn00740A90)
;;     00740BD9 (in fn00740B40)
fn007406A0 proc
	sub	esp,20h
	push	ebx
	push	ebp
	mov	ebp,[esp+2Ch]
	push	esi
	push	eax
	xor	ebx,ebx
	push	ecx
	xor	esi,esi
	mov	[esp+24h],ebx
	mov	[esp+28h],ebx
	call	7551F0h
	add	esp,8h
	cmp	eax,ebx
	mov	[esp+14h],eax
	jnz	7406F9h

l007406C8:
	push	8DCEB8h
	call	dword ptr [8A46CCh]
	add	eax,40h
	push	eax
	call	dword ptr [8A45E0h]
	mov	edx,[esp+3Ch]
	push	ebp
	mov	dword ptr [edx],0Fh
	call	7539D0h
	add	esp,0Ch
	pop	esi
	pop	ebp
	xor	eax,eax
	pop	ebx
	add	esp,20h
	ret

l007406F9:
	test	byte ptr [esp+38h],3h
	jz	74070Ah

l00740700:
	or	dword ptr [eax+177Ch],8000h

l0074070A:
	push	edi
	lea	eax,[esp+2Ch]
	push	eax
	lea	ecx,[esp+20h]
	push	ecx
	push	ebp
	call	754FA0h
	add	esp,0Ch
	cmp	eax,34h
	mov	[esp+14h],eax
	jz	74090Eh

l0074072B:
	jmp	740734h
0074072D                                        8D 49 00              .I.

l00740730:
	mov	esi,[esp+28h]

l00740734:
	cmp	[esp+14h],ebx
	jnz	74076Dh

l0074073A:
	cmp	esi,ebx
	jz	74076Dh

l0074073E:
	mov	eax,[ebp+20h]
	cmp	eax,ebx
	mov	dword ptr [esp+14h],4h
	mov	[esp+20h],ebx
	mov	[esp+24h],ebx
	mov	[esp+28h],ebx
	jz	740775h

l00740759:
	test	byte ptr [esp+3Ch],2h
	jnz	740775h

l00740760:
	neg	eax
	mov	[ebp+1B8h],eax
	mov	[ebp+20h],ebx
	jmp	740775h

l0074076D:
	mov	dword ptr [esp+28h],1h

l00740775:
	mov	ebx,[esp+2Ch]
	sub	ebx,[esp+1Ch]
	lea	edx,[ebx+1h]
	push	edx
	call	723860h
	mov	esi,eax
	add	esp,4h
	test	esi,esi
	mov	[esp+10h],esi
	jz	74091Ch

l00740797:
	test	ebx,ebx
	jbe	7407ABh

l0074079B:
	mov	eax,[esp+1Ch]
	push	ebx
	push	eax
	push	esi
	call	dword ptr [8A45DCh]
	add	esp,0Ch

l007407AB:
	cmp	dword ptr [esp+14h],1h
	mov	byte ptr [esi+ebx],0h
	jnz	740833h

l007407B6:
	cmp	ebx,6h
	jnz	7407DCh

l007407BB:
	cmp	byte ptr [esi],69h
	jnz	7407DCh

l007407C0:
	mov	edi,8DBBECh
	mov	ecx,7h
	xor	edx,edx

l007407CC:
	rep cmpsb

l007407CE:
	mov	esi,[esp+10h]
	jnz	7407DCh

l007407D4:
	mov	dword ptr [esp+20h],1h

l007407DC:
	mov	eax,[esp+18h]
	test	dword ptr [eax+177Ch],8000h
	jnz	740890h

l007407F0:
	cmp	ebx,4h
	jnz	740849h

l007407F5:
	cmp	byte ptr [esi],77h
	jnz	740849h

l007407FA:
	mov	edi,8DBB90h
	mov	ecx,5h
	xor	edx,edx

l00740806:
	rep cmpsb

l00740808:
	jnz	740845h

l0074080A:
	mov	eax,[esp+38h]
	mov	eax,[eax+4h]
	test	eax,eax
	mov	ecx,[ebp+1C4h]
	jnz	740820h

l0074081B:
	mov	eax,8D3F0Ch

l00740820:
	push	ecx
	push	eax
	push	0A2B998h

l00740827:
	call	716B20h
	add	esp,0Ch

l0074082F:
	mov	esi,[esp+10h]

l00740833:
	mov	ecx,[ebp+380h]
	mov	eax,[esp+1Ch]
	cmp	eax,ecx
	jc	7408BBh

l00740841:
	sub	eax,ecx
	jmp	7408BEh

l00740845:
	mov	esi,[esp+10h]

l00740849:
	cmp	dword ptr [esp+20h],0h
	jnz	740833h

l00740850:
	cmp	dword ptr [esp+24h],0h
	jnz	740833h

l00740857:
	cmp	ebx,2h
	jnz	740833h

l0074085C:
	cmp	byte ptr [esi],61h
	jnz	740833h

l00740861:
	mov	edi,8DBBE0h
	mov	ecx,3h
	xor	edx,edx

l0074086D:
	rep cmpsb

l0074086F:
	jnz	74082Fh

l00740871:
	mov	eax,[esp+38h]
	mov	eax,[eax+4h]
	test	eax,eax
	mov	ecx,[ebp+1C4h]
	jnz	740887h

l00740882:
	mov	eax,8D3F0Ch

l00740887:
	push	ecx
	push	eax
	push	0A2B9E0h
	jmp	740827h

l00740890:
	cmp	ebx,4h
	jnz	740833h

l00740895:
	cmp	byte ptr [esi],77h
	jnz	740833h

l0074089A:
	mov	edi,8DBB90h
	mov	ecx,5h
	xor	edx,edx

l007408A6:
	rep cmpsb

l007408A8:
	mov	esi,[esp+10h]
	jnz	740833h

l007408AE:
	mov	dword ptr [esp+24h],1h
	jmp	740833h

l007408BB:
	or	eax,0FFh

l007408BE:
	mov	edi,[esp+38h]
	mov	edx,[ebp+1C4h]
	mov	ebx,[esp+14h]
	lea	ecx,[edi+18h]
	push	ecx
	push	eax
	mov	eax,[esp+20h]
	push	edx
	push	esi
	push	ebx
	push	eax
	call	755500h
	add	esp,18h
	cmp	eax,0Ah
	mov	[edi],eax
	jnz	7409E6h

l007408EC:
	lea	ecx,[esp+2Ch]
	push	ecx
	lea	edx,[esp+20h]
	push	edx
	push	ebp
	call	754FA0h
	add	esp,0Ch
	xor	ebx,ebx
	cmp	eax,34h
	mov	[esp+14h],eax
	jnz	740730h

l0074090E:
	mov	eax,[ebp+14h]
	mov	ecx,[esp+38h]
	mov	[ecx],eax
	jmp	7409F9h

l0074091C:
	push	8DCEA0h
	call	dword ptr [8A46CCh]
	add	eax,40h
	push	eax
	call	dword ptr [8A45E0h]
	mov	edx,[esp+40h]
	add	esp,8h
	mov	dword ptr [edx],0Fh
	xor	ebx,ebx

l00740940:
	mov	edi,[esp+38h]

l00740944:
	mov	edx,[esp+18h]
	push	edx
	call	755280h
	add	esp,4h
	test	ebx,ebx
	jnz	740A21h

l00740959:
	cmp	dword ptr [ebp+1C4h],1h
	jg	74096Eh

l00740962:
	cmp	dword ptr [ebp+14h],0Bh
	jnz	74096Eh

l00740968:
	mov	dword ptr [edi],0Bh

l0074096E:
	mov	eax,[ebp+1C4h]
	mov	[edi+8h],eax
	mov	ecx,[ebp+0h]
	test	ecx,ecx
	jz	740A75h

l00740982:
	mov	edx,[ebp+4h]
	lea	eax,[edi+0Ch]
	sub	edx,ecx
	mov	[eax],edx
	mov	esi,[ebp+8h]
	sub	esi,[ebp+0h]
	push	eax
	push	esi
	push	ebp
	call	755020h
	mov	edi,eax
	add	esp,0Ch
	test	edi,edi
	jnz	7409CCh

l007409A3:
	lea	eax,[esi+1h]
	push	eax
	call	723860h
	mov	edi,eax
	add	esp,4h
	test	edi,edi
	jz	7409CCh

l007409B5:
	test	esi,esi
	jbe	7409C8h

l007409B9:
	mov	ecx,[ebp+0h]
	push	esi
	push	ecx
	push	edi
	call	dword ptr [8A45DCh]
	add	esp,0Ch

l007409C8:
	mov	byte ptr [esi+edi],0h

l007409CC:
	mov	edx,[esp+38h]
	push	ebp
	mov	[edx+10h],edi
	call	7539D0h
	add	esp,4h
	pop	edi
	pop	esi
	pop	ebp
	mov	eax,ebx
	pop	ebx
	add	esp,20h
	ret

l007409E6:
	cmp	eax,10h
	jz	740A06h

l007409EB:
	push	esi
	call	7239C0h
	add	esp,4h
	mov	[edi+14h],ebx
	xor	ebx,ebx

l007409F9:
	mov	edi,[esp+38h]
	cmp	dword ptr [edi],10h
	jnz	740940h

l00740A06:
	mov	eax,[esp+18h]
	mov	ebx,[eax+1778h]
	mov	ecx,eax
	mov	dword ptr [ecx+1778h],0h
	jmp	740944h

l00740A21:
	cmp	dword ptr [ebp+378h],0h
	jz	740A75h

l00740A2A:
	push	152h
	call	73B660h
	add	esp,4h
	test	eax,eax
	jnz	740A56h

l00740A3B:
	push	ebp
	mov	dword ptr [edi],0Fh
	xor	ebx,ebx
	call	7539D0h
	add	esp,4h
	pop	edi
	pop	esi
	pop	ebp
	mov	eax,ebx
	pop	ebx
	add	esp,20h
	ret

l00740A56:
	mov	ecx,[ebp+378h]
	mov	[eax+14h],ebx
	mov	[eax+4h],ecx
	mov	dword ptr [eax+10h],1h
	mov	dword ptr [ebp+378h],0h
	mov	ebx,eax

l00740A75:
	push	ebp
	call	7539D0h
	add	esp,4h
	pop	edi
	pop	esi
	pop	ebp
	mov	eax,ebx
	pop	ebx
	add	esp,20h
	ret
00740A88                         CC CC CC CC CC CC CC CC         ........

;; fn00740A90: 00740A90
;;   Called from:
;;     006E8B04 (in fn006E8AC0)
fn00740A90 proc
	push	esi
	mov	esi,[esp+18h]
	or	eax,0FFh
	mov	[esi+14h],eax
	mov	[esi+18h],eax
	mov	eax,[esp+8h]
	push	edi
	mov	edi,[esp+10h]
	push	eax
	mov	dword ptr [esi],0Ah
	mov	[esi+4h],edi
	mov	dword ptr [esi+8h],0h
	mov	dword ptr [esi+0Ch],0h
	mov	dword ptr [esi+10h],0h
	call	755100h
	add	esp,4h
	test	eax,eax
	jnz	740AE8h

l00740AD2:
	call	6E0FC0h
	neg	eax
	sbb	eax,eax
	and	eax,7h
	add	eax,0Fh
	mov	[esi],eax
	pop	edi
	xor	eax,eax
	pop	esi
	ret

l00740AE8:
	test	edi,edi
	jnz	740AF1h

l00740AEC:
	mov	edi,8D3F0Ch

l00740AF1:
	mov	[eax+1CCh],edi
	cmp	dword ptr [0A74AECh],0h
	jnz	740B09h

l00740B00:
	cmp	dword ptr [0A74AF0h],0h
	jz	740B26h

l00740B09:
	xor	ecx,ecx
	test	edi,edi
	setnz	cl
	mov	[eax+1D0h],ecx
	cmp	dword ptr [0A74AECh],2h
	jl	740B26h

l00740B1F:
	add	dword ptr [eax+1D4h],1h

l00740B26:
	mov	edx,[esp+20h]
	mov	ecx,[esp+14h]
	push	edx
	push	esi
	push	eax
	mov	eax,[esp+24h]
	call	7406A0h
	add	esp,0Ch
	pop	edi
	pop	esi
	ret

;; fn00740B40: 00740B40
;;   Called from:
;;     006E8B9E (in fn006E8B50)
fn00740B40 proc
	mov	ecx,[esp+14h]
	mov	edx,[esp+4h]
	push	esi
	mov	esi,[esp+20h]
	or	eax,0FFh
	push	edi
	mov	edi,[esp+10h]
	mov	[esi+14h],eax
	mov	[esi+18h],eax
	mov	eax,[esp+20h]
	push	eax
	push	ecx
	push	edx
	mov	dword ptr [esi],0Ah
	mov	[esi+4h],edi
	mov	dword ptr [esi+8h],0h
	mov	dword ptr [esi+0Ch],0h
	mov	dword ptr [esi+10h],0h
	call	755140h
	add	esp,0Ch
	test	eax,eax
	jnz	740B95h

l00740B8C:
	pop	edi
	mov	dword ptr [esi],0Fh
	pop	esi
	ret

l00740B95:
	mov	[eax+1CCh],edi
	cmp	dword ptr [0A74AECh],0h
	jnz	740BADh

l00740BA4:
	cmp	dword ptr [0A74AF0h],0h
	jz	740BCAh

l00740BAD:
	xor	ecx,ecx
	test	edi,edi
	setnz	cl
	mov	[eax+1D0h],ecx
	cmp	dword ptr [0A74AECh],2h
	jl	740BCAh

l00740BC3:
	add	dword ptr [eax+1D4h],1h

l00740BCA:
	mov	edx,[esp+28h]
	mov	ecx,[esp+14h]
	push	edx
	push	esi
	push	eax
	mov	eax,[esp+24h]
	call	7406A0h
	add	esp,0Ch
	pop	edi
	pop	esi
	ret
00740BE4             CC CC CC CC CC CC CC CC CC CC CC CC     ............
00740BF0 8B 44 24 14 8B 4C 24 10 8B 54 24 0C 50 8B 44 24 .D$..L$..T$.P.D$
00740C00 0C 51 8B 4C 24 0C 52 50 6A 00 51 E8 80 FE FF FF .Q.L$.RPj.Q.....
00740C10 83 C4 18 C3 CC CC CC CC CC CC CC CC CC CC CC CC ................

;; fn00740C20: 00740C20
;;   Called from:
;;     00740D3B (in fn00740CC0)
fn00740C20 proc
	test	eax,eax
	jz	740C41h

l00740C24:
	push	esi
	push	edi
	mov	edi,[8A45D4h]
	lea	esp,[esp+0h]

l00740C30:
	mov	esi,[eax+8h]
	push	eax
	call	edi
	add	esp,4h
	test	esi,esi
	mov	eax,esi
	jnz	740C30h

l00740C3F:
	pop	edi
	pop	esi

l00740C41:
	ret
00740C42       CC CC CC CC CC CC CC CC CC CC CC CC CC CC   ..............

;; fn00740C50: 00740C50
;;   Called from:
;;     00740DCC (in fn00740DC0)
fn00740C50 proc
	push	ebx
	push	esi
	mov	esi,ecx
	push	edi
	mov	edi,eax
	mov	eax,[edi+4h]
	add	esi,7h
	and	esi,0F8h
	add	eax,esi
	cmp	eax,[edi]
	jbe	740CA5h

l00740C66:
	cmp	esi,2000h
	mov	ebx,2000h
	jc	740C75h

l00740C73:
	mov	ebx,esi

l00740C75:
	lea	ecx,[ebx+10h]
	push	ecx
	call	dword ptr [8A45BCh]
	add	esp,4h
	test	eax,eax
	jz	740CB6h

l00740C86:
	lea	ecx,[eax+10h]
	lea	edx,[ecx+7h]
	and	edx,0F8h
	sub	edx,ecx
	mov	[eax],ebx
	mov	[eax+0Ch],ecx
	mov	dword ptr [eax+8h],0h
	mov	[eax+4h],edx
	mov	[edi+8h],eax
	mov	edi,eax

l00740CA5:
	mov	ecx,[edi+4h]
	mov	eax,[edi+0Ch]
	add	eax,ecx
	add	ecx,esi
	mov	[edi+4h],ecx
	pop	edi
	pop	esi
	pop	ebx
	ret

l00740CB6:
	pop	edi
	pop	esi
	xor	eax,eax
	pop	ebx
	ret
00740CBC                                     CC CC CC CC             ....

;; fn00740CC0: 00740CC0
;;   Called from:
;;     006E9044 (in fn006E9040)
;;     006E90B1 (in fn006E90B0)
;;     006F67C4 (in fn006F67C0)
fn00740CC0 proc
	push	esi
	mov	esi,[8A45BCh]
	push	edi
	push	0Ch
	call	esi
	mov	edi,eax
	add	esp,4h
	test	edi,edi
	jnz	740CDCh

l00740CD5:
	pop	edi
	pop	esi
	jmp	6E1210h

l00740CDC:
	push	2010h
	call	esi
	add	esp,4h
	test	eax,eax
	jnz	740CEEh

l00740CEA:
	xor	esi,esi
	jmp	740D0Eh

l00740CEE:
	lea	ecx,[eax+10h]
	lea	edx,[ecx+7h]
	and	edx,0F8h
	sub	edx,ecx
	mov	dword ptr [eax],2000h
	mov	[eax+0Ch],ecx
	mov	dword ptr [eax+8h],0h
	mov	[eax+4h],edx
	mov	esi,eax

l00740D0E:
	test	esi,esi
	mov	[edi],esi
	mov	[edi+4h],esi
	jnz	740D28h

l00740D17:
	push	edi
	call	dword ptr [8A45D4h]
	add	esp,4h
	pop	edi
	pop	esi
	jmp	6E1210h

l00740D28:
	push	0h
	call	6F2650h
	add	esp,4h
	test	eax,eax
	mov	[edi+8h],eax
	jnz	740D51h

l00740D39:
	mov	eax,esi
	call	740C20h
	push	edi
	call	dword ptr [8A45D4h]
	add	esp,4h
	pop	edi
	pop	esi
	jmp	6E1210h

l00740D51:
	mov	eax,edi
	pop	edi
	pop	esi
	ret
00740D56                   CC CC CC CC CC CC CC CC CC CC       ..........

;; fn00740D60: 00740D60
;;   Called from:
;;     006E9093 (in fn006E9040)
;;     006E9100 (in fn006E90B0)
;;     006E9128 (in fn006E90B0)
;;     006F6802 (in fn006F67C0)
fn00740D60 proc
	push	ebx
	mov	ebx,[8A45D4h]
	push	edi
	mov	edi,[esp+0Ch]
	mov	eax,[edi]
	test	eax,eax
	jz	740D83h

l00740D72:
	push	esi

l00740D73:
	mov	esi,[eax+8h]
	push	eax
	call	ebx
	add	esp,4h
	test	esi,esi
	mov	eax,esi
	jnz	740D73h

l00740D82:
	pop	esi

l00740D83:
	mov	eax,[edi+8h]
	mov	ecx,[eax+8h]
	push	0h
	push	ecx
	push	0h
	push	eax
	call	6F34B0h
	mov	eax,[edi+8h]
	add	dword ptr [eax],0FFh
	mov	edx,[edi+8h]
	add	esp,10h
	cmp	dword ptr [edx],0h
	jnz	740DB3h

l00740DA5:
	mov	eax,edx
	mov	ecx,[eax+4h]
	mov	edx,[ecx+18h]
	push	eax
	call	edx
	add	esp,4h

l00740DB3:
	push	edi
	call	ebx
	add	esp,4h
	pop	edi
	pop	ebx
	ret
00740DBC                                     CC CC CC CC             ....

;; fn00740DC0: 00740DC0
;;   Called from:
;;     00742E77 (in fn00742E70)
;;     00742EA7 (in fn00742EA0)
;;     00742EF7 (in fn00742ED0)
;;     00742F69 (in fn00742F20)
;;     00742FD7 (in fn00742FB0)
;;     00743027 (in fn00743020)
;;     00743067 (in fn00743060)
;;     007430C7 (in fn007430A0)
;;     0074316C (in fn00743100)
;;     007431B7 (in fn007431B0)
;;     00743249 (in fn00743200)
;;     007432B7 (in fn00743290)
;;     00743327 (in fn00743300)
;;     00743397 (in fn00743370)
;;     007433E7 (in fn007433E0)
;;     00743437 (in fn00743430)
;;     00743487 (in fn00743480)
;;     007434E7 (in fn007434C0)
;;     00743527 (in fn00743520)
;;     00743587 (in fn00743560)
;;     007435F7 (in fn007435D0)
;;     00743647 (in fn00743640)
;;     007436A7 (in fn00743680)
;;     007436E7 (in fn007436E0)
;;     00743717 (in fn00743710)
;;     00743747 (in fn00743740)
;;     00743797 (in fn00743770)
;;     0074383C (in fn007437D0)
;;     007438C9 (in fn00743880)
;;     00743949 (in fn00743900)
;;     007439EC (in fn00743980)
;;     00743A37 (in fn00743A30)
;;     00743A97 (in fn00743A70)
;;     00743AF7 (in fn00743AD0)
;;     00743B37 (in fn00743B30)
;;     00743B97 (in fn00743B70)
;;     00743C07 (in fn00743BE0)
;;     00743C87 (in fn00743C60)
;;     00743CE7 (in fn00743CC0)
;;     00743D47 (in fn00743D20)
;;     00743DEC (in fn00743D80)
;;     00743E9C (in fn00743E30)
;;     00743F29 (in fn00743EE0)
;;     00743F87 (in fn00743F60)
;;     00743FE7 (in fn00743FC0)
;;     00744027 (in fn00744020)
;;     00744057 (in fn00744050)
;;     00744097 (in fn00744090)
;;     007440E7 (in fn007440C0)
;;     00744159 (in fn00744110)
;;     00744187 (in fn00744180)
;;     007441C7 (in fn007441C0)
;;     00744249 (in fn00744200)
;;     00744297 (in fn00744270)
;;     00752E72 (in fn00752E30)
fn00740DC0 proc
	mov	ecx,[esp+8h]
	push	esi
	mov	esi,[esp+8h]
	mov	eax,[esi+4h]
	call	740C50h
	test	eax,eax
	jnz	740DDBh

l00740DD5:
	pop	esi
	jmp	6E1210h

l00740DDB:
	mov	ecx,[esi+4h]
	mov	ecx,[ecx+8h]
	test	ecx,ecx
	jz	740DE8h

l00740DE5:
	mov	[esi+4h],ecx

l00740DE8:
	pop	esi
	ret
00740DEA                               CC CC CC CC CC CC           ......

;; fn00740DF0: 00740DF0
;;   Called from:
;;     0072DE63 (in fn0072DD60)
;;     0072DE8F (in fn0072DD60)
;;     0073B81F (in fn0073B810)
;;     0073C1AD (in fn0073C100)
;;     0073C2AB (in fn0073C280)
;;     0073C315 (in fn0073C280)
;;     0073C609 (in fn0073C520)
;;     0073C93A (in fn0073C870)
;;     0073C9B0 (in fn0073C870)
;;     0073C9E2 (in fn0073C870)
;;     0073CABC (in fn0073C870)
;;     0073CDA5 (in fn0073CAE0)
;;     0073CE60 (in fn0073CE00)
;;     0073E08F (in fn0073E050)
;;     0073E0CD (in fn0073E050)
;;     0073E106 (in fn0073E050)
;;     0073E404 (in fn0073E390)
;;     0073FB88 (in fn0073FAF0)
;;     0073FE39 (in fn0073FC30)
;;     0073FE9D (in fn0073FC30)
;;     0073FED2 (in fn0073FC30)
;;     007400CC (in fn00740060)
fn00740DF0 proc
	mov	eax,[esp+4h]
	mov	ecx,[eax+8h]
	push	esi
	mov	esi,[esp+0Ch]
	push	edi
	push	esi
	push	ecx
	call	6F2A10h
	mov	edi,eax
	add	esp,8h
	test	edi,edi
	jl	740E20h

l00740E0D:
	add	dword ptr [esi],0FFh
	jnz	740E20h

l00740E12:
	mov	edx,[esi+4h]
	mov	eax,[edx+18h]
	push	esi
	call	eax
	add	esp,4h
	mov	eax,edi

l00740E20:
	pop	edi
	pop	esi
	ret
00740E23          CC CC CC CC CC CC CC CC CC CC CC CC CC    .............
00740E30 53 55 8B 6C 24 18 85 ED 74 12 55 E8 E0 EE F9 FF SU.l$...t.U.....
00740E40 8B D8 83 C4 04 85 DB 75 0F 5D 5B C3 83 05 B8 63 .......u.][....c
00740E50 A1 00 01 BB B8 63 A1 00 56 33 F6 85 ED 57 7E 23 .....c..V3...W~#
00740E60 8D 7B 0C 8B 44 24 1C 8B 0C B0 51 E8 50 BC FA FF .{..D$....Q.P...
00740E70 83 C4 04 85 C0 74 52 89 07 83 C6 01 83 C7 04 3B .....tR........;
00740E80 F5 7C E0 8B 4C 24 18 8B 54 24 14 68 28 D0 8D 00 .|..L$..T$.h(...
00740E90 68 98 85 8C 00 53 68 20 D0 8D 00 51 52 68 14 D0 h....Sh ...QRh..
00740EA0 8D 00 68 80 53 A1 00 E8 54 29 FC FF 83 C4 20 83 ..h.S...T).... .
00740EB0 03 FF 8B F0 75 0C 8B 43 04 8B 48 18 53 FF D1 83 ....u..C..H.S...
00740EC0 C4 04 5F 8B C6 5E 5D 5B C3 83 03 FF 75 0C 8B 53 .._..^][....u..S
00740ED0 04 8B 42 18 53 FF D0 83 C4 04 5F 5E 5D 33 C0 5B ..B.S....._^]3.[
00740EE0 C3 CC CC CC CC CC CC CC CC CC CC CC CC CC CC CC ................
00740EF0 55 8B 6C 24 0C 57 53 E8 54 17 FB FF 8B F8 83 C4 U.l$.WS.T.......
00740F00 04 85 FF 75 03 5F 5D C3 56 33 F6 85 DB 7E 1F 90 ...u._].V3...~..
00740F10 8B 44 B5 00 50 E8 A6 BB FA FF 83 C4 04 85 C0 74 .D..P..........t
00740F20 40 8B 4F 0C 89 04 B1 83 C6 01 3B F3 7C E2 8B 4C @.O.......;.|..L
00740F30 24 10 57 68 30 D0 8D 00 51 E8 C2 E8 F9 FF 33 D2 $.Wh0...Q.....3.
00740F40 83 C4 0C 85 C0 0F 9D C2 83 07 FF 8B F2 75 0C 8B .............u..
00740F50 47 04 8B 48 18 57 FF D1 83 C4 04 8B C6 5E 5F 5D G..H.W.......^_]
00740F60 C3 83 07 FF 75 0C 8B 57 04 8B 42 18 57 FF D0 83 ....u..W..B.W...
00740F70 C4 04 5E 5F 33 C0 5D C3 CC CC CC CC CC CC CC CC ..^_3.].........
00740F80 53 55 57 8B F8 85 FF 75 04 33 DB EB 02 8B 1F 53 SUW....u.3.....S
00740F90 E8 BB 16 FB FF 8B E8 83 C4 04 85 ED 75 04 5F 5D ............u._]
00740FA0 5B C3 56 33 F6 85 DB 7E 25 83 C7 04 8D 64 24 00 [.V3...~%....d$.
00740FB0 8B 07 50 FF 54 24 18 83 C4 04 85 C0 74 17 8B 4D ..P.T$......t..M
00740FC0 0C 89 04 B1 83 C6 01 83 C7 04 3B F3 7C E2 5E 5F ..........;.|.^_
00740FD0 8B C5 5D 5B C3 83 45 00 FF 75 0C 8B 55 04 8B 42 ..][..E..u..U..B
00740FE0 18 55 FF D0 83 C4 04 5E 5F 5D 33 C0 5B C3 CC CC .U.....^_]3.[...
00740FF0 83 3D 40 DF A6 00 00 74 06 B8 01 00 00 00 C3 56 .=@....t.......V
00741000 57 68 28 D0 8D 00 68 98 85 8C 00 68 B8 63 A1 00 Wh(...h....h.c..
00741010 68 20 D0 8D 00 68 98 54 A1 00 68 20 D3 8D 00 68 h ...h.T..h ...h
00741020 14 D0 8D 00 BF 01 00 00 00 01 3D B8 63 A1 00 68 ..........=.c..h
00741030 80 53 A1 00 E8 C7 27 FC FF 83 C4 20 29 3D B8 63 .S....'.... )=.c
00741040 A1 00 8B F0 75 12 A1 BC 63 A1 00 8B 48 18 68 B8 ....u...c...H.h.
00741050 63 A1 00 FF D1 83 C4 04 01 3D B8 63 A1 00 68 28 c........=.c..h(
00741060 D0 8D 00 68 98 85 8C 00 68 B8 63 A1 00 68 20 D0 ...h....h.c..h .
00741070 8D 00 56 68 1C D3 8D 00 68 14 D0 8D 00 68 80 53 ..Vh....h....h.S
00741080 A1 00 89 35 0C E1 A6 00 E8 73 27 FC FF 83 C4 20 ...5.....s'.... 
00741090 29 3D B8 63 A1 00 8B F0 75 13 8B 15 BC 63 A1 00 )=.c....u....c..
007410A0 8B 42 18 68 B8 63 A1 00 FF D0 83 C4 04 85 F6 89 .B.h.c..........
007410B0 35 C8 DF A6 00 75 05 5F 33 C0 5E C3 53 6A 00 56 5....u._3.^.Sj.V
007410C0 33 DB E8 29 FE FF FF 83 C4 08 85 C0 0F 84 88 1D 3..)............
007410D0 00 00 8B 0D C8 DF A6 00 57 68 24 BA A2 00 51 68 ........Wh$...Qh
007410E0 14 D3 8D 00 E8 47 FD FF FF 83 C4 10 85 C0 A3 14 .....G..........
007410F0 E1 A6 00 0F 84 61 1D 00 00 8B 15 C8 DF A6 00 57 .....a.........W
00741100 68 28 BA A2 00 52 68 08 D3 8D 00 E8 20 FD FF FF h(...Rh..... ...
00741110 83 C4 10 85 C0 A3 00 E0 A6 00 0F 84 3A 1D 00 00 ............:...
00741120 A1 C8 DF A6 00 57 68 2C BA A2 00 50 68 FC D2 8D .....Wh,...Ph...
00741130 00 E8 FA FC FF FF 83 C4 10 85 C0 A3 3C DF A6 00 ............<...
00741140 0F 84 14 1D 00 00 8B 0D C8 DF A6 00 57 68 30 BA ............Wh0.
00741150 A2 00 51 68 F4 D2 8D 00 E8 D3 FC FF FF 83 C4 10 ..Qh............
00741160 85 C0 A3 A0 E0 A6 00 0F 84 ED 1C 00 00 8B 15 0C ................
00741170 E1 A6 00 01 3D B8 63 A1 00 68 28 D0 8D 00 68 98 ....=.c..h(...h.
00741180 85 8C 00 68 B8 63 A1 00 68 20 D0 8D 00 52 68 14 ...h.c..h ...Rh.
00741190 C3 8D 00 68 14 D0 8D 00 68 80 53 A1 00 E8 5E 26 ...h....h.S...^&
007411A0 FC FF 83 C4 20 29 3D B8 63 A1 00 8B F0 75 12 A1 .... )=.c....u..
007411B0 BC 63 A1 00 8B 48 18 68 B8 63 A1 00 FF D1 83 C4 .c...H.h.c......
007411C0 04 85 F6 89 35 0C E0 A6 00 0F 84 8B 1C 00 00 68 ....5..........h
007411D0 34 BA A2 00 56 BB 02 00 00 00 E8 11 FD FF FF 83 4...V...........
007411E0 C4 08 85 C0 0F 84 70 1C 00 00 8B 15 0C E0 A6 00 ......p.........
007411F0 6A 04 68 3C BA A2 00 52 68 E8 D2 8D 00 E8 2E FC j.h<...Rh.......
00741200 FF FF 83 C4 10 85 C0 A3 E0 E0 A6 00 0F 84 48 1C ..............H.
00741210 00 00 A1 0C E0 A6 00 6A 03 68 4C BA A2 00 50 68 .......j.hL...Ph
00741220 DC D2 8D 00 E8 07 FC FF FF 83 C4 10 85 C0 A3 60 ...............`
00741230 DF A6 00 0F 84 21 1C 00 00 8B 0D 0C E0 A6 00 57 .....!.........W
00741240 68 58 BA A2 00 51 68 D4 D2 8D 00 E8 E0 FB FF FF hX...Qh.........
00741250 83 C4 10 85 C0 A3 A4 DF A6 00 0F 84 FA 1B 00 00 ................
00741260 8B 15 0C E0 A6 00 57 68 5C BA A2 00 52 68 CC D2 ......Wh\...Rh..
00741270 8D 00 E8 B9 FB FF FF 83 C4 10 85 C0 A3 9C DF A6 ................
00741280 00 0F 84 D3 1B 00 00 A1 0C E0 A6 00 53 68 60 BA ............Sh`.
00741290 A2 00 50 68 C4 D2 8D 00 E8 93 FB FF FF 83 C4 10 ..Ph............
007412A0 85 C0 A3 90 DF A6 00 0F 84 AD 1B 00 00 8B 0D 0C ................
007412B0 E0 A6 00 6A 03 68 68 BA A2 00 51 68 B8 D2 8D 00 ...j.hh...Qh....
007412C0 E8 6B FB FF FF 83 C4 10 85 C0 A3 F0 DF A6 00 0F .k..............
007412D0 84 85 1B 00 00 8B 15 0C E0 A6 00 6A 03 68 74 BA ...........j.ht.
007412E0 A2 00 52 68 B0 D2 8D 00 E8 43 FB FF FF 83 C4 10 ..Rh.....C......
007412F0 85 C0 A3 B4 DF A6 00 0F 84 5D 1B 00 00 A1 0C E0 .........]......
00741300 A6 00 6A 04 68 80 BA A2 00 50 68 AC D2 8D 00 E8 ..j.h....Ph.....
00741310 1C FB FF FF 83 C4 10 85 C0 A3 BC E0 A6 00 0F 84 ................
00741320 36 1B 00 00 8B 0D 0C E0 A6 00 6A 03 68 90 BA A2 6.........j.h...
00741330 00 51 68 A4 D2 8D 00 E8 F4 FA FF FF 83 C4 10 85 .Qh.............
00741340 C0 A3 24 E1 A6 00 0F 84 0E 1B 00 00 8B 15 0C E0 ..$.............
00741350 A6 00 6A 03 68 9C BA A2 00 52 68 A0 D2 8D 00 E8 ..j.h....Rh.....
00741360 CC FA FF FF 83 C4 10 85 C0 A3 08 E1 A6 00 0F 84 ................
00741370 E6 1A 00 00 A1 0C E0 A6 00 6A 03 68 A8 BA A2 00 .........j.h....
00741380 50 68 98 D2 8D 00 E8 A5 FA FF FF 83 C4 10 85 C0 Ph..............
00741390 A3 60 E0 A6 00 0F 84 BF 1A 00 00 8B 0D 0C E0 A6 .`..............
007413A0 00 6A 03 68 B4 BA A2 00 51 68 90 D2 8D 00 E8 7D .j.h....Qh.....}
007413B0 FA FF FF 83 C4 10 85 C0 A3 4C DF A6 00 0F 84 97 .........L......
007413C0 1A 00 00 8B 15 0C E0 A6 00 6A 03 68 C0 BA A2 00 .........j.h....
007413D0 52 68 84 D2 8D 00 E8 55 FA FF FF 83 C4 10 85 C0 Rh.....U........
007413E0 A3 D4 DF A6 00 0F 84 6F 1A 00 00 A1 0C E0 A6 00 .......o........
007413F0 53 68 CC BA A2 00 50 68 78 D2 8D 00 E8 2F FA FF Sh....Phx..../..
00741400 FF 83 C4 10 85 C0 A3 54 DF A6 00 0F 84 49 1A 00 .......T.....I..
00741410 00 8B 0D 0C E0 A6 00 53 68 D4 BA A2 00 51 68 70 .......Sh....Qhp
00741420 D2 8D 00 E8 08 FA FF FF 83 C4 10 85 C0 A3 7C E0 ..............|.
00741430 A6 00 0F 84 22 1A 00 00 8B 15 0C E0 A6 00 57 68 ....".........Wh
00741440 DC BA A2 00 52 68 68 D2 8D 00 E8 E1 F9 FF FF 83 ....Rhh.........
00741450 C4 10 85 C0 A3 B4 E0 A6 00 0F 84 FB 19 00 00 A1 ................
00741460 0C E0 A6 00 6A 03 68 E0 BA A2 00 50 68 5C D2 8D ....j.h....Ph\..
00741470 00 E8 BA F9 FF FF 83 C4 10 85 C0 A3 EC DF A6 00 ................
00741480 0F 84 D4 19 00 00 8B 0D 0C E0 A6 00 6A 03 68 EC ............j.h.
00741490 BA A2 00 51 68 54 D2 8D 00 E8 92 F9 FF FF 83 C4 ...QhT..........
007414A0 10 85 C0 A3 74 DF A6 00 0F 84 AC 19 00 00 8B 15 ....t...........
007414B0 0C E0 A6 00 57 68 F8 BA A2 00 52 68 4C D2 8D 00 ....Wh....RhL...
007414C0 E8 6B F9 FF FF 83 C4 10 85 C0 A3 80 E0 A6 00 0F .k..............
007414D0 84 85 19 00 00 A1 0C E0 A6 00 57 68 FC BA A2 00 ..........Wh....
007414E0 50 68 44 D2 8D 00 E8 45 F9 FF FF 83 C4 10 85 C0 PhD....E........
007414F0 A3 24 E0 A6 00 0F 84 5F 19 00 00 8B 0D 0C E0 A6 .$....._........
00741500 00 01 3D B8 63 A1 00 68 28 D0 8D 00 68 98 85 8C ..=.c..h(...h...
00741510 00 68 B8 63 A1 00 68 20 D0 8D 00 51 68 3C D2 8D .h.c..h ...Qh<..
00741520 00 68 14 D0 8D 00 68 80 53 A1 00 E8 D0 22 FC FF .h....h.S...."..
00741530 83 C4 20 29 3D B8 63 A1 00 8B F0 75 13 8B 15 BC .. )=.c....u....
00741540 63 A1 00 8B 42 18 68 B8 63 A1 00 FF D0 83 C4 04 c...B.h.c.......
00741550 85 F6 89 35 9C E0 A6 00 0F 84 FC 18 00 00 8B 0D ...5............
00741560 0C E0 A6 00 01 3D B8 63 A1 00 68 28 D0 8D 00 68 .....=.c..h(...h
00741570 98 85 8C 00 68 B8 63 A1 00 68 20 D0 8D 00 51 68 ....h.c..h ...Qh
00741580 34 D2 8D 00 68 14 D0 8D 00 68 80 53 A1 00 E8 6D 4...h....h.S...m
00741590 22 FC FF 83 C4 20 29 3D B8 63 A1 00 8B F0 75 13 ".... )=.c....u.
007415A0 8B 15 BC 63 A1 00 8B 42 18 68 B8 63 A1 00 FF D0 ...c...B.h.c....
007415B0 83 C4 04 85 F6 89 35 FC DF A6 00 0F 84 99 18 00 ......5.........
007415C0 00 8B 0D 0C E0 A6 00 01 3D B8 63 A1 00 68 28 D0 ........=.c..h(.
007415D0 8D 00 68 98 85 8C 00 68 B8 63 A1 00 68 20 D0 8D ..h....h.c..h ..
007415E0 00 51 68 28 D2 8D 00 68 14 D0 8D 00 68 80 53 A1 .Qh(...h....h.S.
007415F0 00 E8 0A 22 FC FF 83 C4 20 29 3D B8 63 A1 00 8B ...".... )=.c...
00741600 F0 75 13 8B 15 BC 63 A1 00 8B 42 18 68 B8 63 A1 .u....c...B.h.c.
00741610 00 FF D0 83 C4 04 85 F6 89 35 6C E0 A6 00 0F 84 .........5l.....
00741620 36 18 00 00 8B 0D 0C E1 A6 00 01 3D B8 63 A1 00 6..........=.c..
00741630 68 28 D0 8D 00 68 98 85 8C 00 68 B8 63 A1 00 68 h(...h....h.c..h
00741640 20 D0 8D 00 51 68 08 BE 8D 00 68 14 D0 8D 00 68  ...Qh....h....h
00741650 80 53 A1 00 E8 A7 21 FC FF 83 C4 20 29 3D B8 63 .S....!.... )=.c
00741660 A1 00 8B F0 75 13 8B 15 BC 63 A1 00 8B 42 18 68 ....u....c...B.h
00741670 B8 63 A1 00 FF D0 83 C4 04 85 F6 89 35 04 E1 A6 .c..........5...
00741680 00 0F 84 D3 17 00 00 68 00 BB A2 00 56 E8 5E F8 .......h....V.^.
00741690 FF FF 83 C4 08 85 C0 0F 84 BD 17 00 00 8B 0D 04 ................
007416A0 E1 A6 00 6A 02 68 08 BB A2 00 51 68 20 D2 8D 00 ...j.h....Qh ...
007416B0 E8 7B F7 FF FF 83 C4 10 85 C0 A3 94 E0 A6 00 0F .{..............
007416C0 84 95 17 00 00 8B 15 04 E1 A6 00 6A 03 68 10 BB ...........j.h..
007416D0 A2 00 52 68 18 D2 8D 00 E8 53 F7 FF FF 83 C4 10 ..Rh.....S......
007416E0 85 C0 A3 58 DF A6 00 0F 84 6D 17 00 00 A1 04 E1 ...X.....m......
007416F0 A6 00 6A 02 68 1C BB A2 00 50 68 10 D2 8D 00 E8 ..j.h....Ph.....
00741700 2C F7 FF FF 83 C4 10 85 C0 A3 DC DF A6 00 0F 84 ,...............
00741710 46 17 00 00 8B 0D 04 E1 A6 00 6A 02 68 24 BB A2 F.........j.h$..
00741720 00 51 68 08 D2 8D 00 E8 04 F7 FF FF 83 C4 10 85 .Qh.............
00741730 C0 A3 B8 E0 A6 00 0F 84 1E 17 00 00 8B 15 04 E1 ................
00741740 A6 00 6A 03 68 2C BB A2 00 52 68 00 D2 8D 00 E8 ..j.h,...Rh.....
00741750 DC F6 FF FF 83 C4 10 85 C0 A3 80 DF A6 00 0F 84 ................
00741760 F6 16 00 00 A1 04 E1 A6 00 6A 02 68 38 BB A2 00 .........j.h8...
00741770 50 68 F8 D1 8D 00 E8 B5 F6 FF FF 83 C4 10 85 C0 Ph..............
00741780 A3 A4 E0 A6 00 0F 84 CF 16 00 00 8B 0D 04 E1 A6 ................
00741790 00 6A 02 68 40 BB A2 00 51 68 EC D1 8D 00 E8 8D .j.h@...Qh......
007417A0 F6 FF FF 83 C4 10 85 C0 A3 E8 DF A6 00 0F 84 A7 ................
007417B0 16 00 00 8B 15 04 E1 A6 00 6A 02 68 48 BB A2 00 .........j.hH...
007417C0 52 68 DC D1 8D 00 E8 65 F6 FF FF 83 C4 10 85 C0 Rh.....e........
007417D0 A3 34 E0 A6 00 0F 84 7F 16 00 00 A1 04 E1 A6 00 .4..............
007417E0 57 68 50 BB A2 00 50 68 D4 D1 8D 00 E8 3F F6 FF WhP...Ph.....?..
007417F0 FF 83 C4 10 85 C0 A3 C4 E0 A6 00 0F 84 59 16 00 .............Y..
00741800 00 8B 0D 04 E1 A6 00 6A 03 68 54 BB A2 00 51 68 .......j.hT...Qh
00741810 CC D1 8D 00 E8 17 F6 FF FF 83 C4 10 85 C0 A3 30 ...............0
00741820 E1 A6 00 0F 84 31 16 00 00 8B 15 04 E1 A6 00 6A .....1.........j
00741830 05 68 60 BB A2 00 52 68 C4 D1 8D 00 E8 EF F5 FF .h`...Rh........
00741840 FF 83 C4 10 85 C0 A3 E4 E0 A6 00 0F 84 09 16 00 ................
00741850 00 A1 04 E1 A6 00 57 68 74 BB A2 00 50 68 BC D1 ......Wht...Ph..
00741860 8D 00 E8 C9 F5 FF FF 83 C4 10 85 C0 A3 A0 DF A6 ................
00741870 00 0F 84 E3 15 00 00 8B 0D 04 E1 A6 00 57 68 78 .............Whx
00741880 BB A2 00 51 68 B8 D1 8D 00 E8 A2 F5 FF FF 83 C4 ...Qh...........
00741890 10 85 C0 A3 14 E0 A6 00 0F 84 BC 15 00 00 8B 15 ................
007418A0 04 E1 A6 00 57 68 7C BB A2 00 52 68 B4 D1 8D 00 ....Wh|...Rh....
007418B0 E8 7B F5 FF FF 83 C4 10 85 C0 A3 44 E0 A6 00 0F .{.........D....
007418C0 84 95 15 00 00 A1 04 E1 A6 00 6A 03 68 80 BB A2 ..........j.h...
007418D0 00 50 68 A8 D1 8D 00 E8 54 F5 FF FF 83 C4 10 85 .Ph.....T.......
007418E0 C0 A3 84 DF A6 00 0F 84 6E 15 00 00 8B 0D 04 E1 ........n.......
007418F0 A6 00 6A 03 68 8C BB A2 00 51 68 9C D1 8D 00 E8 ..j.h....Qh.....
00741900 2C F5 FF FF 83 C4 10 85 C0 A3 44 DF A6 00 0F 84 ,.........D.....
00741910 46 15 00 00 8B 15 04 E1 A6 00 6A 02 68 98 BB A2 F.........j.h...
00741920 00 52 68 94 D1 8D 00 E8 04 F5 FF FF 83 C4 10 85 .Rh.............
00741930 C0 A3 F4 E0 A6 00 0F 84 1E 15 00 00 A1 04 E1 A6 ................
00741940 00 6A 02 68 A0 BB A2 00 50 68 8C D1 8D 00 E8 DD .j.h....Ph......
00741950 F4 FF FF 83 C4 10 85 C0 A3 3C E1 A6 00 0F 84 F7 .........<......
00741960 14 00 00 8B 0D 04 E1 A6 00 6A 02 68 A8 BB A2 00 .........j.h....
00741970 51 68 90 85 8C 00 E8 B5 F4 FF FF 83 C4 10 85 C0 Qh..............
00741980 A3 74 E0 A6 00 0F 84 CF 14 00 00 8B 15 0C E1 A6 .t..............
00741990 00 01 3D B8 63 A1 00 68 28 D0 8D 00 68 98 85 8C ..=.c..h(...h...
007419A0 00 68 B8 63 A1 00 68 20 D0 8D 00 52 68 7C D1 8D .h.c..h ...Rh|..
007419B0 00 68 14 D0 8D 00 68 80 53 A1 00 E8 40 1E FC FF .h....h.S...@...
007419C0 83 C4 20 29 3D B8 63 A1 00 8B F0 75 12 A1 BC 63 .. )=.c....u...c
007419D0 A1 00 8B 48 18 68 B8 63 A1 00 FF D1 83 C4 04 85 ...H.h.c........
007419E0 F6 89 35 70 E0 A6 00 0F 84 6D 14 00 00 6A 00 56 ..5p.....m...j.V
007419F0 33 DB E8 F9 F4 FF FF 83 C4 08 85 C0 0F 84 58 14 3.............X.
00741A00 00 00 8B 15 70 E0 A6 00 01 3D B8 63 A1 00 68 28 ....p....=.c..h(
00741A10 D0 8D 00 68 98 85 8C 00 68 B8 63 A1 00 68 20 D0 ...h....h.c..h .
00741A20 8D 00 52 68 74 D1 8D 00 68 14 D0 8D 00 68 80 53 ..Rht...h....h.S
00741A30 A1 00 E8 C9 1D FC FF 83 C4 20 29 3D B8 63 A1 00 ......... )=.c..
00741A40 8B F0 75 12 A1 BC 63 A1 00 8B 48 18 68 B8 63 A1 ..u...c...H.h.c.
00741A50 00 FF D1 83 C4 04 85 F6 89 35 B0 E0 A6 00 0F 84 .........5......
00741A60 F6 13 00 00 6A 00 6A 00 56 E8 B2 37 F9 FF 83 C4 ....j.j.V..7....
00741A70 0C 85 C0 A3 98 DF A6 00 0F 84 DC 13 00 00 8B 15 ................
00741A80 70 E0 A6 00 01 3D B8 63 A1 00 68 28 D0 8D 00 68 p....=.c..h(...h
00741A90 98 85 8C 00 68 B8 63 A1 00 68 20 D0 8D 00 52 68 ....h.c..h ...Rh
00741AA0 6C D1 8D 00 68 14 D0 8D 00 68 80 53 A1 00 E8 4D l...h....h.S...M
00741AB0 1D FC FF 83 C4 20 29 3D B8 63 A1 00 8B F0 75 12 ..... )=.c....u.
00741AC0 A1 BC 63 A1 00 8B 48 18 68 B8 63 A1 00 FF D1 83 ..c...H.h.c.....
00741AD0 C4 04 85 F6 89 35 DC E0 A6 00 0F 84 7A 13 00 00 .....5......z...
00741AE0 6A 00 6A 00 56 E8 36 37 F9 FF 83 C4 0C 85 C0 A3 j.j.V.67........
00741AF0 A8 DF A6 00 0F 84 60 13 00 00 8B 15 70 E0 A6 00 ......`.....p...
00741B00 01 3D B8 63 A1 00 68 28 D0 8D 00 68 98 85 8C 00 .=.c..h(...h....
00741B10 68 B8 63 A1 00 68 20 D0 8D 00 52 68 68 D1 8D 00 h.c..h ...Rhh...
00741B20 68 14 D0 8D 00 68 80 53 A1 00 E8 D1 1C FC FF 83 h....h.S........
00741B30 C4 20 29 3D B8 63 A1 00 8B F0 75 12 A1 BC 63 A1 . )=.c....u...c.
00741B40 00 8B 48 18 68 B8 63 A1 00 FF D1 83 C4 04 85 F6 ..H.h.c.........
00741B50 89 35 2C E1 A6 00 0F 84 FE 12 00 00 6A 00 6A 00 .5,.........j.j.
00741B60 56 E8 BA 36 F9 FF 83 C4 0C 85 C0 A3 B0 DF A6 00 V..6............
00741B70 0F 84 E4 12 00 00 8B 15 70 E0 A6 00 01 3D B8 63 ........p....=.c
00741B80 A1 00 68 28 D0 8D 00 68 98 85 8C 00 68 B8 63 A1 ..h(...h....h.c.
00741B90 00 68 20 D0 8D 00 52 68 60 D1 8D 00 68 14 D0 8D .h ...Rh`...h...
00741BA0 00 68 80 53 A1 00 E8 55 1C FC FF 83 C4 20 29 3D .h.S...U..... )=
00741BB0 B8 63 A1 00 8B F0 75 12 A1 BC 63 A1 00 8B 48 18 .c....u...c...H.
00741BC0 68 B8 63 A1 00 FF D1 83 C4 04 85 F6 89 35 70 DF h.c..........5p.
00741BD0 A6 00 0F 84 82 12 00 00 6A 00 6A 00 56 E8 3E 36 ........j.j.V.>6
00741BE0 F9 FF 83 C4 0C 85 C0 A3 48 E1 A6 00 0F 84 68 12 ........H.....h.
00741BF0 00 00 8B 15 70 E0 A6 00 01 3D B8 63 A1 00 68 28 ....p....=.c..h(
00741C00 D0 8D 00 68 98 85 8C 00 68 B8 63 A1 00 68 20 D0 ...h....h.c..h .
00741C10 8D 00 52 68 54 D1 8D 00 68 14 D0 8D 00 68 80 53 ..RhT...h....h.S
00741C20 A1 00 E8 D9 1B FC FF 83 C4 20 29 3D B8 63 A1 00 ......... )=.c..
00741C30 8B F0 75 12 A1 BC 63 A1 00 8B 48 18 68 B8 63 A1 ..u...c...H.h.c.
00741C40 00 FF D1 83 C4 04 85 F6 89 35 5C E0 A6 00 0F 84 .........5\.....
00741C50 06 12 00 00 6A 00 6A 00 56 E8 C2 35 F9 FF 83 C4 ....j.j.V..5....
00741C60 0C 85 C0 A3 38 E0 A6 00 0F 84 EC 11 00 00 8B 15 ....8...........
00741C70 70 E0 A6 00 01 3D B8 63 A1 00 68 28 D0 8D 00 68 p....=.c..h(...h
00741C80 98 85 8C 00 68 B8 63 A1 00 68 20 D0 8D 00 52 68 ....h.c..h ...Rh
00741C90 4C D1 8D 00 68 14 D0 8D 00 68 80 53 A1 00 E8 5D L...h....h.S...]
00741CA0 1B FC FF 83 C4 20 29 3D B8 63 A1 00 8B F0 75 12 ..... )=.c....u.
00741CB0 A1 BC 63 A1 00 8B 48 18 68 B8 63 A1 00 FF D1 83 ..c...H.h.c.....
00741CC0 C4 04 85 F6 89 35 94 DF A6 00 0F 84 8A 11 00 00 .....5..........
00741CD0 6A 00 6A 00 56 E8 46 35 F9 FF 83 C4 0C 85 C0 A3 j.j.V.F5........
00741CE0 3C E0 A6 00 0F 84 70 11 00 00 8B 15 0C E1 A6 00 <.....p.........
00741CF0 01 3D B8 63 A1 00 68 28 D0 8D 00 68 98 85 8C 00 .=.c..h(...h....
00741D00 68 B8 63 A1 00 68 20 D0 8D 00 52 68 18 AA 8D 00 h.c..h ...Rh....
00741D10 68 14 D0 8D 00 68 80 53 A1 00 E8 E1 1A FC FF 83 h....h.S........
00741D20 C4 20 29 3D B8 63 A1 00 8B F0 75 12 A1 BC 63 A1 . )=.c....u...c.
00741D30 00 8B 48 18 68 B8 63 A1 00 FF D1 83 C4 04 85 F6 ..H.h.c.........
00741D40 89 35 30 E0 A6 00 0F 84 0E 11 00 00 6A 00 56 33 .50.........j.V3
00741D50 DB E8 9A F1 FF FF 83 C4 08 85 C0 0F 84 F9 10 00 ................
00741D60 00 8B 15 30 E0 A6 00 01 3D B8 63 A1 00 68 28 D0 ...0....=.c..h(.
00741D70 8D 00 68 98 85 8C 00 68 B8 63 A1 00 68 20 D0 8D ..h....h.c..h ..
00741D80 00 52 68 C0 AC 8D 00 68 14 D0 8D 00 68 80 53 A1 .Rh....h....h.S.
00741D90 00 E8 6A 1A FC FF 83 C4 20 29 3D B8 63 A1 00 8B ..j..... )=.c...
00741DA0 F0 75 12 A1 BC 63 A1 00 8B 48 18 68 B8 63 A1 00 .u...c...H.h.c..
00741DB0 FF D1 83 C4 04 85 F6 89 35 C0 E0 A6 00 0F 84 97 ........5.......
00741DC0 10 00 00 8B 15 30 E0 A6 00 6A 03 68 B0 BB A2 00 .....0...j.h....
00741DD0 52 68 44 D1 8D 00 E8 55 F0 FF FF 83 C4 10 85 C0 RhD....U........
00741DE0 A3 8C E0 A6 00 0F 84 6F 10 00 00 A1 30 E0 A6 00 .......o....0...
00741DF0 57 68 BC BB A2 00 50 68 38 D1 8D 00 E8 2F F0 FF Wh....Ph8..../..
00741E00 FF 83 C4 10 85 C0 A3 F4 DF A6 00 0F 84 49 10 00 .............I..
00741E10 00 8B 0D 30 E0 A6 00 57 68 C0 BB A2 00 51 68 30 ...0...Wh....Qh0
00741E20 D1 8D 00 E8 08 F0 FF FF 83 C4 10 85 C0 A3 8C DF ................
00741E30 A6 00 0F 84 22 10 00 00 8B 15 0C E1 A6 00 01 3D ...."..........=
00741E40 B8 63 A1 00 68 28 D0 8D 00 68 98 85 8C 00 68 B8 .c..h(...h....h.
00741E50 63 A1 00 68 20 D0 8D 00 52 68 28 D1 8D 00 68 14 c..h ...Rh(...h.
00741E60 D0 8D 00 68 80 53 A1 00 E8 93 19 FC FF 83 C4 20 ...h.S......... 
00741E70 29 3D B8 63 A1 00 8B F0 75 12 A1 BC 63 A1 00 8B )=.c....u...c...
00741E80 48 18 68 B8 63 A1 00 FF D1 83 C4 04 85 F6 89 35 H.h.c..........5
00741E90 08 E0 A6 00 0F 84 C0 0F 00 00 6A 00 56 33 DB E8 ..........j.V3..
00741EA0 4C F0 FF FF 83 C4 08 85 C0 0F 84 AB 0F 00 00 8B L...............
00741EB0 15 08 E0 A6 00 01 3D B8 63 A1 00 68 28 D0 8D 00 ......=.c..h(...
00741EC0 68 98 85 8C 00 68 B8 63 A1 00 68 20 D0 8D 00 52 h....h.c..h ...R
00741ED0 68 24 D1 8D 00 68 14 D0 8D 00 68 80 53 A1 00 E8 h$...h....h.S...
00741EE0 1C 19 FC FF 83 C4 20 29 3D B8 63 A1 00 8B F0 75 ...... )=.c....u
00741EF0 12 A1 BC 63 A1 00 8B 48 18 68 B8 63 A1 00 FF D1 ...c...H.h.c....
00741F00 83 C4 04 85 F6 89 35 D0 E0 A6 00 0F 84 49 0F 00 ......5......I..
00741F10 00 6A 00 6A 00 56 E8 05 33 F9 FF 83 C4 0C 85 C0 .j.j.V..3.......
00741F20 A3 E0 DF A6 00 0F 84 2F 0F 00 00 8B 15 08 E0 A6 ......./........
00741F30 00 01 3D B8 63 A1 00 68 28 D0 8D 00 68 98 85 8C ..=.c..h(...h...
00741F40 00 68 B8 63 A1 00 68 20 D0 8D 00 52 68 20 D1 8D .h.c..h ...Rh ..
00741F50 00 68 14 D0 8D 00 68 80 53 A1 00 E8 A0 18 FC FF .h....h.S.......
00741F60 83 C4 20 29 3D B8 63 A1 00 8B F0 75 12 A1 BC 63 .. )=.c....u...c
00741F70 A1 00 8B 48 18 68 B8 63 A1 00 FF D1 83 C4 04 85 ...H.h.c........
00741F80 F6 89 35 50 E0 A6 00 0F 84 CD 0E 00 00 6A 00 6A ..5P.........j.j
00741F90 00 56 E8 89 32 F9 FF 83 C4 0C 85 C0 A3 34 E1 A6 .V..2........4..
00741FA0 00 0F 84 B3 0E 00 00 8B 15 0C E1 A6 00 01 3D B8 ..............=.
00741FB0 63 A1 00 68 28 D0 8D 00 68 98 85 8C 00 68 B8 63 c..h(...h....h.c
00741FC0 A1 00 68 20 D0 8D 00 52 68 A4 C8 8D 00 68 14 D0 ..h ...Rh....h..
00741FD0 8D 00 68 80 53 A1 00 E8 24 18 FC FF 83 C4 20 29 ..h.S...$..... )
00741FE0 3D B8 63 A1 00 8B F0 75 12 A1 BC 63 A1 00 8B 48 =.c....u...c...H
00741FF0 18 68 B8 63 A1 00 FF D1 83 C4 04 85 F6 89 35 50 .h.c..........5P
00742000 DF A6 00 0F 84 51 0E 00 00 6A 00 56 33 DB E8 DD .....Q...j.V3...
00742010 EE FF FF 83 C4 08 85 C0 0F 84 3C 0E 00 00 8B 15 ..........<.....
00742020 50 DF A6 00 01 3D B8 63 A1 00 68 28 D0 8D 00 68 P....=.c..h(...h
00742030 98 85 8C 00 68 B8 63 A1 00 68 20 D0 8D 00 52 68 ....h.c..h ...Rh
00742040 1C D1 8D 00 68 14 D0 8D 00 68 80 53 A1 00 E8 AD ....h....h.S....
00742050 17 FC FF 83 C4 20 29 3D B8 63 A1 00 8B F0 75 12 ..... )=.c....u.
00742060 A1 BC 63 A1 00 8B 48 18 68 B8 63 A1 00 FF D1 83 ..c...H.h.c.....
00742070 C4 04 85 F6 89 35 38 DF A6 00 0F 84 DA 0D 00 00 .....58.........
00742080 6A 00 6A 00 56 E8 96 31 F9 FF 83 C4 0C 85 C0 A3 j.j.V..1........
00742090 CC DF A6 00 0F 84 C0 0D 00 00 8B 15 50 DF A6 00 ............P...
007420A0 01 3D B8 63 A1 00 68 28 D0 8D 00 68 98 85 8C 00 .=.c..h(...h....
007420B0 68 B8 63 A1 00 68 20 D0 8D 00 52 68 18 D1 8D 00 h.c..h ...Rh....
007420C0 68 14 D0 8D 00 68 80 53 A1 00 E8 31 17 FC FF 83 h....h.S...1....
007420D0 C4 20 29 3D B8 63 A1 00 8B F0 75 12 A1 BC 63 A1 . )=.c....u...c.
007420E0 00 8B 48 18 68 B8 63 A1 00 FF D1 83 C4 04 85 F6 ..H.h.c.........
007420F0 89 35 78 DF A6 00 0F 84 5E 0D 00 00 6A 00 6A 00 .5x.....^...j.j.
00742100 56 E8 1A 31 F9 FF 83 C4 0C 85 C0 A3 48 DF A6 00 V..1........H...
00742110 0F 84 44 0D 00 00 8B 15 50 DF A6 00 01 3D B8 63 ..D.....P....=.c
00742120 A1 00 68 28 D0 8D 00 68 98 85 8C 00 68 B8 63 A1 ..h(...h....h.c.
00742130 00 68 20 D0 8D 00 52 68 10 D1 8D 00 68 14 D0 8D .h ...Rh....h...
00742140 00 68 80 53 A1 00 E8 B5 16 FC FF 83 C4 20 29 3D .h.S......... )=
00742150 B8 63 A1 00 8B F0 75 12 A1 BC 63 A1 00 8B 48 18 .c....u...c...H.
00742160 68 B8 63 A1 00 FF D1 83 C4 04 85 F6 89 35 4C E1 h.c..........5L.
00742170 A6 00 0F 84 E2 0C 00 00 6A 00 6A 00 56 E8 9E 30 ........j.j.V..0
00742180 F9 FF 83 C4 0C 85 C0 A3 04 E0 A6 00 0F 84 C8 0C ................
00742190 00 00 8B 15 50 DF A6 00 01 3D B8 63 A1 00 68 28 ....P....=.c..h(
007421A0 D0 8D 00 68 98 85 8C 00 68 B8 63 A1 00 68 20 D0 ...h....h.c..h .
007421B0 8D 00 52 68 0C D1 8D 00 68 14 D0 8D 00 68 80 53 ..Rh....h....h.S
007421C0 A1 00 E8 39 16 FC FF 83 C4 20 29 3D B8 63 A1 00 ...9..... )=.c..
007421D0 8B F0 75 12 A1 BC 63 A1 00 8B 48 18 68 B8 63 A1 ..u...c...H.h.c.
007421E0 00 FF D1 83 C4 04 85 F6 89 35 58 E0 A6 00 0F 84 .........5X.....
007421F0 66 0C 00 00 6A 00 6A 00 56 E8 22 30 F9 FF 83 C4 f...j.j.V."0....
00742200 0C 85 C0 A3 10 E1 A6 00 0F 84 4C 0C 00 00 8B 15 ..........L.....
00742210 50 DF A6 00 01 3D B8 63 A1 00 68 28 D0 8D 00 68 P....=.c..h(...h
00742220 98 85 8C 00 68 B8 63 A1 00 68 20 D0 8D 00 52 68 ....h.c..h ...Rh
00742230 08 D1 8D 00 68 14 D0 8D 00 68 80 53 A1 00 E8 BD ....h....h.S....
00742240 15 FC FF 83 C4 20 29 3D B8 63 A1 00 8B F0 75 12 ..... )=.c....u.
00742250 A1 BC 63 A1 00 8B 48 18 68 B8 63 A1 00 FF D1 83 ..c...H.h.c.....
00742260 C4 04 85 F6 89 35 68 E0 A6 00 0F 84 EA 0B 00 00 .....5h.........
00742270 6A 00 6A 00 56 E8 A6 2F F9 FF 83 C4 0C 85 C0 A3 j.j.V../........
00742280 D4 E0 A6 00 0F 84 D0 0B 00 00 8B 15 50 DF A6 00 ............P...
00742290 01 3D B8 63 A1 00 68 28 D0 8D 00 68 98 85 8C 00 .=.c..h(...h....
007422A0 68 B8 63 A1 00 68 20 D0 8D 00 52 68 04 D1 8D 00 h.c..h ...Rh....
007422B0 68 14 D0 8D 00 68 80 53 A1 00 E8 41 15 FC FF 83 h....h.S...A....
007422C0 C4 20 29 3D B8 63 A1 00 8B F0 75 12 A1 BC 63 A1 . )=.c....u...c.
007422D0 00 8B 48 18 68 B8 63 A1 00 FF D1 83 C4 04 85 F6 ..H.h.c.........
007422E0 89 35 44 E1 A6 00 0F 84 6E 0B 00 00 6A 00 6A 00 .5D.....n...j.j.
007422F0 56 E8 2A 2F F9 FF 83 C4 0C 85 C0 A3 E8 E0 A6 00 V.*/............
00742300 0F 84 54 0B 00 00 8B 15 50 DF A6 00 01 3D B8 63 ..T.....P....=.c
00742310 A1 00 68 28 D0 8D 00 68 98 85 8C 00 68 B8 63 A1 ..h(...h....h.c.
00742320 00 68 20 D0 8D 00 52 68 FC D0 8D 00 68 14 D0 8D .h ...Rh....h...
00742330 00 68 80 53 A1 00 E8 C5 14 FC FF 83 C4 20 29 3D .h.S......... )=
00742340 B8 63 A1 00 8B F0 75 12 A1 BC 63 A1 00 8B 48 18 .c....u...c...H.
00742350 68 B8 63 A1 00 FF D1 83 C4 04 85 F6 89 35 F8 E0 h.c..........5..
00742360 A6 00 0F 84 F2 0A 00 00 6A 00 6A 00 56 E8 AE 2E ........j.j.V...
00742370 F9 FF 83 C4 0C 85 C0 A3 20 E1 A6 00 0F 84 D8 0A ........ .......
00742380 00 00 8B 15 50 DF A6 00 01 3D B8 63 A1 00 68 28 ....P....=.c..h(
00742390 D0 8D 00 68 98 85 8C 00 68 B8 63 A1 00 68 20 D0 ...h....h.c..h .
007423A0 8D 00 52 68 F4 D0 8D 00 68 14 D0 8D 00 68 80 53 ..Rh....h....h.S
007423B0 A1 00 E8 49 14 FC FF 83 C4 20 29 3D B8 63 A1 00 ...I..... )=.c..
007423C0 8B F0 75 12 A1 BC 63 A1 00 8B 48 18 68 B8 63 A1 ..u...c...H.h.c.
007423D0 00 FF D1 83 C4 04 85 F6 89 35 1C E0 A6 00 0F 84 .........5......
007423E0 76 0A 00 00 6A 00 6A 00 56 E8 32 2E F9 FF 83 C4 v...j.j.V.2.....
007423F0 0C 85 C0 A3 C4 DF A6 00 0F 84 5C 0A 00 00 8B 15 ..........\.....
00742400 50 DF A6 00 01 3D B8 63 A1 00 68 28 D0 8D 00 68 P....=.c..h(...h
00742410 98 85 8C 00 68 B8 63 A1 00 68 20 D0 8D 00 52 68 ....h.c..h ...Rh
00742420 EC D0 8D 00 68 14 D0 8D 00 68 80 53 A1 00 E8 CD ....h....h.S....
00742430 13 FC FF 83 C4 20 29 3D B8 63 A1 00 8B F0 75 12 ..... )=.c....u.
00742440 A1 BC 63 A1 00 8B 48 18 68 B8 63 A1 00 FF D1 83 ..c...H.h.c.....
00742450 C4 04 85 F6 89 35 48 E0 A6 00 0F 84 FA 09 00 00 .....5H.........
00742460 6A 00 6A 00 56 E8 B6 2D F9 FF 83 C4 0C 85 C0 A3 j.j.V..-........
00742470 D0 DF A6 00 0F 84 E0 09 00 00 8B 15 50 DF A6 00 ............P...
00742480 01 3D B8 63 A1 00 68 28 D0 8D 00 68 98 85 8C 00 .=.c..h(...h....
00742490 68 B8 63 A1 00 68 20 D0 8D 00 52 68 E4 D0 8D 00 h.c..h ...Rh....
007424A0 68 14 D0 8D 00 68 80 53 A1 00 E8 51 13 FC FF 83 h....h.S...Q....
007424B0 C4 20 29 3D B8 63 A1 00 8B F0 75 12 A1 BC 63 A1 . )=.c....u...c.
007424C0 00 8B 48 18 68 B8 63 A1 00 FF D1 83 C4 04 85 F6 ..H.h.c.........
007424D0 89 35 E4 DF A6 00 0F 84 7E 09 00 00 6A 00 6A 00 .5......~...j.j.
007424E0 56 E8 3A 2D F9 FF 83 C4 0C 85 C0 A3 AC E0 A6 00 V.:-............
007424F0 0F 84 64 09 00 00 8B 15 50 DF A6 00 01 3D B8 63 ..d.....P....=.c
00742500 A1 00 68 28 D0 8D 00 68 98 85 8C 00 68 B8 63 A1 ..h(...h....h.c.
00742510 00 68 20 D0 8D 00 52 68 DC D0 8D 00 68 14 D0 8D .h ...Rh....h...
00742520 00 68 80 53 A1 00 E8 D5 12 FC FF 83 C4 20 29 3D .h.S......... )=
00742530 B8 63 A1 00 8B F0 75 12 A1 BC 63 A1 00 8B 48 18 .c....u...c...H.
00742540 68 B8 63 A1 00 FF D1 83 C4 04 85 F6 89 35 EC E0 h.c..........5..
00742550 A6 00 0F 84 02 09 00 00 6A 00 6A 00 56 E8 BE 2C ........j.j.V..,
00742560 F9 FF 83 C4 0C 85 C0 A3 40 E1 A6 00 0F 84 E8 08 ........@.......
00742570 00 00 8B 15 50 DF A6 00 01 3D B8 63 A1 00 68 28 ....P....=.c..h(
00742580 D0 8D 00 68 98 85 8C 00 68 B8 63 A1 00 68 20 D0 ...h....h.c..h .
00742590 8D 00 52 68 D0 D0 8D 00 68 14 D0 8D 00 68 80 53 ..Rh....h....h.S
007425A0 A1 00 E8 59 12 FC FF 83 C4 20 29 3D B8 63 A1 00 ...Y..... )=.c..
007425B0 8B F0 75 12 A1 BC 63 A1 00 8B 48 18 68 B8 63 A1 ..u...c...H.h.c.
007425C0 00 FF D1 83 C4 04 85 F6 89 35 FC E0 A6 00 0F 84 .........5......
007425D0 86 08 00 00 6A 00 6A 00 56 E8 42 2C F9 FF 83 C4 ....j.j.V.B,....
007425E0 0C 85 C0 A3 28 E1 A6 00 0F 84 6C 08 00 00 8B 15 ....(.....l.....
007425F0 0C E1 A6 00 01 3D B8 63 A1 00 68 28 D0 8D 00 68 .....=.c..h(...h
00742600 98 85 8C 00 68 B8 63 A1 00 68 20 D0 8D 00 52 68 ....h.c..h ...Rh
00742610 C8 D0 8D 00 68 14 D0 8D 00 68 80 53 A1 00 E8 DD ....h....h.S....
00742620 11 FC FF 83 C4 20 29 3D B8 63 A1 00 8B F0 75 12 ..... )=.c....u.
00742630 A1 BC 63 A1 00 8B 48 18 68 B8 63 A1 00 FF D1 83 ..c...H.h.c.....
00742640 C4 04 85 F6 89 35 40 E0 A6 00 0F 84 0A 08 00 00 .....5@.........
00742650 6A 00 56 33 DB E8 96 E8 FF FF 83 C4 08 85 C0 0F j.V3............
00742660 84 F5 07 00 00 8B 15 40 E0 A6 00 01 3D B8 63 A1 .......@....=.c.
00742670 00 68 28 D0 8D 00 68 98 85 8C 00 68 B8 63 A1 00 .h(...h....h.c..
00742680 68 20 D0 8D 00 52 68 C0 D0 8D 00 68 14 D0 8D 00 h ...Rh....h....
00742690 68 80 53 A1 00 E8 66 11 FC FF 83 C4 20 29 3D B8 h.S...f..... )=.
007426A0 63 A1 00 8B F0 75 12 A1 BC 63 A1 00 8B 48 18 68 c....u...c...H.h
007426B0 B8 63 A1 00 FF D1 83 C4 04 85 F6 89 35 7C DF A6 .c..........5|..
007426C0 00 0F 84 93 07 00 00 6A 00 6A 00 56 E8 4F 2B F9 .......j.j.V.O+.
007426D0 FF 83 C4 0C 85 C0 A3 64 DF A6 00 0F 84 79 07 00 .......d.....y..
007426E0 00 8B 15 40 E0 A6 00 01 3D B8 63 A1 00 68 28 D0 ...@....=.c..h(.
007426F0 8D 00 68 98 85 8C 00 68 B8 63 A1 00 68 20 D0 8D ..h....h.c..h ..
00742700 00 52 68 BC D0 8D 00 68 14 D0 8D 00 68 80 53 A1 .Rh....h....h.S.
00742710 00 E8 EA 10 FC FF 83 C4 20 29 3D B8 63 A1 00 8B ........ )=.c...
00742720 F0 75 12 A1 BC 63 A1 00 8B 48 18 68 B8 63 A1 00 .u...c...H.h.c..
00742730 FF D1 83 C4 04 85 F6 89 35 A8 E0 A6 00 0F 84 17 ........5.......
00742740 07 00 00 6A 00 6A 00 56 E8 D3 2A F9 FF 83 C4 0C ...j.j.V..*.....
00742750 85 C0 A3 5C DF A6 00 0F 84 FD 06 00 00 8B 15 40 ...\...........@
00742760 E0 A6 00 01 3D B8 63 A1 00 68 28 D0 8D 00 68 98 ....=.c..h(...h.
00742770 85 8C 00 68 B8 63 A1 00 68 20 D0 8D 00 52 68 B4 ...h.c..h ...Rh.
00742780 D0 8D 00 68 14 D0 8D 00 68 80 53 A1 00 E8 6E 10 ...h....h.S...n.
00742790 FC FF 83 C4 20 29 3D B8 63 A1 00 8B F0 75 12 A1 .... )=.c....u..
007427A0 BC 63 A1 00 8B 48 18 68 B8 63 A1 00 FF D1 83 C4 .c...H.h.c......
007427B0 04 85 F6 89 35 88 DF A6 00 0F 84 9B 06 00 00 6A ....5..........j
007427C0 00 6A 00 56 E8 57 2A F9 FF 83 C4 0C 85 C0 A3 C0 .j.V.W*.........
007427D0 DF A6 00 0F 84 81 06 00 00 8B 15 40 E0 A6 00 01 ...........@....
007427E0 3D B8 63 A1 00 68 28 D0 8D 00 68 98 85 8C 00 68 =.c..h(...h....h
007427F0 B8 63 A1 00 68 20 D0 8D 00 52 68 AC D0 8D 00 68 .c..h ...Rh....h
00742800 14 D0 8D 00 68 80 53 A1 00 E8 F2 0F FC FF 83 C4 ....h.S.........
00742810 20 29 3D B8 63 A1 00 8B F0 75 12 A1 BC 63 A1 00  )=.c....u...c..
00742820 8B 48 18 68 B8 63 A1 00 FF D1 83 C4 04 85 F6 89 .H.h.c..........
00742830 35 18 E0 A6 00 0F 84 1F 06 00 00 6A 00 6A 00 56 5..........j.j.V
00742840 E8 DB 29 F9 FF 83 C4 0C 85 C0 A3 38 E1 A6 00 0F ..)........8....
00742850 84 05 06 00 00 8B 15 0C E1 A6 00 01 3D B8 63 A1 ............=.c.
00742860 00 68 28 D0 8D 00 68 98 85 8C 00 68 B8 63 A1 00 .h(...h....h.c..
00742870 68 20 D0 8D 00 52 68 A4 D0 8D 00 68 14 D0 8D 00 h ...Rh....h....
00742880 68 80 53 A1 00 E8 76 0F FC FF 83 C4 20 29 3D B8 h.S...v..... )=.
00742890 63 A1 00 8B F0 75 12 A1 BC 63 A1 00 8B 48 18 68 c....u...c...H.h
007428A0 B8 63 A1 00 FF D1 83 C4 04 85 F6 89 35 64 E0 A6 .c..........5d..
007428B0 00 0F 84 A3 05 00 00 6A 00 56 33 DB E8 2F E6 FF .......j.V3../..
007428C0 FF 83 C4 08 85 C0 0F 84 8E 05 00 00 8B 15 64 E0 ..............d.
007428D0 A6 00 01 3D B8 63 A1 00 68 28 D0 8D 00 68 98 85 ...=.c..h(...h..
007428E0 8C 00 68 B8 63 A1 00 68 20 D0 8D 00 52 68 A0 D0 ..h.c..h ...Rh..
007428F0 8D 00 68 14 D0 8D 00 68 80 53 A1 00 E8 FF 0E FC ..h....h.S......
00742900 FF 83 C4 20 29 3D B8 63 A1 00 8B F0 75 12 A1 BC ... )=.c....u...
00742910 63 A1 00 8B 48 18 68 B8 63 A1 00 FF D1 83 C4 04 c...H.h.c.......
00742920 85 F6 89 35 6C DF A6 00 0F 84 2C 05 00 00 6A 00 ...5l.....,...j.
00742930 6A 00 56 E8 E8 28 F9 FF 83 C4 0C 85 C0 A3 98 E0 j.V..(..........
00742940 A6 00 0F 84 12 05 00 00 8B 15 64 E0 A6 00 01 3D ..........d....=
00742950 B8 63 A1 00 68 28 D0 8D 00 68 98 85 8C 00 68 B8 .c..h(...h....h.
00742960 63 A1 00 68 20 D0 8D 00 52 68 98 D0 8D 00 68 14 c..h ...Rh....h.
00742970 D0 8D 00 68 80 53 A1 00 E8 83 0E FC FF 83 C4 20 ...h.S......... 
00742980 29 3D B8 63 A1 00 8B F0 75 12 A1 BC 63 A1 00 8B )=.c....u...c...
00742990 48 18 68 B8 63 A1 00 FF D1 83 C4 04 85 F6 89 35 H.h.c..........5
007429A0 18 E1 A6 00 0F 84 B0 04 00 00 6A 00 6A 00 56 E8 ..........j.j.V.
007429B0 6C 28 F9 FF 83 C4 0C 85 C0 A3 B8 DF A6 00 0F 84 l(..............
007429C0 96 04 00 00 8B 15 64 E0 A6 00 01 3D B8 63 A1 00 ......d....=.c..
007429D0 68 28 D0 8D 00 68 98 85 8C 00 68 B8 63 A1 00 68 h(...h....h.c..h
007429E0 20 D0 8D 00 52 68 94 D0 8D 00 68 14 D0 8D 00 68  ...Rh....h....h
007429F0 80 53 A1 00 E8 07 0E FC FF 83 C4 20 29 3D B8 63 .S......... )=.c
00742A00 A1 00 8B F0 75 12 A1 BC 63 A1 00 8B 48 18 68 B8 ....u...c...H.h.
00742A10 63 A1 00 FF D1 83 C4 04 85 F6 89 35 20 E0 A6 00 c..........5 ...
00742A20 0F 84 34 04 00 00 6A 00 6A 00 56 E8 F0 27 F9 FF ..4...j.j.V..'..
00742A30 83 C4 0C 85 C0 A3 C8 E0 A6 00 0F 84 1A 04 00 00 ................
00742A40 8B 15 64 E0 A6 00 01 3D B8 63 A1 00 68 28 D0 8D ..d....=.c..h(..
00742A50 00 68 98 85 8C 00 68 B8 63 A1 00 68 20 D0 8D 00 .h....h.c..h ...
00742A60 52 68 90 D0 8D 00 68 14 D0 8D 00 68 80 53 A1 00 Rh....h....h.S..
00742A70 E8 8B 0D FC FF 83 C4 20 29 3D B8 63 A1 00 8B F0 ....... )=.c....
00742A80 75 12 A1 BC 63 A1 00 8B 48 18 68 B8 63 A1 00 FF u...c...H.h.c...
00742A90 D1 83 C4 04 85 F6 89 35 84 E0 A6 00 0F 84 B8 03 .......5........
00742AA0 00 00 6A 00 6A 00 56 E8 74 27 F9 FF 83 C4 0C 85 ..j.j.V.t'......
00742AB0 C0 A3 88 E0 A6 00 0F 84 9E 03 00 00 8B 15 64 E0 ..............d.
00742AC0 A6 00 01 3D B8 63 A1 00 68 28 D0 8D 00 68 98 85 ...=.c..h(...h..
00742AD0 8C 00 68 B8 63 A1 00 68 20 D0 8D 00 52 68 8C D0 ..h.c..h ...Rh..
00742AE0 8D 00 68 14 D0 8D 00 68 80 53 A1 00 E8 0F 0D FC ..h....h.S......
00742AF0 FF 83 C4 20 29 3D B8 63 A1 00 8B F0 75 12 A1 BC ... )=.c....u...
00742B00 63 A1 00 8B 48 18 68 B8 63 A1 00 FF D1 83 C4 04 c...H.h.c.......
00742B10 85 F6 89 35 F0 E0 A6 00 0F 84 3C 03 00 00 6A 00 ...5......<...j.
00742B20 6A 00 56 E8 F8 26 F9 FF 83 C4 0C 85 C0 A3 00 E1 j.V..&..........
00742B30 A6 00 0F 84 22 03 00 00 8B 15 64 E0 A6 00 01 3D ....".....d....=
00742B40 B8 63 A1 00 68 28 D0 8D 00 68 98 85 8C 00 68 B8 .c..h(...h....h.
00742B50 63 A1 00 68 20 D0 8D 00 52 68 88 D0 8D 00 68 14 c..h ...Rh....h.
00742B60 D0 8D 00 68 80 53 A1 00 E8 93 0C FC FF 83 C4 20 ...h.S......... 
00742B70 29 3D B8 63 A1 00 8B F0 75 12 A1 BC 63 A1 00 8B )=.c....u...c...
00742B80 48 18 68 B8 63 A1 00 FF D1 83 C4 04 85 F6 89 35 H.h.c..........5
00742B90 CC E0 A6 00 0F 84 C0 02 00 00 6A 00 6A 00 56 E8 ..........j.j.V.
00742BA0 7C 26 F9 FF 83 C4 0C 85 C0 A3 BC DF A6 00 0F 84 |&..............
00742BB0 A6 02 00 00 8B 15 64 E0 A6 00 01 3D B8 63 A1 00 ......d....=.c..
00742BC0 68 28 D0 8D 00 68 98 85 8C 00 68 B8 63 A1 00 68 h(...h....h.c..h
00742BD0 20 D0 8D 00 52 68 84 D0 8D 00 68 14 D0 8D 00 68  ...Rh....h....h
00742BE0 80 53 A1 00 E8 17 0C FC FF 83 C4 20 29 3D B8 63 .S......... )=.c
00742BF0 A1 00 8B F0 75 12 A1 BC 63 A1 00 8B 48 18 68 B8 ....u...c...H.h.
00742C00 63 A1 00 FF D1 83 C4 04 85 F6 89 35 F8 DF A6 00 c..........5....
00742C10 0F 84 44 02 00 00 6A 00 6A 00 56 E8 00 26 F9 FF ..D...j.j.V..&..
00742C20 83 C4 0C 85 C0 A3 4C E0 A6 00 0F 84 2A 02 00 00 ......L.....*...
00742C30 8B 15 64 E0 A6 00 01 3D B8 63 A1 00 68 28 D0 8D ..d....=.c..h(..
00742C40 00 68 98 85 8C 00 68 B8 63 A1 00 68 20 D0 8D 00 .h....h.c..h ...
00742C50 52 68 7C D0 8D 00 68 14 D0 8D 00 68 80 53 A1 00 Rh|...h....h.S..
00742C60 E8 9B 0B FC FF 83 C4 20 29 3D B8 63 A1 00 8B F0 ....... )=.c....
00742C70 75 12 A1 BC 63 A1 00 8B 48 18 68 B8 63 A1 00 FF u...c...H.h.c...
00742C80 D1 83 C4 04 85 F6 89 35 28 E0 A6 00 0F 84 C8 01 .......5(.......
00742C90 00 00 6A 00 6A 00 56 E8 84 25 F9 FF 83 C4 0C 85 ..j.j.V..%......
00742CA0 C0 A3 1C E1 A6 00 0F 84 AE 01 00 00 8B 15 64 E0 ..............d.
00742CB0 A6 00 01 3D B8 63 A1 00 68 28 D0 8D 00 68 98 85 ...=.c..h(...h..
00742CC0 8C 00 68 B8 63 A1 00 68 20 D0 8D 00 52 68 78 D0 ..h.c..h ...Rhx.
00742CD0 8D 00 68 14 D0 8D 00 68 80 53 A1 00 E8 1F 0B FC ..h....h.S......
00742CE0 FF 83 C4 20 29 3D B8 63 A1 00 8B F0 75 12 A1 BC ... )=.c....u...
00742CF0 63 A1 00 8B 48 18 68 B8 63 A1 00 FF D1 83 C4 04 c...H.h.c.......
00742D00 85 F6 89 35 D8 E0 A6 00 0F 84 4C 01 00 00 6A 00 ...5......L...j.
00742D10 6A 00 56 E8 08 25 F9 FF 83 C4 0C 85 C0 A3 68 DF j.V..%........h.
00742D20 A6 00 0F 84 32 01 00 00 8B 15 64 E0 A6 00 01 3D ....2.....d....=
00742D30 B8 63 A1 00 68 28 D0 8D 00 68 98 85 8C 00 68 B8 .c..h(...h....h.
00742D40 63 A1 00 68 20 D0 8D 00 52 68 70 D0 8D 00 68 14 c..h ...Rhp...h.
00742D50 D0 8D 00 68 80 53 A1 00 E8 A3 0A FC FF 83 C4 20 ...h.S......... 
00742D60 29 3D B8 63 A1 00 8B F0 75 12 A1 BC 63 A1 00 8B )=.c....u...c...
00742D70 48 18 68 B8 63 A1 00 FF D1 83 C4 04 85 F6 89 35 H.h.c..........5
00742D80 2C E0 A6 00 0F 84 D0 00 00 00 6A 00 6A 00 56 E8 ,.........j.j.V.
00742D90 8C 24 F9 FF 83 C4 0C 85 C0 A3 AC DF A6 00 0F 84 .$..............
00742DA0 B6 00 00 00 8B 15 0C E1 A6 00 6A 03 68 C4 BB A2 ..........j.h...
00742DB0 00 52 68 60 D0 8D 00 E8 74 E0 FF FF 83 C4 10 85 .Rh`....t.......
00742DC0 C0 A3 D8 DF A6 00 0F 84 8E 00 00 00 A1 0C E1 A6 ................
00742DD0 00 6A 05 68 D0 BB A2 00 50 68 50 D0 8D 00 E8 4D .j.h....PhP....M
00742DE0 E0 FF FF 83 C4 10 85 C0 A3 78 E0 A6 00 74 6B 8B .........x...tk.
00742DF0 0D 0C E1 A6 00 6A 04 68 E4 BB A2 00 51 68 44 D0 .....j.h....QhD.
00742E00 8D 00 E8 29 E0 FF FF 83 C4 10 85 C0 A3 54 E0 A6 ...).........T..
00742E10 00 74 47 8B 15 0C E1 A6 00 6A 02 68 F4 BB A2 00 .tG......j.h....
00742E20 52 68 3C D0 8D 00 E8 05 E0 FF FF 83 C4 10 85 C0 Rh<.............
00742E30 A3 90 E0 A6 00 74 23 A1 0C E1 A6 00 6A 02 68 FC .....t#.....j.h.
00742E40 BB A2 00 50 68 14 34 8C 00 E8 E2 DF FF FF 83 C4 ...Ph.4.........
00742E50 10 85 C0 A3 10 E0 A6 00 75 06 5B 5F 33 C0 5E C3 ........u.[_3.^.
00742E60 5B 89 3D 40 DF A6 00 8B C7 5F 5E C3 CC CC CC CC [.=@....._^.....
